******************************************************************************
         TMS320C55x COFF Linker PC v3.3.2                      
******************************************************************************
>> Linked Tue Sep 29 14:56:24 2009

OUTPUT FILE NAME:   <./Debug/Fir.out>
ENTRY POINT SYMBOL: "_c_int00"  address: 00000100


MEMORY CONFIGURATION

         name            origin    length      used     unused   attr    fill
                        (bytes)   (bytes)    (bytes)   (bytes)
----------------------  --------  ---------  --------  --------  ----  --------
  DARAM                 00000100   00007f00  00003283  00004c7d  RWIX
  VECT                  00008000   00000100  00000100  00000000  RWIX
  DARAM2                00008100   00007f00  00001c96  0000626a  RWIX
  SARAM                 00010000   00030000  00000000  00030000  RWIX
  SDRAM                 00040000   003e0000  00000000  003e0000  RWIX


SECTION ALLOCATION MAP
(Addresses surrounded by []'s are displayed for convenience only!)

output                                                          attributes/
section   page  orgn(bytes) orgn(words) len(bytes) len(words)   input sections
--------  ----  ----------- ----------- ---------- ----------   --------------
.data        0   [ 00000000 ]  00000000          *   00000000   UNINITIALIZED

.trcinit     0   [ 00000100 ]  00000080          *   00000000   UNINITIALIZED

.gblinit     0   [ 00000100 ]  00000080          *   00000000   UNINITIALIZED

frt          0   [ 00000100 ]  00000080          *   00000000   UNINITIALIZED

.pinit       0   [ 00000100 ]  00000080          *   00000000   UNINITIALIZED

.sysinit     0   [ 00000100 ]  00000080          *   00000000   UNINITIALIZED

.text        0     00000100  [ 00000080 ] 00002afb          *   
                   00000100  [ 00000080 ] 0000003b          *   rts55x.lib : boot.obj (.text)
                   0000013b  [ 0000009d+] 000000b6          *              : exit.obj (.text)
                   000001f1  [ 000000f8+] 00000007          *              : exit.obj (.text:CIO_breakpoint)
                   000001f8  [ 000000fc ] 00000002          *              : vectors.obj (.text)
                   000001fa  [ 000000fd ] 00000012          *              : _lock.obj (.text)
                   0000020c  [ 00000106 ] 0000003c          *              : args_main.obj (.text)
                   00000248  [ 00000124 ] 00000062          *              : autoinit.obj (.text)
                   000002aa  [ 00000155 ] 000016fe          *   FFT.obj (.text)
                   000019a8  [ 00000cd4 ] 0000021b          *   rts55x.lib : addd.obj (.text)
                   00001bc3  [ 00000de1+] 00000226          *              : cos.obj (.text)
                   00001de9  [ 00000ef4+] 000000e3          *              : divd.obj (.text)
                   00001ecc  [ 00000f66 ] 0000002a          *              : fixdi.obj (.text)
                   00001ef6  [ 00000f7b ] 00000079          *              : fixdli.obj (.text)
                   00001f6f  [ 00000fb7+] 0000001b          *              : fixdu.obj (.text)
                   00001f8a  [ 00000fc5 ] 00000076          *              : fixdul.obj (.text)
                   00002000  [ 00001000 ] 0000000c          *              : fltid.obj (.text)
                   0000200c  [ 00001006 ] 00000071          *              : fltlid.obj (.text)
                   0000207d  [ 0000103e+] 0000000e          *              : fltud.obj (.text)
                   0000208b  [ 00001045+] 00000067          *              : fltuld.obj (.text)
                   000020f2  [ 00001079 ] 000000d1          *              : frcdivd.obj (.text)
                   000021c3  [ 000010e1+] 00000013          *              : lmpy.obj (.text)
                   000021d6  [ 000010eb ] 000000bf          *              : modf.obj (.text)
                   00002295  [ 0000114a+] 000000fa          *              : mpyd.obj (.text)
                   0000238f  [ 000011c7+] 00000010          *              : negd.obj (.text)
                   0000239f  [ 000011cf+] 000000c1          *              : round.obj (.text)
                   00002460  [ 00001230 ] 00000200          *              : sin.obj (.text)
                   00002660  [ 00001330 ] 000000fb          *              : sqrt.obj (.text)
                   0000275b  [ 000013ad+] 00000014          *              : subd.obj (.text)
                   0000276f  [ 000013b7+] 00000041          *              : trunc.obj (.text)
                   000027b0  [ 000013d8 ] 00000212          *              : cmpd.obj (.text)
                   000029c2  [ 000014e1 ] 00000076          *              : frcmpyd.obj (.text)
                   00002a38  [ 0000151c ] 000000cc          *              : frexp.obj (.text)
                   00002b04  [ 00001582 ] 000000f6          *              : ldexp.obj (.text)
                   00002bfa  [ 000015fd ] 00000001          *   --HOLE-- [fill = 20]

.cinit       0   [ 00002bfc ]  000015fe          *   000003c4   
                 [ 00002bfc ]  000015fe          *   00000391   FFT.obj (.cinit)
                 [ 0000331e ]  0000198f          *   0000000e   rts55x.lib : exit.obj (.cinit)
                 [ 0000333a ]  0000199d          *   0000000b              : sin.obj (.cinit)
                 [ 00003350 ]  000019a8          *   0000000b              : cos.obj (.cinit)
                 [ 00003366 ]  000019b3          *   0000000a              : _lock.obj (.cinit)
                 [ 0000337a ]  000019bd          *   00000004              : errno.obj (.cinit)
                 [ 00003382 ]  000019c1          *   00000001   --HOLE-- [fill = 0]

.vectors     0   [ 00008000 ]  00004000          *   00000000   UNINITIALIZED

vectors      0     00008000  [ 00004000 ] 00000100          *   
                   00008000  [ 00004000 ] 00000100          *   rts55x.lib : vectors.obj (vectors)

.far         0   [ 00008100 ]  00004080          *   00000000   UNINITIALIZED

.switch      0   [ 00008100 ]  00004080          *   00000000   UNINITIALIZED

.sysmem      0   [ 00008100 ]  00004080          *   00000000   UNINITIALIZED

.cio         0   [ 00008100 ]  00004080          *   00000000   UNINITIALIZED

.MEM$obj     0   [ 00008100 ]  00004080          *   00000000   UNINITIALIZED

.sysheap     0   [ 00008100 ]  00004080          *   00000000   UNINITIALIZED

.bss         0   [ 00008100 ]  00004080          *   00000bf1   UNINITIALIZED
                 [ 00008100 ]  00004080          *   00000b96   FFT.obj (.bss)
                 [ 0000982c ]  00004c16          *   00000046   rts55x.lib : exit.obj (.bss)
                 [ 000098b8 ]  00004c5c          *   00000008              : sin.obj (.bss)
                 [ 000098c8 ]  00004c64          *   00000008              : cos.obj (.bss)
                 [ 000098d8 ]  00004c6c          *   00000004              : _lock.obj (.bss)
                 [ 000098e0 ]  00004c70          *   00000001              : errno.obj (.bss)

.sysstack 
*            0   [ 000098e4 ]  00004c72          *   000000fa   UNINITIALIZED

.stack       0   [ 00009ad8 ]  00004d6c          *   000000fa   UNINITIALIZED

.const       0   [ 00009ccc ]  00004e66          *   00000066   
                 [ 00009ccc ]  00004e66          *   00000016   rts55x.lib : cos.obj (.const)
                 [ 00009cf8 ]  00004e7c          *   00000014              : sin.obj (.const)
                 [ 00009d20 ]  00004e90          *   0000000a              : sqrt.obj (.const)
                 [ 00009d34 ]  00004e9a          *   0000000a   FFT.obj (.const)
                 [ 00009d48 ]  00004ea4          *   0000000a   rts55x.lib : ldexp.obj (.const)
                 [ 00009d5c ]  00004eae          *   00000008              : frexp.obj (.const)
                 [ 00009d6c ]  00004eb6          *   00000008              : round.obj (.const)
                 [ 00009d7c ]  00004ebe          *   00000006              : modf.obj (.const)
                 [ 00009d88 ]  00004ec4          *   00000004              : trunc.obj (.const)
                 [ 00009d90 ]  00004ec8          *   00000002              : fltlid.obj (.const)
                 [ 00009d94 ]  00004eca          *   00000002              : fltuld.obj (.const)


GLOBAL SYMBOLS: SORTED ALPHABETICALLY BY Name 

abs. value/
byte addr   word addr   name
---------   ---------   ----
00000002                $TI_capability$C5500$MemoryModel
00000001                $TI_capability_requires_rev2
            00004080    .bss
            00000000    .data
00000100                .text
000001f2                C$$EXIT
000021c3                I$$LMPY
            00004091    _ADCCLKCTL1
            00004090    _ADCCLKDIV1
            0000408e    _ADCCTL1
            0000408f    _ADCDATA1
000002e3                _CloseCTR
00000359                _ConvertScanToChar
            00004695    _DATA
000004fd                _Delay
00000546                _Delay1
00001402                _FFT
0000033a                _GetKey
            00004615    _INPUT
0000045b                _InitCTR
000018ad                _InitForFFT
00000665                _LCDCLS
0000031f                _LCDCMD
00000f4a                _LCDDrawGraph
00000cfa                _LCDDrawLine
00000f23                _LCDGraph
00000f32                _LCDGraph2
00001276                _LCDPutCString
00000c00                _LCDPutPixel
0000087c                _LCDPutString
00000a20                _LCDRefreshScreen
000002aa                _LCDSetDelay
000002b9                _LCDSetOrigin
000002d1                _LCDSetScreenBuffer
000011ec                _LCDWriteBytes
00000622                _LCDWriteLeft
0000063d                _LCDWriteRight
0000193c                _MakeWave
            00004094    _PCR_0
            00004096    _PCR_1
            00004098    _PCR_2
00000596                _RefreshLEDArray
00008000                _Reset
            00004093    _SPCR10
            00004097    _SPCR12
            00004092    _SPCR20
            00004095    _SPCR21
000005db                _SetLEDArray
0000093b                _ShowTitle
00000658                _TurnOnLCD
000004d3                __Delay
000007f4                __LCDCLS
000001f4                __STACK_SIZE
000001f4                __SYSSTACK_SIZE
ffffffff                ___binit__
            00004080    ___bss__
ffffffff                ___c_args__
            000015fe    ___cinit__
            00000000    ___data__
            00000000    ___edata__
            00004c71    ___end__
00002bfb                ___etext__
ffffffff                ___pinit__
00000100                ___text__
000019a8                __addd
0000020c                __args_main
            00004088    __bRefreshMode
            00004c58    __cleanup_ptr
00002982                __cmpd
00001de9                __divd
            00004c5a    __dtors_ptr
00002944                __eqld
00001ecc                __fixdi
00001ef6                __fixdli
00001f6f                __fixdu
00001f8a                __fixdul
00002000                __fltid
0000200c                __fltlid
0000207d                __fltud
0000208b                __fltuld
000020f2                __frcdivd
000029c2                __frcmpyd
000028ef                __geqd
00002899                __gtrd
00002841                __leqd
            00004c6c    __lock
000027ee                __lssd
00002295                __mpyd
000021c3                __mpyli
            00004089    __nLCDDelay
            00004080    __nOriginX
            00004081    __nOriginY
            0000408a    __nScreenX0
            0000408b    __nScreenX1
            0000408c    __nScreenY0
            0000408d    __nScreenY1
            00004084    __nXLength
            00004086    __nXWord
            00004085    __nYLength
            00004087    __nYWord
0000238f                __negd
000027b0                __neqd
0000020a                __nop
0000239f                __nround
            00004082    __pScreen
00000202                __register_lock
000001fa                __register_unlock
            00004d6c    __stack
0000275b                __subd
            00004c72    __sysstack
0000276f                __trunc
            00004c6e    __unlock
000001f1                _abort
0000019b                _atexit
00000248                _auto_init
00000100                _c_int00
00001bc3                _cos
            00004b16    _cos_tab
            00004614    _dbClearKey
            00004c70    _errno
0000013b                _exit
            00004816    _fWaveI
            00004716    _fWaveR
00002a38                _frexp
            0000409b    _k0
            0000409c    _k1
00002b04                _ldexp
            00004544    _ledbuf
            00004554    _ledkey
            00004314    _ledkey1
            0000454c    _ledx
00001331                _main
000021d6                _modf
            000045a4    _music
            0000409d    _nAD
            0000409e    _nADBuf1
            00004134    _nADBuf2
            000041ca    _nAddStep
            000041cd    _nCount
            000041ce    _nCount1
            000041cf    _nDir
            000041d0    _nGraphBuf1
            00004266    _nGraphBuf2
            000041cb    _nStep
            0000460c    _pwm
00002460                _sin
            00004a16    _sin_tab
00002660                _sqrt
            0000436c    _str1
            00004504    _str10
            00004524    _str12
            000043ac    _str2
            000043fc    _str3
            00004414    _str4
            00004444    _str5
            00004464    _str6
            00004484    _str8
            000044e4    _str9
            000042fc    _uLed
            000041cc    _uN
            00004099    _uWork0
            0000409a    _uWork1
            00004916    _w
ffffffff                binit
            000015fe    cinit
            00000000    edata
            00004c71    end
00002bfb                etext
ffffffff                pinit


GLOBAL SYMBOLS: SORTED BY Symbol Address 

abs. value/
byte addr   word addr   name
---------   ---------   ----
            00000000    .data
            00000000    ___edata__
            00000000    ___data__
            00000000    edata
00000001                $TI_capability_requires_rev2
00000002                $TI_capability$C5500$MemoryModel
00000100                _c_int00
00000100                ___text__
00000100                .text
0000013b                _exit
0000019b                _atexit
000001f1                _abort
000001f2                C$$EXIT
000001f4                __SYSSTACK_SIZE
000001f4                __STACK_SIZE
000001fa                __register_unlock
00000202                __register_lock
0000020a                __nop
0000020c                __args_main
00000248                _auto_init
000002aa                _LCDSetDelay
000002b9                _LCDSetOrigin
000002d1                _LCDSetScreenBuffer
000002e3                _CloseCTR
0000031f                _LCDCMD
0000033a                _GetKey
00000359                _ConvertScanToChar
0000045b                _InitCTR
000004d3                __Delay
000004fd                _Delay
00000546                _Delay1
00000596                _RefreshLEDArray
000005db                _SetLEDArray
00000622                _LCDWriteLeft
0000063d                _LCDWriteRight
00000658                _TurnOnLCD
00000665                _LCDCLS
000007f4                __LCDCLS
0000087c                _LCDPutString
0000093b                _ShowTitle
00000a20                _LCDRefreshScreen
00000c00                _LCDPutPixel
00000cfa                _LCDDrawLine
00000f23                _LCDGraph
00000f32                _LCDGraph2
00000f4a                _LCDDrawGraph
000011ec                _LCDWriteBytes
00001276                _LCDPutCString
00001331                _main
00001402                _FFT
000018ad                _InitForFFT
0000193c                _MakeWave
000019a8                __addd
00001bc3                _cos
00001de9                __divd
00001ecc                __fixdi
00001ef6                __fixdli
00001f6f                __fixdu
00001f8a                __fixdul
00002000                __fltid
0000200c                __fltlid
0000207d                __fltud
0000208b                __fltuld
000020f2                __frcdivd
000021c3                __mpyli
000021c3                I$$LMPY
000021d6                _modf
00002295                __mpyd
0000238f                __negd
0000239f                __nround
00002460                _sin
00002660                _sqrt
0000275b                __subd
0000276f                __trunc
000027b0                __neqd
000027ee                __lssd
00002841                __leqd
00002899                __gtrd
000028ef                __geqd
00002944                __eqld
00002982                __cmpd
000029c2                __frcmpyd
00002a38                _frexp
00002b04                _ldexp
00002bfb                ___etext__
00002bfb                etext
            000015fe    ___cinit__
            000015fe    cinit
00008000                _Reset
            00004080    __nOriginX
            00004080    .bss
            00004080    ___bss__
            00004081    __nOriginY
            00004082    __pScreen
            00004084    __nXLength
            00004085    __nYLength
            00004086    __nXWord
            00004087    __nYWord
            00004088    __bRefreshMode
            00004089    __nLCDDelay
            0000408a    __nScreenX0
            0000408b    __nScreenX1
            0000408c    __nScreenY0
            0000408d    __nScreenY1
            0000408e    _ADCCTL1
            0000408f    _ADCDATA1
            00004090    _ADCCLKDIV1
            00004091    _ADCCLKCTL1
            00004092    _SPCR20
            00004093    _SPCR10
            00004094    _PCR_0
            00004095    _SPCR21
            00004096    _PCR_1
            00004097    _SPCR12
            00004098    _PCR_2
            00004099    _uWork0
            0000409a    _uWork1
            0000409b    _k0
            0000409c    _k1
            0000409d    _nAD
            0000409e    _nADBuf1
            00004134    _nADBuf2
            000041ca    _nAddStep
            000041cb    _nStep
            000041cc    _uN
            000041cd    _nCount
            000041ce    _nCount1
            000041cf    _nDir
            000041d0    _nGraphBuf1
            00004266    _nGraphBuf2
            000042fc    _uLed
            00004314    _ledkey1
            0000436c    _str1
            000043ac    _str2
            000043fc    _str3
            00004414    _str4
            00004444    _str5
            00004464    _str6
            00004484    _str8
            000044e4    _str9
            00004504    _str10
            00004524    _str12
            00004544    _ledbuf
            0000454c    _ledx
            00004554    _ledkey
            000045a4    _music
            0000460c    _pwm
            00004614    _dbClearKey
            00004615    _INPUT
            00004695    _DATA
            00004716    _fWaveR
            00004816    _fWaveI
            00004916    _w
            00004a16    _sin_tab
            00004b16    _cos_tab
            00004c58    __cleanup_ptr
            00004c5a    __dtors_ptr
            00004c6c    __lock
            00004c6e    __unlock
            00004c70    _errno
            00004c71    end
            00004c71    ___end__
            00004c72    __sysstack
            00004d6c    __stack
ffffffff                pinit
ffffffff                ___c_args__
ffffffff                ___binit__
ffffffff                binit
ffffffff                ___pinit__

[169 symbols]
