TMS320C55x Assembler PC v4.4.1 Wed Sep 13 16:33:14 2017

Tools Copyright (c) 1996-2012 Texas Instruments Incorporated
C:\Users\a0221074\AppData\Local\Temp\0730410                         PAGE    1

    5883              ; Temporary Registers Used: None
       1              ;*******************************************************************************
       2              ;* TMS320C55x C/C++ Codegen                                          PC v4.4.1 *
       3              ;* Date/Time created: Wed Sep 13 16:33:11 2017                                 *
       4              ;*******************************************************************************
       5                      .compiler_opts --hll_source=on --mem_model:code=flat --mem_model:data=huge --object_format=coff --sil
       6                      .mmregs
       7                      .cpl_on
       8                      .arms_on
       9                      .c54cm_off
      10                      .asg AR6, FP
      11                      .asg XAR6, XFP
      12                      .asg DPH, MDP
      13                      .model call=c55_std
      14                      .model mem=huge
      15                      .noremark 5002  ; code respects overwrite rules
      16              ;*******************************************************************************
      17              ;* GLOBAL FILE PARAMETERS                                                      *
      18              ;*                                                                             *
      19              ;*   Architecture       : TMS320C55x                                           *
      20              ;*   Optimizing for     : Speed                                                *
      21              ;*   Memory             : Huge Model (23-Bit Data Pointers)                    *
      22              ;*   Calls              : Normal Library ASM calls                             *
      23              ;*   Debug Info         : Standard TI Debug Information                        *
      24              ;*******************************************************************************
      25              
      26              $C$DW$CU        .dwtag  DW_TAG_compile_unit
      27                      .dwattr $C$DW$CU, DW_AT_name("C:/Users/a0221074/Desktop/C5000/IBM_Watson_TIdesign_workarea/CSL_bitbuc
      28                      .dwattr $C$DW$CU, DW_AT_producer("TMS320C55x C/C++ Codegen PC v4.4.1 Copyright (c) 1996-2012 Texas In
      29                      .dwattr $C$DW$CU, DW_AT_TI_version(0x01)
      30                      .dwattr $C$DW$CU, DW_AT_comp_dir("C:\Users\a0221074\Desktop\C5000\IBM_Watson_TIdesign_workarea\CSL_bi
      31              
      32              $C$DW$1 .dwtag  DW_TAG_subprogram, DW_AT_name("abs")
      33                      .dwattr $C$DW$1, DW_AT_TI_symbol_name("_abs")
      34                      .dwattr $C$DW$1, DW_AT_type(*$C$DW$T$10)
      35                      .dwattr $C$DW$1, DW_AT_declaration
      36                      .dwattr $C$DW$1, DW_AT_external
      37              $C$DW$2 .dwtag  DW_TAG_formal_parameter
      38                      .dwattr $C$DW$2, DW_AT_type(*$C$DW$T$10)
      39                      .dwendtag $C$DW$1
      40              
      41 000000               .sect   ".const:_coef_powpoly"
      42                      .clink
      43                      .align  1
      44 000000       _coef_powpoly:
      45 000000 0004          .field  4,16                    ; _coef_powpoly[0] @ 0
      46 000001 0014          .field  20,16                   ; _coef_powpoly[1] @ 16
      47 000002 009F          .field  159,16                  ; _coef_powpoly[2] @ 32
      48 000003 038D          .field  909,16                  ; _coef_powpoly[3] @ 48
      49 000004 0F60          .field  3936,16                 ; _coef_powpoly[4] @ 64
      50 000005 2C5D          .field  11357,16                        ; _coef_powpoly[5] @ 80
      51 000006 4000          .field  16384,16                        ; _coef_powpoly[6] @ 96
      52              
      53              $C$DW$3 .dwtag  DW_TAG_variable, DW_AT_name("coef_powpoly")
      54                      .dwattr $C$DW$3, DW_AT_TI_symbol_name("_coef_powpoly")
TMS320C55x Assembler PC v4.4.1 Wed Sep 13 16:33:14 2017

Tools Copyright (c) 1996-2012 Texas Instruments Incorporated
C:\Users\a0221074\AppData\Local\Temp\0730410                         PAGE    2

      55                      .dwattr $C$DW$3, DW_AT_type(*$C$DW$T$93)
      56                      .dwattr $C$DW$3, DW_AT_location[DW_OP_addr _coef_powpoly]
      57                      .global _coef_logpoly
      58 000000               .sect   ".const:_coef_logpoly"
      59                      .clink
      60                      .align  1
      61 000000       _coef_logpoly:
      62 000000 FCF3          .field  -781,16                 ; _coef_logpoly[0] @ 0
      63 000001 14DA          .field  5338,16                 ; _coef_logpoly[1] @ 16
      64 000002 C0CA          .field  -16182,16                       ; _coef_logpoly[2] @ 32
      65 000003 6FDD          .field  28637,16                        ; _coef_logpoly[3] @ 48
      66 000004 8000          .field  -32768,16                       ; _coef_logpoly[4] @ 64
      67 000005 634B          .field  25419,16                        ; _coef_logpoly[5] @ 80
      68 000006 CA39          .field  -13767,16                       ; _coef_logpoly[6] @ 96
      69 000007 1608          .field  5640,16                 ; _coef_logpoly[7] @ 112
      70 000008 FA00          .field  -1536,16                        ; _coef_logpoly[8] @ 128
      71              
      72              $C$DW$4 .dwtag  DW_TAG_variable, DW_AT_name("coef_logpoly")
      73                      .dwattr $C$DW$4, DW_AT_TI_symbol_name("_coef_logpoly")
      74                      .dwattr $C$DW$4, DW_AT_location[DW_OP_addr _coef_logpoly]
      75                      .dwattr $C$DW$4, DW_AT_type(*$C$DW$T$94)
      76                      .dwattr $C$DW$4, DW_AT_external
      77 000000               .sect   ".const:_$P$T0$1"
      78                      .clink
      79                      .align  1
      80 000000       _$P$T0$1:
      81 000000 009E          .field  158,16                  ; _$P$T0$1[0] @ 0
      82 000001 038D          .field  909,16                  ; _$P$T0$1[1] @ 16
      83 000002 0F60          .field  3936,16                 ; _$P$T0$1[2] @ 32
      84 000003 2C5D          .field  11357,16                        ; _$P$T0$1[3] @ 48
      85 000004 4000          .field  16384,16                        ; _$P$T0$1[4] @ 64
      86              
      87              $C$DW$5 .dwtag  DW_TAG_variable, DW_AT_name("$P$T0$1")
      88                      .dwattr $C$DW$5, DW_AT_TI_symbol_name("_$P$T0$1")
      89                      .dwattr $C$DW$5, DW_AT_type(*$C$DW$T$95)
      90                      .dwattr $C$DW$5, DW_AT_location[DW_OP_addr _$P$T0$1]
      91 000000               .sect   ".const:_$P$T1$2"
      92                      .clink
      93                      .align  1
      94 000000       _$P$T1$2:
      95 000000 F8F7          .field  -1801,16                        ; _$P$T1$2[0] @ 0
      96 000001 1BC0          .field  7104,16                 ; _$P$T1$2[1] @ 16
      97 000002 C48C          .field  -15220,16                       ; _$P$T1$2[2] @ 32
      98 000003 7F6F          .field  32623,16                        ; _$P$T1$2[3] @ 48
      99 000004 0004          .field  4,16                    ; _$P$T1$2[4] @ 64
     100              
     101              $C$DW$6 .dwtag  DW_TAG_variable, DW_AT_name("$P$T1$2")
     102                      .dwattr $C$DW$6, DW_AT_TI_symbol_name("_$P$T1$2")
     103                      .dwattr $C$DW$6, DW_AT_type(*$C$DW$T$95)
     104                      .dwattr $C$DW$6, DW_AT_location[DW_OP_addr _$P$T1$2]
     105              ;       C:\ti\ccsv7\tools\compiler\c5500_4.4.1\bin\acp55.exe -@C:\\Users\\a0221074\\AppData\\Local\\Temp\\073
     106 000000               .sect   ".text:_hlr_gauss_obs_score_f"
     107                      .clink
     108                      .global _hlr_gauss_obs_score_f
     109              
TMS320C55x Assembler PC v4.4.1 Wed Sep 13 16:33:14 2017

Tools Copyright (c) 1996-2012 Texas Instruments Incorporated
C:\Users\a0221074\AppData\Local\Temp\0730410                         PAGE    3

     110              $C$DW$7 .dwtag  DW_TAG_subprogram, DW_AT_name("hlr_gauss_obs_score_f")
     111                      .dwattr $C$DW$7, DW_AT_low_pc(_hlr_gauss_obs_score_f)
     112                      .dwattr $C$DW$7, DW_AT_high_pc(0x00)
     113                      .dwattr $C$DW$7, DW_AT_TI_symbol_name("_hlr_gauss_obs_score_f")
     114                      .dwattr $C$DW$7, DW_AT_external
     115                      .dwattr $C$DW$7, DW_AT_type(*$C$DW$T$8)
     116                      .dwattr $C$DW$7, DW_AT_TI_begin_file("C:/Users/a0221074/Desktop/C5000/IBM_Watson_TIdesign_workarea/CS
     117                      .dwattr $C$DW$7, DW_AT_TI_begin_line(0x3a)
     118                      .dwattr $C$DW$7, DW_AT_TI_begin_column(0x26)
     119                      .dwattr $C$DW$7, DW_AT_TI_max_frame_size(0x24)
     120                      .dwpsn  file "C:/Users/a0221074/Desktop/C5000/IBM_Watson_TIdesign_workarea/CSL_bitbucket/c55_csl/c55x
     121              
     122                      .dwfde $C$DW$CIE, _hlr_gauss_obs_score_f
     123              $C$DW$8 .dwtag  DW_TAG_formal_parameter, DW_AT_name("feature")
     124                      .dwattr $C$DW$8, DW_AT_TI_symbol_name("_feature")
     125                      .dwattr $C$DW$8, DW_AT_type(*$C$DW$T$54)
     126                      .dwattr $C$DW$8, DW_AT_location[DW_OP_reg17]
     127              $C$DW$9 .dwtag  DW_TAG_formal_parameter, DW_AT_name("pdf_idx")
     128                      .dwattr $C$DW$9, DW_AT_TI_symbol_name("_pdf_idx")
     129                      .dwattr $C$DW$9, DW_AT_type(*$C$DW$T$10)
     130                      .dwattr $C$DW$9, DW_AT_location[DW_OP_reg12]
     131              $C$DW$10        .dwtag  DW_TAG_formal_parameter, DW_AT_name("type")
     132                      .dwattr $C$DW$10, DW_AT_TI_symbol_name("_type")
     133                      .dwattr $C$DW$10, DW_AT_type(*$C$DW$T$92)
     134                      .dwattr $C$DW$10, DW_AT_location[DW_OP_reg13]
     135              $C$DW$11        .dwtag  DW_TAG_formal_parameter, DW_AT_name("comp")
     136                      .dwattr $C$DW$11, DW_AT_TI_symbol_name("_comp")
     137                      .dwattr $C$DW$11, DW_AT_type(*$C$DW$T$21)
     138                      .dwattr $C$DW$11, DW_AT_location[DW_OP_reg19]
     139              $C$DW$12        .dwtag  DW_TAG_formal_parameter, DW_AT_name("n_dim")
     140                      .dwattr $C$DW$12, DW_AT_TI_symbol_name("_n_dim")
     141                      .dwattr $C$DW$12, DW_AT_type(*$C$DW$T$53)
     142                      .dwattr $C$DW$12, DW_AT_location[DW_OP_reg20]
     143              $C$DW$13        .dwtag  DW_TAG_formal_parameter, DW_AT_name("gv")
     144                      .dwattr $C$DW$13, DW_AT_TI_symbol_name("_gv")
     145                      .dwattr $C$DW$13, DW_AT_type(*$C$DW$T$99)
     146                      .dwattr $C$DW$13, DW_AT_location[DW_OP_reg23]
     147              ;*******************************************************************************
     148              ;* FUNCTION NAME: hlr_gauss_obs_score_f                                        *
     149              ;*                                                                             *
     150              ;*   Function Uses Regs : AC0,AC0,AC1,AC1,T0,T1,AR0,XAR0,AR1,XAR1,AR2,XAR2,AR3,*
     151              ;*                        XAR3,SP,CARRY,TC1,M40,SATA,SATD,RDM,FRCT,SMUL        *
     152              ;*   Stack Frame        : Compact (No Frame Pointer, w/ debug)                 *
     153              ;*   Total Frame Size   : 36 words                                             *
     154              ;*                        (1 return address/alignment)                         *
     155              ;*                        (35 local values)                                    *
     156              ;*   Min System Stack   : 1 word                                               *
     157              ;*******************************************************************************
     158 000000       _hlr_gauss_obs_score_f:
     159                      .dwcfi  cfa_offset, 1
     160                      .dwcfi  save_reg_to_mem, 91, -1
     161 000000 4EDD          AADD #-35, SP
     162                      .dwcfi  cfa_offset, 36
     163              $C$DW$14        .dwtag  DW_TAG_variable, DW_AT_name("feature")
     164                      .dwattr $C$DW$14, DW_AT_TI_symbol_name("_feature")
TMS320C55x Assembler PC v4.4.1 Wed Sep 13 16:33:14 2017

Tools Copyright (c) 1996-2012 Texas Instruments Incorporated
C:\Users\a0221074\AppData\Local\Temp\0730410                         PAGE    4

     165                      .dwattr $C$DW$14, DW_AT_type(*$C$DW$T$54)
     166                      .dwattr $C$DW$14, DW_AT_location[DW_OP_bregx 0x24 0]
     167              $C$DW$15        .dwtag  DW_TAG_variable, DW_AT_name("pdf_idx")
     168                      .dwattr $C$DW$15, DW_AT_TI_symbol_name("_pdf_idx")
     169                      .dwattr $C$DW$15, DW_AT_type(*$C$DW$T$10)
     170                      .dwattr $C$DW$15, DW_AT_location[DW_OP_bregx 0x24 2]
     171              $C$DW$16        .dwtag  DW_TAG_variable, DW_AT_name("type")
     172                      .dwattr $C$DW$16, DW_AT_TI_symbol_name("_type")
     173                      .dwattr $C$DW$16, DW_AT_type(*$C$DW$T$92)
     174                      .dwattr $C$DW$16, DW_AT_location[DW_OP_bregx 0x24 3]
     175              $C$DW$17        .dwtag  DW_TAG_variable, DW_AT_name("comp")
     176                      .dwattr $C$DW$17, DW_AT_TI_symbol_name("_comp")
     177                      .dwattr $C$DW$17, DW_AT_type(*$C$DW$T$21)
     178                      .dwattr $C$DW$17, DW_AT_location[DW_OP_bregx 0x24 4]
     179              $C$DW$18        .dwtag  DW_TAG_variable, DW_AT_name("n_dim")
     180                      .dwattr $C$DW$18, DW_AT_TI_symbol_name("_n_dim")
     181                      .dwattr $C$DW$18, DW_AT_type(*$C$DW$T$53)
     182                      .dwattr $C$DW$18, DW_AT_location[DW_OP_bregx 0x24 6]
     183              $C$DW$19        .dwtag  DW_TAG_variable, DW_AT_name("gv")
     184                      .dwattr $C$DW$19, DW_AT_TI_symbol_name("_gv")
     185                      .dwattr $C$DW$19, DW_AT_type(*$C$DW$T$99)
     186                      .dwattr $C$DW$19, DW_AT_location[DW_OP_bregx 0x24 8]
     187              $C$DW$20        .dwtag  DW_TAG_variable, DW_AT_name("i")
     188                      .dwattr $C$DW$20, DW_AT_TI_symbol_name("_i")
     189                      .dwattr $C$DW$20, DW_AT_type(*$C$DW$T$8)
     190                      .dwattr $C$DW$20, DW_AT_location[DW_OP_bregx 0x24 10]
     191              $C$DW$21        .dwtag  DW_TAG_variable, DW_AT_name("scr")
     192                      .dwattr $C$DW$21, DW_AT_TI_symbol_name("_scr")
     193                      .dwattr $C$DW$21, DW_AT_type(*$C$DW$T$12)
     194                      .dwattr $C$DW$21, DW_AT_location[DW_OP_bregx 0x24 12]
     195              $C$DW$22        .dwtag  DW_TAG_variable, DW_AT_name("total_scr")
     196                      .dwattr $C$DW$22, DW_AT_TI_symbol_name("_total_scr")
     197                      .dwattr $C$DW$22, DW_AT_type(*$C$DW$T$8)
     198                      .dwattr $C$DW$22, DW_AT_location[DW_OP_bregx 0x24 14]
     199              $C$DW$23        .dwtag  DW_TAG_variable, DW_AT_name("n_mix")
     200                      .dwattr $C$DW$23, DW_AT_TI_symbol_name("_n_mix")
     201                      .dwattr $C$DW$23, DW_AT_type(*$C$DW$T$8)
     202                      .dwattr $C$DW$23, DW_AT_location[DW_OP_bregx 0x24 15]
     203              $C$DW$24        .dwtag  DW_TAG_variable, DW_AT_name("p2wgt")
     204                      .dwattr $C$DW$24, DW_AT_TI_symbol_name("_p2wgt")
     205                      .dwattr $C$DW$24, DW_AT_type(*$C$DW$T$21)
     206                      .dwattr $C$DW$24, DW_AT_location[DW_OP_bregx 0x24 16]
     207              $C$DW$25        .dwtag  DW_TAG_variable, DW_AT_name("mixture")
     208                      .dwattr $C$DW$25, DW_AT_TI_symbol_name("_mixture")
     209                      .dwattr $C$DW$25, DW_AT_type(*$C$DW$T$21)
     210                      .dwattr $C$DW$25, DW_AT_location[DW_OP_bregx 0x24 18]
     211              $C$DW$26        .dwtag  DW_TAG_variable, DW_AT_name("imin")
     212                      .dwattr $C$DW$26, DW_AT_TI_symbol_name("_imin")
     213                      .dwattr $C$DW$26, DW_AT_type(*$C$DW$T$8)
     214                      .dwattr $C$DW$26, DW_AT_location[DW_OP_bregx 0x24 20]
     215              $C$DW$27        .dwtag  DW_TAG_variable, DW_AT_name("imax")
     216                      .dwattr $C$DW$27, DW_AT_TI_symbol_name("_imax")
     217                      .dwattr $C$DW$27, DW_AT_type(*$C$DW$T$8)
     218                      .dwattr $C$DW$27, DW_AT_location[DW_OP_bregx 0x24 21]
     219              $C$DW$28        .dwtag  DW_TAG_variable, DW_AT_name("j")
TMS320C55x Assembler PC v4.4.1 Wed Sep 13 16:33:14 2017

Tools Copyright (c) 1996-2012 Texas Instruments Incorporated
C:\Users\a0221074\AppData\Local\Temp\0730410                         PAGE    5

     220                      .dwattr $C$DW$28, DW_AT_TI_symbol_name("_j")
     221                      .dwattr $C$DW$28, DW_AT_type(*$C$DW$T$8)
     222                      .dwattr $C$DW$28, DW_AT_location[DW_OP_bregx 0x24 22]
     223              $C$DW$29        .dwtag  DW_TAG_variable, DW_AT_name("diff")
     224                      .dwattr $C$DW$29, DW_AT_TI_symbol_name("_diff")
     225                      .dwattr $C$DW$29, DW_AT_type(*$C$DW$T$12)
     226                      .dwattr $C$DW$29, DW_AT_location[DW_OP_bregx 0x24 24]
     227              $C$DW$30        .dwtag  DW_TAG_variable, DW_AT_name("mu")
     228                      .dwattr $C$DW$30, DW_AT_TI_symbol_name("_mu")
     229                      .dwattr $C$DW$30, DW_AT_type(*$C$DW$T$21)
     230                      .dwattr $C$DW$30, DW_AT_location[DW_OP_bregx 0x24 26]
     231              $C$DW$31        .dwtag  DW_TAG_variable, DW_AT_name("invvar")
     232                      .dwattr $C$DW$31, DW_AT_TI_symbol_name("_invvar")
     233                      .dwattr $C$DW$31, DW_AT_type(*$C$DW$T$21)
     234                      .dwattr $C$DW$31, DW_AT_location[DW_OP_bregx 0x24 28]
     235              $C$DW$32        .dwtag  DW_TAG_variable, DW_AT_name("gconst")
     236                      .dwattr $C$DW$32, DW_AT_TI_symbol_name("_gconst")
     237                      .dwattr $C$DW$32, DW_AT_type(*$C$DW$T$8)
     238                      .dwattr $C$DW$32, DW_AT_location[DW_OP_bregx 0x24 30]
     239              $C$DW$33        .dwtag  DW_TAG_variable, DW_AT_name("feat")
     240                      .dwattr $C$DW$33, DW_AT_TI_symbol_name("_feat")
     241                      .dwattr $C$DW$33, DW_AT_type(*$C$DW$T$54)
     242                      .dwattr $C$DW$33, DW_AT_location[DW_OP_bregx 0x24 32]
     243              $C$DW$34        .dwtag  DW_TAG_variable, DW_AT_name("diff_s")
     244                      .dwattr $C$DW$34, DW_AT_TI_symbol_name("_diff_s")
     245                      .dwattr $C$DW$34, DW_AT_type(*$C$DW$T$8)
     246                      .dwattr $C$DW$34, DW_AT_location[DW_OP_bregx 0x24 34]
     247 000002 EB10          MOV XAR3, dbl(*SP(#8))
         000004 B5   
     248 000005 CA0C          MOV AR2, *SP(#6) ; |61| 
     249 000007 EB08          MOV XAR1, dbl(*SP(#4))
         000009 95   
     250 00000a C506          MOV T1, *SP(#3) ; |61| 
     251 00000c C404          MOV T0, *SP(#2) ; |61| 
     252 00000e EB00          MOV XAR0, dbl(*SP(#0))
         000010 85   
     253                      .dwpsn  file "C:/Users/a0221074/Desktop/C5000/IBM_Watson_TIdesign_workarea/CSL_bitbucket/c55_csl/c55x
     254 000011 FB1C          MOV #-32768, *SP(#14) ; |79| 
         000013 8000 
     255                      .dwpsn  file "C:/Users/a0221074/Desktop/C5000/IBM_Watson_TIdesign_workarea/CSL_bitbucket/c55_csl/c55x
     256 000015 ED10          MOV dbl(*SP(#8)), XAR3
         000017 BF   
     257 000018 A404          MOV *SP(#2), T0 ; |81| 
     258 00001a ED6D          MOV dbl(*AR3(#1192)), XAR3
         00001c BF04 
         00001e A8   
     259 00001f DF6B          MOV uns(*AR3(T0)), AC0 ; |81| 
         000021 05   
     260 000022 ED10          MOV dbl(*SP(#8)), XAR3
         000024 BF   
     261 000025 900A          MOV AC0, XAR2
     262 000027 ED6D          MOV dbl(*AR3(#1194)), XAR3
         000029 BF04 
         00002b AA   
     263              
TMS320C55x Assembler PC v4.4.1 Wed Sep 13 16:33:14 2017

Tools Copyright (c) 1996-2012 Texas Instruments Incorporated
C:\Users\a0221074\AppData\Local\Temp\0730410                         PAGE    6

     264 00002c 8E24          MOV XAR3, dbl(*SP(#18))
         00002e BB10 
         000030 B5A1 
     265              ||      AADD XAR2, XAR3 ; |81| 
     266              
     267                      .dwpsn  file "C:/Users/a0221074/Desktop/C5000/IBM_Watson_TIdesign_workarea/CSL_bitbucket/c55_csl/c55x
     268 000032 A961          MOV *AR3, AR1 ; |82| 
     269 000034 C91E          MOV AR1, *SP(#15) ; |82| 
     270                      .dwpsn  file "C:/Users/a0221074/Desktop/C5000/IBM_Watson_TIdesign_workarea/CSL_bitbucket/c55_csl/c55x
     271 000036 ED24          MOV dbl(*SP(#18)), XAR3
         000038 BF   
     272 000039 B463          AMAR *AR3+
     273 00003b EB20          MOV XAR3, dbl(*SP(#16))
         00003d B5   
     274                      .dwpsn  file "C:/Users/a0221074/Desktop/C5000/IBM_Watson_TIdesign_workarea/CSL_bitbucket/c55_csl/c55x
     275 00003e F006          CMP *SP(#3) == #2, TC1 ; |85| 
         000040 0002 
     276 000042 66F4          BCC $C$L1,!TC1 ; |85| 
     277                                                      ; branchcc occurs ; |85| 
     278                      .dwpsn  file "C:/Users/a0221074/Desktop/C5000/IBM_Watson_TIdesign_workarea/CSL_bitbucket/c55_csl/c55x
     279 000044 ED08          MOV dbl(*SP(#4)), XAR3
         000046 BF   
     280 000047 A961          MOV *AR3, AR1 ; |87| 
     281 000049 C928          MOV AR1, *SP(#20) ; |87| 
     282                      .dwpsn  file "C:/Users/a0221074/Desktop/C5000/IBM_Watson_TIdesign_workarea/CSL_bitbucket/c55_csl/c55x
     283 00004b 4019          ADD #1, AR1 ; |88| 
     284 00004d C92A          MOV AR1, *SP(#21) ; |88| 
     285                      .dwpsn  file "C:/Users/a0221074/Desktop/C5000/IBM_Watson_TIdesign_workarea/CSL_bitbucket/c55_csl/c55x
     286 00004f 4A07          B $C$L2   ; |89| 
     287                                                      ; branch occurs ; |89| 
     288 000051       $C$L1:    
     289                      .dwpsn  file "C:/Users/a0221074/Desktop/C5000/IBM_Watson_TIdesign_workarea/CSL_bitbucket/c55_csl/c55x
     290 000051 E628          MOV #0, *SP(#20) ; |92| 
         000053 00   
     291                      .dwpsn  file "C:/Users/a0221074/Desktop/C5000/IBM_Watson_TIdesign_workarea/CSL_bitbucket/c55_csl/c55x
     292 000054 A91E          MOV *SP(#15), AR1 ; |93| 
     293 000056 C92A          MOV AR1, *SP(#21) ; |93| 
     294 000058       $C$L2:    
     295                      .dwpsn  file "C:/Users/a0221074/Desktop/C5000/IBM_Watson_TIdesign_workarea/CSL_bitbucket/c55_csl/c55x
     296 000058 A928          MOV *SP(#20), AR1 ; |96| 
     297 00005a C914          MOV AR1, *SP(#10) ; |96| 
     298                      .dwpsn  file "C:/Users/a0221074/Desktop/C5000/IBM_Watson_TIdesign_workarea/CSL_bitbucket/c55_csl/c55x
     299 00005c AA14          MOV *SP(#10), AR2 ; |96| 
     300 00005e A92A          MOV *SP(#21), AR1 ; |96| 
     301 000060 12A8          CMP AR2 >= AR1, TC1 ; |96| 
         000062 90   
     302 000063 6D64          BCC $C$L17,TC1 ; |96| 
         000065 01B8 
     303                                                      ; branchcc occurs ; |96| 
     304 000067       $C$L3:    
     305 000067       $C$DW$L$_hlr_gauss_obs_score_f$5$B:
     306                      .dwpsn  file "C:/Users/a0221074/Desktop/C5000/IBM_Watson_TIdesign_workarea/CSL_bitbucket/c55_csl/c55x
     307 000067 ED24          MOV dbl(*SP(#18)), XAR3
         000069 BF   
     308 00006a F814          MPYMK *SP(#10), #3, AC0 ; |98| 
TMS320C55x Assembler PC v4.4.1 Wed Sep 13 16:33:14 2017

Tools Copyright (c) 1996-2012 Texas Instruments Incorporated
C:\Users\a0221074\AppData\Local\Temp\0730410                         PAGE    7

         00006c 0300 
     309 00006e 4020          ADD #2, AC0 ; |98| 
     310 000070 2204          MOV AC0, T0 ; |98| 
     311 000072 A50C          MOV *SP(#6), T1 ; |98| 
     312 000074 D36B          MPYM *AR3(T0), T1, AC0 ; |98| 
         000076 05   
     313 000077 ED10          MOV dbl(*SP(#8)), XAR3
         000079 BF   
     314 00007a 2209          MOV AC0, AR1 ; |98| 
     315 00007c ED6D          MOV dbl(*AR3(#1182)), XAR3
         00007e BF04 
         000080 9E   
     316              
     317 000081 8E34          MOV XAR3, dbl(*SP(#26))
         000083 BB10 
         000085 B590 
     318              ||      AADD AR1, AR3 ; |98| 
     319              
     320                      .dwpsn  file "C:/Users/a0221074/Desktop/C5000/IBM_Watson_TIdesign_workarea/CSL_bitbucket/c55_csl/c55x
     321 000087 ED24          MOV dbl(*SP(#18)), XAR3
         000089 BF   
     322 00008a F814          MPYMK *SP(#10), #3, AC0 ; |99| 
         00008c 0300 
     323 00008e 4030          ADD #3, AC0 ; |99| 
     324 000090 2204          MOV AC0, T0 ; |99| 
     325 000092 D36B          MPYM *AR3(T0), T1, AC0 ; |99| 
         000094 05   
     326 000095 ED10          MOV dbl(*SP(#8)), XAR3
         000097 BF   
     327 000098 2209          MOV AC0, AR1 ; |99| 
     328 00009a ED6D          MOV dbl(*AR3(#1186)), XAR3
         00009c BF04 
         00009e A2   
     329              
     330 00009f 8E38          MOV XAR3, dbl(*SP(#28))
         0000a1 BB10 
         0000a3 B590 
     331              ||      AADD AR1, AR3 ; |99| 
     332              
     333                      .dwpsn  file "C:/Users/a0221074/Desktop/C5000/IBM_Watson_TIdesign_workarea/CSL_bitbucket/c55_csl/c55x
     334 0000a5 ED24          MOV dbl(*SP(#18)), XAR3
         0000a7 BF   
     335 0000a8 F814          MPYMK *SP(#10), #3, AC0 ; |100| 
         0000aa 0300 
     336 0000ac 4030          ADD #3, AC0 ; |100| 
     337 0000ae 2204          MOV AC0, T0 ; |100| 
     338 0000b0 A46B          MOV *AR3(T0), T0 ; |100| 
     339 0000b2 ED10          MOV dbl(*SP(#8)), XAR3
         0000b4 BF   
     340 0000b5 ED6D          MOV dbl(*AR3(#1196)), XAR3
         0000b7 BF04 
         0000b9 AC   
     341 0000ba A96B          MOV *AR3(T0), AR1 ; |100| 
     342 0000bc C93C          MOV AR1, *SP(#30) ; |100| 
     343                      .dwpsn  file "C:/Users/a0221074/Desktop/C5000/IBM_Watson_TIdesign_workarea/CSL_bitbucket/c55_csl/c55x
TMS320C55x Assembler PC v4.4.1 Wed Sep 13 16:33:14 2017

Tools Copyright (c) 1996-2012 Texas Instruments Incorporated
C:\Users\a0221074\AppData\Local\Temp\0730410                         PAGE    8

     344 0000be ED00          MOV dbl(*SP(#0)), XAR3
         0000c0 BF   
     345 0000c1 EB40          MOV XAR3, dbl(*SP(#32))
         0000c3 B5   
     346                      .dwpsn  file "C:/Users/a0221074/Desktop/C5000/IBM_Watson_TIdesign_workarea/CSL_bitbucket/c55_csl/c55x
     347 0000c4 3C00          MOV #0, AC0 ; |103| 
     348 0000c6 EB18          MOV AC0, dbl(*SP(#12)) ; |103| 
         0000c8 08   
     349 0000c9 A90C          MOV *SP(#6), AR1 ; |103| 
     350 0000cb E62C          MOV #0, *SP(#22) ; |103| 
         0000cd 00   
     351 0000ce AA2C          MOV *SP(#22), AR2 ; |103| 
     352 0000d0 12A8          CMP AR2 >= AR1, TC1 ; |103| 
         0000d2 90   
     353 0000d3 0464          BCC $C$L7,TC1 ; |103| 
         0000d5 78   
     354                                                      ; branchcc occurs ; |103| 
     355 0000d6       $C$DW$L$_hlr_gauss_obs_score_f$5$E:
     356 0000d6       $C$L4:    
     357 0000d6       $C$DW$L$_hlr_gauss_obs_score_f$6$B:
     358 0000d6 ED34          MOV dbl(*SP(#26)), XAR3
         0000d8 BF   
     359 0000d9 A963          MOV *AR3+, AR1 ; |103| 
     360 0000db EB34          MOV XAR3, dbl(*SP(#26))
         0000dd B5   
     361 0000de ED40          MOV dbl(*SP(#32)), XAR3
         0000e0 BF   
     362              
     363 0000e1 A963          MOV *AR3+, AR1 ; |103| 
     364 0000e3 2391  ||      MOV AR1, AC1
     365              
     366 0000e5 2290          MOV AR1, AC0
     367              
     368 0000ea 2710          SUB AC1, AC0 ; |103| 
     369 0000e7 EB40  ||      MOV XAR3, dbl(*SP(#32))
         0000e9 B5   
     370              
     371 0000ec EB30          MOV AC0, dbl(*SP(#24)) ; |103| 
         0000ee 08   
     372 0000ef 7680          MOV #-32768, AC0 ; |103| 
         0000f1 0008 
     373 0000f3 ED30          MOV dbl(*SP(#24)), AC1 ; |103| 
         0000f5 18   
     374 0000f6 1208          CMP AC1 <= AC0, TC1 ; |103| 
         0000f8 10   
     375 0000f9 61E4          BCC $C$L5,TC1 ; |103| 
     376                                                      ; branchcc occurs ; |103| 
     377 0000fb       $C$DW$L$_hlr_gauss_obs_score_f$6$E:
     378 0000fb       $C$DW$L$_hlr_gauss_obs_score_f$7$B:
     379 0000fb ED30          MOV dbl(*SP(#24)), AC0 ; |103| 
         0000fd 08   
     380 0000fe       $C$DW$L$_hlr_gauss_obs_score_f$7$E:
     381 0000fe       $C$L5:    
     382 0000fe       $C$DW$L$_hlr_gauss_obs_score_f$8$B:
     383 0000fe EB30          MOV AC0, dbl(*SP(#24)) ; |103| 
TMS320C55x Assembler PC v4.4.1 Wed Sep 13 16:33:14 2017

Tools Copyright (c) 1996-2012 Texas Instruments Incorporated
C:\Users\a0221074\AppData\Local\Temp\0730410                         PAGE    9

         000100 08   
     384 000101 767F          MOV #32767, AC0 ; |103| 
         000103 FF08 
     385 000105 ED30          MOV dbl(*SP(#24)), AC1 ; |103| 
         000107 18   
     386 000108 1218          CMP AC1 >= AC0, TC1 ; |103| 
         00010a 00   
     387 00010b 61E4          BCC $C$L6,TC1 ; |103| 
     388                                                      ; branchcc occurs ; |103| 
     389 00010d       $C$DW$L$_hlr_gauss_obs_score_f$8$E:
     390 00010d       $C$DW$L$_hlr_gauss_obs_score_f$9$B:
     391 00010d ED30          MOV dbl(*SP(#24)), AC0 ; |103| 
         00010f 08   
     392 000110       $C$DW$L$_hlr_gauss_obs_score_f$9$E:
     393 000110       $C$L6:    
     394 000110       $C$DW$L$_hlr_gauss_obs_score_f$10$B:
     395 000110 EB30          MOV AC0, dbl(*SP(#24)) ; |103| 
         000112 08   
     396 000113 A932          MOV *SP(#25), AR1 ; |103| 
     397 000115 C944          MOV AR1, *SP(#34) ; |103| 
     398 000117 D344          SQRM *SP(#34), AC0 ; |103| 
         000119 08   
     399 00011a EB30          MOV AC0, dbl(*SP(#24)) ; |103| 
         00011c 08   
     400 00011d 7640          MOV #16384, AC0 ; |103| 
         00011f 0008 
     401 000121 ED30          ADD dbl(*SP(#24)), AC0, AC0 ; |103| 
         000123 00   
     402 000124 EB30          MOV AC0, dbl(*SP(#24)) ; |103| 
         000126 08   
     403 000127 ED30          MOV dbl(*SP(#24)), AC0 ; |103| 
         000129 08   
     404 00012a 1005          SFTS AC0, #-15, AC0 ; |103| 
         00012c 31   
     405 00012d C044          MOV AC0, *SP(#34) ; |103| 
     406 00012f ED38          MOV dbl(*SP(#28)), XAR3
         000131 BF   
     407 000132 A563          MOV *AR3+, T1 ; |103| 
     408 000134 EB38          MOV XAR3, dbl(*SP(#28))
         000136 B5   
     409 000137 D344          MPYM *SP(#34), T1, AC0 ; |103| 
         000139 05   
     410 00013a ED18          SUB AC0, dbl(*SP(#12)), AC0 ; |103| 
         00013c 04   
     411 00013d EB18          MOV AC0, dbl(*SP(#12)) ; |103| 
         00013f 08   
     412 000140 A90C          MOV *SP(#6), AR1 ; |103| 
     413 000142 F72C          ADD #1, *SP(#22) ; |103| 
         000144 0001 
     414 000146 AA2C          MOV *SP(#22), AR2 ; |103| 
     415 000148 12A4          CMP AR2 < AR1, TC1 ; |103| 
         00014a 90   
     416 00014b 0464          BCC $C$L4,TC1 ; |103| 
         00014d 88   
     417                                                      ; branchcc occurs ; |103| 
TMS320C55x Assembler PC v4.4.1 Wed Sep 13 16:33:14 2017

Tools Copyright (c) 1996-2012 Texas Instruments Incorporated
C:\Users\a0221074\AppData\Local\Temp\0730410                         PAGE   10

     418 00014e       $C$DW$L$_hlr_gauss_obs_score_f$10$E:
     419 00014e       $C$L7:    
     420 00014e       $C$DW$L$_hlr_gauss_obs_score_f$11$B:
     421 00014e 7602          MOV #512, AC0 ; |103| 
         000150 0008 
     422 000152 ED18          ADD dbl(*SP(#12)), AC0, AC0 ; |103| 
         000154 00   
     423 000155 EB18          MOV AC0, dbl(*SP(#12)) ; |103| 
         000157 08   
     424 000158 ED18          MOV dbl(*SP(#12)), AC0 ; |103| 
         00015a 08   
     425 00015b 1005          SFTS AC0, #-10, AC0 ; |103| 
         00015d 36   
     426 00015e EB18          MOV AC0, dbl(*SP(#12)) ; |103| 
         000160 08   
     427 000161 A03C          MOV *SP(#30), AC0 ; |103| 
     428 000163 ED18          SUB AC0, dbl(*SP(#12)), AC0 ; |103| 
         000165 04   
     429 000166 EB18          MOV AC0, dbl(*SP(#12)) ; |103| 
         000168 08   
     430 000169 ED18          MOV dbl(*SP(#12)), AC0 ; |103| 
         00016b 08   
     431 00016c 4440          SFTS AC0, #-1 ; |103| 
     432 00016e EB18          MOV AC0, dbl(*SP(#12)) ; |103| 
         000170 08   
     433                      .dwpsn  file "C:/Users/a0221074/Desktop/C5000/IBM_Watson_TIdesign_workarea/CSL_bitbucket/c55_csl/c55x
     434 000171 ED20          MOV dbl(*SP(#16)), XAR3
         000173 BF   
     435 000174 F814          MPYMK *SP(#10), #3, AC0 ; |107| 
         000176 0300 
     436 000178 2204          MOV AC0, T0 ; |107| 
     437 00017a A06B          MOV *AR3(T0), AC0 ; |107| 
     438 00017c ED18          ADD dbl(*SP(#12)), AC0, AC0 ; |107| 
         00017e 00   
     439 00017f EB18          MOV AC0, dbl(*SP(#12)) ; |107| 
         000181 08   
     440                      .dwpsn  file "C:/Users/a0221074/Desktop/C5000/IBM_Watson_TIdesign_workarea/CSL_bitbucket/c55_csl/c55x
     441 000182 F006          CMP *SP(#3) == #1, TC1 ; |109| 
         000184 0001 
     442 000186 0474          BCC $C$L15,!TC1 ; |109| 
         000188 72   
     443                                                      ; branchcc occurs ; |109| 
     444 000189       $C$DW$L$_hlr_gauss_obs_score_f$11$E:
     445 000189       $C$DW$L$_hlr_gauss_obs_score_f$12$B:
     446                      .dwpsn  file "C:/Users/a0221074/Desktop/C5000/IBM_Watson_TIdesign_workarea/CSL_bitbucket/c55_csl/c55x
     447 000189 A914          MOV *SP(#10), AR1 ; |112| 
     448 00018b 0419          BCC $C$L10,AR1 != #0 ; |112| 
         00018d 31   
     449                                                      ; branchcc occurs ; |112| 
     450 00018e       $C$DW$L$_hlr_gauss_obs_score_f$12$E:
     451 00018e       $C$DW$L$_hlr_gauss_obs_score_f$13$B:
     452 00018e 7680          MOV #-32768, AC0 ; |112| 
         000190 0008 
     453 000192 ED18          MOV dbl(*SP(#12)), AC1 ; |112| 
         000194 18   
TMS320C55x Assembler PC v4.4.1 Wed Sep 13 16:33:14 2017

Tools Copyright (c) 1996-2012 Texas Instruments Incorporated
C:\Users\a0221074\AppData\Local\Temp\0730410                         PAGE   11

     454 000195 1208          CMP AC1 <= AC0, TC1 ; |112| 
         000197 10   
     455 000198 61E4          BCC $C$L8,TC1 ; |112| 
     456                                                      ; branchcc occurs ; |112| 
     457 00019a       $C$DW$L$_hlr_gauss_obs_score_f$13$E:
     458 00019a       $C$DW$L$_hlr_gauss_obs_score_f$14$B:
     459 00019a ED18          MOV dbl(*SP(#12)), AC0 ; |112| 
         00019c 08   
     460 00019d       $C$DW$L$_hlr_gauss_obs_score_f$14$E:
     461 00019d       $C$L8:    
     462 00019d       $C$DW$L$_hlr_gauss_obs_score_f$15$B:
     463 00019d 767F          MOV #32767, AC1 ; |112| 
         00019f FF18 
     464 0001a1 1208          CMP AC0 >= AC1, TC1 ; |112| 
         0001a3 10   
     465 0001a4 0464          BCC $C$L9,TC1 ; |112| 
         0001a6 12   
     466                                                      ; branchcc occurs ; |112| 
     467 0001a7       $C$DW$L$_hlr_gauss_obs_score_f$15$E:
     468 0001a7       $C$DW$L$_hlr_gauss_obs_score_f$16$B:
     469 0001a7 7680          MOV #-32768, AC0 ; |112| 
         0001a9 0008 
     470 0001ab ED18          MOV dbl(*SP(#12)), AC1 ; |112| 
         0001ad 18   
     471 0001ae 1208          CMP AC1 <= AC0, TC1 ; |112| 
         0001b0 10   
     472 0001b1 0464          BCC $C$L14,TC1 ; |112| 
         0001b3 43   
     473                                                      ; branchcc occurs ; |112| 
     474 0001b4       $C$DW$L$_hlr_gauss_obs_score_f$16$E:
     475 0001b4       $C$DW$L$_hlr_gauss_obs_score_f$17$B:
     476 0001b4 ED18          MOV dbl(*SP(#12)), AC0 ; |112| 
         0001b6 08   
     477 0001b7 4A3E          B $C$L14  ; |112| 
     478                                                      ; branch occurs ; |112| 
     479 0001b9       $C$DW$L$_hlr_gauss_obs_score_f$17$E:
     480 0001b9       $C$L9:    
     481 0001b9       $C$DW$L$_hlr_gauss_obs_score_f$18$B:
     482 0001b9 767F          MOV #32767, AC0 ; |112| 
         0001bb FF08 
     483 0001bd 4A38          B $C$L14  ; |112| 
     484                                                      ; branch occurs ; |112| 
     485 0001bf       $C$DW$L$_hlr_gauss_obs_score_f$18$E:
     486 0001bf       $C$L10:    
     487 0001bf       $C$DW$L$_hlr_gauss_obs_score_f$19$B:
     488 0001bf 7680          MOV #-32768, AC0 ; |112| 
         0001c1 0008 
     489 0001c3 ED18          MOV dbl(*SP(#12)), AC1 ; |112| 
         0001c5 18   
     490 0001c6 1208          CMP AC1 <= AC0, TC1 ; |112| 
         0001c8 10   
     491 0001c9 61E4          BCC $C$L11,TC1 ; |112| 
     492                                                      ; branchcc occurs ; |112| 
     493 0001cb       $C$DW$L$_hlr_gauss_obs_score_f$19$E:
     494 0001cb       $C$DW$L$_hlr_gauss_obs_score_f$20$B:
TMS320C55x Assembler PC v4.4.1 Wed Sep 13 16:33:14 2017

Tools Copyright (c) 1996-2012 Texas Instruments Incorporated
C:\Users\a0221074\AppData\Local\Temp\0730410                         PAGE   12

     495 0001cb ED18          MOV dbl(*SP(#12)), AC0 ; |112| 
         0001cd 08   
     496 0001ce       $C$DW$L$_hlr_gauss_obs_score_f$20$E:
     497 0001ce       $C$L11:    
     498 0001ce       $C$DW$L$_hlr_gauss_obs_score_f$21$B:
     499 0001ce 767F          MOV #32767, AC1 ; |112| 
         0001d0 FF18 
     500 0001d2 1208          CMP AC0 >= AC1, TC1 ; |112| 
         0001d4 10   
     501 0001d5 0464          BCC $C$L12,TC1 ; |112| 
         0001d7 11   
     502                                                      ; branchcc occurs ; |112| 
     503 0001d8       $C$DW$L$_hlr_gauss_obs_score_f$21$E:
     504 0001d8       $C$DW$L$_hlr_gauss_obs_score_f$22$B:
     505 0001d8 7680          MOV #-32768, AC0 ; |112| 
         0001da 0008 
     506 0001dc ED18          MOV dbl(*SP(#12)), AC1 ; |112| 
         0001de 18   
     507 0001df 1208          CMP AC1 <= AC0, TC1 ; |112| 
         0001e1 10   
     508 0001e2 64E4          BCC $C$L13,TC1 ; |112| 
     509                                                      ; branchcc occurs ; |112| 
     510 0001e4       $C$DW$L$_hlr_gauss_obs_score_f$22$E:
     511 0001e4       $C$DW$L$_hlr_gauss_obs_score_f$23$B:
     512 0001e4 ED18          MOV dbl(*SP(#12)), AC0 ; |112| 
         0001e6 08   
     513 0001e7 4A04          B $C$L13  ; |112| 
     514                                                      ; branch occurs ; |112| 
     515 0001e9       $C$DW$L$_hlr_gauss_obs_score_f$23$E:
     516 0001e9       $C$L12:    
     517 0001e9       $C$DW$L$_hlr_gauss_obs_score_f$24$B:
     518 0001e9 767F          MOV #32767, AC0 ; |112| 
         0001eb FF08 
     519 0001ed       $C$DW$L$_hlr_gauss_obs_score_f$24$E:
     520 0001ed       $C$L13:    
     521 0001ed       $C$DW$L$_hlr_gauss_obs_score_f$25$B:
     522 0001ed A41C          MOV *SP(#14), T0 ; |112| 
     523              $C$DW$35        .dwtag  DW_TAG_TI_branch
     524                      .dwattr $C$DW$35, DW_AT_low_pc(0x00)
     525                      .dwattr $C$DW$35, DW_AT_name("_hlr_logsum")
     526                      .dwattr $C$DW$35, DW_AT_TI_call
     527              
     528 0001ef 6C00          CALL #_hlr_logsum ; |112| 
         0001f1 0000+
     529 0001f3 2305  ||      MOV AC0, T1 ; |112| 
     530              
     531                                                      ; call occurs [#_hlr_logsum] ; |112| 
     532 0001f5 2240          MOV T0, AC0 ; |112| 
     533 0001f7       $C$DW$L$_hlr_gauss_obs_score_f$25$E:
     534 0001f7       $C$L14:    
     535 0001f7       $C$DW$L$_hlr_gauss_obs_score_f$26$B:
     536 0001f7 C01C          MOV AC0, *SP(#14) ; |112| 
     537                      .dwpsn  file "C:/Users/a0221074/Desktop/C5000/IBM_Watson_TIdesign_workarea/CSL_bitbucket/c55_csl/c55x
     538 0001f9 4A15          B $C$L16  ; |113| 
     539                                                      ; branch occurs ; |113| 
TMS320C55x Assembler PC v4.4.1 Wed Sep 13 16:33:14 2017

Tools Copyright (c) 1996-2012 Texas Instruments Incorporated
C:\Users\a0221074\AppData\Local\Temp\0730410                         PAGE   13

     540 0001fb       $C$DW$L$_hlr_gauss_obs_score_f$26$E:
     541 0001fb       $C$L15:    
     542 0001fb       $C$DW$L$_hlr_gauss_obs_score_f$27$B:
     543                      .dwpsn  file "C:/Users/a0221074/Desktop/C5000/IBM_Watson_TIdesign_workarea/CSL_bitbucket/c55_csl/c55x
     544 0001fb A01C          MOV *SP(#14), AC0 ; |116| 
     545 0001fd ED18          MOV dbl(*SP(#12)), AC1 ; |116| 
         0001ff 18   
     546 000200 1208          CMP AC1 <= AC0, TC1 ; |116| 
         000202 10   
     547 000203 65E4          BCC $C$L16,TC1 ; |116| 
     548                                                      ; branchcc occurs ; |116| 
     549 000205       $C$DW$L$_hlr_gauss_obs_score_f$27$E:
     550 000205       $C$DW$L$_hlr_gauss_obs_score_f$28$B:
     551                      .dwpsn  file "C:/Users/a0221074/Desktop/C5000/IBM_Watson_TIdesign_workarea/CSL_bitbucket/c55_csl/c55x
     552 000205 A91A          MOV *SP(#13), AR1 ; |118| 
     553 000207 C91C          MOV AR1, *SP(#14) ; |118| 
     554                      .dwpsn  file "C:/Users/a0221074/Desktop/C5000/IBM_Watson_TIdesign_workarea/CSL_bitbucket/c55_csl/c55x
     555 000209 ED08          MOV dbl(*SP(#4)), XAR3
         00020b BF   
     556 00020c A914          MOV *SP(#10), AR1 ; |119| 
     557 00020e C961          MOV AR1, *AR3 ; |119| 
     558 000210       $C$DW$L$_hlr_gauss_obs_score_f$28$E:
     559 000210       $C$L16:    
     560 000210       $C$DW$L$_hlr_gauss_obs_score_f$29$B:
     561                      .dwpsn  file "C:/Users/a0221074/Desktop/C5000/IBM_Watson_TIdesign_workarea/CSL_bitbucket/c55_csl/c55x
     562 000210 F714          ADD #1, *SP(#10) ; |96| 
         000212 0001 
     563                      .dwpsn  file "C:/Users/a0221074/Desktop/C5000/IBM_Watson_TIdesign_workarea/CSL_bitbucket/c55_csl/c55x
     564 000214 A92A          MOV *SP(#21), AR1 ; |96| 
     565 000216 AA14          MOV *SP(#10), AR2 ; |96| 
     566 000218 12A4          CMP AR2 < AR1, TC1 ; |96| 
         00021a 90   
     567 00021b 6D64          BCC $C$L3,TC1 ; |96| 
         00021d FE48 
     568                                                      ; branchcc occurs ; |96| 
     569 00021f       $C$DW$L$_hlr_gauss_obs_score_f$29$E:
     570 00021f       $C$L17:    
     571                      .dwpsn  file "C:/Users/a0221074/Desktop/C5000/IBM_Watson_TIdesign_workarea/CSL_bitbucket/c55_csl/c55x
     572 00021f A41C          MOV *SP(#14), T0 ; |124| 
     573                      .dwpsn  file "C:/Users/a0221074/Desktop/C5000/IBM_Watson_TIdesign_workarea/CSL_bitbucket/c55_csl/c55x
     574 000221 4E23          AADD #35, SP
     575                      .dwcfi  cfa_offset, 1
     576              $C$DW$36        .dwtag  DW_TAG_TI_branch
     577                      .dwattr $C$DW$36, DW_AT_low_pc(0x00)
     578                      .dwattr $C$DW$36, DW_AT_TI_return
     579 000223 4804          RET
     580                                                      ; return occurs
     581              
     582              $C$DW$37        .dwtag  DW_TAG_TI_loop
     583                      .dwattr $C$DW$37, DW_AT_name("C:\\Users\\a0221074\\AppData\\Local\\Temp\\0730410:$C$L3:1:1505334792")
     584                      .dwattr $C$DW$37, DW_AT_TI_begin_file("C:/Users/a0221074/Desktop/C5000/IBM_Watson_TIdesign_workarea/C
     585                      .dwattr $C$DW$37, DW_AT_TI_begin_line(0x60)
     586                      .dwattr $C$DW$37, DW_AT_TI_end_line(0x7a)
     587              $C$DW$38        .dwtag  DW_TAG_TI_loop_range
     588                      .dwattr $C$DW$38, DW_AT_low_pc($C$DW$L$_hlr_gauss_obs_score_f$5$B)
TMS320C55x Assembler PC v4.4.1 Wed Sep 13 16:33:14 2017

Tools Copyright (c) 1996-2012 Texas Instruments Incorporated
C:\Users\a0221074\AppData\Local\Temp\0730410                         PAGE   14

     589                      .dwattr $C$DW$38, DW_AT_high_pc($C$DW$L$_hlr_gauss_obs_score_f$5$E)
     590              $C$DW$39        .dwtag  DW_TAG_TI_loop_range
     591                      .dwattr $C$DW$39, DW_AT_low_pc($C$DW$L$_hlr_gauss_obs_score_f$19$B)
     592                      .dwattr $C$DW$39, DW_AT_high_pc($C$DW$L$_hlr_gauss_obs_score_f$19$E)
     593              $C$DW$40        .dwtag  DW_TAG_TI_loop_range
     594                      .dwattr $C$DW$40, DW_AT_low_pc($C$DW$L$_hlr_gauss_obs_score_f$20$B)
     595                      .dwattr $C$DW$40, DW_AT_high_pc($C$DW$L$_hlr_gauss_obs_score_f$20$E)
     596              $C$DW$41        .dwtag  DW_TAG_TI_loop_range
     597                      .dwattr $C$DW$41, DW_AT_low_pc($C$DW$L$_hlr_gauss_obs_score_f$21$B)
     598                      .dwattr $C$DW$41, DW_AT_high_pc($C$DW$L$_hlr_gauss_obs_score_f$21$E)
     599              $C$DW$42        .dwtag  DW_TAG_TI_loop_range
     600                      .dwattr $C$DW$42, DW_AT_low_pc($C$DW$L$_hlr_gauss_obs_score_f$22$B)
     601                      .dwattr $C$DW$42, DW_AT_high_pc($C$DW$L$_hlr_gauss_obs_score_f$22$E)
     602              $C$DW$43        .dwtag  DW_TAG_TI_loop_range
     603                      .dwattr $C$DW$43, DW_AT_low_pc($C$DW$L$_hlr_gauss_obs_score_f$23$B)
     604                      .dwattr $C$DW$43, DW_AT_high_pc($C$DW$L$_hlr_gauss_obs_score_f$23$E)
     605              $C$DW$44        .dwtag  DW_TAG_TI_loop_range
     606                      .dwattr $C$DW$44, DW_AT_low_pc($C$DW$L$_hlr_gauss_obs_score_f$24$B)
     607                      .dwattr $C$DW$44, DW_AT_high_pc($C$DW$L$_hlr_gauss_obs_score_f$24$E)
     608              $C$DW$45        .dwtag  DW_TAG_TI_loop_range
     609                      .dwattr $C$DW$45, DW_AT_low_pc($C$DW$L$_hlr_gauss_obs_score_f$11$B)
     610                      .dwattr $C$DW$45, DW_AT_high_pc($C$DW$L$_hlr_gauss_obs_score_f$11$E)
     611              $C$DW$46        .dwtag  DW_TAG_TI_loop_range
     612                      .dwattr $C$DW$46, DW_AT_low_pc($C$DW$L$_hlr_gauss_obs_score_f$12$B)
     613                      .dwattr $C$DW$46, DW_AT_high_pc($C$DW$L$_hlr_gauss_obs_score_f$12$E)
     614              $C$DW$47        .dwtag  DW_TAG_TI_loop_range
     615                      .dwattr $C$DW$47, DW_AT_low_pc($C$DW$L$_hlr_gauss_obs_score_f$13$B)
     616                      .dwattr $C$DW$47, DW_AT_high_pc($C$DW$L$_hlr_gauss_obs_score_f$13$E)
     617              $C$DW$48        .dwtag  DW_TAG_TI_loop_range
     618                      .dwattr $C$DW$48, DW_AT_low_pc($C$DW$L$_hlr_gauss_obs_score_f$14$B)
     619                      .dwattr $C$DW$48, DW_AT_high_pc($C$DW$L$_hlr_gauss_obs_score_f$14$E)
     620              $C$DW$49        .dwtag  DW_TAG_TI_loop_range
     621                      .dwattr $C$DW$49, DW_AT_low_pc($C$DW$L$_hlr_gauss_obs_score_f$15$B)
     622                      .dwattr $C$DW$49, DW_AT_high_pc($C$DW$L$_hlr_gauss_obs_score_f$15$E)
     623              $C$DW$50        .dwtag  DW_TAG_TI_loop_range
     624                      .dwattr $C$DW$50, DW_AT_low_pc($C$DW$L$_hlr_gauss_obs_score_f$16$B)
     625                      .dwattr $C$DW$50, DW_AT_high_pc($C$DW$L$_hlr_gauss_obs_score_f$16$E)
     626              $C$DW$51        .dwtag  DW_TAG_TI_loop_range
     627                      .dwattr $C$DW$51, DW_AT_low_pc($C$DW$L$_hlr_gauss_obs_score_f$17$B)
     628                      .dwattr $C$DW$51, DW_AT_high_pc($C$DW$L$_hlr_gauss_obs_score_f$17$E)
     629              $C$DW$52        .dwtag  DW_TAG_TI_loop_range
     630                      .dwattr $C$DW$52, DW_AT_low_pc($C$DW$L$_hlr_gauss_obs_score_f$18$B)
     631                      .dwattr $C$DW$52, DW_AT_high_pc($C$DW$L$_hlr_gauss_obs_score_f$18$E)
     632              $C$DW$53        .dwtag  DW_TAG_TI_loop_range
     633                      .dwattr $C$DW$53, DW_AT_low_pc($C$DW$L$_hlr_gauss_obs_score_f$25$B)
     634                      .dwattr $C$DW$53, DW_AT_high_pc($C$DW$L$_hlr_gauss_obs_score_f$25$E)
     635              $C$DW$54        .dwtag  DW_TAG_TI_loop_range
     636                      .dwattr $C$DW$54, DW_AT_low_pc($C$DW$L$_hlr_gauss_obs_score_f$26$B)
     637                      .dwattr $C$DW$54, DW_AT_high_pc($C$DW$L$_hlr_gauss_obs_score_f$26$E)
     638              $C$DW$55        .dwtag  DW_TAG_TI_loop_range
     639                      .dwattr $C$DW$55, DW_AT_low_pc($C$DW$L$_hlr_gauss_obs_score_f$27$B)
     640                      .dwattr $C$DW$55, DW_AT_high_pc($C$DW$L$_hlr_gauss_obs_score_f$27$E)
     641              $C$DW$56        .dwtag  DW_TAG_TI_loop_range
     642                      .dwattr $C$DW$56, DW_AT_low_pc($C$DW$L$_hlr_gauss_obs_score_f$28$B)
     643                      .dwattr $C$DW$56, DW_AT_high_pc($C$DW$L$_hlr_gauss_obs_score_f$28$E)
TMS320C55x Assembler PC v4.4.1 Wed Sep 13 16:33:14 2017

Tools Copyright (c) 1996-2012 Texas Instruments Incorporated
C:\Users\a0221074\AppData\Local\Temp\0730410                         PAGE   15

     644              $C$DW$57        .dwtag  DW_TAG_TI_loop_range
     645                      .dwattr $C$DW$57, DW_AT_low_pc($C$DW$L$_hlr_gauss_obs_score_f$29$B)
     646                      .dwattr $C$DW$57, DW_AT_high_pc($C$DW$L$_hlr_gauss_obs_score_f$29$E)
     647              
     648              $C$DW$58        .dwtag  DW_TAG_TI_loop
     649                      .dwattr $C$DW$58, DW_AT_name("C:\\Users\\a0221074\\AppData\\Local\\Temp\\0730410:$C$L4:2:1505334792")
     650                      .dwattr $C$DW$58, DW_AT_TI_begin_file("C:/Users/a0221074/Desktop/C5000/IBM_Watson_TIdesign_workarea/C
     651                      .dwattr $C$DW$58, DW_AT_TI_begin_line(0x67)
     652                      .dwattr $C$DW$58, DW_AT_TI_end_line(0x67)
     653              $C$DW$59        .dwtag  DW_TAG_TI_loop_range
     654                      .dwattr $C$DW$59, DW_AT_low_pc($C$DW$L$_hlr_gauss_obs_score_f$6$B)
     655                      .dwattr $C$DW$59, DW_AT_high_pc($C$DW$L$_hlr_gauss_obs_score_f$6$E)
     656              $C$DW$60        .dwtag  DW_TAG_TI_loop_range
     657                      .dwattr $C$DW$60, DW_AT_low_pc($C$DW$L$_hlr_gauss_obs_score_f$7$B)
     658                      .dwattr $C$DW$60, DW_AT_high_pc($C$DW$L$_hlr_gauss_obs_score_f$7$E)
     659              $C$DW$61        .dwtag  DW_TAG_TI_loop_range
     660                      .dwattr $C$DW$61, DW_AT_low_pc($C$DW$L$_hlr_gauss_obs_score_f$8$B)
     661                      .dwattr $C$DW$61, DW_AT_high_pc($C$DW$L$_hlr_gauss_obs_score_f$8$E)
     662              $C$DW$62        .dwtag  DW_TAG_TI_loop_range
     663                      .dwattr $C$DW$62, DW_AT_low_pc($C$DW$L$_hlr_gauss_obs_score_f$9$B)
     664                      .dwattr $C$DW$62, DW_AT_high_pc($C$DW$L$_hlr_gauss_obs_score_f$9$E)
     665              $C$DW$63        .dwtag  DW_TAG_TI_loop_range
     666                      .dwattr $C$DW$63, DW_AT_low_pc($C$DW$L$_hlr_gauss_obs_score_f$10$B)
     667                      .dwattr $C$DW$63, DW_AT_high_pc($C$DW$L$_hlr_gauss_obs_score_f$10$E)
     668                      .dwendtag $C$DW$58
     669              
     670                      .dwendtag $C$DW$37
     671              
     672                      .dwattr $C$DW$7, DW_AT_TI_end_file("C:/Users/a0221074/Desktop/C5000/IBM_Watson_TIdesign_workarea/CSL_
     673                      .dwattr $C$DW$7, DW_AT_TI_end_line(0x7d)
     674                      .dwattr $C$DW$7, DW_AT_TI_end_column(0x01)
     675                      .dwendentry
     676                      .dwendtag $C$DW$7
     677              
     678 000000               .sect   ".text:_hlr_logsum"
     679                      .clink
     680                      .global _hlr_logsum
     681              
     682              $C$DW$64        .dwtag  DW_TAG_subprogram, DW_AT_name("hlr_logsum")
     683                      .dwattr $C$DW$64, DW_AT_low_pc(_hlr_logsum)
     684                      .dwattr $C$DW$64, DW_AT_high_pc(0x00)
     685                      .dwattr $C$DW$64, DW_AT_TI_symbol_name("_hlr_logsum")
     686                      .dwattr $C$DW$64, DW_AT_external
     687                      .dwattr $C$DW$64, DW_AT_type(*$C$DW$T$8)
     688                      .dwattr $C$DW$64, DW_AT_TI_begin_file("C:/Users/a0221074/Desktop/C5000/IBM_Watson_TIdesign_workarea/C
     689                      .dwattr $C$DW$64, DW_AT_TI_begin_line(0x89)
     690                      .dwattr $C$DW$64, DW_AT_TI_begin_column(0x1e)
     691                      .dwattr $C$DW$64, DW_AT_TI_max_frame_size(0x0c)
     692                      .dwpsn  file "C:/Users/a0221074/Desktop/C5000/IBM_Watson_TIdesign_workarea/CSL_bitbucket/c55_csl/c55x
     693              
     694                      .dwfde $C$DW$CIE, _hlr_logsum
     695              $C$DW$65        .dwtag  DW_TAG_formal_parameter, DW_AT_name("lna")
     696                      .dwattr $C$DW$65, DW_AT_TI_symbol_name("_lna")
     697                      .dwattr $C$DW$65, DW_AT_type(*$C$DW$T$8)
     698                      .dwattr $C$DW$65, DW_AT_location[DW_OP_reg12]
TMS320C55x Assembler PC v4.4.1 Wed Sep 13 16:33:14 2017

Tools Copyright (c) 1996-2012 Texas Instruments Incorporated
C:\Users\a0221074\AppData\Local\Temp\0730410                         PAGE   16

     699              $C$DW$66        .dwtag  DW_TAG_formal_parameter, DW_AT_name("lnb")
     700                      .dwattr $C$DW$66, DW_AT_TI_symbol_name("_lnb")
     701                      .dwattr $C$DW$66, DW_AT_type(*$C$DW$T$8)
     702                      .dwattr $C$DW$66, DW_AT_location[DW_OP_reg13]
     703              ;*******************************************************************************
     704              ;* FUNCTION NAME: hlr_logsum                                                   *
     705              ;*                                                                             *
     706              ;*   Function Uses Regs : AC0,AC0,AC1,AC1,T0,T1,AR1,AR2,SP,CARRY,TC1,M40,SATA, *
     707              ;*                        SATD,RDM,FRCT,SMUL                                   *
     708              ;*   Stack Frame        : Compact (No Frame Pointer, w/ debug)                 *
     709              ;*   Total Frame Size   : 12 words                                             *
     710              ;*                        (2 return address/alignment)                         *
     711              ;*                        (10 local values)                                    *
     712              ;*   Min System Stack   : 1 word                                               *
     713              ;*******************************************************************************
     714 000000       _hlr_logsum:
     715                      .dwcfi  cfa_offset, 1
     716                      .dwcfi  save_reg_to_mem, 91, -1
     717 000000 4EF5          AADD #-11, SP
     718                      .dwcfi  cfa_offset, 12
     719              $C$DW$67        .dwtag  DW_TAG_variable, DW_AT_name("lna")
     720                      .dwattr $C$DW$67, DW_AT_TI_symbol_name("_lna")
     721                      .dwattr $C$DW$67, DW_AT_type(*$C$DW$T$8)
     722                      .dwattr $C$DW$67, DW_AT_location[DW_OP_bregx 0x24 0]
     723              $C$DW$68        .dwtag  DW_TAG_variable, DW_AT_name("lnb")
     724                      .dwattr $C$DW$68, DW_AT_TI_symbol_name("_lnb")
     725                      .dwattr $C$DW$68, DW_AT_type(*$C$DW$T$8)
     726                      .dwattr $C$DW$68, DW_AT_location[DW_OP_bregx 0x24 1]
     727              $C$DW$69        .dwtag  DW_TAG_variable, DW_AT_name("s_temp")
     728                      .dwattr $C$DW$69, DW_AT_TI_symbol_name("_s_temp")
     729                      .dwattr $C$DW$69, DW_AT_type(*$C$DW$T$8)
     730                      .dwattr $C$DW$69, DW_AT_location[DW_OP_bregx 0x24 2]
     731              $C$DW$70        .dwtag  DW_TAG_variable, DW_AT_name("temp")
     732                      .dwattr $C$DW$70, DW_AT_TI_symbol_name("_temp")
     733                      .dwattr $C$DW$70, DW_AT_type(*$C$DW$T$12)
     734                      .dwattr $C$DW$70, DW_AT_location[DW_OP_bregx 0x24 4]
     735              $C$DW$71        .dwtag  DW_TAG_variable, DW_AT_name("diff")
     736                      .dwattr $C$DW$71, DW_AT_TI_symbol_name("_diff")
     737                      .dwattr $C$DW$71, DW_AT_type(*$C$DW$T$12)
     738                      .dwattr $C$DW$71, DW_AT_location[DW_OP_bregx 0x24 6]
     739              $C$DW$72        .dwtag  DW_TAG_variable, DW_AT_name("result")
     740                      .dwattr $C$DW$72, DW_AT_TI_symbol_name("_result")
     741                      .dwattr $C$DW$72, DW_AT_type(*$C$DW$T$8)
     742                      .dwattr $C$DW$72, DW_AT_location[DW_OP_bregx 0x24 8]
     743              $C$DW$73        .dwtag  DW_TAG_variable, DW_AT_name("adb")
     744                      .dwattr $C$DW$73, DW_AT_TI_symbol_name("_adb")
     745                      .dwattr $C$DW$73, DW_AT_type(*$C$DW$T$9)
     746                      .dwattr $C$DW$73, DW_AT_location[DW_OP_bregx 0x24 9]
     747 000002 C502          MOV T1, *SP(#1) ; |138| 
     748 000004 C400          MOV T0, *SP(#0) ; |138| 
     749                      .dwpsn  file "C:/Users/a0221074/Desktop/C5000/IBM_Watson_TIdesign_workarea/CSL_bitbucket/c55_csl/c55x
     750              
     751 000006 A902          MOV *SP(#1), AR1 ; |146| 
     752 000008 234A  ||      MOV T0, AR2 ; |146| 
     753              
TMS320C55x Assembler PC v4.4.1 Wed Sep 13 16:33:14 2017

Tools Copyright (c) 1996-2012 Texas Instruments Incorporated
C:\Users\a0221074\AppData\Local\Temp\0730410                         PAGE   17

     754 00000a 12A8          CMP AR2 >= AR1, TC1 ; |146| 
         00000c 90   
     755 00000d 6564          BCC $C$L18,TC1 ; |146| 
     756                                                      ; branchcc occurs ; |146| 
     757                      .dwpsn  file "C:/Users/a0221074/Desktop/C5000/IBM_Watson_TIdesign_workarea/CSL_bitbucket/c55_csl/c55x
     758 00000f C904          MOV AR1, *SP(#2) ; |148| 
     759                      .dwpsn  file "C:/Users/a0221074/Desktop/C5000/IBM_Watson_TIdesign_workarea/CSL_bitbucket/c55_csl/c55x
     760 000011 A900          MOV *SP(#0), AR1 ; |149| 
     761 000013 C902          MOV AR1, *SP(#1) ; |149| 
     762                      .dwpsn  file "C:/Users/a0221074/Desktop/C5000/IBM_Watson_TIdesign_workarea/CSL_bitbucket/c55_csl/c55x
     763 000015 A904          MOV *SP(#2), AR1 ; |150| 
     764 000017 C900          MOV AR1, *SP(#0) ; |150| 
     765 000019       $C$L18:    
     766                      .dwpsn  file "C:/Users/a0221074/Desktop/C5000/IBM_Watson_TIdesign_workarea/CSL_bitbucket/c55_csl/c55x
     767 000019 A002          MOV *SP(#1), AC0 ; |154| 
     768 00001b EB0C          MOV AC0, dbl(*SP(#6)) ; |154| 
         00001d 08   
     769                      .dwpsn  file "C:/Users/a0221074/Desktop/C5000/IBM_Watson_TIdesign_workarea/CSL_bitbucket/c55_csl/c55x
     770 00001e A000          MOV *SP(#0), AC0 ; |155| 
     771 000020 ED0C          SUB AC0, dbl(*SP(#6)), AC0 ; |155| 
         000022 04   
     772 000023 EB0C          MOV AC0, dbl(*SP(#6)) ; |155| 
         000025 08   
     773                      .dwpsn  file "C:/Users/a0221074/Desktop/C5000/IBM_Watson_TIdesign_workarea/CSL_bitbucket/c55_csl/c55x
     774 000026 ED0C          MOV dbl(*SP(#6)), AC1 ; |156| 
         000028 18   
     775 000029 76FE          MOV #-448, AC0 ; |156| 
         00002b 4008 
     776 00002d 1218          CMP AC1 >= AC0, TC1 ; |156| 
         00002f 00   
     777 000030 62E4          BCC $C$L19,TC1 ; |156| 
     778                                                      ; branchcc occurs ; |156| 
     779                      .dwpsn  file "C:/Users/a0221074/Desktop/C5000/IBM_Watson_TIdesign_workarea/CSL_bitbucket/c55_csl/c55x
     780 000032 A400          MOV *SP(#0), T0 ; |157| 
     781 000034 0600          B $C$L21  ; |157| 
         000036 48   
     782                                                      ; branch occurs ; |157| 
     783 000037       $C$L19:    
     784                      .dwpsn  file "C:/Users/a0221074/Desktop/C5000/IBM_Watson_TIdesign_workarea/CSL_bitbucket/c55_csl/c55x
     785 000037 A90E          MOV *SP(#7), AR1 ; |160| 
     786 000039 C904          MOV AR1, *SP(#2) ; |160| 
     787                      .dwpsn  file "C:/Users/a0221074/Desktop/C5000/IBM_Watson_TIdesign_workarea/CSL_bitbucket/c55_csl/c55x
     788 00003b 3C65          MOV #6, T1
     789              $C$DW$74        .dwtag  DW_TAG_TI_branch
     790                      .dwattr $C$DW$74, DW_AT_low_pc(0x00)
     791                      .dwattr $C$DW$74, DW_AT_name("_hlr_expn")
     792                      .dwattr $C$DW$74, DW_AT_TI_call
     793              
     794 00003d 6C00          CALL #_hlr_expn ; |161| 
         00003f 0000+
     795 000041 2394  ||      MOV AR1, T0
     796              
     797                                                      ; call occurs [#_hlr_expn] ; |161| 
     798 000043 C412          MOV T0, *SP(#9) ; |161| 
     799                      .dwpsn  file "C:/Users/a0221074/Desktop/C5000/IBM_Watson_TIdesign_workarea/CSL_bitbucket/c55_csl/c55x
TMS320C55x Assembler PC v4.4.1 Wed Sep 13 16:33:14 2017

Tools Copyright (c) 1996-2012 Texas Instruments Incorporated
C:\Users\a0221074\AppData\Local\Temp\0730410                         PAGE   18

     800              $C$DW$75        .dwtag  DW_TAG_TI_branch
     801                      .dwattr $C$DW$75, DW_AT_low_pc(0x00)
     802                      .dwattr $C$DW$75, DW_AT_name("_hlr_log_one")
     803                      .dwattr $C$DW$75, DW_AT_TI_call
     804 000045 6C00          CALL #_hlr_log_one ; |164| 
         000047 0000+
     805                                                      ; call occurs [#_hlr_log_one] ; |164| 
     806 000049 C410          MOV T0, *SP(#8) ; |164| 
     807                      .dwpsn  file "C:/Users/a0221074/Desktop/C5000/IBM_Watson_TIdesign_workarea/CSL_bitbucket/c55_csl/c55x
     808 00004b A010          MOV *SP(#8), AC0 ; |167| 
     809 00004d EB08          MOV AC0, dbl(*SP(#4)) ; |167| 
         00004f 08   
     810                      .dwpsn  file "C:/Users/a0221074/Desktop/C5000/IBM_Watson_TIdesign_workarea/CSL_bitbucket/c55_csl/c55x
     811 000050 ED08          MOV dbl(*SP(#4)), AC0 ; |168| 
         000052 08   
     812 000053 A100          MOV *SP(#0), AC1 ; |168| 
     813 000055 1013          ADD AC1 << #9, AC0 ; |168| 
         000057 09   
     814 000058 EB08          MOV AC0, dbl(*SP(#4)) ; |168| 
         00005a 08   
     815                      .dwpsn  file "C:/Users/a0221074/Desktop/C5000/IBM_Watson_TIdesign_workarea/CSL_bitbucket/c55_csl/c55x
     816 00005b 7601          MOV #256, AC0 ; |169| 
         00005d 0008 
     817 00005f ED08          ADD dbl(*SP(#4)), AC0, AC0 ; |169| 
         000061 00   
     818 000062 EB08          MOV AC0, dbl(*SP(#4)) ; |169| 
         000064 08   
     819                      .dwpsn  file "C:/Users/a0221074/Desktop/C5000/IBM_Watson_TIdesign_workarea/CSL_bitbucket/c55_csl/c55x
     820 000065 ED08          MOV dbl(*SP(#4)), AC0 ; |170| 
         000067 08   
     821 000068 1005          SFTS AC0, #-9, AC0 ; |170| 
         00006a 37   
     822 00006b EB08          MOV AC0, dbl(*SP(#4)) ; |170| 
         00006d 08   
     823                      .dwpsn  file "C:/Users/a0221074/Desktop/C5000/IBM_Watson_TIdesign_workarea/CSL_bitbucket/c55_csl/c55x
     824 00006e 767F          MOV #32767, AC0 ; |171| 
         000070 FF08 
     825 000072 ED08          MOV dbl(*SP(#4)), AC1 ; |171| 
         000074 18   
     826 000075 1208          CMP AC1 <= AC0, TC1 ; |171| 
         000077 10   
     827 000078 61E4          BCC $C$L20,TC1 ; |171| 
     828                                                      ; branchcc occurs ; |171| 
     829                      .dwpsn  file "C:/Users/a0221074/Desktop/C5000/IBM_Watson_TIdesign_workarea/CSL_bitbucket/c55_csl/c55x
     830 00007a EB08          MOV AC0, dbl(*SP(#4)) ; |172| 
         00007c 08   
     831 00007d       $C$L20:    
     832                      .dwpsn  file "C:/Users/a0221074/Desktop/C5000/IBM_Watson_TIdesign_workarea/CSL_bitbucket/c55_csl/c55x
     833 00007d A40A          MOV *SP(#5), T0 ; |174| 
     834 00007f       $C$L21:    
     835                      .dwpsn  file "C:/Users/a0221074/Desktop/C5000/IBM_Watson_TIdesign_workarea/CSL_bitbucket/c55_csl/c55x
     836 00007f 4E0B          AADD #11, SP
     837                      .dwcfi  cfa_offset, 1
     838              $C$DW$76        .dwtag  DW_TAG_TI_branch
     839                      .dwattr $C$DW$76, DW_AT_low_pc(0x00)
TMS320C55x Assembler PC v4.4.1 Wed Sep 13 16:33:14 2017

Tools Copyright (c) 1996-2012 Texas Instruments Incorporated
C:\Users\a0221074\AppData\Local\Temp\0730410                         PAGE   19

     840                      .dwattr $C$DW$76, DW_AT_TI_return
     841 000081 4804          RET
     842                                                      ; return occurs
     843                      .dwattr $C$DW$64, DW_AT_TI_end_file("C:/Users/a0221074/Desktop/C5000/IBM_Watson_TIdesign_workarea/CSL
     844                      .dwattr $C$DW$64, DW_AT_TI_end_line(0xaf)
     845                      .dwattr $C$DW$64, DW_AT_TI_end_column(0x01)
     846                      .dwendentry
     847                      .dwendtag $C$DW$64
     848              
     849 000000               .sect   ".text:_hlr_expn"
     850                      .clink
     851                      .global _hlr_expn
     852              
     853              $C$DW$77        .dwtag  DW_TAG_subprogram, DW_AT_name("hlr_expn")
     854                      .dwattr $C$DW$77, DW_AT_low_pc(_hlr_expn)
     855                      .dwattr $C$DW$77, DW_AT_high_pc(0x00)
     856                      .dwattr $C$DW$77, DW_AT_TI_symbol_name("_hlr_expn")
     857                      .dwattr $C$DW$77, DW_AT_external
     858                      .dwattr $C$DW$77, DW_AT_type(*$C$DW$T$9)
     859                      .dwattr $C$DW$77, DW_AT_TI_begin_file("C:/Users/a0221074/Desktop/C5000/IBM_Watson_TIdesign_workarea/C
     860                      .dwattr $C$DW$77, DW_AT_TI_begin_line(0xb8)
     861                      .dwattr $C$DW$77, DW_AT_TI_begin_column(0x27)
     862                      .dwattr $C$DW$77, DW_AT_TI_max_frame_size(0x14)
     863                      .dwpsn  file "C:/Users/a0221074/Desktop/C5000/IBM_Watson_TIdesign_workarea/CSL_bitbucket/c55_csl/c55x
     864              
     865                      .dwfde $C$DW$CIE, _hlr_expn
     866              $C$DW$78        .dwtag  DW_TAG_formal_parameter, DW_AT_name("x")
     867                      .dwattr $C$DW$78, DW_AT_TI_symbol_name("_x")
     868                      .dwattr $C$DW$78, DW_AT_type(*$C$DW$T$8)
     869                      .dwattr $C$DW$78, DW_AT_location[DW_OP_reg12]
     870              $C$DW$79        .dwtag  DW_TAG_formal_parameter, DW_AT_name("qpt")
     871                      .dwattr $C$DW$79, DW_AT_TI_symbol_name("_qpt")
     872                      .dwattr $C$DW$79, DW_AT_type(*$C$DW$T$8)
     873                      .dwattr $C$DW$79, DW_AT_location[DW_OP_reg13]
     874              ;*******************************************************************************
     875              ;* FUNCTION NAME: hlr_expn                                                     *
     876              ;*                                                                             *
     877              ;*   Function Uses Regs : AC0,AC0,AC1,AC1,T0,T1,AR1,AR2,XAR2,AR3,XAR3,SP,CSR,  *
     878              ;*                        RPTC,CARRY,TC1,M40,SATA,SATD,RDM,FRCT,SMUL           *
     879              ;*   Stack Frame        : Compact (No Frame Pointer, w/ debug)                 *
     880              ;*   Total Frame Size   : 20 words                                             *
     881              ;*                        (2 return address/alignment)                         *
     882              ;*                        (18 local values)                                    *
     883              ;*   Min System Stack   : 1 word                                               *
     884              ;*******************************************************************************
     885 000000       _hlr_expn:
     886                      .dwcfi  cfa_offset, 1
     887                      .dwcfi  save_reg_to_mem, 91, -1
     888 000000 4EED          AADD #-19, SP
     889                      .dwcfi  cfa_offset, 20
     890              $C$DW$80        .dwtag  DW_TAG_variable, DW_AT_name("x")
     891                      .dwattr $C$DW$80, DW_AT_TI_symbol_name("_x")
     892                      .dwattr $C$DW$80, DW_AT_type(*$C$DW$T$8)
     893                      .dwattr $C$DW$80, DW_AT_location[DW_OP_bregx 0x24 0]
     894              $C$DW$81        .dwtag  DW_TAG_variable, DW_AT_name("qpt")
TMS320C55x Assembler PC v4.4.1 Wed Sep 13 16:33:14 2017

Tools Copyright (c) 1996-2012 Texas Instruments Incorporated
C:\Users\a0221074\AppData\Local\Temp\0730410                         PAGE   20

     895                      .dwattr $C$DW$81, DW_AT_TI_symbol_name("_qpt")
     896                      .dwattr $C$DW$81, DW_AT_type(*$C$DW$T$8)
     897                      .dwattr $C$DW$81, DW_AT_location[DW_OP_bregx 0x24 1]
     898              $C$DW$82        .dwtag  DW_TAG_variable, DW_AT_name("ln2e")
     899                      .dwattr $C$DW$82, DW_AT_TI_symbol_name("_ln2e")
     900                      .dwattr $C$DW$82, DW_AT_type(*$C$DW$T$8)
     901                      .dwattr $C$DW$82, DW_AT_location[DW_OP_bregx 0x24 2]
     902              $C$DW$83        .dwtag  DW_TAG_variable, DW_AT_name("coef_pow2")
     903                      .dwattr $C$DW$83, DW_AT_TI_symbol_name("_coef_pow2")
     904                      .dwattr $C$DW$83, DW_AT_type(*$C$DW$T$109)
     905                      .dwattr $C$DW$83, DW_AT_location[DW_OP_bregx 0x24 3]
     906              $C$DW$84        .dwtag  DW_TAG_variable, DW_AT_name("temp")
     907                      .dwattr $C$DW$84, DW_AT_TI_symbol_name("_temp")
     908                      .dwattr $C$DW$84, DW_AT_type(*$C$DW$T$12)
     909                      .dwattr $C$DW$84, DW_AT_location[DW_OP_bregx 0x24 8]
     910              $C$DW$85        .dwtag  DW_TAG_variable, DW_AT_name("itemp")
     911                      .dwattr $C$DW$85, DW_AT_TI_symbol_name("_itemp")
     912                      .dwattr $C$DW$85, DW_AT_type(*$C$DW$T$12)
     913                      .dwattr $C$DW$85, DW_AT_location[DW_OP_bregx 0x24 10]
     914              $C$DW$86        .dwtag  DW_TAG_variable, DW_AT_name("ftemp")
     915                      .dwattr $C$DW$86, DW_AT_TI_symbol_name("_ftemp")
     916                      .dwattr $C$DW$86, DW_AT_type(*$C$DW$T$13)
     917                      .dwattr $C$DW$86, DW_AT_location[DW_OP_bregx 0x24 12]
     918              $C$DW$87        .dwtag  DW_TAG_variable, DW_AT_name("result")
     919                      .dwattr $C$DW$87, DW_AT_TI_symbol_name("_result")
     920                      .dwattr $C$DW$87, DW_AT_type(*$C$DW$T$9)
     921                      .dwattr $C$DW$87, DW_AT_location[DW_OP_bregx 0x24 14]
     922              $C$DW$88        .dwtag  DW_TAG_variable, DW_AT_name("frac")
     923                      .dwattr $C$DW$88, DW_AT_TI_symbol_name("_frac")
     924                      .dwattr $C$DW$88, DW_AT_type(*$C$DW$T$8)
     925                      .dwattr $C$DW$88, DW_AT_location[DW_OP_bregx 0x24 15]
     926              $C$DW$89        .dwtag  DW_TAG_variable, DW_AT_name("s_temp")
     927                      .dwattr $C$DW$89, DW_AT_TI_symbol_name("_s_temp")
     928                      .dwattr $C$DW$89, DW_AT_type(*$C$DW$T$8)
     929                      .dwattr $C$DW$89, DW_AT_location[DW_OP_bregx 0x24 16]
     930              $C$DW$90        .dwtag  DW_TAG_variable, DW_AT_name("coef")
     931                      .dwattr $C$DW$90, DW_AT_TI_symbol_name("_coef")
     932                      .dwattr $C$DW$90, DW_AT_type(*$C$DW$T$8)
     933                      .dwattr $C$DW$90, DW_AT_location[DW_OP_bregx 0x24 17]
     934 000002 C502          MOV T1, *SP(#1) ; |185| 
     935 000004 C400          MOV T0, *SP(#0) ; |185| 
     936                      .dwpsn  file "C:/Users/a0221074/Desktop/C5000/IBM_Watson_TIdesign_workarea/CSL_bitbucket/c55_csl/c55x
     937 000006 FB04          MOV #23637, *SP(#2) ; |187| 
         000008 5C55 
     938                      .dwpsn  file "C:/Users/a0221074/Desktop/C5000/IBM_Watson_TIdesign_workarea/CSL_bitbucket/c55_csl/c55x
     939 00000a EC31          AMOV #_$P$T0$1, XAR3 ; |190| 
         00000c BE00 
         00000e 0000+
     940              
     941 000013 4D04          RPT #4    ; |190| 
     942 000010 EC06  ||      AMAR *SP(#3), XAR2
         000012 AE   
     943              
     944                                                          ; loop starts ; |190| 
     945 000015       $C$L22:    
TMS320C55x Assembler PC v4.4.1 Wed Sep 13 16:33:14 2017

Tools Copyright (c) 1996-2012 Texas Instruments Incorporated
C:\Users\a0221074\AppData\Local\Temp\0730410                         PAGE   21

     946 000015       $C$DW$L$_hlr_expn$2$B:
     947 000015 8065              MOV *AR3+, *AR2+ ; |190| 
         000017 14   
     948                                                      ; loop ends ; |190| 
     949 000018       $C$DW$L$_hlr_expn$2$E:
     950 000018       $C$L23:    
     951                      .dwpsn  file "C:/Users/a0221074/Desktop/C5000/IBM_Watson_TIdesign_workarea/CSL_bitbucket/c55_csl/c55x
     952 000018 A500          MOV *SP(#0), T1 ; |200| 
     953 00001a D304          MPYM *SP(#2), T1, AC0 ; |200| 
         00001c 05   
     954 00001d EB10          MOV AC0, dbl(*SP(#8)) ; |200| 
         00001f 08   
     955                      .dwpsn  file "C:/Users/a0221074/Desktop/C5000/IBM_Watson_TIdesign_workarea/CSL_bitbucket/c55_csl/c55x
     956 000020 ED10          MOV dbl(*SP(#8)), AC0 ; |203| 
         000022 08   
     957 000023 3400          NEG AC0, AC0 ; |203| 
     958 000025 EB10          MOV AC0, dbl(*SP(#8)) ; |203| 
         000027 08   
     959                      .dwpsn  file "C:/Users/a0221074/Desktop/C5000/IBM_Watson_TIdesign_workarea/CSL_bitbucket/c55_csl/c55x
     960 000028 A902          MOV *SP(#1), AR1 ; |209| 
     961 00002a 40E9          ADD #14, AR1 ; |209| 
     962 00002c 2290          MOV AR1, AC0
     963 00002e 3400          NEG AC0, AC0 ; |209| 
     964              
     965 000030 ED10          MOV dbl(*SP(#8)), AC0 ; |209| 
         000032 08   
     966 000033 2305  ||      MOV AC0, T1 ; |209| 
     967              
     968 000035 5C05          SFTS AC0, T1, AC0 ; |209| 
     969 000037 EB14          MOV AC0, dbl(*SP(#10)) ; |209| 
         000039 08   
     970                      .dwpsn  file "C:/Users/a0221074/Desktop/C5000/IBM_Watson_TIdesign_workarea/CSL_bitbucket/c55_csl/c55x
     971 00003a ED14          MOV dbl(*SP(#10)), AC1 ; |210| 
         00003c 18   
     972 00003d 7600          MOV #16, AC0 ; |210| 
         00003f 1008 
     973 000041 1214          CMP AC1 < AC0, TC1 ; |210| 
         000043 00   
     974 000044 62E4          BCC $C$L24,TC1 ; |210| 
     975                                                      ; branchcc occurs ; |210| 
     976                      .dwpsn  file "C:/Users/a0221074/Desktop/C5000/IBM_Watson_TIdesign_workarea/CSL_bitbucket/c55_csl/c55x
     977 000046 3C00          MOV #0, AC0
     978 000048 0600          B $C$L30  ; |211| 
         00004a EF   
     979                                                      ; branch occurs ; |211| 
     980 00004b       $C$L24:    
     981                      .dwpsn  file "C:/Users/a0221074/Desktop/C5000/IBM_Watson_TIdesign_workarea/CSL_bitbucket/c55_csl/c55x
     982 00004b A916          MOV *SP(#11), AR1 ; |214| 
     983 00004d C920          MOV AR1, *SP(#16) ; |214| 
     984                      .dwpsn  file "C:/Users/a0221074/Desktop/C5000/IBM_Watson_TIdesign_workarea/CSL_bitbucket/c55_csl/c55x
     985 00004f A020          MOV *SP(#16), AC0 ; |215| 
     986 000051 3400          NEG AC0, AC0 ; |215| 
     987              
     988 000053 3C00          MOV #0, AC0 ; |215| 
     989 000055 2305  ||      MOV AC0, T1 ; |215| 
TMS320C55x Assembler PC v4.4.1 Wed Sep 13 16:33:14 2017

Tools Copyright (c) 1996-2012 Texas Instruments Incorporated
C:\Users\a0221074\AppData\Local\Temp\0730410                         PAGE   22

     990              
     991 000057 7E80          OR #0x8000, AC0, AC0 ; |215| 
         000059 0000 
     992 00005b 5C05          SFTS AC0, T1, AC0 ; |215| 
     993 00005d C01C          MOV AC0, *SP(#14) ; |215| 
     994                      .dwpsn  file "C:/Users/a0221074/Desktop/C5000/IBM_Watson_TIdesign_workarea/CSL_bitbucket/c55_csl/c55x
     995 00005f A502          MOV *SP(#1), T1 ; |219| 
     996              
     997 000061 ED14          MOV dbl(*SP(#10)), AC0 ; |219| 
         000063 08   
     998 000064 41E5  ||      ADD #14, T1 ; |219| 
     999              
    1000 000066 5C05          SFTS AC0, T1, AC0 ; |219| 
    1001 000068 EB18          MOV AC0, dbl(*SP(#12)) ; |219| 
         00006a 08   
    1002                      .dwpsn  file "C:/Users/a0221074/Desktop/C5000/IBM_Watson_TIdesign_workarea/CSL_bitbucket/c55_csl/c55x
    1003 00006b ED18          MOV dbl(*SP(#12)), AC0 ; |220| 
         00006d 08   
    1004              
    1005 000071 3700          NOT AC0, AC0 ; |220| 
    1006 00006e ED10  ||      MOV dbl(*SP(#8)), AC1 ; |220| 
         000070 18   
    1007              
    1008 000073 2810          AND AC1, AC0 ; |220| 
    1009 000075 EB18          MOV AC0, dbl(*SP(#12)) ; |220| 
         000077 08   
    1010                      .dwpsn  file "C:/Users/a0221074/Desktop/C5000/IBM_Watson_TIdesign_workarea/CSL_bitbucket/c55_csl/c55x
    1011 000078 A902          MOV *SP(#1), AR1 ; |221| 
    1012              
    1013 00007a 40E9          ADD #14, AR1 ; |221| 
    1014 00007c 3DFA  ||      MOV #15, AR2
    1015              
    1016 00007e 12A4          CMP AR1 > AR2, TC1 ; |221| 
         000080 90   
    1017 000081 0464          BCC $C$L25,TC1 ; |221| 
         000083 11   
    1018                                                      ; branchcc occurs ; |221| 
    1019                      .dwpsn  file "C:/Users/a0221074/Desktop/C5000/IBM_Watson_TIdesign_workarea/CSL_bitbucket/c55_csl/c55x
    1020 000084 3CF9          MOV #15, AR1
    1021 000086 D702          SUB *SP(#1), AR1, T1 ; |223| 
         000088 59   
    1022              
    1023 00008c 43E5          SUB #14, T1 ; |223| 
    1024 000089 ED18  ||      MOV dbl(*SP(#12)), AC0 ; |223| 
         00008b 08   
    1025              
    1026 00008e 5C04          SFTL AC0, T1, AC0 ; |223| 
    1027 000090 EB18          MOV AC0, dbl(*SP(#12)) ; |223| 
         000092 08   
    1028                      .dwpsn  file "C:/Users/a0221074/Desktop/C5000/IBM_Watson_TIdesign_workarea/CSL_bitbucket/c55_csl/c55x
    1029 000093 4A1E          B $C$L26  ; |224| 
    1030                                                      ; branch occurs ; |224| 
    1031 000095       $C$L25:    
    1032                      .dwpsn  file "C:/Users/a0221074/Desktop/C5000/IBM_Watson_TIdesign_workarea/CSL_bitbucket/c55_csl/c55x
    1033 000095 A502          MOV *SP(#1), T1 ; |227| 
TMS320C55x Assembler PC v4.4.1 Wed Sep 13 16:33:14 2017

Tools Copyright (c) 1996-2012 Texas Instruments Incorporated
C:\Users\a0221074\AppData\Local\Temp\0730410                         PAGE   23

    1034              
    1035 000097 4225          SUB #2, T1 ; |227| 
    1036 000099 3D10  ||      MOV #1, AC0
    1037              
    1038 00009b 5C05          SFTS AC0, T1, AC0 ; |227| 
    1039 00009d A010          MOV mmap(AC0L), AC0 ; |227| 
         00009f 98   
    1040 0000a0 ED18          ADD dbl(*SP(#12)), AC0, AC0 ; |227| 
         0000a2 00   
    1041 0000a3 EB18          MOV AC0, dbl(*SP(#12)) ; |227| 
         0000a5 08   
    1042                      .dwpsn  file "C:/Users/a0221074/Desktop/C5000/IBM_Watson_TIdesign_workarea/CSL_bitbucket/c55_csl/c55x
    1043              
    1044 0000a6 ED18          MOV dbl(*SP(#12)), AC0 ; |228| 
         0000a8 08   
    1045 0000a9 3D19  ||      MOV #1, AR1
    1046              
    1047 0000ab D702          SUB *SP(#1), AR1, T1 ; |228| 
         0000ad 59   
    1048 0000ae 5C04          SFTL AC0, T1, AC0 ; |228| 
    1049 0000b0 EB18          MOV AC0, dbl(*SP(#12)) ; |228| 
         0000b2 08   
    1050 0000b3       $C$L26:    
    1051                      .dwpsn  file "C:/Users/a0221074/Desktop/C5000/IBM_Watson_TIdesign_workarea/CSL_bitbucket/c55_csl/c55x
    1052 0000b3 A91A          MOV *SP(#13), AR1 ; |232| 
    1053 0000b5 C91E          MOV AR1, *SP(#15) ; |232| 
    1054                      .dwpsn  file "C:/Users/a0221074/Desktop/C5000/IBM_Watson_TIdesign_workarea/CSL_bitbucket/c55_csl/c55x
    1055 0000b7 7640          MOV #16384, AR2 ; |233| 
         0000b9 00A8 
    1056 0000bb 1294          CMP AR1 < AR2, TC1 ; |233| 
         0000bd A0   
    1057 0000be 0464          BCC $C$L27,TC1 ; |233| 
         0000c0 11   
    1058                                                      ; branchcc occurs ; |233| 
    1059                      .dwpsn  file "C:/Users/a0221074/Desktop/C5000/IBM_Watson_TIdesign_workarea/CSL_bitbucket/c55_csl/c55x
    1060 0000c1 A91C          MOV *SP(#14), AR1 ; |235| 
    1061 0000c3 5091          SFTL AR1, #-1 ; |235| 
    1062 0000c5 C91C          MOV AR1, *SP(#14) ; |235| 
    1063                      .dwpsn  file "C:/Users/a0221074/Desktop/C5000/IBM_Watson_TIdesign_workarea/CSL_bitbucket/c55_csl/c55x
    1064 0000c7 3C00          MOV #0, AC0 ; |236| 
    1065 0000c9 7E80          OR #0x8000, AC0, AC0 ; |236| 
         0000cb 0000 
    1066 0000cd D81E          SUB AC0, *SP(#15), AC0 ; |236| 
         0000cf 00   
    1067 0000d0 C01E          MOV AC0, *SP(#15) ; |236| 
    1068 0000d2       $C$L27:    
    1069                      .dwpsn  file "C:/Users/a0221074/Desktop/C5000/IBM_Watson_TIdesign_workarea/CSL_bitbucket/c55_csl/c55x
    1070 0000d2 A91E          MOV *SP(#15), AR1 ; |238| 
    1071 0000d4 3499          NEG AR1, AR1 ; |238| 
    1072 0000d6 C91E          MOV AR1, *SP(#15) ; |238| 
    1073                      .dwpsn  file "C:/Users/a0221074/Desktop/C5000/IBM_Watson_TIdesign_workarea/CSL_bitbucket/c55_csl/c55x
    1074 0000d8 A906          MOV *SP(#3), AR1 ; |241| 
    1075 0000da C920          MOV AR1, *SP(#16) ; |241| 
    1076                      .dwpsn  file "C:/Users/a0221074/Desktop/C5000/IBM_Watson_TIdesign_workarea/CSL_bitbucket/c55_csl/c55x
    1077 0000dc E622          MOV #1, *SP(#17) ; |242| 
TMS320C55x Assembler PC v4.4.1 Wed Sep 13 16:33:14 2017

Tools Copyright (c) 1996-2012 Texas Instruments Incorporated
C:\Users\a0221074\AppData\Local\Temp\0730410                         PAGE   24

         0000de 01   
    1078                      .dwpsn  file "C:/Users/a0221074/Desktop/C5000/IBM_Watson_TIdesign_workarea/CSL_bitbucket/c55_csl/c55x
    1079              
    1080 0000df A922          MOV *SP(#17), AR1 ; |242| 
    1081 0000e1 3D5A  ||      MOV #5, AR2
    1082              
    1083 0000e3 1298          CMP AR1 >= AR2, TC1 ; |242| 
         0000e5 A0   
    1084 0000e6 0464          BCC $C$L29,TC1 ; |242| 
         0000e8 39   
    1085                                                      ; branchcc occurs ; |242| 
    1086 0000e9       $C$L28:    
    1087 0000e9       $C$DW$L$_hlr_expn$11$B:
    1088                      .dwpsn  file "C:/Users/a0221074/Desktop/C5000/IBM_Watson_TIdesign_workarea/CSL_bitbucket/c55_csl/c55x
    1089 0000e9 A51E          MOV *SP(#15), T1 ; |245| 
    1090 0000eb D320          MPYM *SP(#16), T1, AC0 ; |245| 
         0000ed 05   
    1091 0000ee EB10          MOV AC0, dbl(*SP(#8)) ; |245| 
         0000f0 08   
    1092                      .dwpsn  file "C:/Users/a0221074/Desktop/C5000/IBM_Watson_TIdesign_workarea/CSL_bitbucket/c55_csl/c55x
    1093 0000f1 A422          MOV *SP(#17), T0 ; |246| 
    1094 0000f3 EC06          AMAR *SP(#3), XAR3
         0000f5 BE   
    1095 0000f6 ED10          MOV dbl(*SP(#8)), AC0 ; |246| 
         0000f8 08   
    1096 0000f9 A16B          MOV *AR3(T0), AC1 ; |246| 
    1097 0000fb 1013          ADD AC1 << #15, AC0 ; |246| 
         0000fd 0F   
    1098 0000fe EB10          MOV AC0, dbl(*SP(#8)) ; |246| 
         000100 08   
    1099                      .dwpsn  file "C:/Users/a0221074/Desktop/C5000/IBM_Watson_TIdesign_workarea/CSL_bitbucket/c55_csl/c55x
    1100 000101 7640          MOV #16384, AC0 ; |249| 
         000103 0008 
    1101 000105 ED10          ADD dbl(*SP(#8)), AC0, AC0 ; |249| 
         000107 00   
    1102 000108 EB10          MOV AC0, dbl(*SP(#8)) ; |249| 
         00010a 08   
    1103                      .dwpsn  file "C:/Users/a0221074/Desktop/C5000/IBM_Watson_TIdesign_workarea/CSL_bitbucket/c55_csl/c55x
    1104 00010b ED10          MOV dbl(*SP(#8)), AC0 ; |250| 
         00010d 08   
    1105 00010e 1005          SFTS AC0, #-15, AC0 ; |250| 
         000110 31   
    1106 000111 EB10          MOV AC0, dbl(*SP(#8)) ; |250| 
         000113 08   
    1107 000114 C020          MOV AC0, *SP(#16) ; |250| 
    1108                      .dwpsn  file "C:/Users/a0221074/Desktop/C5000/IBM_Watson_TIdesign_workarea/CSL_bitbucket/c55_csl/c55x
    1109 000116 F722          ADD #1, *SP(#17) ; |242| 
         000118 0001 
    1110                      .dwpsn  file "C:/Users/a0221074/Desktop/C5000/IBM_Watson_TIdesign_workarea/CSL_bitbucket/c55_csl/c55x
    1111 00011a A922          MOV *SP(#17), AR1 ; |242| 
    1112 00011c 1294          CMP AR1 < AR2, TC1 ; |242| 
         00011e A0   
    1113 00011f 0464          BCC $C$L28,TC1 ; |242| 
         000121 C7   
    1114                                                      ; branchcc occurs ; |242| 
TMS320C55x Assembler PC v4.4.1 Wed Sep 13 16:33:14 2017

Tools Copyright (c) 1996-2012 Texas Instruments Incorporated
C:\Users\a0221074\AppData\Local\Temp\0730410                         PAGE   25

    1115 000122       $C$DW$L$_hlr_expn$11$E:
    1116 000122       $C$L29:    
    1117                      .dwpsn  file "C:/Users/a0221074/Desktop/C5000/IBM_Watson_TIdesign_workarea/CSL_bitbucket/c55_csl/c55x
    1118 000122 A520          MOV *SP(#16), T1 ; |254| 
    1119 000124 D31C          MPYMU *SP(#14), T1, AC0 ; |254| 
         000126 0D   
    1120 000127 EB10          MOV AC0, dbl(*SP(#8)) ; |254| 
         000129 08   
    1121                      .dwpsn  file "C:/Users/a0221074/Desktop/C5000/IBM_Watson_TIdesign_workarea/CSL_bitbucket/c55_csl/c55x
    1122 00012a 7620          MOV #8192, AC0 ; |257| 
         00012c 0008 
    1123 00012e ED10          ADD dbl(*SP(#8)), AC0, AC0 ; |257| 
         000130 00   
    1124 000131 EB10          MOV AC0, dbl(*SP(#8)) ; |257| 
         000133 08   
    1125                      .dwpsn  file "C:/Users/a0221074/Desktop/C5000/IBM_Watson_TIdesign_workarea/CSL_bitbucket/c55_csl/c55x
    1126 000134 ED10          MOV dbl(*SP(#8)), AC0 ; |258| 
         000136 08   
    1127 000137 1005          SFTS AC0, #-14, AC0 ; |258| 
         000139 32   
    1128 00013a       $C$L30:    
    1129                      .dwpsn  file "C:/Users/a0221074/Desktop/C5000/IBM_Watson_TIdesign_workarea/CSL_bitbucket/c55_csl/c55x
    1130 00013a 2204          MOV AC0, T0 ; |258| 
    1131 00013c 4E13          AADD #19, SP ; |258| 
    1132                      .dwcfi  cfa_offset, 1
    1133              $C$DW$91        .dwtag  DW_TAG_TI_branch
    1134                      .dwattr $C$DW$91, DW_AT_low_pc(0x00)
    1135                      .dwattr $C$DW$91, DW_AT_TI_return
    1136 00013e 4804          RET       ; |258| 
    1137                                                      ; return occurs ; |258| 
    1138              
    1139              $C$DW$92        .dwtag  DW_TAG_TI_loop
    1140                      .dwattr $C$DW$92, DW_AT_name("C:\\Users\\a0221074\\AppData\\Local\\Temp\\0730410:$C$L28:1:1505334792"
    1141                      .dwattr $C$DW$92, DW_AT_TI_begin_file("C:/Users/a0221074/Desktop/C5000/IBM_Watson_TIdesign_workarea/C
    1142                      .dwattr $C$DW$92, DW_AT_TI_begin_line(0xf2)
    1143                      .dwattr $C$DW$92, DW_AT_TI_end_line(0xfb)
    1144              $C$DW$93        .dwtag  DW_TAG_TI_loop_range
    1145                      .dwattr $C$DW$93, DW_AT_low_pc($C$DW$L$_hlr_expn$11$B)
    1146                      .dwattr $C$DW$93, DW_AT_high_pc($C$DW$L$_hlr_expn$11$E)
    1147                      .dwendtag $C$DW$92
    1148              
    1149              
    1150              $C$DW$94        .dwtag  DW_TAG_TI_loop
    1151                      .dwattr $C$DW$94, DW_AT_name("C:\\Users\\a0221074\\AppData\\Local\\Temp\\0730410:$C$L22:1:1505334792"
    1152                      .dwattr $C$DW$94, DW_AT_TI_begin_file("C:/Users/a0221074/Desktop/C5000/IBM_Watson_TIdesign_workarea/C
    1153                      .dwattr $C$DW$94, DW_AT_TI_begin_line(0xbe)
    1154                      .dwattr $C$DW$94, DW_AT_TI_end_line(0xbe)
    1155              $C$DW$95        .dwtag  DW_TAG_TI_loop_range
    1156                      .dwattr $C$DW$95, DW_AT_low_pc($C$DW$L$_hlr_expn$2$B)
    1157                      .dwattr $C$DW$95, DW_AT_high_pc($C$DW$L$_hlr_expn$2$E)
    1158                      .dwendtag $C$DW$94
    1159              
    1160                      .dwattr $C$DW$77, DW_AT_TI_end_file("C:/Users/a0221074/Desktop/C5000/IBM_Watson_TIdesign_workarea/CSL
    1161                      .dwattr $C$DW$77, DW_AT_TI_end_line(0x103)
    1162                      .dwattr $C$DW$77, DW_AT_TI_end_column(0x01)
TMS320C55x Assembler PC v4.4.1 Wed Sep 13 16:33:14 2017

Tools Copyright (c) 1996-2012 Texas Instruments Incorporated
C:\Users\a0221074\AppData\Local\Temp\0730410                         PAGE   26

    1163                      .dwendentry
    1164                      .dwendtag $C$DW$77
    1165              
    1166 000000               .sect   ".text:_hlr_expn_q"
    1167                      .clink
    1168                      .global _hlr_expn_q
    1169              
    1170              $C$DW$96        .dwtag  DW_TAG_subprogram, DW_AT_name("hlr_expn_q")
    1171                      .dwattr $C$DW$96, DW_AT_low_pc(_hlr_expn_q)
    1172                      .dwattr $C$DW$96, DW_AT_high_pc(0x00)
    1173                      .dwattr $C$DW$96, DW_AT_TI_symbol_name("_hlr_expn_q")
    1174                      .dwattr $C$DW$96, DW_AT_external
    1175                      .dwattr $C$DW$96, DW_AT_type(*$C$DW$T$9)
    1176                      .dwattr $C$DW$96, DW_AT_TI_begin_file("C:/Users/a0221074/Desktop/C5000/IBM_Watson_TIdesign_workarea/C
    1177                      .dwattr $C$DW$96, DW_AT_TI_begin_line(0x10b)
    1178                      .dwattr $C$DW$96, DW_AT_TI_begin_column(0x10)
    1179                      .dwattr $C$DW$96, DW_AT_TI_max_frame_size(0x0c)
    1180                      .dwpsn  file "C:/Users/a0221074/Desktop/C5000/IBM_Watson_TIdesign_workarea/CSL_bitbucket/c55_csl/c55x
    1181              
    1182                      .dwfde $C$DW$CIE, _hlr_expn_q
    1183              $C$DW$97        .dwtag  DW_TAG_formal_parameter, DW_AT_name("x")
    1184                      .dwattr $C$DW$97, DW_AT_TI_symbol_name("_x")
    1185                      .dwattr $C$DW$97, DW_AT_type(*$C$DW$T$8)
    1186                      .dwattr $C$DW$97, DW_AT_location[DW_OP_reg12]
    1187              $C$DW$98        .dwtag  DW_TAG_formal_parameter, DW_AT_name("qpt")
    1188                      .dwattr $C$DW$98, DW_AT_TI_symbol_name("_qpt")
    1189                      .dwattr $C$DW$98, DW_AT_type(*$C$DW$T$8)
    1190                      .dwattr $C$DW$98, DW_AT_location[DW_OP_reg13]
    1191              $C$DW$99        .dwtag  DW_TAG_formal_parameter, DW_AT_name("rNorm")
    1192                      .dwattr $C$DW$99, DW_AT_TI_symbol_name("_rNorm")
    1193                      .dwattr $C$DW$99, DW_AT_type(*$C$DW$T$21)
    1194                      .dwattr $C$DW$99, DW_AT_location[DW_OP_reg17]
    1195              ;*******************************************************************************
    1196              ;* FUNCTION NAME: hlr_expn_q                                                   *
    1197              ;*                                                                             *
    1198              ;*   Function Uses Regs : AC0,AC0,AC1,AC1,T0,T1,AR0,XAR0,AR1,AR3,XAR3,SP,CARRY,*
    1199              ;*                        TC1,M40,SATA,SATD,RDM,FRCT,SMUL                      *
    1200              ;*   Stack Frame        : Compact (No Frame Pointer, w/ debug)                 *
    1201              ;*   Total Frame Size   : 12 words                                             *
    1202              ;*                        (2 return address/alignment)                         *
    1203              ;*                        (10 local values)                                    *
    1204              ;*   Min System Stack   : 1 word                                               *
    1205              ;*******************************************************************************
    1206 000000       _hlr_expn_q:
    1207                      .dwcfi  cfa_offset, 1
    1208                      .dwcfi  save_reg_to_mem, 91, -1
    1209 000000 4EF5          AADD #-11, SP
    1210                      .dwcfi  cfa_offset, 12
    1211              $C$DW$100       .dwtag  DW_TAG_variable, DW_AT_name("x")
    1212                      .dwattr $C$DW$100, DW_AT_TI_symbol_name("_x")
    1213                      .dwattr $C$DW$100, DW_AT_type(*$C$DW$T$8)
    1214                      .dwattr $C$DW$100, DW_AT_location[DW_OP_bregx 0x24 0]
    1215              $C$DW$101       .dwtag  DW_TAG_variable, DW_AT_name("qpt")
    1216                      .dwattr $C$DW$101, DW_AT_TI_symbol_name("_qpt")
    1217                      .dwattr $C$DW$101, DW_AT_type(*$C$DW$T$8)
TMS320C55x Assembler PC v4.4.1 Wed Sep 13 16:33:14 2017

Tools Copyright (c) 1996-2012 Texas Instruments Incorporated
C:\Users\a0221074\AppData\Local\Temp\0730410                         PAGE   27

    1218                      .dwattr $C$DW$101, DW_AT_location[DW_OP_bregx 0x24 1]
    1219              $C$DW$102       .dwtag  DW_TAG_variable, DW_AT_name("rNorm")
    1220                      .dwattr $C$DW$102, DW_AT_TI_symbol_name("_rNorm")
    1221                      .dwattr $C$DW$102, DW_AT_type(*$C$DW$T$21)
    1222                      .dwattr $C$DW$102, DW_AT_location[DW_OP_bregx 0x24 2]
    1223              $C$DW$103       .dwtag  DW_TAG_variable, DW_AT_name("tmpx")
    1224                      .dwattr $C$DW$103, DW_AT_TI_symbol_name("_tmpx")
    1225                      .dwattr $C$DW$103, DW_AT_type(*$C$DW$T$20)
    1226                      .dwattr $C$DW$103, DW_AT_location[DW_OP_bregx 0x24 4]
    1227              $C$DW$104       .dwtag  DW_TAG_variable, DW_AT_name("norm")
    1228                      .dwattr $C$DW$104, DW_AT_TI_symbol_name("_norm")
    1229                      .dwattr $C$DW$104, DW_AT_type(*$C$DW$T$8)
    1230                      .dwattr $C$DW$104, DW_AT_location[DW_OP_bregx 0x24 5]
    1231              $C$DW$105       .dwtag  DW_TAG_variable, DW_AT_name("ltmp")
    1232                      .dwattr $C$DW$105, DW_AT_TI_symbol_name("_ltmp")
    1233                      .dwattr $C$DW$105, DW_AT_type(*$C$DW$T$12)
    1234                      .dwattr $C$DW$105, DW_AT_location[DW_OP_bregx 0x24 6]
    1235              $C$DW$106       .dwtag  DW_TAG_variable, DW_AT_name("lnum")
    1236                      .dwattr $C$DW$106, DW_AT_TI_symbol_name("_lnum")
    1237                      .dwattr $C$DW$106, DW_AT_type(*$C$DW$T$12)
    1238                      .dwattr $C$DW$106, DW_AT_location[DW_OP_bregx 0x24 8]
    1239 000002 EB04          MOV XAR0, dbl(*SP(#2))
         000004 85   
    1240 000005 C502          MOV T1, *SP(#1) ; |268| 
    1241 000007 C400          MOV T0, *SP(#0) ; |268| 
    1242                      .dwpsn  file "C:/Users/a0221074/Desktop/C5000/IBM_Watson_TIdesign_workarea/CSL_bitbucket/c55_csl/c55x
    1243 000009 7A40          MOV #16384 << #16, AC0 ; |271| 
         00000b 000A 
    1244 00000d EB10          MOV AC0, dbl(*SP(#8)) ; |271| 
         00000f 08   
    1245                      .dwpsn  file "C:/Users/a0221074/Desktop/C5000/IBM_Watson_TIdesign_workarea/CSL_bitbucket/c55_csl/c55x
    1246 000010 ED04          MOV dbl(*SP(#2)), XAR3
         000012 BF   
    1247 000013 E661          MOV #15, *AR3 ; |273| 
         000015 0F   
    1248                      .dwpsn  file "C:/Users/a0221074/Desktop/C5000/IBM_Watson_TIdesign_workarea/CSL_bitbucket/c55_csl/c55x
    1249 000016 A900          MOV *SP(#0), AR1 ; |275| 
    1250 000018 6399          BCC $C$L31,AR1 != #0 ; |275| 
    1251                                                      ; branchcc occurs ; |275| 
    1252                      .dwpsn  file "C:/Users/a0221074/Desktop/C5000/IBM_Watson_TIdesign_workarea/CSL_bitbucket/c55_csl/c55x
    1253 00001a 7680          MOV #32768, T0 ; |276| 
         00001c 0048 
    1254 00001e 0600          B $C$L40  ; |276| 
         000020 98   
    1255                                                      ; branch occurs ; |276| 
    1256 000021       $C$L31:    
    1257                      .dwpsn  file "C:/Users/a0221074/Desktop/C5000/IBM_Watson_TIdesign_workarea/CSL_bitbucket/c55_csl/c55x
    1258 000021 65D9          BCC $C$L32,AR1 >= #0 ; |278| 
    1259                                                      ; branchcc occurs ; |278| 
    1260                      .dwpsn  file "C:/Users/a0221074/Desktop/C5000/IBM_Watson_TIdesign_workarea/CSL_bitbucket/c55_csl/c55x
    1261 000023 A502          MOV *SP(#1), T1 ; |279| 
    1262              $C$DW$107       .dwtag  DW_TAG_TI_branch
    1263                      .dwattr $C$DW$107, DW_AT_low_pc(0x00)
    1264                      .dwattr $C$DW$107, DW_AT_name("_hlr_expn")
    1265                      .dwattr $C$DW$107, DW_AT_TI_call
TMS320C55x Assembler PC v4.4.1 Wed Sep 13 16:33:14 2017

Tools Copyright (c) 1996-2012 Texas Instruments Incorporated
C:\Users\a0221074\AppData\Local\Temp\0730410                         PAGE   28

    1266              
    1267 000025 6C00          CALL #_hlr_expn ; |279| 
         000027 0000+
    1268 000029 2394  ||      MOV AR1, T0
    1269              
    1270                                                      ; call occurs [#_hlr_expn] ; |279| 
    1271 00002b 0600          B $C$L40  ; |279| 
         00002d 8B   
    1272                                                      ; branch occurs ; |279| 
    1273 00002e       $C$L32:    
    1274                      .dwpsn  file "C:/Users/a0221074/Desktop/C5000/IBM_Watson_TIdesign_workarea/CSL_bitbucket/c55_csl/c55x
    1275 00002e A502          MOV *SP(#1), T1 ; |281| 
    1276              $C$DW$108       .dwtag  DW_TAG_TI_branch
    1277                      .dwattr $C$DW$108, DW_AT_low_pc(0x00)
    1278                      .dwattr $C$DW$108, DW_AT_name("_hlr_expn")
    1279                      .dwattr $C$DW$108, DW_AT_TI_call
    1280              
    1281 000030 6C00          CALL #_hlr_expn ; |281| 
         000032 0000+
    1282 000034 3594  ||      NEG AR1, T0 ; |281| 
    1283              
    1284                                                      ; call occurs [#_hlr_expn] ; |281| 
    1285 000036 C408          MOV T0, *SP(#4) ; |281| 
    1286                      .dwpsn  file "C:/Users/a0221074/Desktop/C5000/IBM_Watson_TIdesign_workarea/CSL_bitbucket/c55_csl/c55x
    1287 000038 2249          MOV T0, AR1
    1288 00003a 6519          BCC $C$L33,AR1 != #0 ; |282| 
    1289                                                      ; branchcc occurs ; |282| 
    1290                      .dwpsn  file "C:/Users/a0221074/Desktop/C5000/IBM_Watson_TIdesign_workarea/CSL_bitbucket/c55_csl/c55x
    1291 00003c FB08          MOV #32768, *SP(#4) ; |283| 
         00003e 8000 
    1292                      .dwpsn  file "C:/Users/a0221074/Desktop/C5000/IBM_Watson_TIdesign_workarea/CSL_bitbucket/c55_csl/c55x
    1293 000040 E60A          MOV #0, *SP(#5) ; |283| 
         000042 00   
    1294                      .dwpsn  file "C:/Users/a0221074/Desktop/C5000/IBM_Watson_TIdesign_workarea/CSL_bitbucket/c55_csl/c55x
    1295 000043 0600          B $C$L39  ; |284| 
         000045 6A   
    1296                                                      ; branch occurs ; |284| 
    1297 000046       $C$L33:    
    1298                      .dwpsn  file "C:/Users/a0221074/Desktop/C5000/IBM_Watson_TIdesign_workarea/CSL_bitbucket/c55_csl/c55x
    1299 000046 DF08          MOV uns(*SP(#4)), AC1 ; |285| 
         000048 15   
    1300 000049 ED10          MOV dbl(*SP(#8)), AC0 ; |285| 
         00004b 08   
    1301              $C$DW$109       .dwtag  DW_TAG_TI_branch
    1302                      .dwattr $C$DW$109, DW_AT_low_pc(0x00)
    1303                      .dwattr $C$DW$109, DW_AT_name("__divli")
    1304                      .dwattr $C$DW$109, DW_AT_TI_call
    1305 00004c 6C00          CALL #__divli ; |285| 
         00004e 0000!
    1306                                                      ; call occurs [#__divli] ; |285| 
    1307 000050 EB0C          MOV AC0, dbl(*SP(#6)) ; |285| 
         000052 08   
    1308                      .dwpsn  file "C:/Users/a0221074/Desktop/C5000/IBM_Watson_TIdesign_workarea/CSL_bitbucket/c55_csl/c55x
    1309 000053 E60A          MOV #15, *SP(#5) ; |286| 
         000055 0F   
TMS320C55x Assembler PC v4.4.1 Wed Sep 13 16:33:14 2017

Tools Copyright (c) 1996-2012 Texas Instruments Incorporated
C:\Users\a0221074\AppData\Local\Temp\0730410                         PAGE   29

    1310                      .dwpsn  file "C:/Users/a0221074/Desktop/C5000/IBM_Watson_TIdesign_workarea/CSL_bitbucket/c55_csl/c55x
    1311 000056 3C00          MOV #0, AC0 ; |287| 
    1312 000058 7E80          OR #0x8000, AC0, AC0 ; |287| 
         00005a 0000 
    1313 00005c ED0C          MOV dbl(*SP(#6)), AC1 ; |287| 
         00005e 18   
    1314 00005f 1208          CMP AC1 <= AC0, TC1 ; |287| 
         000061 10   
    1315 000062 0464          BCC $C$L35,TC1 ; |287| 
         000064 1B   
    1316                                                      ; branchcc occurs ; |287| 
    1317 000065       $C$L34:    
    1318 000065       $C$DW$L$_hlr_expn_q$9$B:
    1319                      .dwpsn  file "C:/Users/a0221074/Desktop/C5000/IBM_Watson_TIdesign_workarea/CSL_bitbucket/c55_csl/c55x
    1320 000065 ED0C          MOV dbl(*SP(#6)), AC0 ; |287| 
         000067 08   
    1321 000068 4440          SFTS AC0, #-1 ; |287| 
    1322 00006a EB0C          MOV AC0, dbl(*SP(#6)) ; |287| 
         00006c 08   
    1323                      .dwpsn  file "C:/Users/a0221074/Desktop/C5000/IBM_Watson_TIdesign_workarea/CSL_bitbucket/c55_csl/c55x
    1324 00006d F70A          SUB #1, *SP(#5) ; |287| 
         00006f FFFF 
    1325                      .dwpsn  file "C:/Users/a0221074/Desktop/C5000/IBM_Watson_TIdesign_workarea/CSL_bitbucket/c55_csl/c55x
    1326              
    1327 000074 3D00          MOV #0, AC0 ; |287| 
    1328 000071 ED0C  ||      MOV dbl(*SP(#6)), AC1 ; |287| 
         000073 18   
    1329              
    1330 000076 7E80          OR #0x8000, AC0, AC0 ; |287| 
         000078 0000 
    1331 00007a 1204          CMP AC1 > AC0, TC1 ; |287| 
         00007c 10   
    1332 00007d 0464          BCC $C$L34,TC1 ; |287| 
         00007f E5   
    1333                                                      ; branchcc occurs ; |287| 
    1334 000080       $C$DW$L$_hlr_expn_q$9$E:
    1335 000080       $C$L35:    
    1336                      .dwpsn  file "C:/Users/a0221074/Desktop/C5000/IBM_Watson_TIdesign_workarea/CSL_bitbucket/c55_csl/c55x
    1337 000080 7680          MOV #-32768, AC0 ; |288| 
         000082 0008 
    1338 000084 ED0C          MOV dbl(*SP(#6)), AC1 ; |288| 
         000086 18   
    1339 000087 1208          CMP AC1 <= AC0, TC1 ; |288| 
         000089 10   
    1340 00008a 61E4          BCC $C$L36,TC1 ; |288| 
    1341                                                      ; branchcc occurs ; |288| 
    1342 00008c ED0C          MOV dbl(*SP(#6)), AC0 ; |288| 
         00008e 08   
    1343 00008f       $C$L36:    
    1344 00008f 767F          MOV #32767, AC1 ; |288| 
         000091 FF18 
    1345 000093 1208          CMP AC0 >= AC1, TC1 ; |288| 
         000095 10   
    1346 000096 0464          BCC $C$L37,TC1 ; |288| 
         000098 11   
TMS320C55x Assembler PC v4.4.1 Wed Sep 13 16:33:14 2017

Tools Copyright (c) 1996-2012 Texas Instruments Incorporated
C:\Users\a0221074\AppData\Local\Temp\0730410                         PAGE   30

    1347                                                      ; branchcc occurs ; |288| 
    1348 000099 7680          MOV #-32768, AC0 ; |288| 
         00009b 0008 
    1349 00009d ED0C          MOV dbl(*SP(#6)), AC1 ; |288| 
         00009f 18   
    1350 0000a0 1208          CMP AC1 <= AC0, TC1 ; |288| 
         0000a2 10   
    1351 0000a3 64E4          BCC $C$L38,TC1 ; |288| 
    1352                                                      ; branchcc occurs ; |288| 
    1353 0000a5 ED0C          MOV dbl(*SP(#6)), AC0 ; |288| 
         0000a7 08   
    1354 0000a8 4A04          B $C$L38  ; |288| 
    1355                                                      ; branch occurs ; |288| 
    1356 0000aa       $C$L37:    
    1357 0000aa 767F          MOV #32767, AC0 ; |288| 
         0000ac FF08 
    1358 0000ae       $C$L38:    
    1359 0000ae C008          MOV AC0, *SP(#4) ; |288| 
    1360 0000b0       $C$L39:    
    1361                      .dwpsn  file "C:/Users/a0221074/Desktop/C5000/IBM_Watson_TIdesign_workarea/CSL_bitbucket/c55_csl/c55x
    1362 0000b0 ED04          MOV dbl(*SP(#2)), XAR3
         0000b2 BF   
    1363 0000b3 A90A          MOV *SP(#5), AR1 ; |290| 
    1364 0000b5 C961          MOV AR1, *AR3 ; |290| 
    1365                      .dwpsn  file "C:/Users/a0221074/Desktop/C5000/IBM_Watson_TIdesign_workarea/CSL_bitbucket/c55_csl/c55x
    1366 0000b7 A408          MOV *SP(#4), T0 ; |291| 
    1367 0000b9       $C$L40:    
    1368                      .dwpsn  file "C:/Users/a0221074/Desktop/C5000/IBM_Watson_TIdesign_workarea/CSL_bitbucket/c55_csl/c55x
    1369 0000b9 4E0B          AADD #11, SP
    1370                      .dwcfi  cfa_offset, 1
    1371              $C$DW$110       .dwtag  DW_TAG_TI_branch
    1372                      .dwattr $C$DW$110, DW_AT_low_pc(0x00)
    1373                      .dwattr $C$DW$110, DW_AT_TI_return
    1374 0000bb 4804          RET
    1375                                                      ; return occurs
    1376              
    1377              $C$DW$111       .dwtag  DW_TAG_TI_loop
    1378                      .dwattr $C$DW$111, DW_AT_name("C:\\Users\\a0221074\\AppData\\Local\\Temp\\0730410:$C$L34:1:1505334792
    1379                      .dwattr $C$DW$111, DW_AT_TI_begin_file("C:/Users/a0221074/Desktop/C5000/IBM_Watson_TIdesign_workarea/
    1380                      .dwattr $C$DW$111, DW_AT_TI_begin_line(0x11f)
    1381                      .dwattr $C$DW$111, DW_AT_TI_end_line(0x11f)
    1382              $C$DW$112       .dwtag  DW_TAG_TI_loop_range
    1383                      .dwattr $C$DW$112, DW_AT_low_pc($C$DW$L$_hlr_expn_q$9$B)
    1384                      .dwattr $C$DW$112, DW_AT_high_pc($C$DW$L$_hlr_expn_q$9$E)
    1385                      .dwendtag $C$DW$111
    1386              
    1387                      .dwattr $C$DW$96, DW_AT_TI_end_file("C:/Users/a0221074/Desktop/C5000/IBM_Watson_TIdesign_workarea/CSL
    1388                      .dwattr $C$DW$96, DW_AT_TI_end_line(0x126)
    1389                      .dwattr $C$DW$96, DW_AT_TI_end_column(0x01)
    1390                      .dwendentry
    1391                      .dwendtag $C$DW$96
    1392              
    1393 000000               .sect   ".text:_hlr_log_one"
    1394                      .clink
    1395                      .global _hlr_log_one
TMS320C55x Assembler PC v4.4.1 Wed Sep 13 16:33:14 2017

Tools Copyright (c) 1996-2012 Texas Instruments Incorporated
C:\Users\a0221074\AppData\Local\Temp\0730410                         PAGE   31

    1396              
    1397              $C$DW$113       .dwtag  DW_TAG_subprogram, DW_AT_name("hlr_log_one")
    1398                      .dwattr $C$DW$113, DW_AT_low_pc(_hlr_log_one)
    1399                      .dwattr $C$DW$113, DW_AT_high_pc(0x00)
    1400                      .dwattr $C$DW$113, DW_AT_TI_symbol_name("_hlr_log_one")
    1401                      .dwattr $C$DW$113, DW_AT_external
    1402                      .dwattr $C$DW$113, DW_AT_type(*$C$DW$T$8)
    1403                      .dwattr $C$DW$113, DW_AT_TI_begin_file("C:/Users/a0221074/Desktop/C5000/IBM_Watson_TIdesign_workarea/
    1404                      .dwattr $C$DW$113, DW_AT_TI_begin_line(0x12e)
    1405                      .dwattr $C$DW$113, DW_AT_TI_begin_column(0x1e)
    1406                      .dwattr $C$DW$113, DW_AT_TI_max_frame_size(0x0c)
    1407                      .dwpsn  file "C:/Users/a0221074/Desktop/C5000/IBM_Watson_TIdesign_workarea/CSL_bitbucket/c55_csl/c55x
    1408              
    1409                      .dwfde $C$DW$CIE, _hlr_log_one
    1410              $C$DW$114       .dwtag  DW_TAG_formal_parameter, DW_AT_name("x")
    1411                      .dwattr $C$DW$114, DW_AT_TI_symbol_name("_x")
    1412                      .dwattr $C$DW$114, DW_AT_type(*$C$DW$T$9)
    1413                      .dwattr $C$DW$114, DW_AT_location[DW_OP_reg12]
    1414              ;*******************************************************************************
    1415              ;* FUNCTION NAME: hlr_log_one                                                  *
    1416              ;*                                                                             *
    1417              ;*   Function Uses Regs : AC0,AC0,AC1,AC1,T0,T1,AR1,AR2,XAR2,AR3,XAR3,SP,CSR,  *
    1418              ;*                        RPTC,CARRY,TC1,M40,SATA,SATD,RDM,FRCT,SMUL           *
    1419              ;*   Stack Frame        : Compact (No Frame Pointer, w/ debug)                 *
    1420              ;*   Total Frame Size   : 12 words                                             *
    1421              ;*                        (1 return address/alignment)                         *
    1422              ;*                        (11 local values)                                    *
    1423              ;*   Min System Stack   : 1 word                                               *
    1424              ;*******************************************************************************
    1425 000000       _hlr_log_one:
    1426                      .dwcfi  cfa_offset, 1
    1427                      .dwcfi  save_reg_to_mem, 91, -1
    1428 000000 4EF5          AADD #-11, SP
    1429                      .dwcfi  cfa_offset, 12
    1430              $C$DW$115       .dwtag  DW_TAG_variable, DW_AT_name("x")
    1431                      .dwattr $C$DW$115, DW_AT_TI_symbol_name("_x")
    1432                      .dwattr $C$DW$115, DW_AT_type(*$C$DW$T$9)
    1433                      .dwattr $C$DW$115, DW_AT_location[DW_OP_bregx 0x24 0]
    1434              $C$DW$116       .dwtag  DW_TAG_variable, DW_AT_name("coef_lnopx")
    1435                      .dwattr $C$DW$116, DW_AT_TI_symbol_name("_coef_lnopx")
    1436                      .dwattr $C$DW$116, DW_AT_type(*$C$DW$T$109)
    1437                      .dwattr $C$DW$116, DW_AT_location[DW_OP_bregx 0x24 1]
    1438              $C$DW$117       .dwtag  DW_TAG_variable, DW_AT_name("temp")
    1439                      .dwattr $C$DW$117, DW_AT_TI_symbol_name("_temp")
    1440                      .dwattr $C$DW$117, DW_AT_type(*$C$DW$T$12)
    1441                      .dwattr $C$DW$117, DW_AT_location[DW_OP_bregx 0x24 6]
    1442              $C$DW$118       .dwtag  DW_TAG_variable, DW_AT_name("s_temp")
    1443                      .dwattr $C$DW$118, DW_AT_TI_symbol_name("_s_temp")
    1444                      .dwattr $C$DW$118, DW_AT_type(*$C$DW$T$8)
    1445                      .dwattr $C$DW$118, DW_AT_location[DW_OP_bregx 0x24 8]
    1446              $C$DW$119       .dwtag  DW_TAG_variable, DW_AT_name("data")
    1447                      .dwattr $C$DW$119, DW_AT_TI_symbol_name("_data")
    1448                      .dwattr $C$DW$119, DW_AT_type(*$C$DW$T$8)
    1449                      .dwattr $C$DW$119, DW_AT_location[DW_OP_bregx 0x24 9]
    1450              $C$DW$120       .dwtag  DW_TAG_variable, DW_AT_name("coef")
TMS320C55x Assembler PC v4.4.1 Wed Sep 13 16:33:14 2017

Tools Copyright (c) 1996-2012 Texas Instruments Incorporated
C:\Users\a0221074\AppData\Local\Temp\0730410                         PAGE   32

    1451                      .dwattr $C$DW$120, DW_AT_TI_symbol_name("_coef")
    1452                      .dwattr $C$DW$120, DW_AT_type(*$C$DW$T$8)
    1453                      .dwattr $C$DW$120, DW_AT_location[DW_OP_bregx 0x24 10]
    1454 000002 C400          MOV T0, *SP(#0) ; |303| 
    1455                      .dwpsn  file "C:/Users/a0221074/Desktop/C5000/IBM_Watson_TIdesign_workarea/CSL_bitbucket/c55_csl/c55x
    1456 000004 EC31          AMOV #_$P$T1$2, XAR3 ; |305| 
         000006 BE00 
         000008 0000+
    1457              
    1458 00000d 4D04          RPT #4    ; |305| 
    1459 00000a EC02  ||      AMAR *SP(#1), XAR2
         00000c AE   
    1460              
    1461                                                          ; loop starts ; |305| 
    1462 00000f       $C$L41:    
    1463 00000f       $C$DW$L$_hlr_log_one$2$B:
    1464 00000f 8065              MOV *AR3+, *AR2+ ; |305| 
         000011 14   
    1465                                                      ; loop ends ; |305| 
    1466 000012       $C$DW$L$_hlr_log_one$2$E:
    1467 000012       $C$L42:    
    1468                      .dwpsn  file "C:/Users/a0221074/Desktop/C5000/IBM_Watson_TIdesign_workarea/CSL_bitbucket/c55_csl/c55x
    1469 000012 7680          MOV #32768, AR2 ; |313| 
         000014 00A8 
    1470 000016 A900          MOV *SP(#0), AR1 ; |313| 
    1471 000018 129C          CMPU AR1 != AR2, TC1 ; |313| 
         00001a A4   
    1472 00001b 63E4          BCC $C$L43,TC1 ; |313| 
    1473                                                      ; branchcc occurs ; |313| 
    1474                      .dwpsn  file "C:/Users/a0221074/Desktop/C5000/IBM_Watson_TIdesign_workarea/CSL_bitbucket/c55_csl/c55x
    1475 00001d 7658          MOV #22713, T0 ; |314| 
         00001f B948 
    1476 000021 0600          B $C$L46  ; |314| 
         000023 4D   
    1477                                                      ; branch occurs ; |314| 
    1478 000024       $C$L43:    
    1479                      .dwpsn  file "C:/Users/a0221074/Desktop/C5000/IBM_Watson_TIdesign_workarea/CSL_bitbucket/c55_csl/c55x
    1480 000024 A900          MOV *SP(#0), AR1 ; |318| 
    1481 000026 C912          MOV AR1, *SP(#9) ; |318| 
    1482                      .dwpsn  file "C:/Users/a0221074/Desktop/C5000/IBM_Watson_TIdesign_workarea/CSL_bitbucket/c55_csl/c55x
    1483 000028 A902          MOV *SP(#1), AR1 ; |319| 
    1484 00002a C910          MOV AR1, *SP(#8) ; |319| 
    1485                      .dwpsn  file "C:/Users/a0221074/Desktop/C5000/IBM_Watson_TIdesign_workarea/CSL_bitbucket/c55_csl/c55x
    1486 00002c E614          MOV #1, *SP(#10) ; |320| 
         00002e 01   
    1487                      .dwpsn  file "C:/Users/a0221074/Desktop/C5000/IBM_Watson_TIdesign_workarea/CSL_bitbucket/c55_csl/c55x
    1488              
    1489 00002f A914          MOV *SP(#10), AR1 ; |320| 
    1490 000031 3D5A  ||      MOV #5, AR2
    1491              
    1492 000033 1298          CMP AR1 >= AR2, TC1 ; |320| 
         000035 A0   
    1493 000036 0464          BCC $C$L45,TC1 ; |320| 
         000038 36   
    1494                                                      ; branchcc occurs ; |320| 
TMS320C55x Assembler PC v4.4.1 Wed Sep 13 16:33:14 2017

Tools Copyright (c) 1996-2012 Texas Instruments Incorporated
C:\Users\a0221074\AppData\Local\Temp\0730410                         PAGE   33

    1495 000039       $C$L44:    
    1496 000039       $C$DW$L$_hlr_log_one$6$B:
    1497                      .dwpsn  file "C:/Users/a0221074/Desktop/C5000/IBM_Watson_TIdesign_workarea/CSL_bitbucket/c55_csl/c55x
    1498 000039 A512          MOV *SP(#9), T1 ; |323| 
    1499 00003b D310          MPYM *SP(#8), T1, AC0 ; |323| 
         00003d 05   
    1500 00003e EB0C          MOV AC0, dbl(*SP(#6)) ; |323| 
         000040 08   
    1501                      .dwpsn  file "C:/Users/a0221074/Desktop/C5000/IBM_Watson_TIdesign_workarea/CSL_bitbucket/c55_csl/c55x
    1502 000041 A414          MOV *SP(#10), T0 ; |324| 
    1503 000043 EC02          AMAR *SP(#1), XAR3
         000045 BE   
    1504 000046 ED0C          MOV dbl(*SP(#6)), AC0 ; |324| 
         000048 08   
    1505 000049 A16B          MOV *AR3(T0), AC1 ; |324| 
    1506 00004b 1013          ADD AC1 << #15, AC0 ; |324| 
         00004d 0F   
    1507 00004e EB0C          MOV AC0, dbl(*SP(#6)) ; |324| 
         000050 08   
    1508                      .dwpsn  file "C:/Users/a0221074/Desktop/C5000/IBM_Watson_TIdesign_workarea/CSL_bitbucket/c55_csl/c55x
    1509 000051 7640          MOV #16384, AC0 ; |327| 
         000053 0008 
    1510 000055 ED0C          ADD dbl(*SP(#6)), AC0, AC0 ; |327| 
         000057 00   
    1511 000058 EB0C          MOV AC0, dbl(*SP(#6)) ; |327| 
         00005a 08   
    1512                      .dwpsn  file "C:/Users/a0221074/Desktop/C5000/IBM_Watson_TIdesign_workarea/CSL_bitbucket/c55_csl/c55x
    1513 00005b ED0C          MOV dbl(*SP(#6)), AC0 ; |328| 
         00005d 08   
    1514 00005e 1005          SFTS AC0, #-15, AC0 ; |328| 
         000060 31   
    1515 000061 C010          MOV AC0, *SP(#8) ; |328| 
    1516                      .dwpsn  file "C:/Users/a0221074/Desktop/C5000/IBM_Watson_TIdesign_workarea/CSL_bitbucket/c55_csl/c55x
    1517 000063 F714          ADD #1, *SP(#10) ; |320| 
         000065 0001 
    1518                      .dwpsn  file "C:/Users/a0221074/Desktop/C5000/IBM_Watson_TIdesign_workarea/CSL_bitbucket/c55_csl/c55x
    1519 000067 A914          MOV *SP(#10), AR1 ; |320| 
    1520 000069 1294          CMP AR1 < AR2, TC1 ; |320| 
         00006b A0   
    1521 00006c 0464          BCC $C$L44,TC1 ; |320| 
         00006e CA   
    1522                                                      ; branchcc occurs ; |320| 
    1523 00006f       $C$DW$L$_hlr_log_one$6$E:
    1524 00006f       $C$L45:    
    1525                      .dwpsn  file "C:/Users/a0221074/Desktop/C5000/IBM_Watson_TIdesign_workarea/CSL_bitbucket/c55_csl/c55x
    1526 00006f A410          MOV *SP(#8), T0 ; |331| 
    1527 000071       $C$L46:    
    1528                      .dwpsn  file "C:/Users/a0221074/Desktop/C5000/IBM_Watson_TIdesign_workarea/CSL_bitbucket/c55_csl/c55x
    1529 000071 4E0B          AADD #11, SP
    1530                      .dwcfi  cfa_offset, 1
    1531              $C$DW$121       .dwtag  DW_TAG_TI_branch
    1532                      .dwattr $C$DW$121, DW_AT_low_pc(0x00)
    1533                      .dwattr $C$DW$121, DW_AT_TI_return
    1534 000073 4804          RET
    1535                                                      ; return occurs
TMS320C55x Assembler PC v4.4.1 Wed Sep 13 16:33:14 2017

Tools Copyright (c) 1996-2012 Texas Instruments Incorporated
C:\Users\a0221074\AppData\Local\Temp\0730410                         PAGE   34

    1536              
    1537              $C$DW$122       .dwtag  DW_TAG_TI_loop
    1538                      .dwattr $C$DW$122, DW_AT_name("C:\\Users\\a0221074\\AppData\\Local\\Temp\\0730410:$C$L44:1:1505334792
    1539                      .dwattr $C$DW$122, DW_AT_TI_begin_file("C:/Users/a0221074/Desktop/C5000/IBM_Watson_TIdesign_workarea/
    1540                      .dwattr $C$DW$122, DW_AT_TI_begin_line(0x140)
    1541                      .dwattr $C$DW$122, DW_AT_TI_end_line(0x149)
    1542              $C$DW$123       .dwtag  DW_TAG_TI_loop_range
    1543                      .dwattr $C$DW$123, DW_AT_low_pc($C$DW$L$_hlr_log_one$6$B)
    1544                      .dwattr $C$DW$123, DW_AT_high_pc($C$DW$L$_hlr_log_one$6$E)
    1545                      .dwendtag $C$DW$122
    1546              
    1547              
    1548              $C$DW$124       .dwtag  DW_TAG_TI_loop
    1549                      .dwattr $C$DW$124, DW_AT_name("C:\\Users\\a0221074\\AppData\\Local\\Temp\\0730410:$C$L41:1:1505334792
    1550                      .dwattr $C$DW$124, DW_AT_TI_begin_file("C:/Users/a0221074/Desktop/C5000/IBM_Watson_TIdesign_workarea/
    1551                      .dwattr $C$DW$124, DW_AT_TI_begin_line(0x131)
    1552                      .dwattr $C$DW$124, DW_AT_TI_end_line(0x131)
    1553              $C$DW$125       .dwtag  DW_TAG_TI_loop_range
    1554                      .dwattr $C$DW$125, DW_AT_low_pc($C$DW$L$_hlr_log_one$2$B)
    1555                      .dwattr $C$DW$125, DW_AT_high_pc($C$DW$L$_hlr_log_one$2$E)
    1556                      .dwendtag $C$DW$124
    1557              
    1558                      .dwattr $C$DW$113, DW_AT_TI_end_file("C:/Users/a0221074/Desktop/C5000/IBM_Watson_TIdesign_workarea/CS
    1559                      .dwattr $C$DW$113, DW_AT_TI_end_line(0x14c)
    1560                      .dwattr $C$DW$113, DW_AT_TI_end_column(0x01)
    1561                      .dwendentry
    1562                      .dwendtag $C$DW$113
    1563              
    1564 000000               .sect   ".text:_q15_x"
    1565                      .clink
    1566                      .global _q15_x
    1567              
    1568              $C$DW$126       .dwtag  DW_TAG_subprogram, DW_AT_name("q15_x")
    1569                      .dwattr $C$DW$126, DW_AT_low_pc(_q15_x)
    1570                      .dwattr $C$DW$126, DW_AT_high_pc(0x00)
    1571                      .dwattr $C$DW$126, DW_AT_TI_symbol_name("_q15_x")
    1572                      .dwattr $C$DW$126, DW_AT_external
    1573                      .dwattr $C$DW$126, DW_AT_type(*$C$DW$T$12)
    1574                      .dwattr $C$DW$126, DW_AT_TI_begin_file("C:/Users/a0221074/Desktop/C5000/IBM_Watson_TIdesign_workarea/
    1575                      .dwattr $C$DW$126, DW_AT_TI_begin_line(0x151)
    1576                      .dwattr $C$DW$126, DW_AT_TI_begin_column(0x1d)
    1577                      .dwattr $C$DW$126, DW_AT_TI_max_frame_size(0x0a)
    1578                      .dwpsn  file "C:/Users/a0221074/Desktop/C5000/IBM_Watson_TIdesign_workarea/CSL_bitbucket/c55_csl/c55x
    1579              
    1580                      .dwfde $C$DW$CIE, _q15_x
    1581              $C$DW$127       .dwtag  DW_TAG_formal_parameter, DW_AT_name("a")
    1582                      .dwattr $C$DW$127, DW_AT_TI_symbol_name("_a")
    1583                      .dwattr $C$DW$127, DW_AT_type(*$C$DW$T$20)
    1584                      .dwattr $C$DW$127, DW_AT_location[DW_OP_reg12]
    1585              $C$DW$128       .dwtag  DW_TAG_formal_parameter, DW_AT_name("b")
    1586                      .dwattr $C$DW$128, DW_AT_TI_symbol_name("_b")
    1587                      .dwattr $C$DW$128, DW_AT_type(*$C$DW$T$12)
    1588                      .dwattr $C$DW$128, DW_AT_location[DW_OP_reg0]
    1589              ;*******************************************************************************
    1590              ;* FUNCTION NAME: q15_x                                                        *
TMS320C55x Assembler PC v4.4.1 Wed Sep 13 16:33:14 2017

Tools Copyright (c) 1996-2012 Texas Instruments Incorporated
C:\Users\a0221074\AppData\Local\Temp\0730410                         PAGE   35

    1591              ;*                                                                             *
    1592              ;*   Function Uses Regs : AC0,AC0,AC1,AC1,T0,T1,AR1,SP,CARRY,TC1,M40,SATA,SATD,*
    1593              ;*                        RDM,FRCT,SMUL                                        *
    1594              ;*   Stack Frame        : Compact (No Frame Pointer, w/ debug)                 *
    1595              ;*   Total Frame Size   : 10 words                                             *
    1596              ;*                        (2 return address/alignment)                         *
    1597              ;*                        (8 local values)                                     *
    1598              ;*   Min System Stack   : 1 word                                               *
    1599              ;*******************************************************************************
    1600 000000       _q15_x:
    1601                      .dwcfi  cfa_offset, 1
    1602                      .dwcfi  save_reg_to_mem, 91, -1
    1603 000000 4EF7          AADD #-9, SP
    1604                      .dwcfi  cfa_offset, 10
    1605              $C$DW$129       .dwtag  DW_TAG_variable, DW_AT_name("a")
    1606                      .dwattr $C$DW$129, DW_AT_TI_symbol_name("_a")
    1607                      .dwattr $C$DW$129, DW_AT_type(*$C$DW$T$20)
    1608                      .dwattr $C$DW$129, DW_AT_location[DW_OP_bregx 0x24 0]
    1609              $C$DW$130       .dwtag  DW_TAG_variable, DW_AT_name("b")
    1610                      .dwattr $C$DW$130, DW_AT_TI_symbol_name("_b")
    1611                      .dwattr $C$DW$130, DW_AT_type(*$C$DW$T$12)
    1612                      .dwattr $C$DW$130, DW_AT_location[DW_OP_bregx 0x24 2]
    1613              $C$DW$131       .dwtag  DW_TAG_variable, DW_AT_name("tmp")
    1614                      .dwattr $C$DW$131, DW_AT_TI_symbol_name("_tmp")
    1615                      .dwattr $C$DW$131, DW_AT_type(*$C$DW$T$12)
    1616                      .dwattr $C$DW$131, DW_AT_location[DW_OP_bregx 0x24 4]
    1617              $C$DW$132       .dwtag  DW_TAG_variable, DW_AT_name("norm")
    1618                      .dwattr $C$DW$132, DW_AT_TI_symbol_name("_norm")
    1619                      .dwattr $C$DW$132, DW_AT_type(*$C$DW$T$8)
    1620                      .dwattr $C$DW$132, DW_AT_location[DW_OP_bregx 0x24 6]
    1621              $C$DW$133       .dwtag  DW_TAG_variable, DW_AT_name("tmp_s")
    1622                      .dwattr $C$DW$133, DW_AT_TI_symbol_name("_tmp_s")
    1623                      .dwattr $C$DW$133, DW_AT_type(*$C$DW$T$8)
    1624                      .dwattr $C$DW$133, DW_AT_location[DW_OP_bregx 0x24 7]
    1625 000002 EB04          MOV AC0, dbl(*SP(#2)) ; |338| 
         000004 08   
    1626 000005 C400          MOV T0, *SP(#0) ; |338| 
    1627                      .dwpsn  file "C:/Users/a0221074/Desktop/C5000/IBM_Watson_TIdesign_workarea/CSL_bitbucket/c55_csl/c55x
    1628 000007 ED04          MOV dbl(*SP(#2)), AC0 ; |342| 
         000009 08   
    1629 00000a 6290          BCC $C$L47,AC0 != #0 ; |342| 
    1630                                                      ; branchcc occurs ; |342| 
    1631                      .dwpsn  file "C:/Users/a0221074/Desktop/C5000/IBM_Watson_TIdesign_workarea/CSL_bitbucket/c55_csl/c55x
    1632 00000c 3C00          MOV #0, AC0 ; |342| 
    1633 00000e 0600          B $C$L53  ; |342| 
         000010 6E   
    1634                                                      ; branch occurs ; |342| 
    1635 000011       $C$L47:    
    1636                      .dwpsn  file "C:/Users/a0221074/Desktop/C5000/IBM_Watson_TIdesign_workarea/CSL_bitbucket/c55_csl/c55x
    1637 000011 ED04          MOV dbl(*SP(#2)), AC0 ; |344| 
         000013 08   
    1638 000014 62B0          BCC $C$L48,AC0 <= #0 ; |344| 
    1639                                                      ; branchcc occurs ; |344| 
    1640 000016 ED04          MOV dbl(*SP(#2)), AC0 ; |344| 
         000018 08   
TMS320C55x Assembler PC v4.4.1 Wed Sep 13 16:33:14 2017

Tools Copyright (c) 1996-2012 Texas Instruments Incorporated
C:\Users\a0221074\AppData\Local\Temp\0730410                         PAGE   36

    1641 000019 4A05          B $C$L49  ; |344| 
    1642                                                      ; branch occurs ; |344| 
    1643 00001b       $C$L48:    
    1644 00001b ED04          MOV dbl(*SP(#2)), AC0 ; |344| 
         00001d 08   
    1645 00001e 3400          NEG AC0, AC0 ; |344| 
    1646 000020       $C$L49:    
    1647 000020 EB08          MOV AC0, dbl(*SP(#4)) ; |344| 
         000022 08   
    1648                      .dwpsn  file "C:/Users/a0221074/Desktop/C5000/IBM_Watson_TIdesign_workarea/CSL_bitbucket/c55_csl/c55x
    1649 000023 E60C          MOV #0, *SP(#6) ; |345| 
         000025 00   
    1650 000026 7A40          MOV #16384 << #16, AC0 ; |345| 
         000028 000A 
    1651 00002a ED08          MOV dbl(*SP(#4)), AC1 ; |345| 
         00002c 18   
    1652 00002d 1218          CMP AC1 >= AC0, TC1 ; |345| 
         00002f 00   
    1653 000030 0464          BCC $C$L51,TC1 ; |345| 
         000032 19   
    1654                                                      ; branchcc occurs ; |345| 
    1655 000033       $C$L50:    
    1656 000033       $C$DW$L$_q15_x$7$B:
    1657 000033 ED08          MOV dbl(*SP(#4)), AC0 ; |345| 
         000035 08   
    1658 000036 5000          SFTL AC0, #1 ; |345| 
    1659 000038 EB08          MOV AC0, dbl(*SP(#4)) ; |345| 
         00003a 08   
    1660 00003b F70C          ADD #1, *SP(#6) ; |345| 
         00003d 0001 
    1661 00003f 7A40          MOV #16384 << #16, AC0 ; |345| 
         000041 000A 
    1662 000043 ED08          MOV dbl(*SP(#4)), AC1 ; |345| 
         000045 18   
    1663 000046 1214          CMP AC1 < AC0, TC1 ; |345| 
         000048 00   
    1664 000049 0464          BCC $C$L50,TC1 ; |345| 
         00004b E7   
    1665                                                      ; branchcc occurs ; |345| 
    1666 00004c       $C$DW$L$_q15_x$7$E:
    1667 00004c       $C$L51:    
    1668                      .dwpsn  file "C:/Users/a0221074/Desktop/C5000/IBM_Watson_TIdesign_workarea/CSL_bitbucket/c55_csl/c55x
    1669 00004c ED08          MOV dbl(*SP(#4)), AC0 ; |346| 
         00004e 08   
    1670 00004f BC0E          MOV HI(AC0), *SP(#7) ; |346| 
    1671                      .dwpsn  file "C:/Users/a0221074/Desktop/C5000/IBM_Watson_TIdesign_workarea/CSL_bitbucket/c55_csl/c55x
    1672 000051 B000          MOV *SP(#0) << #16, AC0
    1673 000053 1007          SFTL AC0, #0, AC0 ; |347| 
         000055 00   
    1674 000056 D30E          MPYM *SP(#7), AC0, AC0 ; |347| 
         000058 00   
    1675 000059 EB08          MOV AC0, dbl(*SP(#4)) ; |347| 
         00005b 08   
    1676                      .dwpsn  file "C:/Users/a0221074/Desktop/C5000/IBM_Watson_TIdesign_workarea/CSL_bitbucket/c55_csl/c55x
    1677 00005c ED08          MOV dbl(*SP(#4)), AC0 ; |348| 
TMS320C55x Assembler PC v4.4.1 Wed Sep 13 16:33:14 2017

Tools Copyright (c) 1996-2012 Texas Instruments Incorporated
C:\Users\a0221074\AppData\Local\Temp\0730410                         PAGE   37

         00005e 08   
    1678 00005f 5000          SFTL AC0, #1 ; |348| 
    1679 000061 EB08          MOV AC0, dbl(*SP(#4)) ; |348| 
         000063 08   
    1680                      .dwpsn  file "C:/Users/a0221074/Desktop/C5000/IBM_Watson_TIdesign_workarea/CSL_bitbucket/c55_csl/c55x
    1681 000064 A90C          MOV *SP(#6), AR1 ; |349| 
    1682              
    1683 000066 ED08          MOV dbl(*SP(#4)), AC0 ; |349| 
         000068 08   
    1684 000069 3595  ||      NEG AR1, T1 ; |349| 
    1685              
    1686 00006b 5C05          SFTS AC0, T1, AC0 ; |349| 
    1687 00006d EB08          MOV AC0, dbl(*SP(#4)) ; |349| 
         00006f 08   
    1688                      .dwpsn  file "C:/Users/a0221074/Desktop/C5000/IBM_Watson_TIdesign_workarea/CSL_bitbucket/c55_csl/c55x
    1689 000070 ED04          MOV dbl(*SP(#2)), AC0 ; |350| 
         000072 08   
    1690 000073 62B0          BCC $C$L52,AC0 <= #0 ; |350| 
    1691                                                      ; branchcc occurs ; |350| 
    1692 000075 ED08          MOV dbl(*SP(#4)), AC0 ; |350| 
         000077 08   
    1693 000078 4A05          B $C$L53  ; |350| 
    1694                                                      ; branch occurs ; |350| 
    1695 00007a       $C$L52:    
    1696 00007a ED08          MOV dbl(*SP(#4)), AC0 ; |350| 
         00007c 08   
    1697 00007d 3400          NEG AC0, AC0 ; |350| 
    1698 00007f       $C$L53:    
    1699                      .dwpsn  file "C:/Users/a0221074/Desktop/C5000/IBM_Watson_TIdesign_workarea/CSL_bitbucket/c55_csl/c55x
    1700 00007f 4E09          AADD #9, SP
    1701                      .dwcfi  cfa_offset, 1
    1702              $C$DW$134       .dwtag  DW_TAG_TI_branch
    1703                      .dwattr $C$DW$134, DW_AT_low_pc(0x00)
    1704                      .dwattr $C$DW$134, DW_AT_TI_return
    1705 000081 4804          RET
    1706                                                      ; return occurs
    1707              
    1708              $C$DW$135       .dwtag  DW_TAG_TI_loop
    1709                      .dwattr $C$DW$135, DW_AT_name("C:\\Users\\a0221074\\AppData\\Local\\Temp\\0730410:$C$L50:1:1505334792
    1710                      .dwattr $C$DW$135, DW_AT_TI_begin_file("C:/Users/a0221074/Desktop/C5000/IBM_Watson_TIdesign_workarea/
    1711                      .dwattr $C$DW$135, DW_AT_TI_begin_line(0x159)
    1712                      .dwattr $C$DW$135, DW_AT_TI_end_line(0x159)
    1713              $C$DW$136       .dwtag  DW_TAG_TI_loop_range
    1714                      .dwattr $C$DW$136, DW_AT_low_pc($C$DW$L$_q15_x$7$B)
    1715                      .dwattr $C$DW$136, DW_AT_high_pc($C$DW$L$_q15_x$7$E)
    1716                      .dwendtag $C$DW$135
    1717              
    1718                      .dwattr $C$DW$126, DW_AT_TI_end_file("C:/Users/a0221074/Desktop/C5000/IBM_Watson_TIdesign_workarea/CS
    1719                      .dwattr $C$DW$126, DW_AT_TI_end_line(0x160)
    1720                      .dwattr $C$DW$126, DW_AT_TI_end_column(0x01)
    1721                      .dwendentry
    1722                      .dwendtag $C$DW$126
    1723              
    1724 000000               .sect   ".text:_q14_x"
    1725                      .clink
TMS320C55x Assembler PC v4.4.1 Wed Sep 13 16:33:14 2017

Tools Copyright (c) 1996-2012 Texas Instruments Incorporated
C:\Users\a0221074\AppData\Local\Temp\0730410                         PAGE   38

    1726                      .global _q14_x
    1727              
    1728              $C$DW$137       .dwtag  DW_TAG_subprogram, DW_AT_name("q14_x")
    1729                      .dwattr $C$DW$137, DW_AT_low_pc(_q14_x)
    1730                      .dwattr $C$DW$137, DW_AT_high_pc(0x00)
    1731                      .dwattr $C$DW$137, DW_AT_TI_symbol_name("_q14_x")
    1732                      .dwattr $C$DW$137, DW_AT_external
    1733                      .dwattr $C$DW$137, DW_AT_type(*$C$DW$T$12)
    1734                      .dwattr $C$DW$137, DW_AT_TI_begin_file("C:/Users/a0221074/Desktop/C5000/IBM_Watson_TIdesign_workarea/
    1735                      .dwattr $C$DW$137, DW_AT_TI_begin_line(0x166)
    1736                      .dwattr $C$DW$137, DW_AT_TI_begin_column(0x1d)
    1737                      .dwattr $C$DW$137, DW_AT_TI_max_frame_size(0x0a)
    1738                      .dwpsn  file "C:/Users/a0221074/Desktop/C5000/IBM_Watson_TIdesign_workarea/CSL_bitbucket/c55_csl/c55x
    1739              
    1740                      .dwfde $C$DW$CIE, _q14_x
    1741              $C$DW$138       .dwtag  DW_TAG_formal_parameter, DW_AT_name("a")
    1742                      .dwattr $C$DW$138, DW_AT_TI_symbol_name("_a")
    1743                      .dwattr $C$DW$138, DW_AT_type(*$C$DW$T$8)
    1744                      .dwattr $C$DW$138, DW_AT_location[DW_OP_reg12]
    1745              $C$DW$139       .dwtag  DW_TAG_formal_parameter, DW_AT_name("b")
    1746                      .dwattr $C$DW$139, DW_AT_TI_symbol_name("_b")
    1747                      .dwattr $C$DW$139, DW_AT_type(*$C$DW$T$12)
    1748                      .dwattr $C$DW$139, DW_AT_location[DW_OP_reg0]
    1749              ;*******************************************************************************
    1750              ;* FUNCTION NAME: q14_x                                                        *
    1751              ;*                                                                             *
    1752              ;*   Function Uses Regs : AC0,AC0,AC1,AC1,T0,T1,AR1,SP,CARRY,TC1,M40,SATA,SATD,*
    1753              ;*                        RDM,FRCT,SMUL                                        *
    1754              ;*   Stack Frame        : Compact (No Frame Pointer, w/ debug)                 *
    1755              ;*   Total Frame Size   : 10 words                                             *
    1756              ;*                        (2 return address/alignment)                         *
    1757              ;*                        (8 local values)                                     *
    1758              ;*   Min System Stack   : 1 word                                               *
    1759              ;*******************************************************************************
    1760 000000       _q14_x:
    1761                      .dwcfi  cfa_offset, 1
    1762                      .dwcfi  save_reg_to_mem, 91, -1
    1763 000000 4EF7          AADD #-9, SP
    1764                      .dwcfi  cfa_offset, 10
    1765              $C$DW$140       .dwtag  DW_TAG_variable, DW_AT_name("a")
    1766                      .dwattr $C$DW$140, DW_AT_TI_symbol_name("_a")
    1767                      .dwattr $C$DW$140, DW_AT_type(*$C$DW$T$8)
    1768                      .dwattr $C$DW$140, DW_AT_location[DW_OP_bregx 0x24 0]
    1769              $C$DW$141       .dwtag  DW_TAG_variable, DW_AT_name("b")
    1770                      .dwattr $C$DW$141, DW_AT_TI_symbol_name("_b")
    1771                      .dwattr $C$DW$141, DW_AT_type(*$C$DW$T$12)
    1772                      .dwattr $C$DW$141, DW_AT_location[DW_OP_bregx 0x24 2]
    1773              $C$DW$142       .dwtag  DW_TAG_variable, DW_AT_name("tmp")
    1774                      .dwattr $C$DW$142, DW_AT_TI_symbol_name("_tmp")
    1775                      .dwattr $C$DW$142, DW_AT_type(*$C$DW$T$12)
    1776                      .dwattr $C$DW$142, DW_AT_location[DW_OP_bregx 0x24 4]
    1777              $C$DW$143       .dwtag  DW_TAG_variable, DW_AT_name("norm")
    1778                      .dwattr $C$DW$143, DW_AT_TI_symbol_name("_norm")
    1779                      .dwattr $C$DW$143, DW_AT_type(*$C$DW$T$8)
    1780                      .dwattr $C$DW$143, DW_AT_location[DW_OP_bregx 0x24 6]
TMS320C55x Assembler PC v4.4.1 Wed Sep 13 16:33:14 2017

Tools Copyright (c) 1996-2012 Texas Instruments Incorporated
C:\Users\a0221074\AppData\Local\Temp\0730410                         PAGE   39

    1781              $C$DW$144       .dwtag  DW_TAG_variable, DW_AT_name("tmp_s")
    1782                      .dwattr $C$DW$144, DW_AT_TI_symbol_name("_tmp_s")
    1783                      .dwattr $C$DW$144, DW_AT_type(*$C$DW$T$8)
    1784                      .dwattr $C$DW$144, DW_AT_location[DW_OP_bregx 0x24 7]
    1785 000002 EB04          MOV AC0, dbl(*SP(#2)) ; |359| 
         000004 08   
    1786 000005 C400          MOV T0, *SP(#0) ; |359| 
    1787                      .dwpsn  file "C:/Users/a0221074/Desktop/C5000/IBM_Watson_TIdesign_workarea/CSL_bitbucket/c55_csl/c55x
    1788 000007 ED04          MOV dbl(*SP(#2)), AC0 ; |363| 
         000009 08   
    1789 00000a 6290          BCC $C$L54,AC0 != #0 ; |363| 
    1790                                                      ; branchcc occurs ; |363| 
    1791                      .dwpsn  file "C:/Users/a0221074/Desktop/C5000/IBM_Watson_TIdesign_workarea/CSL_bitbucket/c55_csl/c55x
    1792 00000c 3C00          MOV #0, AC0 ; |363| 
    1793 00000e 0600          B $C$L60  ; |363| 
         000010 6C   
    1794                                                      ; branch occurs ; |363| 
    1795 000011       $C$L54:    
    1796                      .dwpsn  file "C:/Users/a0221074/Desktop/C5000/IBM_Watson_TIdesign_workarea/CSL_bitbucket/c55_csl/c55x
    1797 000011 ED04          MOV dbl(*SP(#2)), AC0 ; |365| 
         000013 08   
    1798 000014 62B0          BCC $C$L55,AC0 <= #0 ; |365| 
    1799                                                      ; branchcc occurs ; |365| 
    1800 000016 ED04          MOV dbl(*SP(#2)), AC0 ; |365| 
         000018 08   
    1801 000019 4A05          B $C$L56  ; |365| 
    1802                                                      ; branch occurs ; |365| 
    1803 00001b       $C$L55:    
    1804 00001b ED04          MOV dbl(*SP(#2)), AC0 ; |365| 
         00001d 08   
    1805 00001e 3400          NEG AC0, AC0 ; |365| 
    1806 000020       $C$L56:    
    1807 000020 EB08          MOV AC0, dbl(*SP(#4)) ; |365| 
         000022 08   
    1808                      .dwpsn  file "C:/Users/a0221074/Desktop/C5000/IBM_Watson_TIdesign_workarea/CSL_bitbucket/c55_csl/c55x
    1809 000023 E60C          MOV #0, *SP(#6) ; |366| 
         000025 00   
    1810 000026 7A40          MOV #16384 << #16, AC0 ; |366| 
         000028 000A 
    1811 00002a ED08          MOV dbl(*SP(#4)), AC1 ; |366| 
         00002c 18   
    1812 00002d 1218          CMP AC1 >= AC0, TC1 ; |366| 
         00002f 00   
    1813 000030 0464          BCC $C$L58,TC1 ; |366| 
         000032 19   
    1814                                                      ; branchcc occurs ; |366| 
    1815 000033       $C$L57:    
    1816 000033       $C$DW$L$_q14_x$7$B:
    1817 000033 ED08          MOV dbl(*SP(#4)), AC0 ; |366| 
         000035 08   
    1818 000036 5000          SFTL AC0, #1 ; |366| 
    1819 000038 EB08          MOV AC0, dbl(*SP(#4)) ; |366| 
         00003a 08   
    1820 00003b F70C          ADD #1, *SP(#6) ; |366| 
         00003d 0001 
TMS320C55x Assembler PC v4.4.1 Wed Sep 13 16:33:14 2017

Tools Copyright (c) 1996-2012 Texas Instruments Incorporated
C:\Users\a0221074\AppData\Local\Temp\0730410                         PAGE   40

    1821 00003f 7A40          MOV #16384 << #16, AC0 ; |366| 
         000041 000A 
    1822 000043 ED08          MOV dbl(*SP(#4)), AC1 ; |366| 
         000045 18   
    1823 000046 1214          CMP AC1 < AC0, TC1 ; |366| 
         000048 00   
    1824 000049 0464          BCC $C$L57,TC1 ; |366| 
         00004b E7   
    1825                                                      ; branchcc occurs ; |366| 
    1826 00004c       $C$DW$L$_q14_x$7$E:
    1827 00004c       $C$L58:    
    1828                      .dwpsn  file "C:/Users/a0221074/Desktop/C5000/IBM_Watson_TIdesign_workarea/CSL_bitbucket/c55_csl/c55x
    1829 00004c ED08          MOV dbl(*SP(#4)), AC0 ; |367| 
         00004e 08   
    1830 00004f BC0E          MOV HI(AC0), *SP(#7) ; |367| 
    1831                      .dwpsn  file "C:/Users/a0221074/Desktop/C5000/IBM_Watson_TIdesign_workarea/CSL_bitbucket/c55_csl/c55x
    1832 000051 A50E          MOV *SP(#7), T1 ; |368| 
    1833 000053 D300          MPYM *SP(#0), T1, AC0 ; |368| 
         000055 05   
    1834 000056 EB08          MOV AC0, dbl(*SP(#4)) ; |368| 
         000058 08   
    1835                      .dwpsn  file "C:/Users/a0221074/Desktop/C5000/IBM_Watson_TIdesign_workarea/CSL_bitbucket/c55_csl/c55x
    1836 000059 ED08          MOV dbl(*SP(#4)), AC0 ; |369| 
         00005b 08   
    1837 00005c 1005          SFTS AC0, #2, AC0 ; |369| 
         00005e 02   
    1838 00005f EB08          MOV AC0, dbl(*SP(#4)) ; |369| 
         000061 08   
    1839                      .dwpsn  file "C:/Users/a0221074/Desktop/C5000/IBM_Watson_TIdesign_workarea/CSL_bitbucket/c55_csl/c55x
    1840 000062 A90C          MOV *SP(#6), AR1 ; |370| 
    1841              
    1842 000064 ED08          MOV dbl(*SP(#4)), AC0 ; |370| 
         000066 08   
    1843 000067 3595  ||      NEG AR1, T1 ; |370| 
    1844              
    1845 000069 5C05          SFTS AC0, T1, AC0 ; |370| 
    1846 00006b EB08          MOV AC0, dbl(*SP(#4)) ; |370| 
         00006d 08   
    1847                      .dwpsn  file "C:/Users/a0221074/Desktop/C5000/IBM_Watson_TIdesign_workarea/CSL_bitbucket/c55_csl/c55x
    1848 00006e ED04          MOV dbl(*SP(#2)), AC0 ; |371| 
         000070 08   
    1849 000071 62B0          BCC $C$L59,AC0 <= #0 ; |371| 
    1850                                                      ; branchcc occurs ; |371| 
    1851 000073 ED08          MOV dbl(*SP(#4)), AC0 ; |371| 
         000075 08   
    1852 000076 4A05          B $C$L60  ; |371| 
    1853                                                      ; branch occurs ; |371| 
    1854 000078       $C$L59:    
    1855 000078 ED08          MOV dbl(*SP(#4)), AC0 ; |371| 
         00007a 08   
    1856 00007b 3400          NEG AC0, AC0 ; |371| 
    1857 00007d       $C$L60:    
    1858                      .dwpsn  file "C:/Users/a0221074/Desktop/C5000/IBM_Watson_TIdesign_workarea/CSL_bitbucket/c55_csl/c55x
    1859 00007d 4E09          AADD #9, SP
    1860                      .dwcfi  cfa_offset, 1
TMS320C55x Assembler PC v4.4.1 Wed Sep 13 16:33:14 2017

Tools Copyright (c) 1996-2012 Texas Instruments Incorporated
C:\Users\a0221074\AppData\Local\Temp\0730410                         PAGE   41

    1861              $C$DW$145       .dwtag  DW_TAG_TI_branch
    1862                      .dwattr $C$DW$145, DW_AT_low_pc(0x00)
    1863                      .dwattr $C$DW$145, DW_AT_TI_return
    1864 00007f 4804          RET
    1865                                                      ; return occurs
    1866              
    1867              $C$DW$146       .dwtag  DW_TAG_TI_loop
    1868                      .dwattr $C$DW$146, DW_AT_name("C:\\Users\\a0221074\\AppData\\Local\\Temp\\0730410:$C$L57:1:1505334792
    1869                      .dwattr $C$DW$146, DW_AT_TI_begin_file("C:/Users/a0221074/Desktop/C5000/IBM_Watson_TIdesign_workarea/
    1870                      .dwattr $C$DW$146, DW_AT_TI_begin_line(0x16e)
    1871                      .dwattr $C$DW$146, DW_AT_TI_end_line(0x16e)
    1872              $C$DW$147       .dwtag  DW_TAG_TI_loop_range
    1873                      .dwattr $C$DW$147, DW_AT_low_pc($C$DW$L$_q14_x$7$B)
    1874                      .dwattr $C$DW$147, DW_AT_high_pc($C$DW$L$_q14_x$7$E)
    1875                      .dwendtag $C$DW$146
    1876              
    1877                      .dwattr $C$DW$137, DW_AT_TI_end_file("C:/Users/a0221074/Desktop/C5000/IBM_Watson_TIdesign_workarea/CS
    1878                      .dwattr $C$DW$137, DW_AT_TI_end_line(0x175)
    1879                      .dwattr $C$DW$137, DW_AT_TI_end_column(0x01)
    1880                      .dwendentry
    1881                      .dwendtag $C$DW$137
    1882              
    1883 000000               .sect   ".text:_div32_32_Q"
    1884                      .clink
    1885                      .global _div32_32_Q
    1886              
    1887              $C$DW$148       .dwtag  DW_TAG_subprogram, DW_AT_name("div32_32_Q")
    1888                      .dwattr $C$DW$148, DW_AT_low_pc(_div32_32_Q)
    1889                      .dwattr $C$DW$148, DW_AT_high_pc(0x00)
    1890                      .dwattr $C$DW$148, DW_AT_TI_symbol_name("_div32_32_Q")
    1891                      .dwattr $C$DW$148, DW_AT_external
    1892                      .dwattr $C$DW$148, DW_AT_type(*$C$DW$T$12)
    1893                      .dwattr $C$DW$148, DW_AT_TI_begin_file("C:/Users/a0221074/Desktop/C5000/IBM_Watson_TIdesign_workarea/
    1894                      .dwattr $C$DW$148, DW_AT_TI_begin_line(0x17a)
    1895                      .dwattr $C$DW$148, DW_AT_TI_begin_column(0x1d)
    1896                      .dwattr $C$DW$148, DW_AT_TI_max_frame_size(0x10)
    1897                      .dwpsn  file "C:/Users/a0221074/Desktop/C5000/IBM_Watson_TIdesign_workarea/CSL_bitbucket/c55_csl/c55x
    1898              
    1899                      .dwfde $C$DW$CIE, _div32_32_Q
    1900              $C$DW$149       .dwtag  DW_TAG_formal_parameter, DW_AT_name("num")
    1901                      .dwattr $C$DW$149, DW_AT_TI_symbol_name("_num")
    1902                      .dwattr $C$DW$149, DW_AT_type(*$C$DW$T$12)
    1903                      .dwattr $C$DW$149, DW_AT_location[DW_OP_reg0]
    1904              $C$DW$150       .dwtag  DW_TAG_formal_parameter, DW_AT_name("den")
    1905                      .dwattr $C$DW$150, DW_AT_TI_symbol_name("_den")
    1906                      .dwattr $C$DW$150, DW_AT_type(*$C$DW$T$12)
    1907                      .dwattr $C$DW$150, DW_AT_location[DW_OP_reg3]
    1908              $C$DW$151       .dwtag  DW_TAG_formal_parameter, DW_AT_name("q_prec")
    1909                      .dwattr $C$DW$151, DW_AT_TI_symbol_name("_q_prec")
    1910                      .dwattr $C$DW$151, DW_AT_type(*$C$DW$T$20)
    1911                      .dwattr $C$DW$151, DW_AT_location[DW_OP_reg12]
    1912              ;*******************************************************************************
    1913              ;* FUNCTION NAME: div32_32_Q                                                   *
    1914              ;*                                                                             *
    1915              ;*   Function Uses Regs : AC0,AC0,AC1,AC1,T0,T1,AR1,SP,CARRY,TC1,M40,SATA,SATD,*
TMS320C55x Assembler PC v4.4.1 Wed Sep 13 16:33:14 2017

Tools Copyright (c) 1996-2012 Texas Instruments Incorporated
C:\Users\a0221074\AppData\Local\Temp\0730410                         PAGE   42

    1916              ;*                        RDM,FRCT,SMUL                                        *
    1917              ;*   Stack Frame        : Compact (No Frame Pointer, w/ debug)                 *
    1918              ;*   Total Frame Size   : 16 words                                             *
    1919              ;*                        (1 return address/alignment)                         *
    1920              ;*                        (15 local values)                                    *
    1921              ;*   Min System Stack   : 1 word                                               *
    1922              ;*******************************************************************************
    1923 000000       _div32_32_Q:
    1924                      .dwcfi  cfa_offset, 1
    1925                      .dwcfi  save_reg_to_mem, 91, -1
    1926 000000 4EF1          AADD #-15, SP
    1927                      .dwcfi  cfa_offset, 16
    1928              $C$DW$152       .dwtag  DW_TAG_variable, DW_AT_name("num")
    1929                      .dwattr $C$DW$152, DW_AT_TI_symbol_name("_num")
    1930                      .dwattr $C$DW$152, DW_AT_type(*$C$DW$T$12)
    1931                      .dwattr $C$DW$152, DW_AT_location[DW_OP_bregx 0x24 0]
    1932              $C$DW$153       .dwtag  DW_TAG_variable, DW_AT_name("den")
    1933                      .dwattr $C$DW$153, DW_AT_TI_symbol_name("_den")
    1934                      .dwattr $C$DW$153, DW_AT_type(*$C$DW$T$12)
    1935                      .dwattr $C$DW$153, DW_AT_location[DW_OP_bregx 0x24 2]
    1936              $C$DW$154       .dwtag  DW_TAG_variable, DW_AT_name("q_prec")
    1937                      .dwattr $C$DW$154, DW_AT_TI_symbol_name("_q_prec")
    1938                      .dwattr $C$DW$154, DW_AT_type(*$C$DW$T$20)
    1939                      .dwattr $C$DW$154, DW_AT_location[DW_OP_bregx 0x24 4]
    1940              $C$DW$155       .dwtag  DW_TAG_variable, DW_AT_name("tmp1")
    1941                      .dwattr $C$DW$155, DW_AT_TI_symbol_name("_tmp1")
    1942                      .dwattr $C$DW$155, DW_AT_type(*$C$DW$T$12)
    1943                      .dwattr $C$DW$155, DW_AT_location[DW_OP_bregx 0x24 6]
    1944              $C$DW$156       .dwtag  DW_TAG_variable, DW_AT_name("tmp2")
    1945                      .dwattr $C$DW$156, DW_AT_TI_symbol_name("_tmp2")
    1946                      .dwattr $C$DW$156, DW_AT_type(*$C$DW$T$12)
    1947                      .dwattr $C$DW$156, DW_AT_location[DW_OP_bregx 0x24 8]
    1948              $C$DW$157       .dwtag  DW_TAG_variable, DW_AT_name("tmp3")
    1949                      .dwattr $C$DW$157, DW_AT_TI_symbol_name("_tmp3")
    1950                      .dwattr $C$DW$157, DW_AT_type(*$C$DW$T$12)
    1951                      .dwattr $C$DW$157, DW_AT_location[DW_OP_bregx 0x24 10]
    1952              $C$DW$158       .dwtag  DW_TAG_variable, DW_AT_name("norm_n")
    1953                      .dwattr $C$DW$158, DW_AT_TI_symbol_name("_norm_n")
    1954                      .dwattr $C$DW$158, DW_AT_type(*$C$DW$T$8)
    1955                      .dwattr $C$DW$158, DW_AT_location[DW_OP_bregx 0x24 12]
    1956              $C$DW$159       .dwtag  DW_TAG_variable, DW_AT_name("norm_d")
    1957                      .dwattr $C$DW$159, DW_AT_TI_symbol_name("_norm_d")
    1958                      .dwattr $C$DW$159, DW_AT_type(*$C$DW$T$8)
    1959                      .dwattr $C$DW$159, DW_AT_location[DW_OP_bregx 0x24 13]
    1960              $C$DW$160       .dwtag  DW_TAG_variable, DW_AT_name("d")
    1961                      .dwattr $C$DW$160, DW_AT_TI_symbol_name("_d")
    1962                      .dwattr $C$DW$160, DW_AT_type(*$C$DW$T$8)
    1963                      .dwattr $C$DW$160, DW_AT_location[DW_OP_bregx 0x24 14]
    1964 000002 C408          MOV T0, *SP(#4) ; |379| 
    1965 000004 EB04          MOV AC1, dbl(*SP(#2)) ; |379| 
         000006 18   
    1966 000007 EB00          MOV AC0, dbl(*SP(#0)) ; |379| 
         000009 08   
    1967                      .dwpsn  file "C:/Users/a0221074/Desktop/C5000/IBM_Watson_TIdesign_workarea/CSL_bitbucket/c55_csl/c55x
    1968 00000a ED00          MOV dbl(*SP(#0)), AC0 ; |383| 
TMS320C55x Assembler PC v4.4.1 Wed Sep 13 16:33:14 2017

Tools Copyright (c) 1996-2012 Texas Instruments Incorporated
C:\Users\a0221074\AppData\Local\Temp\0730410                         PAGE   43

         00000c 08   
    1969 00000d 6290          BCC $C$L61,AC0 != #0 ; |383| 
    1970                                                      ; branchcc occurs ; |383| 
    1971                      .dwpsn  file "C:/Users/a0221074/Desktop/C5000/IBM_Watson_TIdesign_workarea/CSL_bitbucket/c55_csl/c55x
    1972 00000f 3C00          MOV #0, AC0 ; |383| 
    1973 000011 0600          B $C$L76  ; |383| 
         000013 E5   
    1974                                                      ; branch occurs ; |383| 
    1975 000014       $C$L61:    
    1976                      .dwpsn  file "C:/Users/a0221074/Desktop/C5000/IBM_Watson_TIdesign_workarea/CSL_bitbucket/c55_csl/c55x
    1977 000014 ED00          MOV dbl(*SP(#0)), AC0 ; |385| 
         000016 08   
    1978 000017 6550          BCC $C$L62,AC0 >= #0 ; |385| 
    1979                                                      ; branchcc occurs ; |385| 
    1980                      .dwpsn  file "C:/Users/a0221074/Desktop/C5000/IBM_Watson_TIdesign_workarea/CSL_bitbucket/c55_csl/c55x
    1981 000019 ED00          MOV dbl(*SP(#0)), AC0 ; |385| 
         00001b 08   
    1982 00001c 3400          NEG AC0, AC0 ; |385| 
    1983 00001e EB0C          MOV AC0, dbl(*SP(#6)) ; |385| 
         000020 08   
    1984 000021 4A06          B $C$L63  ; |385| 
    1985                                                      ; branch occurs ; |385| 
    1986 000023       $C$L62:    
    1987                      .dwpsn  file "C:/Users/a0221074/Desktop/C5000/IBM_Watson_TIdesign_workarea/CSL_bitbucket/c55_csl/c55x
    1988 000023 ED00          MOV dbl(*SP(#0)), AC0 ; |386| 
         000025 08   
    1989 000026 EB0C          MOV AC0, dbl(*SP(#6)) ; |386| 
         000028 08   
    1990 000029       $C$L63:    
    1991                      .dwpsn  file "C:/Users/a0221074/Desktop/C5000/IBM_Watson_TIdesign_workarea/CSL_bitbucket/c55_csl/c55x
    1992 000029 ED04          MOV dbl(*SP(#2)), AC0 ; |388| 
         00002b 08   
    1993 00002c 6550          BCC $C$L64,AC0 >= #0 ; |388| 
    1994                                                      ; branchcc occurs ; |388| 
    1995                      .dwpsn  file "C:/Users/a0221074/Desktop/C5000/IBM_Watson_TIdesign_workarea/CSL_bitbucket/c55_csl/c55x
    1996 00002e ED04          MOV dbl(*SP(#2)), AC0 ; |388| 
         000030 08   
    1997 000031 3400          NEG AC0, AC0 ; |388| 
    1998 000033 EB10          MOV AC0, dbl(*SP(#8)) ; |388| 
         000035 08   
    1999 000036 4A06          B $C$L65  ; |388| 
    2000                                                      ; branch occurs ; |388| 
    2001 000038       $C$L64:    
    2002                      .dwpsn  file "C:/Users/a0221074/Desktop/C5000/IBM_Watson_TIdesign_workarea/CSL_bitbucket/c55_csl/c55x
    2003 000038 ED04          MOV dbl(*SP(#2)), AC0 ; |389| 
         00003a 08   
    2004 00003b EB10          MOV AC0, dbl(*SP(#8)) ; |389| 
         00003d 08   
    2005 00003e       $C$L65:    
    2006                      .dwpsn  file "C:/Users/a0221074/Desktop/C5000/IBM_Watson_TIdesign_workarea/CSL_bitbucket/c55_csl/c55x
    2007 00003e E618          MOV #0, *SP(#12) ; |390| 
         000040 00   
    2008 000041 7A40          MOV #16384 << #16, AC0 ; |390| 
         000043 000A 
    2009 000045 ED0C          MOV dbl(*SP(#6)), AC1 ; |390| 
TMS320C55x Assembler PC v4.4.1 Wed Sep 13 16:33:14 2017

Tools Copyright (c) 1996-2012 Texas Instruments Incorporated
C:\Users\a0221074\AppData\Local\Temp\0730410                         PAGE   44

         000047 18   
    2010 000048 1218          CMP AC1 >= AC0, TC1 ; |390| 
         00004a 00   
    2011 00004b 0464          BCC $C$L67,TC1 ; |390| 
         00004d 19   
    2012                                                      ; branchcc occurs ; |390| 
    2013 00004e       $C$L66:    
    2014 00004e       $C$DW$L$_div32_32_Q$10$B:
    2015 00004e ED0C          MOV dbl(*SP(#6)), AC0 ; |390| 
         000050 08   
    2016 000051 5000          SFTL AC0, #1 ; |390| 
    2017 000053 EB0C          MOV AC0, dbl(*SP(#6)) ; |390| 
         000055 08   
    2018 000056 F718          ADD #1, *SP(#12) ; |390| 
         000058 0001 
    2019 00005a 7A40          MOV #16384 << #16, AC0 ; |390| 
         00005c 000A 
    2020 00005e ED0C          MOV dbl(*SP(#6)), AC1 ; |390| 
         000060 18   
    2021 000061 1214          CMP AC1 < AC0, TC1 ; |390| 
         000063 00   
    2022 000064 0464          BCC $C$L66,TC1 ; |390| 
         000066 E7   
    2023                                                      ; branchcc occurs ; |390| 
    2024 000067       $C$DW$L$_div32_32_Q$10$E:
    2025 000067       $C$L67:    
    2026                      .dwpsn  file "C:/Users/a0221074/Desktop/C5000/IBM_Watson_TIdesign_workarea/CSL_bitbucket/c55_csl/c55x
    2027              
    2028 00006a 3D11          MOV #1, AC1 ; |391| 
    2029 000067 ED10  ||      MOV dbl(*SP(#8)), AC0 ; |391| 
         000069 08   
    2030              
    2031 00006c 1208          CMP AC1 <= AC0, TC1 ; |391| 
         00006e 10   
    2032 00006f 6264          BCC $C$L68,TC1 ; |391| 
    2033                                                      ; branchcc occurs ; |391| 
    2034              
    2035 000071 4A03          B $C$L69  ; |391| 
    2036 000073 3D10  ||      MOV #1, AC0 ; |391| 
    2037              
    2038                                                      ; branch occurs ; |391| 
    2039 000075       $C$L68:    
    2040 000075 ED10          MOV dbl(*SP(#8)), AC0 ; |391| 
         000077 08   
    2041 000078       $C$L69:    
    2042 000078 EB10          MOV AC0, dbl(*SP(#8)) ; |391| 
         00007a 08   
    2043                      .dwpsn  file "C:/Users/a0221074/Desktop/C5000/IBM_Watson_TIdesign_workarea/CSL_bitbucket/c55_csl/c55x
    2044 00007b E61A          MOV #0, *SP(#13) ; |392| 
         00007d 00   
    2045 00007e 7A40          MOV #16384 << #16, AC0 ; |392| 
         000080 000A 
    2046 000082 ED10          MOV dbl(*SP(#8)), AC1 ; |392| 
         000084 18   
    2047 000085 1218          CMP AC1 >= AC0, TC1 ; |392| 
TMS320C55x Assembler PC v4.4.1 Wed Sep 13 16:33:14 2017

Tools Copyright (c) 1996-2012 Texas Instruments Incorporated
C:\Users\a0221074\AppData\Local\Temp\0730410                         PAGE   45

         000087 00   
    2048 000088 0464          BCC $C$L71,TC1 ; |392| 
         00008a 19   
    2049                                                      ; branchcc occurs ; |392| 
    2050 00008b       $C$L70:    
    2051 00008b       $C$DW$L$_div32_32_Q$15$B:
    2052 00008b ED10          MOV dbl(*SP(#8)), AC0 ; |392| 
         00008d 08   
    2053 00008e 5000          SFTL AC0, #1 ; |392| 
    2054 000090 EB10          MOV AC0, dbl(*SP(#8)) ; |392| 
         000092 08   
    2055 000093 F71A          ADD #1, *SP(#13) ; |392| 
         000095 0001 
    2056 000097 7A40          MOV #16384 << #16, AC0 ; |392| 
         000099 000A 
    2057 00009b ED10          MOV dbl(*SP(#8)), AC1 ; |392| 
         00009d 18   
    2058 00009e 1214          CMP AC1 < AC0, TC1 ; |392| 
         0000a0 00   
    2059 0000a1 0464          BCC $C$L70,TC1 ; |392| 
         0000a3 E7   
    2060                                                      ; branchcc occurs ; |392| 
    2061 0000a4       $C$DW$L$_div32_32_Q$15$E:
    2062 0000a4       $C$L71:    
    2063                      .dwpsn  file "C:/Users/a0221074/Desktop/C5000/IBM_Watson_TIdesign_workarea/CSL_bitbucket/c55_csl/c55x
    2064 0000a4 A908          MOV *SP(#4), AR1 ; |393| 
    2065              
    2066 0000a9 3595          NEG AR1, T1 ; |393| 
    2067 0000a6 ED10  ||      MOV dbl(*SP(#8)), AC0 ; |393| 
         0000a8 08   
    2068              
    2069 0000ab 5C05          SFTS AC0, T1, AC0 ; |393| 
    2070 0000ad EB10          MOV AC0, dbl(*SP(#8)) ; |393| 
         0000af 08   
    2071                      .dwpsn  file "C:/Users/a0221074/Desktop/C5000/IBM_Watson_TIdesign_workarea/CSL_bitbucket/c55_csl/c55x
    2072 0000b0 ED10          MOV dbl(*SP(#8)), AC1 ; |394| 
         0000b2 18   
    2073 0000b3 ED0C          MOV dbl(*SP(#6)), AC0 ; |394| 
         0000b5 08   
    2074              $C$DW$161       .dwtag  DW_TAG_TI_branch
    2075                      .dwattr $C$DW$161, DW_AT_low_pc(0x00)
    2076                      .dwattr $C$DW$161, DW_AT_name("__divli")
    2077                      .dwattr $C$DW$161, DW_AT_TI_call
    2078 0000b6 6C00          CALL #__divli ; |394| 
         0000b8 0000!
    2079                                                      ; call occurs [#__divli] ; |394| 
    2080 0000ba EB14          MOV AC0, dbl(*SP(#10)) ; |394| 
         0000bc 08   
    2081                      .dwpsn  file "C:/Users/a0221074/Desktop/C5000/IBM_Watson_TIdesign_workarea/CSL_bitbucket/c55_csl/c55x
    2082 0000bd A918          MOV *SP(#12), AR1 ; |395| 
    2083 0000bf D81A          SUB AR1, *SP(#13), AR1 ; |395| 
         0000c1 99   
    2084 0000c2 C91C          MOV AR1, *SP(#14) ; |395| 
    2085                      .dwpsn  file "C:/Users/a0221074/Desktop/C5000/IBM_Watson_TIdesign_workarea/CSL_bitbucket/c55_csl/c55x
    2086 0000c4 6639          BCC $C$L72,AR1 <= #0 ; |396| 
TMS320C55x Assembler PC v4.4.1 Wed Sep 13 16:33:14 2017

Tools Copyright (c) 1996-2012 Texas Instruments Incorporated
C:\Users\a0221074\AppData\Local\Temp\0730410                         PAGE   46

    2087                                                      ; branchcc occurs ; |396| 
    2088                      .dwpsn  file "C:/Users/a0221074/Desktop/C5000/IBM_Watson_TIdesign_workarea/CSL_bitbucket/c55_csl/c55x
    2089              
    2090 0000c6 ED14          MOV dbl(*SP(#10)), AC0 ; |396| 
         0000c8 08   
    2091 0000c9 2395  ||      MOV AR1, T1 ; |396| 
    2092              
    2093 0000cb 5C05          SFTS AC0, T1, AC0 ; |396| 
    2094 0000cd EB14          MOV AC0, dbl(*SP(#10)) ; |396| 
         0000cf 08   
    2095 0000d0 4A0A          B $C$L73  ; |396| 
    2096                                                      ; branch occurs ; |396| 
    2097 0000d2       $C$L72:    
    2098                      .dwpsn  file "C:/Users/a0221074/Desktop/C5000/IBM_Watson_TIdesign_workarea/CSL_bitbucket/c55_csl/c55x
    2099              
    2100 0000d2 ED14          MOV dbl(*SP(#10)), AC0 ; |397| 
         0000d4 08   
    2101 0000d5 2395  ||      MOV AR1, T1 ; |397| 
    2102              
    2103 0000d7 5C05          SFTS AC0, T1, AC0 ; |397| 
    2104 0000d9 EB14          MOV AC0, dbl(*SP(#10)) ; |397| 
         0000db 08   
    2105 0000dc       $C$L73:    
    2106                      .dwpsn  file "C:/Users/a0221074/Desktop/C5000/IBM_Watson_TIdesign_workarea/CSL_bitbucket/c55_csl/c55x
    2107 0000dc ED00          MOV dbl(*SP(#0)), AC0 ; |398| 
         0000de 08   
    2108 0000df 6450          BCC $C$L74,AC0 >= #0 ; |398| 
    2109                                                      ; branchcc occurs ; |398| 
    2110                      .dwpsn  file "C:/Users/a0221074/Desktop/C5000/IBM_Watson_TIdesign_workarea/CSL_bitbucket/c55_csl/c55x
    2111 0000e1 ED14          MOV dbl(*SP(#10)), AC0 ; |398| 
         0000e3 08   
    2112 0000e4 3400          NEG AC0, AC0 ; |398| 
    2113 0000e6 EB14          MOV AC0, dbl(*SP(#10)) ; |398| 
         0000e8 08   
    2114 0000e9       $C$L74:    
    2115                      .dwpsn  file "C:/Users/a0221074/Desktop/C5000/IBM_Watson_TIdesign_workarea/CSL_bitbucket/c55_csl/c55x
    2116 0000e9 ED04          MOV dbl(*SP(#2)), AC0 ; |399| 
         0000eb 08   
    2117 0000ec 6450          BCC $C$L75,AC0 >= #0 ; |399| 
    2118                                                      ; branchcc occurs ; |399| 
    2119                      .dwpsn  file "C:/Users/a0221074/Desktop/C5000/IBM_Watson_TIdesign_workarea/CSL_bitbucket/c55_csl/c55x
    2120 0000ee ED14          MOV dbl(*SP(#10)), AC0 ; |399| 
         0000f0 08   
    2121 0000f1 3400          NEG AC0, AC0 ; |399| 
    2122 0000f3 EB14          MOV AC0, dbl(*SP(#10)) ; |399| 
         0000f5 08   
    2123 0000f6       $C$L75:    
    2124                      .dwpsn  file "C:/Users/a0221074/Desktop/C5000/IBM_Watson_TIdesign_workarea/CSL_bitbucket/c55_csl/c55x
    2125 0000f6 ED14          MOV dbl(*SP(#10)), AC0 ; |400| 
         0000f8 08   
    2126 0000f9       $C$L76:    
    2127                      .dwpsn  file "C:/Users/a0221074/Desktop/C5000/IBM_Watson_TIdesign_workarea/CSL_bitbucket/c55_csl/c55x
    2128 0000f9 4E0F          AADD #15, SP
    2129                      .dwcfi  cfa_offset, 1
    2130              $C$DW$162       .dwtag  DW_TAG_TI_branch
TMS320C55x Assembler PC v4.4.1 Wed Sep 13 16:33:14 2017

Tools Copyright (c) 1996-2012 Texas Instruments Incorporated
C:\Users\a0221074\AppData\Local\Temp\0730410                         PAGE   47

    2131                      .dwattr $C$DW$162, DW_AT_low_pc(0x00)
    2132                      .dwattr $C$DW$162, DW_AT_TI_return
    2133 0000fb 4804          RET
    2134                                                      ; return occurs
    2135              
    2136              $C$DW$163       .dwtag  DW_TAG_TI_loop
    2137                      .dwattr $C$DW$163, DW_AT_name("C:\\Users\\a0221074\\AppData\\Local\\Temp\\0730410:$C$L70:1:1505334792
    2138                      .dwattr $C$DW$163, DW_AT_TI_begin_file("C:/Users/a0221074/Desktop/C5000/IBM_Watson_TIdesign_workarea/
    2139                      .dwattr $C$DW$163, DW_AT_TI_begin_line(0x188)
    2140                      .dwattr $C$DW$163, DW_AT_TI_end_line(0x188)
    2141              $C$DW$164       .dwtag  DW_TAG_TI_loop_range
    2142                      .dwattr $C$DW$164, DW_AT_low_pc($C$DW$L$_div32_32_Q$15$B)
    2143                      .dwattr $C$DW$164, DW_AT_high_pc($C$DW$L$_div32_32_Q$15$E)
    2144                      .dwendtag $C$DW$163
    2145              
    2146              
    2147              $C$DW$165       .dwtag  DW_TAG_TI_loop
    2148                      .dwattr $C$DW$165, DW_AT_name("C:\\Users\\a0221074\\AppData\\Local\\Temp\\0730410:$C$L66:1:1505334792
    2149                      .dwattr $C$DW$165, DW_AT_TI_begin_file("C:/Users/a0221074/Desktop/C5000/IBM_Watson_TIdesign_workarea/
    2150                      .dwattr $C$DW$165, DW_AT_TI_begin_line(0x186)
    2151                      .dwattr $C$DW$165, DW_AT_TI_end_line(0x186)
    2152              $C$DW$166       .dwtag  DW_TAG_TI_loop_range
    2153                      .dwattr $C$DW$166, DW_AT_low_pc($C$DW$L$_div32_32_Q$10$B)
    2154                      .dwattr $C$DW$166, DW_AT_high_pc($C$DW$L$_div32_32_Q$10$E)
    2155                      .dwendtag $C$DW$165
    2156              
    2157                      .dwattr $C$DW$148, DW_AT_TI_end_file("C:/Users/a0221074/Desktop/C5000/IBM_Watson_TIdesign_workarea/CS
    2158                      .dwattr $C$DW$148, DW_AT_TI_end_line(0x192)
    2159                      .dwattr $C$DW$148, DW_AT_TI_end_column(0x01)
    2160                      .dwendentry
    2161                      .dwendtag $C$DW$148
    2162              
    2163 000000               .sect   ".text:_div32_32"
    2164                      .clink
    2165                      .global _div32_32
    2166              
    2167              $C$DW$167       .dwtag  DW_TAG_subprogram, DW_AT_name("div32_32")
    2168                      .dwattr $C$DW$167, DW_AT_low_pc(_div32_32)
    2169                      .dwattr $C$DW$167, DW_AT_high_pc(0x00)
    2170                      .dwattr $C$DW$167, DW_AT_TI_symbol_name("_div32_32")
    2171                      .dwattr $C$DW$167, DW_AT_external
    2172                      .dwattr $C$DW$167, DW_AT_type(*$C$DW$T$12)
    2173                      .dwattr $C$DW$167, DW_AT_TI_begin_file("C:/Users/a0221074/Desktop/C5000/IBM_Watson_TIdesign_workarea/
    2174                      .dwattr $C$DW$167, DW_AT_TI_begin_line(0x198)
    2175                      .dwattr $C$DW$167, DW_AT_TI_begin_column(0x06)
    2176                      .dwattr $C$DW$167, DW_AT_TI_max_frame_size(0x0e)
    2177                      .dwpsn  file "C:/Users/a0221074/Desktop/C5000/IBM_Watson_TIdesign_workarea/CSL_bitbucket/c55_csl/c55x
    2178              
    2179                      .dwfde $C$DW$CIE, _div32_32
    2180              $C$DW$168       .dwtag  DW_TAG_formal_parameter, DW_AT_name("num")
    2181                      .dwattr $C$DW$168, DW_AT_TI_symbol_name("_num")
    2182                      .dwattr $C$DW$168, DW_AT_type(*$C$DW$T$12)
    2183                      .dwattr $C$DW$168, DW_AT_location[DW_OP_reg0]
    2184              $C$DW$169       .dwtag  DW_TAG_formal_parameter, DW_AT_name("den")
    2185                      .dwattr $C$DW$169, DW_AT_TI_symbol_name("_den")
TMS320C55x Assembler PC v4.4.1 Wed Sep 13 16:33:14 2017

Tools Copyright (c) 1996-2012 Texas Instruments Incorporated
C:\Users\a0221074\AppData\Local\Temp\0730410                         PAGE   48

    2186                      .dwattr $C$DW$169, DW_AT_type(*$C$DW$T$12)
    2187                      .dwattr $C$DW$169, DW_AT_location[DW_OP_reg3]
    2188              ;*******************************************************************************
    2189              ;* FUNCTION NAME: div32_32                                                     *
    2190              ;*                                                                             *
    2191              ;*   Function Uses Regs : AC0,AC0,AC1,AC1,T1,AR1,SP,CARRY,TC1,M40,SATA,SATD,   *
    2192              ;*                        RDM,FRCT,SMUL                                        *
    2193              ;*   Stack Frame        : Compact (No Frame Pointer, w/ debug)                 *
    2194              ;*   Total Frame Size   : 14 words                                             *
    2195              ;*                        (1 return address/alignment)                         *
    2196              ;*                        (13 local values)                                    *
    2197              ;*   Min System Stack   : 1 word                                               *
    2198              ;*******************************************************************************
    2199 000000       _div32_32:
    2200                      .dwcfi  cfa_offset, 1
    2201                      .dwcfi  save_reg_to_mem, 91, -1
    2202 000000 4EF3          AADD #-13, SP
    2203                      .dwcfi  cfa_offset, 14
    2204              $C$DW$170       .dwtag  DW_TAG_variable, DW_AT_name("num")
    2205                      .dwattr $C$DW$170, DW_AT_TI_symbol_name("_num")
    2206                      .dwattr $C$DW$170, DW_AT_type(*$C$DW$T$12)
    2207                      .dwattr $C$DW$170, DW_AT_location[DW_OP_bregx 0x24 0]
    2208              $C$DW$171       .dwtag  DW_TAG_variable, DW_AT_name("den")
    2209                      .dwattr $C$DW$171, DW_AT_TI_symbol_name("_den")
    2210                      .dwattr $C$DW$171, DW_AT_type(*$C$DW$T$12)
    2211                      .dwattr $C$DW$171, DW_AT_location[DW_OP_bregx 0x24 2]
    2212              $C$DW$172       .dwtag  DW_TAG_variable, DW_AT_name("tmp1")
    2213                      .dwattr $C$DW$172, DW_AT_TI_symbol_name("_tmp1")
    2214                      .dwattr $C$DW$172, DW_AT_type(*$C$DW$T$12)
    2215                      .dwattr $C$DW$172, DW_AT_location[DW_OP_bregx 0x24 4]
    2216              $C$DW$173       .dwtag  DW_TAG_variable, DW_AT_name("tmp2")
    2217                      .dwattr $C$DW$173, DW_AT_TI_symbol_name("_tmp2")
    2218                      .dwattr $C$DW$173, DW_AT_type(*$C$DW$T$12)
    2219                      .dwattr $C$DW$173, DW_AT_location[DW_OP_bregx 0x24 6]
    2220              $C$DW$174       .dwtag  DW_TAG_variable, DW_AT_name("tmp3")
    2221                      .dwattr $C$DW$174, DW_AT_TI_symbol_name("_tmp3")
    2222                      .dwattr $C$DW$174, DW_AT_type(*$C$DW$T$12)
    2223                      .dwattr $C$DW$174, DW_AT_location[DW_OP_bregx 0x24 8]
    2224              $C$DW$175       .dwtag  DW_TAG_variable, DW_AT_name("norm_n")
    2225                      .dwattr $C$DW$175, DW_AT_TI_symbol_name("_norm_n")
    2226                      .dwattr $C$DW$175, DW_AT_type(*$C$DW$T$8)
    2227                      .dwattr $C$DW$175, DW_AT_location[DW_OP_bregx 0x24 10]
    2228              $C$DW$176       .dwtag  DW_TAG_variable, DW_AT_name("norm_d")
    2229                      .dwattr $C$DW$176, DW_AT_TI_symbol_name("_norm_d")
    2230                      .dwattr $C$DW$176, DW_AT_type(*$C$DW$T$8)
    2231                      .dwattr $C$DW$176, DW_AT_location[DW_OP_bregx 0x24 11]
    2232              $C$DW$177       .dwtag  DW_TAG_variable, DW_AT_name("d")
    2233                      .dwattr $C$DW$177, DW_AT_TI_symbol_name("_d")
    2234                      .dwattr $C$DW$177, DW_AT_type(*$C$DW$T$8)
    2235                      .dwattr $C$DW$177, DW_AT_location[DW_OP_bregx 0x24 12]
    2236 000002 EB04          MOV AC1, dbl(*SP(#2)) ; |409| 
         000004 18   
    2237 000005 EB00          MOV AC0, dbl(*SP(#0)) ; |409| 
         000007 08   
    2238                      .dwpsn  file "C:/Users/a0221074/Desktop/C5000/IBM_Watson_TIdesign_workarea/CSL_bitbucket/c55_csl/c55x
TMS320C55x Assembler PC v4.4.1 Wed Sep 13 16:33:14 2017

Tools Copyright (c) 1996-2012 Texas Instruments Incorporated
C:\Users\a0221074\AppData\Local\Temp\0730410                         PAGE   49

    2239 000008 ED00          MOV dbl(*SP(#0)), AC0 ; |413| 
         00000a 08   
    2240 00000b 6290          BCC $C$L77,AC0 != #0 ; |413| 
    2241                                                      ; branchcc occurs ; |413| 
    2242                      .dwpsn  file "C:/Users/a0221074/Desktop/C5000/IBM_Watson_TIdesign_workarea/CSL_bitbucket/c55_csl/c55x
    2243 00000d 3C00          MOV #0, AC0 ; |413| 
    2244 00000f 0600          B $C$L92  ; |413| 
         000011 DE   
    2245                                                      ; branch occurs ; |413| 
    2246 000012       $C$L77:    
    2247                      .dwpsn  file "C:/Users/a0221074/Desktop/C5000/IBM_Watson_TIdesign_workarea/CSL_bitbucket/c55_csl/c55x
    2248 000012 ED00          MOV dbl(*SP(#0)), AC0 ; |415| 
         000014 08   
    2249 000015 6550          BCC $C$L78,AC0 >= #0 ; |415| 
    2250                                                      ; branchcc occurs ; |415| 
    2251                      .dwpsn  file "C:/Users/a0221074/Desktop/C5000/IBM_Watson_TIdesign_workarea/CSL_bitbucket/c55_csl/c55x
    2252 000017 ED00          MOV dbl(*SP(#0)), AC0 ; |415| 
         000019 08   
    2253 00001a 3400          NEG AC0, AC0 ; |415| 
    2254 00001c EB08          MOV AC0, dbl(*SP(#4)) ; |415| 
         00001e 08   
    2255 00001f 4A06          B $C$L79  ; |415| 
    2256                                                      ; branch occurs ; |415| 
    2257 000021       $C$L78:    
    2258                      .dwpsn  file "C:/Users/a0221074/Desktop/C5000/IBM_Watson_TIdesign_workarea/CSL_bitbucket/c55_csl/c55x
    2259 000021 ED00          MOV dbl(*SP(#0)), AC0 ; |416| 
         000023 08   
    2260 000024 EB08          MOV AC0, dbl(*SP(#4)) ; |416| 
         000026 08   
    2261 000027       $C$L79:    
    2262                      .dwpsn  file "C:/Users/a0221074/Desktop/C5000/IBM_Watson_TIdesign_workarea/CSL_bitbucket/c55_csl/c55x
    2263 000027 ED04          MOV dbl(*SP(#2)), AC0 ; |417| 
         000029 08   
    2264 00002a 6550          BCC $C$L80,AC0 >= #0 ; |417| 
    2265                                                      ; branchcc occurs ; |417| 
    2266                      .dwpsn  file "C:/Users/a0221074/Desktop/C5000/IBM_Watson_TIdesign_workarea/CSL_bitbucket/c55_csl/c55x
    2267 00002c ED04          MOV dbl(*SP(#2)), AC0 ; |417| 
         00002e 08   
    2268 00002f 3400          NEG AC0, AC0 ; |417| 
    2269 000031 EB0C          MOV AC0, dbl(*SP(#6)) ; |417| 
         000033 08   
    2270 000034 4A06          B $C$L81  ; |417| 
    2271                                                      ; branch occurs ; |417| 
    2272 000036       $C$L80:    
    2273                      .dwpsn  file "C:/Users/a0221074/Desktop/C5000/IBM_Watson_TIdesign_workarea/CSL_bitbucket/c55_csl/c55x
    2274 000036 ED04          MOV dbl(*SP(#2)), AC0 ; |418| 
         000038 08   
    2275 000039 EB0C          MOV AC0, dbl(*SP(#6)) ; |418| 
         00003b 08   
    2276 00003c       $C$L81:    
    2277                      .dwpsn  file "C:/Users/a0221074/Desktop/C5000/IBM_Watson_TIdesign_workarea/CSL_bitbucket/c55_csl/c55x
    2278              
    2279 00003f 3D11          MOV #1, AC1 ; |419| 
    2280 00003c ED0C  ||      MOV dbl(*SP(#6)), AC0 ; |419| 
         00003e 08   
TMS320C55x Assembler PC v4.4.1 Wed Sep 13 16:33:14 2017

Tools Copyright (c) 1996-2012 Texas Instruments Incorporated
C:\Users\a0221074\AppData\Local\Temp\0730410                         PAGE   50

    2281              
    2282 000041 1208          CMP AC1 <= AC0, TC1 ; |419| 
         000043 10   
    2283 000044 6264          BCC $C$L82,TC1 ; |419| 
    2284                                                      ; branchcc occurs ; |419| 
    2285              
    2286 000046 4A03          B $C$L83  ; |419| 
    2287 000048 3D10  ||      MOV #1, AC0 ; |419| 
    2288              
    2289                                                      ; branch occurs ; |419| 
    2290 00004a       $C$L82:    
    2291 00004a ED0C          MOV dbl(*SP(#6)), AC0 ; |419| 
         00004c 08   
    2292 00004d       $C$L83:    
    2293 00004d EB0C          MOV AC0, dbl(*SP(#6)) ; |419| 
         00004f 08   
    2294                      .dwpsn  file "C:/Users/a0221074/Desktop/C5000/IBM_Watson_TIdesign_workarea/CSL_bitbucket/c55_csl/c55x
    2295 000050 E614          MOV #0, *SP(#10) ; |421| 
         000052 00   
    2296 000053 7A40          MOV #16384 << #16, AC0 ; |421| 
         000055 000A 
    2297 000057 ED08          MOV dbl(*SP(#4)), AC1 ; |421| 
         000059 18   
    2298 00005a 1218          CMP AC1 >= AC0, TC1 ; |421| 
         00005c 00   
    2299 00005d 0464          BCC $C$L85,TC1 ; |421| 
         00005f 19   
    2300                                                      ; branchcc occurs ; |421| 
    2301 000060       $C$L84:    
    2302 000060       $C$DW$L$_div32_32$13$B:
    2303 000060 ED08          MOV dbl(*SP(#4)), AC0 ; |421| 
         000062 08   
    2304 000063 5000          SFTL AC0, #1 ; |421| 
    2305 000065 EB08          MOV AC0, dbl(*SP(#4)) ; |421| 
         000067 08   
    2306 000068 F714          ADD #1, *SP(#10) ; |421| 
         00006a 0001 
    2307 00006c 7A40          MOV #16384 << #16, AC0 ; |421| 
         00006e 000A 
    2308 000070 ED08          MOV dbl(*SP(#4)), AC1 ; |421| 
         000072 18   
    2309 000073 1214          CMP AC1 < AC0, TC1 ; |421| 
         000075 00   
    2310 000076 0464          BCC $C$L84,TC1 ; |421| 
         000078 E7   
    2311                                                      ; branchcc occurs ; |421| 
    2312 000079       $C$DW$L$_div32_32$13$E:
    2313 000079       $C$L85:    
    2314                      .dwpsn  file "C:/Users/a0221074/Desktop/C5000/IBM_Watson_TIdesign_workarea/CSL_bitbucket/c55_csl/c55x
    2315 000079 E616          MOV #0, *SP(#11) ; |422| 
         00007b 00   
    2316 00007c ED0C          MOV dbl(*SP(#6)), AC1 ; |422| 
         00007e 18   
    2317 00007f 1218          CMP AC1 >= AC0, TC1 ; |422| 
         000081 00   
TMS320C55x Assembler PC v4.4.1 Wed Sep 13 16:33:14 2017

Tools Copyright (c) 1996-2012 Texas Instruments Incorporated
C:\Users\a0221074\AppData\Local\Temp\0730410                         PAGE   51

    2318 000082 0464          BCC $C$L87,TC1 ; |422| 
         000084 19   
    2319                                                      ; branchcc occurs ; |422| 
    2320 000085       $C$L86:    
    2321 000085       $C$DW$L$_div32_32$15$B:
    2322 000085 ED0C          MOV dbl(*SP(#6)), AC0 ; |422| 
         000087 08   
    2323 000088 5000          SFTL AC0, #1 ; |422| 
    2324 00008a EB0C          MOV AC0, dbl(*SP(#6)) ; |422| 
         00008c 08   
    2325 00008d F716          ADD #1, *SP(#11) ; |422| 
         00008f 0001 
    2326 000091 7A40          MOV #16384 << #16, AC0 ; |422| 
         000093 000A 
    2327 000095 ED0C          MOV dbl(*SP(#6)), AC1 ; |422| 
         000097 18   
    2328 000098 1214          CMP AC1 < AC0, TC1 ; |422| 
         00009a 00   
    2329 00009b 0464          BCC $C$L86,TC1 ; |422| 
         00009d E7   
    2330                                                      ; branchcc occurs ; |422| 
    2331 00009e       $C$DW$L$_div32_32$15$E:
    2332 00009e       $C$L87:    
    2333                      .dwpsn  file "C:/Users/a0221074/Desktop/C5000/IBM_Watson_TIdesign_workarea/CSL_bitbucket/c55_csl/c55x
    2334 00009e ED0C          MOV dbl(*SP(#6)), AC0 ; |423| 
         0000a0 08   
    2335 0000a1 1005          SFTS AC0, #-9, AC0 ; |423| 
         0000a3 37   
    2336 0000a4 EB0C          MOV AC0, dbl(*SP(#6)) ; |423| 
         0000a6 08   
    2337                      .dwpsn  file "C:/Users/a0221074/Desktop/C5000/IBM_Watson_TIdesign_workarea/CSL_bitbucket/c55_csl/c55x
    2338 0000a7 ED0C          MOV dbl(*SP(#6)), AC1 ; |424| 
         0000a9 18   
    2339 0000aa ED08          MOV dbl(*SP(#4)), AC0 ; |424| 
         0000ac 08   
    2340              $C$DW$178       .dwtag  DW_TAG_TI_branch
    2341                      .dwattr $C$DW$178, DW_AT_low_pc(0x00)
    2342                      .dwattr $C$DW$178, DW_AT_name("__divli")
    2343                      .dwattr $C$DW$178, DW_AT_TI_call
    2344 0000ad 6C00          CALL #__divli ; |424| 
         0000af 0000!
    2345                                                      ; call occurs [#__divli] ; |424| 
    2346 0000b1 EB10          MOV AC0, dbl(*SP(#8)) ; |424| 
         0000b3 08   
    2347                      .dwpsn  file "C:/Users/a0221074/Desktop/C5000/IBM_Watson_TIdesign_workarea/CSL_bitbucket/c55_csl/c55x
    2348 0000b4 A914          MOV *SP(#10), AR1 ; |425| 
    2349 0000b6 D816          SUB AR1, *SP(#11), AR1 ; |425| 
         0000b8 99   
    2350 0000b9 C918          MOV AR1, *SP(#12) ; |425| 
    2351                      .dwpsn  file "C:/Users/a0221074/Desktop/C5000/IBM_Watson_TIdesign_workarea/CSL_bitbucket/c55_csl/c55x
    2352 0000bb 6639          BCC $C$L88,AR1 <= #0 ; |426| 
    2353                                                      ; branchcc occurs ; |426| 
    2354                      .dwpsn  file "C:/Users/a0221074/Desktop/C5000/IBM_Watson_TIdesign_workarea/CSL_bitbucket/c55_csl/c55x
    2355              
    2356 0000bd ED10          MOV dbl(*SP(#8)), AC0 ; |426| 
TMS320C55x Assembler PC v4.4.1 Wed Sep 13 16:33:14 2017

Tools Copyright (c) 1996-2012 Texas Instruments Incorporated
C:\Users\a0221074\AppData\Local\Temp\0730410                         PAGE   52

         0000bf 08   
    2357 0000c0 2395  ||      MOV AR1, T1 ; |426| 
    2358              
    2359 0000c2 5C05          SFTS AC0, T1, AC0 ; |426| 
    2360 0000c4 EB10          MOV AC0, dbl(*SP(#8)) ; |426| 
         0000c6 08   
    2361 0000c7 4A0A          B $C$L89  ; |426| 
    2362                                                      ; branch occurs ; |426| 
    2363 0000c9       $C$L88:    
    2364                      .dwpsn  file "C:/Users/a0221074/Desktop/C5000/IBM_Watson_TIdesign_workarea/CSL_bitbucket/c55_csl/c55x
    2365              
    2366 0000c9 ED10          MOV dbl(*SP(#8)), AC0 ; |427| 
         0000cb 08   
    2367 0000cc 2395  ||      MOV AR1, T1 ; |427| 
    2368              
    2369 0000ce 5C05          SFTS AC0, T1, AC0 ; |427| 
    2370 0000d0 EB10          MOV AC0, dbl(*SP(#8)) ; |427| 
         0000d2 08   
    2371 0000d3       $C$L89:    
    2372                      .dwpsn  file "C:/Users/a0221074/Desktop/C5000/IBM_Watson_TIdesign_workarea/CSL_bitbucket/c55_csl/c55x
    2373 0000d3 ED00          MOV dbl(*SP(#0)), AC0 ; |428| 
         0000d5 08   
    2374 0000d6 6450          BCC $C$L90,AC0 >= #0 ; |428| 
    2375                                                      ; branchcc occurs ; |428| 
    2376                      .dwpsn  file "C:/Users/a0221074/Desktop/C5000/IBM_Watson_TIdesign_workarea/CSL_bitbucket/c55_csl/c55x
    2377 0000d8 ED10          MOV dbl(*SP(#8)), AC0 ; |428| 
         0000da 08   
    2378 0000db 3400          NEG AC0, AC0 ; |428| 
    2379 0000dd EB10          MOV AC0, dbl(*SP(#8)) ; |428| 
         0000df 08   
    2380 0000e0       $C$L90:    
    2381                      .dwpsn  file "C:/Users/a0221074/Desktop/C5000/IBM_Watson_TIdesign_workarea/CSL_bitbucket/c55_csl/c55x
    2382 0000e0 ED04          MOV dbl(*SP(#2)), AC0 ; |429| 
         0000e2 08   
    2383 0000e3 6450          BCC $C$L91,AC0 >= #0 ; |429| 
    2384                                                      ; branchcc occurs ; |429| 
    2385                      .dwpsn  file "C:/Users/a0221074/Desktop/C5000/IBM_Watson_TIdesign_workarea/CSL_bitbucket/c55_csl/c55x
    2386 0000e5 ED10          MOV dbl(*SP(#8)), AC0 ; |429| 
         0000e7 08   
    2387 0000e8 3400          NEG AC0, AC0 ; |429| 
    2388 0000ea EB10          MOV AC0, dbl(*SP(#8)) ; |429| 
         0000ec 08   
    2389 0000ed       $C$L91:    
    2390                      .dwpsn  file "C:/Users/a0221074/Desktop/C5000/IBM_Watson_TIdesign_workarea/CSL_bitbucket/c55_csl/c55x
    2391 0000ed ED10          MOV dbl(*SP(#8)), AC0 ; |430| 
         0000ef 08   
    2392 0000f0       $C$L92:    
    2393                      .dwpsn  file "C:/Users/a0221074/Desktop/C5000/IBM_Watson_TIdesign_workarea/CSL_bitbucket/c55_csl/c55x
    2394 0000f0 4E0D          AADD #13, SP
    2395                      .dwcfi  cfa_offset, 1
    2396              $C$DW$179       .dwtag  DW_TAG_TI_branch
    2397                      .dwattr $C$DW$179, DW_AT_low_pc(0x00)
    2398                      .dwattr $C$DW$179, DW_AT_TI_return
    2399 0000f2 4804          RET
    2400                                                      ; return occurs
TMS320C55x Assembler PC v4.4.1 Wed Sep 13 16:33:14 2017

Tools Copyright (c) 1996-2012 Texas Instruments Incorporated
C:\Users\a0221074\AppData\Local\Temp\0730410                         PAGE   53

    2401              
    2402              $C$DW$180       .dwtag  DW_TAG_TI_loop
    2403                      .dwattr $C$DW$180, DW_AT_name("C:\\Users\\a0221074\\AppData\\Local\\Temp\\0730410:$C$L86:1:1505334792
    2404                      .dwattr $C$DW$180, DW_AT_TI_begin_file("C:/Users/a0221074/Desktop/C5000/IBM_Watson_TIdesign_workarea/
    2405                      .dwattr $C$DW$180, DW_AT_TI_begin_line(0x1a6)
    2406                      .dwattr $C$DW$180, DW_AT_TI_end_line(0x1a6)
    2407              $C$DW$181       .dwtag  DW_TAG_TI_loop_range
    2408                      .dwattr $C$DW$181, DW_AT_low_pc($C$DW$L$_div32_32$15$B)
    2409                      .dwattr $C$DW$181, DW_AT_high_pc($C$DW$L$_div32_32$15$E)
    2410                      .dwendtag $C$DW$180
    2411              
    2412              
    2413              $C$DW$182       .dwtag  DW_TAG_TI_loop
    2414                      .dwattr $C$DW$182, DW_AT_name("C:\\Users\\a0221074\\AppData\\Local\\Temp\\0730410:$C$L84:1:1505334792
    2415                      .dwattr $C$DW$182, DW_AT_TI_begin_file("C:/Users/a0221074/Desktop/C5000/IBM_Watson_TIdesign_workarea/
    2416                      .dwattr $C$DW$182, DW_AT_TI_begin_line(0x1a5)
    2417                      .dwattr $C$DW$182, DW_AT_TI_end_line(0x1a5)
    2418              $C$DW$183       .dwtag  DW_TAG_TI_loop_range
    2419                      .dwattr $C$DW$183, DW_AT_low_pc($C$DW$L$_div32_32$13$B)
    2420                      .dwattr $C$DW$183, DW_AT_high_pc($C$DW$L$_div32_32$13$E)
    2421                      .dwendtag $C$DW$182
    2422              
    2423                      .dwattr $C$DW$167, DW_AT_TI_end_file("C:/Users/a0221074/Desktop/C5000/IBM_Watson_TIdesign_workarea/CS
    2424                      .dwattr $C$DW$167, DW_AT_TI_end_line(0x1b0)
    2425                      .dwattr $C$DW$167, DW_AT_TI_end_column(0x01)
    2426                      .dwendentry
    2427                      .dwendtag $C$DW$167
    2428              
    2429 000000               .sect   ".text:_fx_sqrt"
    2430                      .clink
    2431                      .global _fx_sqrt
    2432              
    2433              $C$DW$184       .dwtag  DW_TAG_subprogram, DW_AT_name("fx_sqrt")
    2434                      .dwattr $C$DW$184, DW_AT_low_pc(_fx_sqrt)
    2435                      .dwattr $C$DW$184, DW_AT_high_pc(0x00)
    2436                      .dwattr $C$DW$184, DW_AT_TI_symbol_name("_fx_sqrt")
    2437                      .dwattr $C$DW$184, DW_AT_external
    2438                      .dwattr $C$DW$184, DW_AT_type(*$C$DW$T$12)
    2439                      .dwattr $C$DW$184, DW_AT_TI_begin_file("C:/Users/a0221074/Desktop/C5000/IBM_Watson_TIdesign_workarea/
    2440                      .dwattr $C$DW$184, DW_AT_TI_begin_line(0x1b5)
    2441                      .dwattr $C$DW$184, DW_AT_TI_begin_column(0x1d)
    2442                      .dwattr $C$DW$184, DW_AT_TI_max_frame_size(0x0a)
    2443                      .dwpsn  file "C:/Users/a0221074/Desktop/C5000/IBM_Watson_TIdesign_workarea/CSL_bitbucket/c55_csl/c55x
    2444              
    2445                      .dwfde $C$DW$CIE, _fx_sqrt
    2446              $C$DW$185       .dwtag  DW_TAG_formal_parameter, DW_AT_name("x")
    2447                      .dwattr $C$DW$185, DW_AT_TI_symbol_name("_x")
    2448                      .dwattr $C$DW$185, DW_AT_type(*$C$DW$T$12)
    2449                      .dwattr $C$DW$185, DW_AT_location[DW_OP_reg0]
    2450              ;*******************************************************************************
    2451              ;* FUNCTION NAME: fx_sqrt                                                      *
    2452              ;*                                                                             *
    2453              ;*   Function Uses Regs : AC0,AC0,AC1,AC1,AR1,AR2,SP,CARRY,TC1,M40,SATA,SATD,  *
    2454              ;*                        RDM,FRCT,SMUL                                        *
    2455              ;*   Stack Frame        : Compact (No Frame Pointer, w/ debug)                 *
TMS320C55x Assembler PC v4.4.1 Wed Sep 13 16:33:14 2017

Tools Copyright (c) 1996-2012 Texas Instruments Incorporated
C:\Users\a0221074\AppData\Local\Temp\0730410                         PAGE   54

    2456              ;*   Total Frame Size   : 10 words                                             *
    2457              ;*                        (2 return address/alignment)                         *
    2458              ;*                        (8 local values)                                     *
    2459              ;*   Min System Stack   : 1 word                                               *
    2460              ;*******************************************************************************
    2461 000000       _fx_sqrt:
    2462                      .dwcfi  cfa_offset, 1
    2463                      .dwcfi  save_reg_to_mem, 91, -1
    2464 000000 4EF7          AADD #-9, SP
    2465                      .dwcfi  cfa_offset, 10
    2466              $C$DW$186       .dwtag  DW_TAG_variable, DW_AT_name("x")
    2467                      .dwattr $C$DW$186, DW_AT_TI_symbol_name("_x")
    2468                      .dwattr $C$DW$186, DW_AT_type(*$C$DW$T$12)
    2469                      .dwattr $C$DW$186, DW_AT_location[DW_OP_bregx 0x24 0]
    2470              $C$DW$187       .dwtag  DW_TAG_variable, DW_AT_name("y0")
    2471                      .dwattr $C$DW$187, DW_AT_TI_symbol_name("_y0")
    2472                      .dwattr $C$DW$187, DW_AT_type(*$C$DW$T$12)
    2473                      .dwattr $C$DW$187, DW_AT_location[DW_OP_bregx 0x24 2]
    2474              $C$DW$188       .dwtag  DW_TAG_variable, DW_AT_name("y1")
    2475                      .dwattr $C$DW$188, DW_AT_TI_symbol_name("_y1")
    2476                      .dwattr $C$DW$188, DW_AT_type(*$C$DW$T$12)
    2477                      .dwattr $C$DW$188, DW_AT_location[DW_OP_bregx 0x24 4]
    2478              $C$DW$189       .dwtag  DW_TAG_variable, DW_AT_name("z")
    2479                      .dwattr $C$DW$189, DW_AT_TI_symbol_name("_z")
    2480                      .dwattr $C$DW$189, DW_AT_type(*$C$DW$T$12)
    2481                      .dwattr $C$DW$189, DW_AT_location[DW_OP_bregx 0x24 6]
    2482 000002 EB00          MOV AC0, dbl(*SP(#0)) ; |438| 
         000004 08   
    2483                      .dwpsn  file "C:/Users/a0221074/Desktop/C5000/IBM_Watson_TIdesign_workarea/CSL_bitbucket/c55_csl/c55x
    2484 000005 ED00          MOV dbl(*SP(#0)), AC0 ; |441| 
         000007 08   
    2485 000008 6440          BCC $C$L93,AC0 > #0 ; |441| 
    2486                                                      ; branchcc occurs ; |441| 
    2487                      .dwpsn  file "C:/Users/a0221074/Desktop/C5000/IBM_Watson_TIdesign_workarea/CSL_bitbucket/c55_csl/c55x
    2488 00000a 3C00          MOV #0, AC0 ; |442| 
    2489 00000c EB08          MOV AC0, dbl(*SP(#4)) ; |442| 
         00000e 08   
    2490                      .dwpsn  file "C:/Users/a0221074/Desktop/C5000/IBM_Watson_TIdesign_workarea/CSL_bitbucket/c55_csl/c55x
    2491 00000f 0600          B $C$L95  ; |443| 
         000011 42   
    2492                                                      ; branch occurs ; |443| 
    2493 000012       $C$L93:    
    2494                      .dwpsn  file "C:/Users/a0221074/Desktop/C5000/IBM_Watson_TIdesign_workarea/CSL_bitbucket/c55_csl/c55x
    2495 000012 ED00          MOV dbl(*SP(#0)), AC0 ; |444| 
         000014 08   
    2496 000015 4440          SFTS AC0, #-1 ; |444| 
    2497 000017 EB08          MOV AC0, dbl(*SP(#4)) ; |444| 
         000019 08   
    2498                      .dwpsn  file "C:/Users/a0221074/Desktop/C5000/IBM_Watson_TIdesign_workarea/CSL_bitbucket/c55_csl/c55x
    2499 00001a ED08          MOV dbl(*SP(#4)), AC0 ; |445| 
         00001c 08   
    2500 00001d 6290          BCC $C$L94,AC0 != #0 ; |445| 
    2501                                                      ; branchcc occurs ; |445| 
    2502                      .dwpsn  file "C:/Users/a0221074/Desktop/C5000/IBM_Watson_TIdesign_workarea/CSL_bitbucket/c55_csl/c55x
    2503 00001f ED00          MOV dbl(*SP(#0)), AC0 ; |445| 
TMS320C55x Assembler PC v4.4.1 Wed Sep 13 16:33:14 2017

Tools Copyright (c) 1996-2012 Texas Instruments Incorporated
C:\Users\a0221074\AppData\Local\Temp\0730410                         PAGE   55

         000021 08   
    2504 000022 4A33          B $C$L96  ; |445| 
    2505                                                      ; branch occurs ; |445| 
    2506 000024       $C$L94:    
    2507 000024       $C$DW$L$_fx_sqrt$5$B:
    2508                      .dwpsn  file "C:/Users/a0221074/Desktop/C5000/IBM_Watson_TIdesign_workarea/CSL_bitbucket/c55_csl/c55x
    2509 000024 ED08          MOV dbl(*SP(#4)), AC0 ; |448| 
         000026 08   
    2510 000027 EB04          MOV AC0, dbl(*SP(#2)) ; |448| 
         000029 08   
    2511                      .dwpsn  file "C:/Users/a0221074/Desktop/C5000/IBM_Watson_TIdesign_workarea/CSL_bitbucket/c55_csl/c55x
    2512 00002a ED04          MOV dbl(*SP(#2)), AC1 ; |449| 
         00002c 18   
    2513 00002d ED00          MOV dbl(*SP(#0)), AC0 ; |449| 
         00002f 08   
    2514              $C$DW$190       .dwtag  DW_TAG_TI_branch
    2515                      .dwattr $C$DW$190, DW_AT_low_pc(0x00)
    2516                      .dwattr $C$DW$190, DW_AT_name("__divli")
    2517                      .dwattr $C$DW$190, DW_AT_TI_call
    2518 000030 6C00          CALL #__divli ; |449| 
         000032 0000!
    2519                                                      ; call occurs [#__divli] ; |449| 
    2520 000034 EB0C          MOV AC0, dbl(*SP(#6)) ; |449| 
         000036 08   
    2521                      .dwpsn  file "C:/Users/a0221074/Desktop/C5000/IBM_Watson_TIdesign_workarea/CSL_bitbucket/c55_csl/c55x
    2522 000037 ED0C          MOV dbl(*SP(#6)), AC0 ; |450| 
         000039 08   
    2523 00003a ED04          ADD dbl(*SP(#2)), AC0, AC0 ; |450| 
         00003c 00   
    2524 00003d 4440          SFTS AC0, #-1 ; |450| 
    2525 00003f EB08          MOV AC0, dbl(*SP(#4)) ; |450| 
         000041 08   
    2526                      .dwpsn  file "C:/Users/a0221074/Desktop/C5000/IBM_Watson_TIdesign_workarea/CSL_bitbucket/c55_csl/c55x
    2527 000042 ED08          MOV dbl(*SP(#4)), AC0 ; |451| 
         000044 08   
    2528 000045 ED04          SUB AC0, dbl(*SP(#2)), AC0 ; |451| 
         000047 04   
    2529 000048 2209          MOV AC0, AR1 ; |451| 
    2530              
    2531 00004a 3299          ABS AR1, AR1 ; |451| 
    2532 00004c 3D1A  ||      MOV #1, AR2
    2533              
    2534 00004e 12A4          CMP AR1 > AR2, TC1 ; |451| 
         000050 90   
    2535 000051 0464          BCC $C$L94,TC1 ; |451| 
         000053 D0   
    2536                                                      ; branchcc occurs ; |451| 
    2537 000054       $C$DW$L$_fx_sqrt$5$E:
    2538 000054       $C$L95:    
    2539                      .dwpsn  file "C:/Users/a0221074/Desktop/C5000/IBM_Watson_TIdesign_workarea/CSL_bitbucket/c55_csl/c55x
    2540 000054 ED08          MOV dbl(*SP(#4)), AC0 ; |454| 
         000056 08   
    2541 000057       $C$L96:    
    2542                      .dwpsn  file "C:/Users/a0221074/Desktop/C5000/IBM_Watson_TIdesign_workarea/CSL_bitbucket/c55_csl/c55x
    2543 000057 4E09          AADD #9, SP
TMS320C55x Assembler PC v4.4.1 Wed Sep 13 16:33:14 2017

Tools Copyright (c) 1996-2012 Texas Instruments Incorporated
C:\Users\a0221074\AppData\Local\Temp\0730410                         PAGE   56

    2544                      .dwcfi  cfa_offset, 1
    2545              $C$DW$191       .dwtag  DW_TAG_TI_branch
    2546                      .dwattr $C$DW$191, DW_AT_low_pc(0x00)
    2547                      .dwattr $C$DW$191, DW_AT_TI_return
    2548 000059 4804          RET
    2549                                                      ; return occurs
    2550              
    2551              $C$DW$192       .dwtag  DW_TAG_TI_loop
    2552                      .dwattr $C$DW$192, DW_AT_name("C:\\Users\\a0221074\\AppData\\Local\\Temp\\0730410:$C$L94:1:1505334792
    2553                      .dwattr $C$DW$192, DW_AT_TI_begin_file("C:/Users/a0221074/Desktop/C5000/IBM_Watson_TIdesign_workarea/
    2554                      .dwattr $C$DW$192, DW_AT_TI_begin_line(0x1bf)
    2555                      .dwattr $C$DW$192, DW_AT_TI_end_line(0x1c3)
    2556              $C$DW$193       .dwtag  DW_TAG_TI_loop_range
    2557                      .dwattr $C$DW$193, DW_AT_low_pc($C$DW$L$_fx_sqrt$5$B)
    2558                      .dwattr $C$DW$193, DW_AT_high_pc($C$DW$L$_fx_sqrt$5$E)
    2559                      .dwendtag $C$DW$192
    2560              
    2561                      .dwattr $C$DW$184, DW_AT_TI_end_file("C:/Users/a0221074/Desktop/C5000/IBM_Watson_TIdesign_workarea/CS
    2562                      .dwattr $C$DW$184, DW_AT_TI_end_line(0x1c7)
    2563                      .dwattr $C$DW$184, DW_AT_TI_end_column(0x01)
    2564                      .dwendentry
    2565                      .dwendtag $C$DW$184
    2566              
    2567 000000               .sect   ".text:_log_polyfit"
    2568                      .clink
    2569                      .global _log_polyfit
    2570              
    2571              $C$DW$194       .dwtag  DW_TAG_subprogram, DW_AT_name("log_polyfit")
    2572                      .dwattr $C$DW$194, DW_AT_low_pc(_log_polyfit)
    2573                      .dwattr $C$DW$194, DW_AT_high_pc(0x00)
    2574                      .dwattr $C$DW$194, DW_AT_TI_symbol_name("_log_polyfit")
    2575                      .dwattr $C$DW$194, DW_AT_external
    2576                      .dwattr $C$DW$194, DW_AT_type(*$C$DW$T$8)
    2577                      .dwattr $C$DW$194, DW_AT_TI_begin_file("C:/Users/a0221074/Desktop/C5000/IBM_Watson_TIdesign_workarea/
    2578                      .dwattr $C$DW$194, DW_AT_TI_begin_line(0x1d9)
    2579                      .dwattr $C$DW$194, DW_AT_TI_begin_column(0x01)
    2580                      .dwattr $C$DW$194, DW_AT_TI_max_frame_size(0x0c)
    2581                      .dwpsn  file "C:/Users/a0221074/Desktop/C5000/IBM_Watson_TIdesign_workarea/CSL_bitbucket/c55_csl/c55x
    2582              
    2583                      .dwfde $C$DW$CIE, _log_polyfit
    2584              $C$DW$195       .dwtag  DW_TAG_formal_parameter, DW_AT_name("value")
    2585                      .dwattr $C$DW$195, DW_AT_TI_symbol_name("_value")
    2586                      .dwattr $C$DW$195, DW_AT_type(*$C$DW$T$12)
    2587                      .dwattr $C$DW$195, DW_AT_location[DW_OP_reg0]
    2588              $C$DW$196       .dwtag  DW_TAG_formal_parameter, DW_AT_name("compensate")
    2589                      .dwattr $C$DW$196, DW_AT_TI_symbol_name("_compensate")
    2590                      .dwattr $C$DW$196, DW_AT_type(*$C$DW$T$8)
    2591                      .dwattr $C$DW$196, DW_AT_location[DW_OP_reg12]
    2592              ;*******************************************************************************
    2593              ;* FUNCTION NAME: log_polyfit                                                  *
    2594              ;*                                                                             *
    2595              ;*   Function Uses Regs : AC0,AC0,AC1,AC1,T0,T1,AR1,AR3,XAR3,SP,CARRY,TC1,M40, *
    2596              ;*                        SATA,SATD,RDM,FRCT,SMUL                              *
    2597              ;*   Stack Frame        : Compact (No Frame Pointer, w/ debug)                 *
    2598              ;*   Total Frame Size   : 12 words                                             *
TMS320C55x Assembler PC v4.4.1 Wed Sep 13 16:33:14 2017

Tools Copyright (c) 1996-2012 Texas Instruments Incorporated
C:\Users\a0221074\AppData\Local\Temp\0730410                         PAGE   57

    2599              ;*                        (2 return address/alignment)                         *
    2600              ;*                        (10 local values)                                    *
    2601              ;*   Min System Stack   : 1 word                                               *
    2602              ;*******************************************************************************
    2603 000000       _log_polyfit:
    2604                      .dwcfi  cfa_offset, 1
    2605                      .dwcfi  save_reg_to_mem, 91, -1
    2606 000000 4EF5          AADD #-11, SP
    2607                      .dwcfi  cfa_offset, 12
    2608              $C$DW$197       .dwtag  DW_TAG_variable, DW_AT_name("value")
    2609                      .dwattr $C$DW$197, DW_AT_TI_symbol_name("_value")
    2610                      .dwattr $C$DW$197, DW_AT_type(*$C$DW$T$12)
    2611                      .dwattr $C$DW$197, DW_AT_location[DW_OP_bregx 0x24 0]
    2612              $C$DW$198       .dwtag  DW_TAG_variable, DW_AT_name("compensate")
    2613                      .dwattr $C$DW$198, DW_AT_TI_symbol_name("_compensate")
    2614                      .dwattr $C$DW$198, DW_AT_type(*$C$DW$T$8)
    2615                      .dwattr $C$DW$198, DW_AT_location[DW_OP_bregx 0x24 2]
    2616              $C$DW$199       .dwtag  DW_TAG_variable, DW_AT_name("result")
    2617                      .dwattr $C$DW$199, DW_AT_TI_symbol_name("_result")
    2618                      .dwattr $C$DW$199, DW_AT_type(*$C$DW$T$8)
    2619                      .dwattr $C$DW$199, DW_AT_location[DW_OP_bregx 0x24 3]
    2620              $C$DW$200       .dwtag  DW_TAG_variable, DW_AT_name("data")
    2621                      .dwattr $C$DW$200, DW_AT_TI_symbol_name("_data")
    2622                      .dwattr $C$DW$200, DW_AT_type(*$C$DW$T$8)
    2623                      .dwattr $C$DW$200, DW_AT_location[DW_OP_bregx 0x24 4]
    2624              $C$DW$201       .dwtag  DW_TAG_variable, DW_AT_name("norm")
    2625                      .dwattr $C$DW$201, DW_AT_TI_symbol_name("_norm")
    2626                      .dwattr $C$DW$201, DW_AT_type(*$C$DW$T$8)
    2627                      .dwattr $C$DW$201, DW_AT_location[DW_OP_bregx 0x24 5]
    2628              $C$DW$202       .dwtag  DW_TAG_variable, DW_AT_name("i")
    2629                      .dwattr $C$DW$202, DW_AT_TI_symbol_name("_i")
    2630                      .dwattr $C$DW$202, DW_AT_type(*$C$DW$T$8)
    2631                      .dwattr $C$DW$202, DW_AT_location[DW_OP_bregx 0x24 6]
    2632              $C$DW$203       .dwtag  DW_TAG_variable, DW_AT_name("tmp")
    2633                      .dwattr $C$DW$203, DW_AT_TI_symbol_name("_tmp")
    2634                      .dwattr $C$DW$203, DW_AT_type(*$C$DW$T$12)
    2635                      .dwattr $C$DW$203, DW_AT_location[DW_OP_bregx 0x24 8]
    2636 000002 C404          MOV T0, *SP(#2) ; |474| 
    2637 000004 EB00          MOV AC0, dbl(*SP(#0)) ; |474| 
         000006 08   
    2638                      .dwpsn  file "C:/Users/a0221074/Desktop/C5000/IBM_Watson_TIdesign_workarea/CSL_bitbucket/c55_csl/c55x
    2639 000007 E606          MOV #0, *SP(#3) ; |476| 
         000009 00   
    2640                      .dwpsn  file "C:/Users/a0221074/Desktop/C5000/IBM_Watson_TIdesign_workarea/CSL_bitbucket/c55_csl/c55x
    2641 00000a ED00          MOV dbl(*SP(#0)), AC0 ; |482| 
         00000c 08   
    2642 00000d 62C0          BCC $C$L97,AC0 > #0 ; |482| 
    2643                                                      ; branchcc occurs ; |482| 
    2644                      .dwpsn  file "C:/Users/a0221074/Desktop/C5000/IBM_Watson_TIdesign_workarea/CSL_bitbucket/c55_csl/c55x
    2645 00000f 3C10          MOV #1, AC0 ; |485| 
    2646 000011 EB00          MOV AC0, dbl(*SP(#0)) ; |485| 
         000013 08   
    2647 000014       $C$L97:    
    2648                      .dwpsn  file "C:/Users/a0221074/Desktop/C5000/IBM_Watson_TIdesign_workarea/CSL_bitbucket/c55_csl/c55x
    2649 000014 E60A          MOV #0, *SP(#5) ; |490| 
TMS320C55x Assembler PC v4.4.1 Wed Sep 13 16:33:14 2017

Tools Copyright (c) 1996-2012 Texas Instruments Incorporated
C:\Users\a0221074\AppData\Local\Temp\0730410                         PAGE   58

         000016 00   
    2650                      .dwpsn  file "C:/Users/a0221074/Desktop/C5000/IBM_Watson_TIdesign_workarea/CSL_bitbucket/c55_csl/c55x
    2651 000017 7A40          MOV #16384 << #16, AC0 ; |490| 
         000019 000A 
    2652 00001b ED00          MOV dbl(*SP(#0)), AC1 ; |490| 
         00001d 18   
    2653 00001e 1218          CMP AC1 >= AC0, TC1 ; |490| 
         000020 00   
    2654 000021 0464          BCC $C$L99,TC1 ; |490| 
         000023 19   
    2655                                                      ; branchcc occurs ; |490| 
    2656 000024       $C$L98:    
    2657 000024       $C$DW$L$_log_polyfit$4$B:
    2658                      .dwpsn  file "C:/Users/a0221074/Desktop/C5000/IBM_Watson_TIdesign_workarea/CSL_bitbucket/c55_csl/c55x
    2659 000024 ED00          MOV dbl(*SP(#0)), AC0 ; |491| 
         000026 08   
    2660 000027 5000          SFTL AC0, #1 ; |491| 
    2661 000029 EB00          MOV AC0, dbl(*SP(#0)) ; |491| 
         00002b 08   
    2662                      .dwpsn  file "C:/Users/a0221074/Desktop/C5000/IBM_Watson_TIdesign_workarea/CSL_bitbucket/c55_csl/c55x
    2663 00002c F70A          ADD #1, *SP(#5) ; |490| 
         00002e 0001 
    2664                      .dwpsn  file "C:/Users/a0221074/Desktop/C5000/IBM_Watson_TIdesign_workarea/CSL_bitbucket/c55_csl/c55x
    2665 000030 ED00          MOV dbl(*SP(#0)), AC1 ; |490| 
         000032 18   
    2666 000033 7A40          MOV #16384 << #16, AC0 ; |490| 
         000035 000A 
    2667 000037 1214          CMP AC1 < AC0, TC1 ; |490| 
         000039 00   
    2668 00003a 0464          BCC $C$L98,TC1 ; |490| 
         00003c E7   
    2669                                                      ; branchcc occurs ; |490| 
    2670 00003d       $C$DW$L$_log_polyfit$4$E:
    2671 00003d       $C$L99:    
    2672                      .dwpsn  file "C:/Users/a0221074/Desktop/C5000/IBM_Watson_TIdesign_workarea/CSL_bitbucket/c55_csl/c55x
    2673 00003d ED00          MOV dbl(*SP(#0)), AC0 ; |495| 
         00003f 08   
    2674 000040 BC08          MOV HI(AC0), *SP(#4) ; |495| 
    2675                      .dwpsn  file "C:/Users/a0221074/Desktop/C5000/IBM_Watson_TIdesign_workarea/CSL_bitbucket/c55_csl/c55x
    2676 000042 A931          MOV *(#_coef_logpoly), AR1 ; |499| 
         000044 0000 
         000046 00+  
    2677 000047 C906          MOV AR1, *SP(#3) ; |499| 
    2678                      .dwpsn  file "C:/Users/a0221074/Desktop/C5000/IBM_Watson_TIdesign_workarea/CSL_bitbucket/c55_csl/c55x
    2679 000049 E60C          MOV #7, *SP(#6) ; |501| 
         00004b 07   
    2680                      .dwpsn  file "C:/Users/a0221074/Desktop/C5000/IBM_Watson_TIdesign_workarea/CSL_bitbucket/c55_csl/c55x
    2681 00004c A90C          MOV *SP(#6), AR1 ; |501| 
    2682 00004e 0429          BCC $C$L101,AR1 < #0 ; |501| 
         000050 37   
    2683                                                      ; branchcc occurs ; |501| 
    2684 000051       $C$L100:    
    2685 000051       $C$DW$L$_log_polyfit$6$B:
    2686                      .dwpsn  file "C:/Users/a0221074/Desktop/C5000/IBM_Watson_TIdesign_workarea/CSL_bitbucket/c55_csl/c55x
    2687 000051 A508          MOV *SP(#4), T1 ; |503| 
TMS320C55x Assembler PC v4.4.1 Wed Sep 13 16:33:14 2017

Tools Copyright (c) 1996-2012 Texas Instruments Incorporated
C:\Users\a0221074\AppData\Local\Temp\0730410                         PAGE   59

    2688 000053 D306          MPYM *SP(#3), T1, AC0 ; |503| 
         000055 05   
    2689 000056 EB10          MOV AC0, dbl(*SP(#8)) ; |503| 
         000058 08   
    2690                      .dwpsn  file "C:/Users/a0221074/Desktop/C5000/IBM_Watson_TIdesign_workarea/CSL_bitbucket/c55_csl/c55x
    2691 000059 ED10          MOV dbl(*SP(#8)), AC0 ; |504| 
         00005b 08   
    2692 00005c 5000          SFTL AC0, #1 ; |504| 
    2693 00005e EB10          MOV AC0, dbl(*SP(#8)) ; |504| 
         000060 08   
    2694                      .dwpsn  file "C:/Users/a0221074/Desktop/C5000/IBM_Watson_TIdesign_workarea/CSL_bitbucket/c55_csl/c55x
    2695 000061 3C89          MOV #8, AR1
    2696 000063 D70C          SUB *SP(#6), AR1, T0 ; |505| 
         000065 49   
    2697 000066 EC31          AMOV #_coef_logpoly, XAR3 ; |505| 
         000068 BE00 
         00006a 0000+
    2698 00006c B06B          MOV *AR3(T0) << #16, AC0 ; |505| 
    2699 00006e ED10          ADD dbl(*SP(#8)), AC0, AC0 ; |505| 
         000070 00   
    2700 000071 EB10          MOV AC0, dbl(*SP(#8)) ; |505| 
         000073 08   
    2701                      .dwpsn  file "C:/Users/a0221074/Desktop/C5000/IBM_Watson_TIdesign_workarea/CSL_bitbucket/c55_csl/c55x
    2702 000074 3C00          MOV #0, AC0 ; |506| 
    2703 000076 7E80          OR #0x8000, AC0, AC0 ; |506| 
         000078 0000 
    2704 00007a ED10          ADD dbl(*SP(#8)), AC0, AC0 ; |506| 
         00007c 00   
    2705 00007d BC06          MOV HI(AC0), *SP(#3) ; |506| 
    2706                      .dwpsn  file "C:/Users/a0221074/Desktop/C5000/IBM_Watson_TIdesign_workarea/CSL_bitbucket/c55_csl/c55x
    2707 00007f F70C          SUB #1, *SP(#6) ; |501| 
         000081 FFFF 
    2708                      .dwpsn  file "C:/Users/a0221074/Desktop/C5000/IBM_Watson_TIdesign_workarea/CSL_bitbucket/c55_csl/c55x
    2709 000083 A90C          MOV *SP(#6), AR1 ; |501| 
    2710 000085 0459          BCC $C$L100,AR1 >= #0 ; |501| 
         000087 C9   
    2711                                                      ; branchcc occurs ; |501| 
    2712 000088       $C$DW$L$_log_polyfit$6$E:
    2713 000088       $C$L101:    
    2714                      .dwpsn  file "C:/Users/a0221074/Desktop/C5000/IBM_Watson_TIdesign_workarea/CSL_bitbucket/c55_csl/c55x
    2715 000088 B006          MOV *SP(#3) << #16, AC0 ; |510| 
    2716 00008a 795E          MPYK #24103, AC0, AC0 ; |510| 
         00008c 2700 
    2717 00008e EB10          MOV AC0, dbl(*SP(#8)) ; |510| 
         000090 08   
    2718                      .dwpsn  file "C:/Users/a0221074/Desktop/C5000/IBM_Watson_TIdesign_workarea/CSL_bitbucket/c55_csl/c55x
    2719 000091 ED10          MOV dbl(*SP(#8)), AC0 ; |511| 
         000093 08   
    2720 000094 1005          SFTS AC0, #8, AC0 ; |511| 
         000096 08   
    2721 000097 EB10          MOV AC0, dbl(*SP(#8)) ; |511| 
         000099 08   
    2722                      .dwpsn  file "C:/Users/a0221074/Desktop/C5000/IBM_Watson_TIdesign_workarea/CSL_bitbucket/c55_csl/c55x
    2723 00009a ED10          MOV dbl(*SP(#8)), AC0 ; |516| 
         00009c 08   
TMS320C55x Assembler PC v4.4.1 Wed Sep 13 16:33:14 2017

Tools Copyright (c) 1996-2012 Texas Instruments Incorporated
C:\Users\a0221074\AppData\Local\Temp\0730410                         PAGE   60

    2724 00009d 1005          SFTS AC0, #-6, AC0 ; |516| 
         00009f 3A   
    2725 0000a0 EB10          MOV AC0, dbl(*SP(#8)) ; |516| 
         0000a2 08   
    2726                      .dwpsn  file "C:/Users/a0221074/Desktop/C5000/IBM_Watson_TIdesign_workarea/CSL_bitbucket/c55_csl/c55x
    2727 0000a3 A10A          MOV *SP(#5), AC1 ; |517| 
    2728 0000a5 ED10          MOV dbl(*SP(#8)), AC0 ; |517| 
         0000a7 08   
    2729 0000a8 1014          SUB AC1 << #25, AC0 ; |517| 
         0000aa 19   
    2730 0000ab EB10          MOV AC0, dbl(*SP(#8)) ; |517| 
         0000ad 08   
    2731                      .dwpsn  file "C:/Users/a0221074/Desktop/C5000/IBM_Watson_TIdesign_workarea/CSL_bitbucket/c55_csl/c55x
    2732 0000ae ED10          MOV dbl(*SP(#8)), AC0 ; |518| 
         0000b0 08   
    2733 0000b1 A104          MOV *SP(#2), AC1 ; |518| 
    2734 0000b3 1014          SUB AC1 << #25, AC0 ; |518| 
         0000b5 19   
    2735 0000b6 EB10          MOV AC0, dbl(*SP(#8)) ; |518| 
         0000b8 08   
    2736                      .dwpsn  file "C:/Users/a0221074/Desktop/C5000/IBM_Watson_TIdesign_workarea/CSL_bitbucket/c55_csl/c55x
    2737 0000b9 7A3E          MOV #15872 << #16, AC0 ; |520| 
         0000bb 000A 
    2738 0000bd ED10          ADD dbl(*SP(#8)), AC0, AC0 ; |520| 
         0000bf 00   
    2739 0000c0 EB10          MOV AC0, dbl(*SP(#8)) ; |520| 
         0000c2 08   
    2740                      .dwpsn  file "C:/Users/a0221074/Desktop/C5000/IBM_Watson_TIdesign_workarea/CSL_bitbucket/c55_csl/c55x
    2741 0000c3 3C00          MOV #0, AC0 ; |522| 
    2742 0000c5 7E80          OR #0x8000, AC0, AC0 ; |522| 
         0000c7 0000 
    2743 0000c9 ED10          ADD dbl(*SP(#8)), AC0, AC0 ; |522| 
         0000cb 00   
    2744 0000cc BC06          MOV HI(AC0), *SP(#3) ; |522| 
    2745                      .dwpsn  file "C:/Users/a0221074/Desktop/C5000/IBM_Watson_TIdesign_workarea/CSL_bitbucket/c55_csl/c55x
    2746 0000ce A406          MOV *SP(#3), T0 ; |524| 
    2747                      .dwpsn  file "C:/Users/a0221074/Desktop/C5000/IBM_Watson_TIdesign_workarea/CSL_bitbucket/c55_csl/c55x
    2748 0000d0 4E0B          AADD #11, SP
    2749                      .dwcfi  cfa_offset, 1
    2750              $C$DW$204       .dwtag  DW_TAG_TI_branch
    2751                      .dwattr $C$DW$204, DW_AT_low_pc(0x00)
    2752                      .dwattr $C$DW$204, DW_AT_TI_return
    2753 0000d2 4804          RET
    2754                                                      ; return occurs
    2755              
    2756              $C$DW$205       .dwtag  DW_TAG_TI_loop
    2757                      .dwattr $C$DW$205, DW_AT_name("C:\\Users\\a0221074\\AppData\\Local\\Temp\\0730410:$C$L100:1:150533479
    2758                      .dwattr $C$DW$205, DW_AT_TI_begin_file("C:/Users/a0221074/Desktop/C5000/IBM_Watson_TIdesign_workarea/
    2759                      .dwattr $C$DW$205, DW_AT_TI_begin_line(0x1f5)
    2760                      .dwattr $C$DW$205, DW_AT_TI_end_line(0x1fb)
    2761              $C$DW$206       .dwtag  DW_TAG_TI_loop_range
    2762                      .dwattr $C$DW$206, DW_AT_low_pc($C$DW$L$_log_polyfit$6$B)
    2763                      .dwattr $C$DW$206, DW_AT_high_pc($C$DW$L$_log_polyfit$6$E)
    2764                      .dwendtag $C$DW$205
    2765              
TMS320C55x Assembler PC v4.4.1 Wed Sep 13 16:33:14 2017

Tools Copyright (c) 1996-2012 Texas Instruments Incorporated
C:\Users\a0221074\AppData\Local\Temp\0730410                         PAGE   61

    2766              
    2767              $C$DW$207       .dwtag  DW_TAG_TI_loop
    2768                      .dwattr $C$DW$207, DW_AT_name("C:\\Users\\a0221074\\AppData\\Local\\Temp\\0730410:$C$L98:1:1505334792
    2769                      .dwattr $C$DW$207, DW_AT_TI_begin_file("C:/Users/a0221074/Desktop/C5000/IBM_Watson_TIdesign_workarea/
    2770                      .dwattr $C$DW$207, DW_AT_TI_begin_line(0x1ea)
    2771                      .dwattr $C$DW$207, DW_AT_TI_end_line(0x1eb)
    2772              $C$DW$208       .dwtag  DW_TAG_TI_loop_range
    2773                      .dwattr $C$DW$208, DW_AT_low_pc($C$DW$L$_log_polyfit$4$B)
    2774                      .dwattr $C$DW$208, DW_AT_high_pc($C$DW$L$_log_polyfit$4$E)
    2775                      .dwendtag $C$DW$207
    2776              
    2777                      .dwattr $C$DW$194, DW_AT_TI_end_file("C:/Users/a0221074/Desktop/C5000/IBM_Watson_TIdesign_workarea/CS
    2778                      .dwattr $C$DW$194, DW_AT_TI_end_line(0x20d)
    2779                      .dwattr $C$DW$194, DW_AT_TI_end_column(0x01)
    2780                      .dwendentry
    2781                      .dwendtag $C$DW$194
    2782              
    2783 000000               .sect   ".text:_pow_polyfit"
    2784                      .clink
    2785                      .global _pow_polyfit
    2786              
    2787              $C$DW$209       .dwtag  DW_TAG_subprogram, DW_AT_name("pow_polyfit")
    2788                      .dwattr $C$DW$209, DW_AT_low_pc(_pow_polyfit)
    2789                      .dwattr $C$DW$209, DW_AT_high_pc(0x00)
    2790                      .dwattr $C$DW$209, DW_AT_TI_symbol_name("_pow_polyfit")
    2791                      .dwattr $C$DW$209, DW_AT_external
    2792                      .dwattr $C$DW$209, DW_AT_type(*$C$DW$T$12)
    2793                      .dwattr $C$DW$209, DW_AT_TI_begin_file("C:/Users/a0221074/Desktop/C5000/IBM_Watson_TIdesign_workarea/
    2794                      .dwattr $C$DW$209, DW_AT_TI_begin_line(0x213)
    2795                      .dwattr $C$DW$209, DW_AT_TI_begin_column(0x1d)
    2796                      .dwattr $C$DW$209, DW_AT_TI_max_frame_size(0x0a)
    2797                      .dwpsn  file "C:/Users/a0221074/Desktop/C5000/IBM_Watson_TIdesign_workarea/CSL_bitbucket/c55_csl/c55x
    2798              
    2799                      .dwfde $C$DW$CIE, _pow_polyfit
    2800              $C$DW$210       .dwtag  DW_TAG_formal_parameter, DW_AT_name("value")
    2801                      .dwattr $C$DW$210, DW_AT_TI_symbol_name("_value")
    2802                      .dwattr $C$DW$210, DW_AT_type(*$C$DW$T$8)
    2803                      .dwattr $C$DW$210, DW_AT_location[DW_OP_reg12]
    2804              ;*******************************************************************************
    2805              ;* FUNCTION NAME: pow_polyfit                                                  *
    2806              ;*                                                                             *
    2807              ;*   Function Uses Regs : AC0,AC0,AC1,AC1,T0,T1,AR1,AR2,AR3,XAR3,SP,CARRY,TC1, *
    2808              ;*                        M40,SATA,SATD,RDM,FRCT,SMUL                          *
    2809              ;*   Stack Frame        : Compact (No Frame Pointer, w/ debug)                 *
    2810              ;*   Total Frame Size   : 10 words                                             *
    2811              ;*                        (2 return address/alignment)                         *
    2812              ;*                        (8 local values)                                     *
    2813              ;*   Min System Stack   : 1 word                                               *
    2814              ;*******************************************************************************
    2815 000000       _pow_polyfit:
    2816                      .dwcfi  cfa_offset, 1
    2817                      .dwcfi  save_reg_to_mem, 91, -1
    2818 000000 4EF7          AADD #-9, SP
    2819                      .dwcfi  cfa_offset, 10
    2820              $C$DW$211       .dwtag  DW_TAG_variable, DW_AT_name("value")
TMS320C55x Assembler PC v4.4.1 Wed Sep 13 16:33:14 2017

Tools Copyright (c) 1996-2012 Texas Instruments Incorporated
C:\Users\a0221074\AppData\Local\Temp\0730410                         PAGE   62

    2821                      .dwattr $C$DW$211, DW_AT_TI_symbol_name("_value")
    2822                      .dwattr $C$DW$211, DW_AT_type(*$C$DW$T$8)
    2823                      .dwattr $C$DW$211, DW_AT_location[DW_OP_bregx 0x24 0]
    2824              $C$DW$212       .dwtag  DW_TAG_variable, DW_AT_name("result")
    2825                      .dwattr $C$DW$212, DW_AT_TI_symbol_name("_result")
    2826                      .dwattr $C$DW$212, DW_AT_type(*$C$DW$T$8)
    2827                      .dwattr $C$DW$212, DW_AT_location[DW_OP_bregx 0x24 1]
    2828              $C$DW$213       .dwtag  DW_TAG_variable, DW_AT_name("data")
    2829                      .dwattr $C$DW$213, DW_AT_TI_symbol_name("_data")
    2830                      .dwattr $C$DW$213, DW_AT_type(*$C$DW$T$8)
    2831                      .dwattr $C$DW$213, DW_AT_location[DW_OP_bregx 0x24 2]
    2832              $C$DW$214       .dwtag  DW_TAG_variable, DW_AT_name("norm")
    2833                      .dwattr $C$DW$214, DW_AT_TI_symbol_name("_norm")
    2834                      .dwattr $C$DW$214, DW_AT_type(*$C$DW$T$8)
    2835                      .dwattr $C$DW$214, DW_AT_location[DW_OP_bregx 0x24 3]
    2836              $C$DW$215       .dwtag  DW_TAG_variable, DW_AT_name("i")
    2837                      .dwattr $C$DW$215, DW_AT_TI_symbol_name("_i")
    2838                      .dwattr $C$DW$215, DW_AT_type(*$C$DW$T$8)
    2839                      .dwattr $C$DW$215, DW_AT_location[DW_OP_bregx 0x24 4]
    2840              $C$DW$216       .dwtag  DW_TAG_variable, DW_AT_name("tmp")
    2841                      .dwattr $C$DW$216, DW_AT_TI_symbol_name("_tmp")
    2842                      .dwattr $C$DW$216, DW_AT_type(*$C$DW$T$12)
    2843                      .dwattr $C$DW$216, DW_AT_location[DW_OP_bregx 0x24 6]
    2844 000002 C400          MOV T0, *SP(#0) ; |532| 
    2845                      .dwpsn  file "C:/Users/a0221074/Desktop/C5000/IBM_Watson_TIdesign_workarea/CSL_bitbucket/c55_csl/c55x
    2846              
    2847 000008 2349          MOV T0, AR1 ; |540| 
    2848 000004 76FE  ||      MOV #-512, AR2 ; |540| 
         000006 00A8 
    2849              
    2850 00000a 1298          CMP AR1 >= AR2, TC1 ; |540| 
         00000c A0   
    2851 00000d 62E4          BCC $C$L102,TC1 ; |540| 
    2852                                                      ; branchcc occurs ; |540| 
    2853                      .dwpsn  file "C:/Users/a0221074/Desktop/C5000/IBM_Watson_TIdesign_workarea/CSL_bitbucket/c55_csl/c55x
    2854 00000f 3C00          MOV #0, AC0 ; |540| 
    2855 000011 0600          B $C$L110 ; |540| 
         000013 BC   
    2856                                                      ; branch occurs ; |540| 
    2857 000014       $C$L102:    
    2858                      .dwpsn  file "C:/Users/a0221074/Desktop/C5000/IBM_Watson_TIdesign_workarea/CSL_bitbucket/c55_csl/c55x
    2859 000014 62C9          BCC $C$L103,AR1 > #0 ; |541| 
    2860                                                      ; branchcc occurs ; |541| 
    2861                      .dwpsn  file "C:/Users/a0221074/Desktop/C5000/IBM_Watson_TIdesign_workarea/CSL_bitbucket/c55_csl/c55x
    2862 000016 3C10          MOV #1, AC0 ; |541| 
    2863 000018 0600          B $C$L110 ; |541| 
         00001a B5   
    2864                                                      ; branch occurs ; |541| 
    2865 00001b       $C$L103:    
    2866                      .dwpsn  file "C:/Users/a0221074/Desktop/C5000/IBM_Watson_TIdesign_workarea/CSL_bitbucket/c55_csl/c55x
    2867 00001b 763D          MOV #15870, AR2 ; |542| 
         00001d FEA8 
    2868 00001f 12A8          CMP AR1 <= AR2, TC1 ; |542| 
         000021 90   
    2869 000022 65E4          BCC $C$L104,TC1 ; |542| 
TMS320C55x Assembler PC v4.4.1 Wed Sep 13 16:33:14 2017

Tools Copyright (c) 1996-2012 Texas Instruments Incorporated
C:\Users\a0221074\AppData\Local\Temp\0730410                         PAGE   63

    2870                                                      ; branchcc occurs ; |542| 
    2871                      .dwpsn  file "C:/Users/a0221074/Desktop/C5000/IBM_Watson_TIdesign_workarea/CSL_bitbucket/c55_csl/c55x
    2872 000024 7A7F          MOV #32767 << #16, AC0 ; |542| 
         000026 FF0A 
    2873 000028 7EFF          OR #0xffff, AC0, AC0 ; |542| 
         00002a FF00 
    2874 00002c 0600          B $C$L110 ; |542| 
         00002e A1   
    2875                                                      ; branch occurs ; |542| 
    2876 00002f       $C$L104:    
    2877                      .dwpsn  file "C:/Users/a0221074/Desktop/C5000/IBM_Watson_TIdesign_workarea/CSL_bitbucket/c55_csl/c55x
    2878 00002f A900          MOV *SP(#0), AR1 ; |546| 
    2879 000031 7DFE          AND #0xfe00, AR1, AC0 ; |546| 
         000033 0009 
    2880 000035 1005          SFTS AC0, #-9, AC0 ; |546| 
         000037 37   
    2881 000038 C006          MOV AC0, *SP(#3) ; |546| 
    2882                      .dwpsn  file "C:/Users/a0221074/Desktop/C5000/IBM_Watson_TIdesign_workarea/CSL_bitbucket/c55_csl/c55x
    2883 00003a A900          MOV *SP(#0), AR1 ; |547| 
    2884 00003c 7D01          AND #0x01ff, AR1, AC0 ; |547| 
         00003e FF09 
    2885 000040 C004          MOV AC0, *SP(#2) ; |547| 
    2886                      .dwpsn  file "C:/Users/a0221074/Desktop/C5000/IBM_Watson_TIdesign_workarea/CSL_bitbucket/c55_csl/c55x
    2887 000042 A931          MOV *(#_coef_powpoly), AR1 ; |551| 
         000044 0000 
         000046 00+  
    2888 000047 C902          MOV AR1, *SP(#1) ; |551| 
    2889                      .dwpsn  file "C:/Users/a0221074/Desktop/C5000/IBM_Watson_TIdesign_workarea/CSL_bitbucket/c55_csl/c55x
    2890 000049 E608          MOV #5, *SP(#4) ; |553| 
         00004b 05   
    2891                      .dwpsn  file "C:/Users/a0221074/Desktop/C5000/IBM_Watson_TIdesign_workarea/CSL_bitbucket/c55_csl/c55x
    2892 00004c A908          MOV *SP(#4), AR1 ; |553| 
    2893 00004e 0429          BCC $C$L106,AR1 < #0 ; |553| 
         000050 33   
    2894                                                      ; branchcc occurs ; |553| 
    2895 000051       $C$L105:    
    2896 000051       $C$DW$L$_pow_polyfit$8$B:
    2897                      .dwpsn  file "C:/Users/a0221074/Desktop/C5000/IBM_Watson_TIdesign_workarea/CSL_bitbucket/c55_csl/c55x
    2898 000051 A504          MOV *SP(#2), T1 ; |555| 
    2899 000053 D302          MPYM *SP(#1), T1, AC0 ; |555| 
         000055 05   
    2900 000056 EB0C          MOV AC0, dbl(*SP(#6)) ; |555| 
         000058 08   
    2901                      .dwpsn  file "C:/Users/a0221074/Desktop/C5000/IBM_Watson_TIdesign_workarea/CSL_bitbucket/c55_csl/c55x
    2902 000059 3C69          MOV #6, AR1
    2903 00005b D708          SUB *SP(#4), AR1, T0 ; |556| 
         00005d 49   
    2904 00005e EC31          AMOV #_coef_powpoly, XAR3 ; |556| 
         000060 BE00 
         000062 0000+
    2905 000064 ED0C          MOV dbl(*SP(#6)), AC0 ; |556| 
         000066 08   
    2906 000067 A16B          MOV *AR3(T0), AC1 ; |556| 
    2907 000069 1013          ADD AC1 << #9, AC0 ; |556| 
         00006b 09   
TMS320C55x Assembler PC v4.4.1 Wed Sep 13 16:33:14 2017

Tools Copyright (c) 1996-2012 Texas Instruments Incorporated
C:\Users\a0221074\AppData\Local\Temp\0730410                         PAGE   64

    2908 00006c EB0C          MOV AC0, dbl(*SP(#6)) ; |556| 
         00006e 08   
    2909                      .dwpsn  file "C:/Users/a0221074/Desktop/C5000/IBM_Watson_TIdesign_workarea/CSL_bitbucket/c55_csl/c55x
    2910 00006f 7601          MOV #256, AC0 ; |557| 
         000071 0008 
    2911 000073 ED0C          ADD dbl(*SP(#6)), AC0, AC0 ; |557| 
         000075 00   
    2912 000076 1005          SFTS AC0, #-9, AC0 ; |557| 
         000078 37   
    2913 000079 C002          MOV AC0, *SP(#1) ; |557| 
    2914                      .dwpsn  file "C:/Users/a0221074/Desktop/C5000/IBM_Watson_TIdesign_workarea/CSL_bitbucket/c55_csl/c55x
    2915 00007b F708          SUB #1, *SP(#4) ; |553| 
         00007d FFFF 
    2916                      .dwpsn  file "C:/Users/a0221074/Desktop/C5000/IBM_Watson_TIdesign_workarea/CSL_bitbucket/c55_csl/c55x
    2917 00007f A908          MOV *SP(#4), AR1 ; |553| 
    2918 000081 0459          BCC $C$L105,AR1 >= #0 ; |553| 
         000083 CD   
    2919                                                      ; branchcc occurs ; |553| 
    2920 000084       $C$DW$L$_pow_polyfit$8$E:
    2921 000084       $C$L106:    
    2922                      .dwpsn  file "C:/Users/a0221074/Desktop/C5000/IBM_Watson_TIdesign_workarea/CSL_bitbucket/c55_csl/c55x
    2923 000084 A002          MOV *SP(#1), AC0 ; |561| 
    2924 000086 EB0C          MOV AC0, dbl(*SP(#6)) ; |561| 
         000088 08   
    2925                      .dwpsn  file "C:/Users/a0221074/Desktop/C5000/IBM_Watson_TIdesign_workarea/CSL_bitbucket/c55_csl/c55x
    2926              
    2927 000089 A906          MOV *SP(#3), AR1 ; |562| 
    2928 00008b 3DEA  ||      MOV #14, AR2
    2929              
    2930 00008d 12A8          CMP AR1 <= AR2, TC1 ; |562| 
         00008f 90   
    2931 000090 6764          BCC $C$L107,TC1 ; |562| 
    2932                                                      ; branchcc occurs ; |562| 
    2933                      .dwpsn  file "C:/Users/a0221074/Desktop/C5000/IBM_Watson_TIdesign_workarea/CSL_bitbucket/c55_csl/c55x
    2934 000092 2295          MOV AR1, T1 ; |563| 
    2935              
    2936 000097 43E5          SUB #14, T1 ; |563| 
    2937 000094 ED0C  ||      MOV dbl(*SP(#6)), AC0 ; |563| 
         000096 08   
    2938              
    2939 000099 5C05          SFTS AC0, T1, AC0 ; |563| 
    2940 00009b EB0C          MOV AC0, dbl(*SP(#6)) ; |563| 
         00009d 08   
    2941                      .dwpsn  file "C:/Users/a0221074/Desktop/C5000/IBM_Watson_TIdesign_workarea/CSL_bitbucket/c55_csl/c55x
    2942 00009e 4A2D          B $C$L109 ; |564| 
    2943                                                      ; branch occurs ; |564| 
    2944 0000a0       $C$L107:    
    2945                      .dwpsn  file "C:/Users/a0221074/Desktop/C5000/IBM_Watson_TIdesign_workarea/CSL_bitbucket/c55_csl/c55x
    2946 0000a0 3CE9          MOV #14, AR1
    2947 0000a2 D706          SUB *SP(#3), AR1, AR1 ; |566| 
         0000a4 99   
    2948 0000a5 4219          SUB #1, AR1 ; |566| 
    2949 0000a7 C908          MOV AR1, *SP(#4) ; |566| 
    2950                      .dwpsn  file "C:/Users/a0221074/Desktop/C5000/IBM_Watson_TIdesign_workarea/CSL_bitbucket/c55_csl/c55x
    2951 0000a9 67A9          BCC $C$L108,AR1 < #0 ; |567| 
TMS320C55x Assembler PC v4.4.1 Wed Sep 13 16:33:14 2017

Tools Copyright (c) 1996-2012 Texas Instruments Incorporated
C:\Users\a0221074\AppData\Local\Temp\0730410                         PAGE   65

    2952                                                      ; branchcc occurs ; |567| 
    2953                      .dwpsn  file "C:/Users/a0221074/Desktop/C5000/IBM_Watson_TIdesign_workarea/CSL_bitbucket/c55_csl/c55x
    2954              
    2955 0000ab 2295          MOV AR1, T1
    2956 0000ad 3D10  ||      MOV #1, AC0
    2957              
    2958 0000af 5C05          SFTS AC0, T1, AC0 ; |568| 
    2959 0000b1 A010          MOV mmap(AC0L), AC0 ; |568| 
         0000b3 98   
    2960 0000b4 ED0C          ADD dbl(*SP(#6)), AC0, AC0 ; |568| 
         0000b6 00   
    2961 0000b7 EB0C          MOV AC0, dbl(*SP(#6)) ; |568| 
         0000b9 08   
    2962 0000ba       $C$L108:    
    2963                      .dwpsn  file "C:/Users/a0221074/Desktop/C5000/IBM_Watson_TIdesign_workarea/CSL_bitbucket/c55_csl/c55x
    2964 0000ba 3CE9          MOV #14, AR1
    2965 0000bc D706          SUB *SP(#3), AR1, AR1 ; |569| 
         0000be 99   
    2966 0000bf 2290          MOV AR1, AC0
    2967 0000c1 3400          NEG AC0, AC0 ; |569| 
    2968              
    2969 0000c3 ED0C          MOV dbl(*SP(#6)), AC0 ; |569| 
         0000c5 08   
    2970 0000c6 2305  ||      MOV AC0, T1 ; |569| 
    2971              
    2972 0000c8 5C05          SFTS AC0, T1, AC0 ; |569| 
    2973 0000ca EB0C          MOV AC0, dbl(*SP(#6)) ; |569| 
         0000cc 08   
    2974 0000cd       $C$L109:    
    2975                      .dwpsn  file "C:/Users/a0221074/Desktop/C5000/IBM_Watson_TIdesign_workarea/CSL_bitbucket/c55_csl/c55x
    2976 0000cd ED0C          MOV dbl(*SP(#6)), AC0 ; |572| 
         0000cf 08   
    2977 0000d0       $C$L110:    
    2978                      .dwpsn  file "C:/Users/a0221074/Desktop/C5000/IBM_Watson_TIdesign_workarea/CSL_bitbucket/c55_csl/c55x
    2979 0000d0 4E09          AADD #9, SP
    2980                      .dwcfi  cfa_offset, 1
    2981              $C$DW$217       .dwtag  DW_TAG_TI_branch
    2982                      .dwattr $C$DW$217, DW_AT_low_pc(0x00)
    2983                      .dwattr $C$DW$217, DW_AT_TI_return
    2984 0000d2 4804          RET
    2985                                                      ; return occurs
    2986              
    2987              $C$DW$218       .dwtag  DW_TAG_TI_loop
    2988                      .dwattr $C$DW$218, DW_AT_name("C:\\Users\\a0221074\\AppData\\Local\\Temp\\0730410:$C$L105:1:150533479
    2989                      .dwattr $C$DW$218, DW_AT_TI_begin_file("C:/Users/a0221074/Desktop/C5000/IBM_Watson_TIdesign_workarea/
    2990                      .dwattr $C$DW$218, DW_AT_TI_begin_line(0x229)
    2991                      .dwattr $C$DW$218, DW_AT_TI_end_line(0x22e)
    2992              $C$DW$219       .dwtag  DW_TAG_TI_loop_range
    2993                      .dwattr $C$DW$219, DW_AT_low_pc($C$DW$L$_pow_polyfit$8$B)
    2994                      .dwattr $C$DW$219, DW_AT_high_pc($C$DW$L$_pow_polyfit$8$E)
    2995                      .dwendtag $C$DW$218
    2996              
    2997                      .dwattr $C$DW$209, DW_AT_TI_end_file("C:/Users/a0221074/Desktop/C5000/IBM_Watson_TIdesign_workarea/CS
    2998                      .dwattr $C$DW$209, DW_AT_TI_end_line(0x23d)
    2999                      .dwattr $C$DW$209, DW_AT_TI_end_column(0x01)
TMS320C55x Assembler PC v4.4.1 Wed Sep 13 16:33:14 2017

Tools Copyright (c) 1996-2012 Texas Instruments Incorporated
C:\Users\a0221074\AppData\Local\Temp\0730410                         PAGE   66

    3000                      .dwendentry
    3001                      .dwendtag $C$DW$209
    3002              
    3003 000000               .sect   ".text:_pow2x"
    3004                      .clink
    3005                      .global _pow2x
    3006              
    3007              $C$DW$220       .dwtag  DW_TAG_subprogram, DW_AT_name("pow2x")
    3008                      .dwattr $C$DW$220, DW_AT_low_pc(_pow2x)
    3009                      .dwattr $C$DW$220, DW_AT_high_pc(0x00)
    3010                      .dwattr $C$DW$220, DW_AT_TI_symbol_name("_pow2x")
    3011                      .dwattr $C$DW$220, DW_AT_external
    3012                      .dwattr $C$DW$220, DW_AT_type(*$C$DW$T$12)
    3013                      .dwattr $C$DW$220, DW_AT_TI_begin_file("C:/Users/a0221074/Desktop/C5000/IBM_Watson_TIdesign_workarea/
    3014                      .dwattr $C$DW$220, DW_AT_TI_begin_line(0x242)
    3015                      .dwattr $C$DW$220, DW_AT_TI_begin_column(0x07)
    3016                      .dwattr $C$DW$220, DW_AT_TI_max_frame_size(0x0a)
    3017                      .dwpsn  file "C:/Users/a0221074/Desktop/C5000/IBM_Watson_TIdesign_workarea/CSL_bitbucket/c55_csl/c55x
    3018              
    3019                      .dwfde $C$DW$CIE, _pow2x
    3020              $C$DW$221       .dwtag  DW_TAG_formal_parameter, DW_AT_name("l_in")
    3021                      .dwattr $C$DW$221, DW_AT_TI_symbol_name("_l_in")
    3022                      .dwattr $C$DW$221, DW_AT_type(*$C$DW$T$12)
    3023                      .dwattr $C$DW$221, DW_AT_location[DW_OP_reg0]
    3024              ;*******************************************************************************
    3025              ;* FUNCTION NAME: pow2x                                                        *
    3026              ;*                                                                             *
    3027              ;*   Function Uses Regs : AC0,AC0,AC1,AC1,T0,T1,AR1,SP,CARRY,M40,SATA,SATD,RDM,*
    3028              ;*                        FRCT,SMUL                                            *
    3029              ;*   Stack Frame        : Compact (No Frame Pointer, w/ debug)                 *
    3030              ;*   Total Frame Size   : 10 words                                             *
    3031              ;*                        (2 return address/alignment)                         *
    3032              ;*                        (8 local values)                                     *
    3033              ;*   Min System Stack   : 1 word                                               *
    3034              ;*******************************************************************************
    3035 000000       _pow2x:
    3036                      .dwcfi  cfa_offset, 1
    3037                      .dwcfi  save_reg_to_mem, 91, -1
    3038 000000 4EF7          AADD #-9, SP
    3039                      .dwcfi  cfa_offset, 10
    3040              $C$DW$222       .dwtag  DW_TAG_variable, DW_AT_name("l_in")
    3041                      .dwattr $C$DW$222, DW_AT_TI_symbol_name("_l_in")
    3042                      .dwattr $C$DW$222, DW_AT_type(*$C$DW$T$12)
    3043                      .dwattr $C$DW$222, DW_AT_location[DW_OP_bregx 0x24 0]
    3044              $C$DW$223       .dwtag  DW_TAG_variable, DW_AT_name("norm_pow")
    3045                      .dwattr $C$DW$223, DW_AT_TI_symbol_name("_norm_pow")
    3046                      .dwattr $C$DW$223, DW_AT_type(*$C$DW$T$8)
    3047                      .dwattr $C$DW$223, DW_AT_location[DW_OP_bregx 0x24 2]
    3048              $C$DW$224       .dwtag  DW_TAG_variable, DW_AT_name("tmp_l")
    3049                      .dwattr $C$DW$224, DW_AT_TI_symbol_name("_tmp_l")
    3050                      .dwattr $C$DW$224, DW_AT_type(*$C$DW$T$12)
    3051                      .dwattr $C$DW$224, DW_AT_location[DW_OP_bregx 0x24 4]
    3052              $C$DW$225       .dwtag  DW_TAG_variable, DW_AT_name("tmp_l2")
    3053                      .dwattr $C$DW$225, DW_AT_TI_symbol_name("_tmp_l2")
    3054                      .dwattr $C$DW$225, DW_AT_type(*$C$DW$T$12)
TMS320C55x Assembler PC v4.4.1 Wed Sep 13 16:33:14 2017

Tools Copyright (c) 1996-2012 Texas Instruments Incorporated
C:\Users\a0221074\AppData\Local\Temp\0730410                         PAGE   67

    3055                      .dwattr $C$DW$225, DW_AT_location[DW_OP_bregx 0x24 6]
    3056 000002 EB00          MOV AC0, dbl(*SP(#0)) ; |579| 
         000004 08   
    3057                      .dwpsn  file "C:/Users/a0221074/Desktop/C5000/IBM_Watson_TIdesign_workarea/CSL_bitbucket/c55_csl/c55x
    3058 000005 ED00          MOV dbl(*SP(#0)), AC0 ; |581| 
         000007 08   
    3059 000008 EB08          MOV AC0, dbl(*SP(#4)) ; |581| 
         00000a 08   
    3060                      .dwpsn  file "C:/Users/a0221074/Desktop/C5000/IBM_Watson_TIdesign_workarea/CSL_bitbucket/c55_csl/c55x
    3061 00000b ED00          MOV dbl(*SP(#0)), AC0 ; |582| 
         00000d 08   
    3062 00000e EB0C          MOV AC0, dbl(*SP(#6)) ; |582| 
         000010 08   
    3063                      .dwpsn  file "C:/Users/a0221074/Desktop/C5000/IBM_Watson_TIdesign_workarea/CSL_bitbucket/c55_csl/c55x
    3064 000011 763D          MOV #15870, AC0 ; |584| 
         000013 FE08 
    3065 000015 ED08          SUB AC0, dbl(*SP(#4)), AC0 ; |584| 
         000017 04   
    3066 000018 EB08          MOV AC0, dbl(*SP(#4)) ; |584| 
         00001a 08   
    3067                      .dwpsn  file "C:/Users/a0221074/Desktop/C5000/IBM_Watson_TIdesign_workarea/CSL_bitbucket/c55_csl/c55x
    3068 00001b ED08          MOV dbl(*SP(#4)), AC0 ; |585| 
         00001d 08   
    3069 00001e 62D0          BCC $C$L111,AC0 >= #0 ; |585| 
    3070                                                      ; branchcc occurs ; |585| 
    3071                      .dwpsn  file "C:/Users/a0221074/Desktop/C5000/IBM_Watson_TIdesign_workarea/CSL_bitbucket/c55_csl/c55x
    3072 000020 E604          MOV #0, *SP(#2) ; |585| 
         000022 00   
    3073 000023 4A14          B $C$L113 ; |585| 
    3074                                                      ; branch occurs ; |585| 
    3075 000025       $C$L111:    
    3076                      .dwpsn  file "C:/Users/a0221074/Desktop/C5000/IBM_Watson_TIdesign_workarea/CSL_bitbucket/c55_csl/c55x
    3077 000025 ED08          MOV dbl(*SP(#4)), AC0 ; |586| 
         000027 08   
    3078 000028 6290          BCC $C$L112,AC0 != #0 ; |586| 
    3079                                                      ; branchcc occurs ; |586| 
    3080                      .dwpsn  file "C:/Users/a0221074/Desktop/C5000/IBM_Watson_TIdesign_workarea/CSL_bitbucket/c55_csl/c55x
    3081 00002a E604          MOV #1, *SP(#2) ; |586| 
         00002c 01   
    3082 00002d 4A0A          B $C$L113 ; |586| 
    3083                                                      ; branch occurs ; |586| 
    3084 00002f       $C$L112:    
    3085                      .dwpsn  file "C:/Users/a0221074/Desktop/C5000/IBM_Watson_TIdesign_workarea/CSL_bitbucket/c55_csl/c55x
    3086 00002f ED08          MOV dbl(*SP(#4)), AC0 ; |587| 
         000031 08   
    3087 000032 1005          SFTS AC0, #-9, AC0 ; |587| 
         000034 37   
    3088 000035 4010          ADD #1, AC0 ; |587| 
    3089 000037 C004          MOV AC0, *SP(#2) ; |587| 
    3090 000039       $C$L113:    
    3091                      .dwpsn  file "C:/Users/a0221074/Desktop/C5000/IBM_Watson_TIdesign_workarea/CSL_bitbucket/c55_csl/c55x
    3092 000039 A104          MOV *SP(#2), AC1 ; |589| 
    3093 00003b ED0C          MOV dbl(*SP(#6)), AC0 ; |589| 
         00003d 08   
    3094 00003e 1014          SUB AC1 << #9, AC0 ; |589| 
TMS320C55x Assembler PC v4.4.1 Wed Sep 13 16:33:14 2017

Tools Copyright (c) 1996-2012 Texas Instruments Incorporated
C:\Users\a0221074\AppData\Local\Temp\0730410                         PAGE   68

         000040 09   
    3095 000041 EB0C          MOV AC0, dbl(*SP(#6)) ; |589| 
         000043 08   
    3096                      .dwpsn  file "C:/Users/a0221074/Desktop/C5000/IBM_Watson_TIdesign_workarea/CSL_bitbucket/c55_csl/c55x
    3097 000044 A40E          MOV *SP(#7), T0 ; |591| 
    3098              $C$DW$226       .dwtag  DW_TAG_TI_branch
    3099                      .dwattr $C$DW$226, DW_AT_low_pc(0x00)
    3100                      .dwattr $C$DW$226, DW_AT_name("_pow_polyfit")
    3101                      .dwattr $C$DW$226, DW_AT_TI_call
    3102 000046 6C00          CALL #_pow_polyfit ; |591| 
         000048 0000+
    3103                                                      ; call occurs [#_pow_polyfit] ; |591| 
