TMS320C55x Assembler PC v4.4.1 Wed Sep 13 16:33:14 2017

Tools Copyright (c) 1996-2012 Texas Instruments Incorporated
C:\Users\a0221074\AppData\Local\Temp\0730410                         PAGE    1

    5883              ; Temporary Registers Used: None
       1              ;*******************************************************************************
       2              ;* TMS320C55x C/C++ Codegen                                          PC v4.4.1 *
       3              ;* Date/Time created: Wed Sep 13 16:33:11 2017                                 *
       4              ;*******************************************************************************
       5                      .compiler_opts --hll_source=on --mem_model:code=flat --mem_model:data=huge --object_format=coff --sil
       6                      .mmregs
       7                      .cpl_on
       8                      .arms_on
       9                      .c54cm_off
      10                      .asg AR6, FP
      11                      .asg XAR6, XFP
      12                      .asg DPH, MDP
      13                      .model call=c55_std
      14                      .model mem=huge
      15                      .noremark 5002  ; code respects overwrite rules
      16              ;*******************************************************************************
      17              ;* GLOBAL FILE PARAMETERS                                                      *
      18              ;*                                                                             *
      19              ;*   Architecture       : TMS320C55x                                           *
      20              ;*   Optimizing for     : Speed                                                *
      21              ;*   Memory             : Huge Model (23-Bit Data Pointers)                    *
      22              ;*   Calls              : Normal Library ASM calls                             *
      23              ;*   Debug Info         : Standard TI Debug Information                        *
      24              ;*******************************************************************************
      25              
      26              $C$DW$CU        .dwtag  DW_TAG_compile_unit
      27                      .dwattr $C$DW$CU, DW_AT_name("C:/Users/a0221074/Desktop/C5000/IBM_Watson_TIdesign_workarea/CSL_bitbuc
      28                      .dwattr $C$DW$CU, DW_AT_producer("TMS320C55x C/C++ Codegen PC v4.4.1 Copyright (c) 1996-2012 Texas In
      29                      .dwattr $C$DW$CU, DW_AT_TI_version(0x01)
      30                      .dwattr $C$DW$CU, DW_AT_comp_dir("C:\Users\a0221074\Desktop\C5000\IBM_Watson_TIdesign_workarea\CSL_bi
      31              
      32              $C$DW$1 .dwtag  DW_TAG_subprogram, DW_AT_name("abs")
      33                      .dwattr $C$DW$1, DW_AT_TI_symbol_name("_abs")
      34                      .dwattr $C$DW$1, DW_AT_type(*$C$DW$T$10)
      35                      .dwattr $C$DW$1, DW_AT_declaration
      36                      .dwattr $C$DW$1, DW_AT_external
      37              $C$DW$2 .dwtag  DW_TAG_formal_parameter
      38                      .dwattr $C$DW$2, DW_AT_type(*$C$DW$T$10)
      39                      .dwendtag $C$DW$1
      40              
      41 000000               .sect   ".const:_coef_powpoly"
      42                      .clink
      43                      .align  1
      44 000000       _coef_powpoly:
      45 000000 0004          .field  4,16                    ; _coef_powpoly[0] @ 0
      46 000001 0014          .field  20,16                   ; _coef_powpoly[1] @ 16
      47 000002 009F          .field  159,16                  ; _coef_powpoly[2] @ 32
      48 000003 038D          .field  909,16                  ; _coef_powpoly[3] @ 48
      49 000004 0F60          .field  3936,16                 ; _coef_powpoly[4] @ 64
      50 000005 2C5D          .field  11357,16                        ; _coef_powpoly[5] @ 80
      51 000006 4000          .field  16384,16                        ; _coef_powpoly[6] @ 96
      52              
      53              $C$DW$3 .dwtag  DW_TAG_variable, DW_AT_name("coef_powpoly")
      54                      .dwattr $C$DW$3, DW_AT_TI_symbol_name("_coef_powpoly")
TMS320C55x Assembler PC v4.4.1 Wed Sep 13 16:33:14 2017

Tools Copyright (c) 1996-2012 Texas Instruments Incorporated
C:\Users\a0221074\AppData\Local\Temp\0730410                         PAGE    2

      55                      .dwattr $C$DW$3, DW_AT_type(*$C$DW$T$93)
      56                      .dwattr $C$DW$3, DW_AT_location[DW_OP_addr _coef_powpoly]
      57                      .global _coef_logpoly
      58 000000               .sect   ".const:_coef_logpoly"
      59                      .clink
      60                      .align  1
      61 000000       _coef_logpoly:
      62 000000 FCF3          .field  -781,16                 ; _coef_logpoly[0] @ 0
      63 000001 14DA          .field  5338,16                 ; _coef_logpoly[1] @ 16
      64 000002 C0CA          .field  -16182,16                       ; _coef_logpoly[2] @ 32
      65 000003 6FDD          .field  28637,16                        ; _coef_logpoly[3] @ 48
      66 000004 8000          .field  -32768,16                       ; _coef_logpoly[4] @ 64
      67 000005 634B          .field  25419,16                        ; _coef_logpoly[5] @ 80
      68 000006 CA39          .field  -13767,16                       ; _coef_logpoly[6] @ 96
      69 000007 1608          .field  5640,16                 ; _coef_logpoly[7] @ 112
      70 000008 FA00          .field  -1536,16                        ; _coef_logpoly[8] @ 128
      71              
      72              $C$DW$4 .dwtag  DW_TAG_variable, DW_AT_name("coef_logpoly")
      73                      .dwattr $C$DW$4, DW_AT_TI_symbol_name("_coef_logpoly")
      74                      .dwattr $C$DW$4, DW_AT_location[DW_OP_addr _coef_logpoly]
      75                      .dwattr $C$DW$4, DW_AT_type(*$C$DW$T$94)
      76                      .dwattr $C$DW$4, DW_AT_external
      77 000000               .sect   ".const:_$P$T0$1"
      78                      .clink
      79                      .align  1
      80 000000       _$P$T0$1:
      81 000000 009E          .field  158,16                  ; _$P$T0$1[0] @ 0
      82 000001 038D          .field  909,16                  ; _$P$T0$1[1] @ 16
      83 000002 0F60          .field  3936,16                 ; _$P$T0$1[2] @ 32
      84 000003 2C5D          .field  11357,16                        ; _$P$T0$1[3] @ 48
      85 000004 4000          .field  16384,16                        ; _$P$T0$1[4] @ 64
      86              
      87              $C$DW$5 .dwtag  DW_TAG_variable, DW_AT_name("$P$T0$1")
      88                      .dwattr $C$DW$5, DW_AT_TI_symbol_name("_$P$T0$1")
      89                      .dwattr $C$DW$5, DW_AT_type(*$C$DW$T$95)
      90                      .dwattr $C$DW$5, DW_AT_location[DW_OP_addr _$P$T0$1]
      91 000000               .sect   ".const:_$P$T1$2"
      92                      .clink
      93                      .align  1
      94 000000       _$P$T1$2:
      95 000000 F8F7          .field  -1801,16                        ; _$P$T1$2[0] @ 0
      96 000001 1BC0          .field  7104,16                 ; _$P$T1$2[1] @ 16
      97 000002 C48C          .field  -15220,16                       ; _$P$T1$2[2] @ 32
      98 000003 7F6F          .field  32623,16                        ; _$P$T1$2[3] @ 48
      99 000004 0004          .field  4,16                    ; _$P$T1$2[4] @ 64
     100              
     101              $C$DW$6 .dwtag  DW_TAG_variable, DW_AT_name("$P$T1$2")
     102                      .dwattr $C$DW$6, DW_AT_TI_symbol_name("_$P$T1$2")
     103                      .dwattr $C$DW$6, DW_AT_type(*$C$DW$T$95)
     104                      .dwattr $C$DW$6, DW_AT_location[DW_OP_addr _$P$T1$2]
     105              ;       C:\ti\ccsv7\tools\compiler\c5500_4.4.1\bin\acp55.exe -@C:\\Users\\a0221074\\AppData\\Local\\Temp\\073
     106 000000               .sect   ".text:_hlr_gauss_obs_score_f"
     107                      .clink
     108                      .global _hlr_gauss_obs_score_f
     109              
TMS320C55x Assembler PC v4.4.1 Wed Sep 13 16:33:14 2017

Tools Copyright (c) 1996-2012 Texas Instruments Incorporated
C:\Users\a0221074\AppData\Local\Temp\0730410                         PAGE    3

     110              $C$DW$7 .dwtag  DW_TAG_subprogram, DW_AT_name("hlr_gauss_obs_score_f")
     111                      .dwattr $C$DW$7, DW_AT_low_pc(_hlr_gauss_obs_score_f)
     112                      .dwattr $C$DW$7, DW_AT_high_pc(0x00)
     113                      .dwattr $C$DW$7, DW_AT_TI_symbol_name("_hlr_gauss_obs_score_f")
     114                      .dwattr $C$DW$7, DW_AT_external
     115                      .dwattr $C$DW$7, DW_AT_type(*$C$DW$T$8)
     116                      .dwattr $C$DW$7, DW_AT_TI_begin_file("C:/Users/a0221074/Desktop/C5000/IBM_Watson_TIdesign_workarea/CS
     117                      .dwattr $C$DW$7, DW_AT_TI_begin_line(0x3a)
     118                      .dwattr $C$DW$7, DW_AT_TI_begin_column(0x26)
     119                      .dwattr $C$DW$7, DW_AT_TI_max_frame_size(0x24)
     120                      .dwpsn  file "C:/Users/a0221074/Desktop/C5000/IBM_Watson_TIdesign_workarea/CSL_bitbucket/c55_csl/c55x
     121              
     122                      .dwfde $C$DW$CIE, _hlr_gauss_obs_score_f
     123              $C$DW$8 .dwtag  DW_TAG_formal_parameter, DW_AT_name("feature")
     124                      .dwattr $C$DW$8, DW_AT_TI_symbol_name("_feature")
     125                      .dwattr $C$DW$8, DW_AT_type(*$C$DW$T$54)
     126                      .dwattr $C$DW$8, DW_AT_location[DW_OP_reg17]
     127              $C$DW$9 .dwtag  DW_TAG_formal_parameter, DW_AT_name("pdf_idx")
     128                      .dwattr $C$DW$9, DW_AT_TI_symbol_name("_pdf_idx")
     129                      .dwattr $C$DW$9, DW_AT_type(*$C$DW$T$10)
     130                      .dwattr $C$DW$9, DW_AT_location[DW_OP_reg12]
     131              $C$DW$10        .dwtag  DW_TAG_formal_parameter, DW_AT_name("type")
     132                      .dwattr $C$DW$10, DW_AT_TI_symbol_name("_type")
     133                      .dwattr $C$DW$10, DW_AT_type(*$C$DW$T$92)
     134                      .dwattr $C$DW$10, DW_AT_location[DW_OP_reg13]
     135              $C$DW$11        .dwtag  DW_TAG_formal_parameter, DW_AT_name("comp")
     136                      .dwattr $C$DW$11, DW_AT_TI_symbol_name("_comp")
     137                      .dwattr $C$DW$11, DW_AT_type(*$C$DW$T$21)
     138                      .dwattr $C$DW$11, DW_AT_location[DW_OP_reg19]
     139              $C$DW$12        .dwtag  DW_TAG_formal_parameter, DW_AT_name("n_dim")
     140                      .dwattr $C$DW$12, DW_AT_TI_symbol_name("_n_dim")
     141                      .dwattr $C$DW$12, DW_AT_type(*$C$DW$T$53)
     142                      .dwattr $C$DW$12, DW_AT_location[DW_OP_reg20]
     143              $C$DW$13        .dwtag  DW_TAG_formal_parameter, DW_AT_name("gv")
     144                      .dwattr $C$DW$13, DW_AT_TI_symbol_name("_gv")
     145                      .dwattr $C$DW$13, DW_AT_type(*$C$DW$T$99)
     146                      .dwattr $C$DW$13, DW_AT_location[DW_OP_reg23]
     147              ;*******************************************************************************
     148              ;* FUNCTION NAME: hlr_gauss_obs_score_f                                        *
     149              ;*                                                                             *
     150              ;*   Function Uses Regs : AC0,AC0,AC1,AC1,T0,T1,AR0,XAR0,AR1,XAR1,AR2,XAR2,AR3,*
     151              ;*                        XAR3,SP,CARRY,TC1,M40,SATA,SATD,RDM,FRCT,SMUL        *
     152              ;*   Stack Frame        : Compact (No Frame Pointer, w/ debug)                 *
     153              ;*   Total Frame Size   : 36 words                                             *
     154              ;*                        (1 return address/alignment)                         *
     155              ;*                        (35 local values)                                    *
     156              ;*   Min System Stack   : 1 word                                               *
     157              ;*******************************************************************************
     158 000000       _hlr_gauss_obs_score_f:
     159                      .dwcfi  cfa_offset, 1
     160                      .dwcfi  save_reg_to_mem, 91, -1
     161 000000 4EDD          AADD #-35, SP
     162                      .dwcfi  cfa_offset, 36
     163              $C$DW$14        .dwtag  DW_TAG_variable, DW_AT_name("feature")
     164                      .dwattr $C$DW$14, DW_AT_TI_symbol_name("_feature")
TMS320C55x Assembler PC v4.4.1 Wed Sep 13 16:33:14 2017

Tools Copyright (c) 1996-2012 Texas Instruments Incorporated
C:\Users\a0221074\AppData\Local\Temp\0730410                         PAGE    4

     165                      .dwattr $C$DW$14, DW_AT_type(*$C$DW$T$54)
     166                      .dwattr $C$DW$14, DW_AT_location[DW_OP_bregx 0x24 0]
     167              $C$DW$15        .dwtag  DW_TAG_variable, DW_AT_name("pdf_idx")
     168                      .dwattr $C$DW$15, DW_AT_TI_symbol_name("_pdf_idx")
     169                      .dwattr $C$DW$15, DW_AT_type(*$C$DW$T$10)
     170                      .dwattr $C$DW$15, DW_AT_location[DW_OP_bregx 0x24 2]
     171              $C$DW$16        .dwtag  DW_TAG_variable, DW_AT_name("type")
     172                      .dwattr $C$DW$16, DW_AT_TI_symbol_name("_type")
     173                      .dwattr $C$DW$16, DW_AT_type(*$C$DW$T$92)
     174                      .dwattr $C$DW$16, DW_AT_location[DW_OP_bregx 0x24 3]
     175              $C$DW$17        .dwtag  DW_TAG_variable, DW_AT_name("comp")
     176                      .dwattr $C$DW$17, DW_AT_TI_symbol_name("_comp")
     177                      .dwattr $C$DW$17, DW_AT_type(*$C$DW$T$21)
     178                      .dwattr $C$DW$17, DW_AT_location[DW_OP_bregx 0x24 4]
     179              $C$DW$18        .dwtag  DW_TAG_variable, DW_AT_name("n_dim")
     180                      .dwattr $C$DW$18, DW_AT_TI_symbol_name("_n_dim")
     181                      .dwattr $C$DW$18, DW_AT_type(*$C$DW$T$53)
     182                      .dwattr $C$DW$18, DW_AT_location[DW_OP_bregx 0x24 6]
     183              $C$DW$19        .dwtag  DW_TAG_variable, DW_AT_name("gv")
     184                      .dwattr $C$DW$19, DW_AT_TI_symbol_name("_gv")
     185                      .dwattr $C$DW$19, DW_AT_type(*$C$DW$T$99)
     186                      .dwattr $C$DW$19, DW_AT_location[DW_OP_bregx 0x24 8]
     187              $C$DW$20        .dwtag  DW_TAG_variable, DW_AT_name("i")
     188                      .dwattr $C$DW$20, DW_AT_TI_symbol_name("_i")
     189                      .dwattr $C$DW$20, DW_AT_type(*$C$DW$T$8)
     190                      .dwattr $C$DW$20, DW_AT_location[DW_OP_bregx 0x24 10]
     191              $C$DW$21        .dwtag  DW_TAG_variable, DW_AT_name("scr")
     192                      .dwattr $C$DW$21, DW_AT_TI_symbol_name("_scr")
     193                      .dwattr $C$DW$21, DW_AT_type(*$C$DW$T$12)
     194                      .dwattr $C$DW$21, DW_AT_location[DW_OP_bregx 0x24 12]
     195              $C$DW$22        .dwtag  DW_TAG_variable, DW_AT_name("total_scr")
     196                      .dwattr $C$DW$22, DW_AT_TI_symbol_name("_total_scr")
     197                      .dwattr $C$DW$22, DW_AT_type(*$C$DW$T$8)
     198                      .dwattr $C$DW$22, DW_AT_location[DW_OP_bregx 0x24 14]
     199              $C$DW$23        .dwtag  DW_TAG_variable, DW_AT_name("n_mix")
     200                      .dwattr $C$DW$23, DW_AT_TI_symbol_name("_n_mix")
     201                      .dwattr $C$DW$23, DW_AT_type(*$C$DW$T$8)
     202                      .dwattr $C$DW$23, DW_AT_location[DW_OP_bregx 0x24 15]
     203              $C$DW$24        .dwtag  DW_TAG_variable, DW_AT_name("p2wgt")
     204                      .dwattr $C$DW$24, DW_AT_TI_symbol_name("_p2wgt")
     205                      .dwattr $C$DW$24, DW_AT_type(*$C$DW$T$21)
     206                      .dwattr $C$DW$24, DW_AT_location[DW_OP_bregx 0x24 16]
     207              $C$DW$25        .dwtag  DW_TAG_variable, DW_AT_name("mixture")
     208                      .dwattr $C$DW$25, DW_AT_TI_symbol_name("_mixture")
     209                      .dwattr $C$DW$25, DW_AT_type(*$C$DW$T$21)
     210                      .dwattr $C$DW$25, DW_AT_location[DW_OP_bregx 0x24 18]
     211              $C$DW$26        .dwtag  DW_TAG_variable, DW_AT_name("imin")
     212                      .dwattr $C$DW$26, DW_AT_TI_symbol_name("_imin")
     213                      .dwattr $C$DW$26, DW_AT_type(*$C$DW$T$8)
     214                      .dwattr $C$DW$26, DW_AT_location[DW_OP_bregx 0x24 20]
     215              $C$DW$27        .dwtag  DW_TAG_variable, DW_AT_name("imax")
     216                      .dwattr $C$DW$27, DW_AT_TI_symbol_name("_imax")
     217                      .dwattr $C$DW$27, DW_AT_type(*$C$DW$T$8)
     218                      .dwattr $C$DW$27, DW_AT_location[DW_OP_bregx 0x24 21]
     219              $C$DW$28        .dwtag  DW_TAG_variable, DW_AT_name("j")
TMS320C55x Assembler PC v4.4.1 Wed Sep 13 16:33:14 2017

Tools Copyright (c) 1996-2012 Texas Instruments Incorporated
C:\Users\a0221074\AppData\Local\Temp\0730410                         PAGE    5

     220                      .dwattr $C$DW$28, DW_AT_TI_symbol_name("_j")
     221                      .dwattr $C$DW$28, DW_AT_type(*$C$DW$T$8)
     222                      .dwattr $C$DW$28, DW_AT_location[DW_OP_bregx 0x24 22]
     223              $C$DW$29        .dwtag  DW_TAG_variable, DW_AT_name("diff")
     224                      .dwattr $C$DW$29, DW_AT_TI_symbol_name("_diff")
     225                      .dwattr $C$DW$29, DW_AT_type(*$C$DW$T$12)
     226                      .dwattr $C$DW$29, DW_AT_location[DW_OP_bregx 0x24 24]
     227              $C$DW$30        .dwtag  DW_TAG_variable, DW_AT_name("mu")
     228                      .dwattr $C$DW$30, DW_AT_TI_symbol_name("_mu")
     229                      .dwattr $C$DW$30, DW_AT_type(*$C$DW$T$21)
     230                      .dwattr $C$DW$30, DW_AT_location[DW_OP_bregx 0x24 26]
     231              $C$DW$31        .dwtag  DW_TAG_variable, DW_AT_name("invvar")
     232                      .dwattr $C$DW$31, DW_AT_TI_symbol_name("_invvar")
     233                      .dwattr $C$DW$31, DW_AT_type(*$C$DW$T$21)
     234                      .dwattr $C$DW$31, DW_AT_location[DW_OP_bregx 0x24 28]
     235              $C$DW$32        .dwtag  DW_TAG_variable, DW_AT_name("gconst")
     236                      .dwattr $C$DW$32, DW_AT_TI_symbol_name("_gconst")
     237                      .dwattr $C$DW$32, DW_AT_type(*$C$DW$T$8)
     238                      .dwattr $C$DW$32, DW_AT_location[DW_OP_bregx 0x24 30]
     239              $C$DW$33        .dwtag  DW_TAG_variable, DW_AT_name("feat")
     240                      .dwattr $C$DW$33, DW_AT_TI_symbol_name("_feat")
     241                      .dwattr $C$DW$33, DW_AT_type(*$C$DW$T$54)
     242                      .dwattr $C$DW$33, DW_AT_location[DW_OP_bregx 0x24 32]
     243              $C$DW$34        .dwtag  DW_TAG_variable, DW_AT_name("diff_s")
     244                      .dwattr $C$DW$34, DW_AT_TI_symbol_name("_diff_s")
     245                      .dwattr $C$DW$34, DW_AT_type(*$C$DW$T$8)
     246                      .dwattr $C$DW$34, DW_AT_location[DW_OP_bregx 0x24 34]
     247 000002 EB10          MOV XAR3, dbl(*SP(#8))
         000004 B5   
     248 000005 CA0C          MOV AR2, *SP(#6) ; |61| 
     249 000007 EB08          MOV XAR1, dbl(*SP(#4))
         000009 95   
     250 00000a C506          MOV T1, *SP(#3) ; |61| 
     251 00000c C404          MOV T0, *SP(#2) ; |61| 
     252 00000e EB00          MOV XAR0, dbl(*SP(#0))
         000010 85   
     253                      .dwpsn  file "C:/Users/a0221074/Desktop/C5000/IBM_Watson_TIdesign_workarea/CSL_bitbucket/c55_csl/c55x
     254 000011 FB1C          MOV #-32768, *SP(#14) ; |79| 
         000013 8000 
     255                      .dwpsn  file "C:/Users/a0221074/Desktop/C5000/IBM_Watson_TIdesign_workarea/CSL_bitbucket/c55_csl/c55x
     256 000015 ED10          MOV dbl(*SP(#8)), XAR3
         000017 BF   
     257 000018 A404          MOV *SP(#2), T0 ; |81| 
     258 00001a ED6D          MOV dbl(*AR3(#1192)), XAR3
         00001c BF04 
         00001e A8   
     259 00001f DF6B          MOV uns(*AR3(T0)), AC0 ; |81| 
         000021 05   
     260 000022 ED10          MOV dbl(*SP(#8)), XAR3
         000024 BF   
     261 000025 900A          MOV AC0, XAR2
     262 000027 ED6D          MOV dbl(*AR3(#1194)), XAR3
         000029 BF04 
         00002b AA   
     263              
TMS320C55x Assembler PC v4.4.1 Wed Sep 13 16:33:14 2017

Tools Copyright (c) 1996-2012 Texas Instruments Incorporated
C:\Users\a0221074\AppData\Local\Temp\0730410                         PAGE    6

     264 00002c 8E24          MOV XAR3, dbl(*SP(#18))
         00002e BB10 
         000030 B5A1 
     265              ||      AADD XAR2, XAR3 ; |81| 
     266              
     267                      .dwpsn  file "C:/Users/a0221074/Desktop/C5000/IBM_Watson_TIdesign_workarea/CSL_bitbucket/c55_csl/c55x
     268 000032 A961          MOV *AR3, AR1 ; |82| 
     269 000034 C91E          MOV AR1, *SP(#15) ; |82| 
     270                      .dwpsn  file "C:/Users/a0221074/Desktop/C5000/IBM_Watson_TIdesign_workarea/CSL_bitbucket/c55_csl/c55x
     271 000036 ED24          MOV dbl(*SP(#18)), XAR3
         000038 BF   
     272 000039 B463          AMAR *AR3+
     273 00003b EB20          MOV XAR3, dbl(*SP(#16))
         00003d B5   
     274                      .dwpsn  file "C:/Users/a0221074/Desktop/C5000/IBM_Watson_TIdesign_workarea/CSL_bitbucket/c55_csl/c55x
     275 00003e F006          CMP *SP(#3) == #2, TC1 ; |85| 
         000040 0002 
     276 000042 66F4          BCC $C$L1,!TC1 ; |85| 
     277                                                      ; branchcc occurs ; |85| 
     278                      .dwpsn  file "C:/Users/a0221074/Desktop/C5000/IBM_Watson_TIdesign_workarea/CSL_bitbucket/c55_csl/c55x
     279 000044 ED08          MOV dbl(*SP(#4)), XAR3
         000046 BF   
     280 000047 A961          MOV *AR3, AR1 ; |87| 
     281 000049 C928          MOV AR1, *SP(#20) ; |87| 
     282                      .dwpsn  file "C:/Users/a0221074/Desktop/C5000/IBM_Watson_TIdesign_workarea/CSL_bitbucket/c55_csl/c55x
     283 00004b 4019          ADD #1, AR1 ; |88| 
     284 00004d C92A          MOV AR1, *SP(#21) ; |88| 
     285                      .dwpsn  file "C:/Users/a0221074/Desktop/C5000/IBM_Watson_TIdesign_workarea/CSL_bitbucket/c55_csl/c55x
     286 00004f 4A07          B $C$L2   ; |89| 
     287                                                      ; branch occurs ; |89| 
     288 000051       $C$L1:    
     289                      .dwpsn  file "C:/Users/a0221074/Desktop/C5000/IBM_Watson_TIdesign_workarea/CSL_bitbucket/c55_csl/c55x
     290 000051 E628          MOV #0, *SP(#20) ; |92| 
         000053 00   
     291                      .dwpsn  file "C:/Users/a0221074/Desktop/C5000/IBM_Watson_TIdesign_workarea/CSL_bitbucket/c55_csl/c55x
     292 000054 A91E          MOV *SP(#15), AR1 ; |93| 
     293 000056 C92A          MOV AR1, *SP(#21) ; |93| 
     294 000058       $C$L2:    
     295                      .dwpsn  file "C:/Users/a0221074/Desktop/C5000/IBM_Watson_TIdesign_workarea/CSL_bitbucket/c55_csl/c55x
     296 000058 A928          MOV *SP(#20), AR1 ; |96| 
     297 00005a C914          MOV AR1, *SP(#10) ; |96| 
     298                      .dwpsn  file "C:/Users/a0221074/Desktop/C5000/IBM_Watson_TIdesign_workarea/CSL_bitbucket/c55_csl/c55x
     299 00005c AA14          MOV *SP(#10), AR2 ; |96| 
     300 00005e A92A          MOV *SP(#21), AR1 ; |96| 
     301 000060 12A8          CMP AR2 >= AR1, TC1 ; |96| 
         000062 90   
     302 000063 6D64          BCC $C$L17,TC1 ; |96| 
         000065 01B8 
     303                                                      ; branchcc occurs ; |96| 
     304 000067       $C$L3:    
     305 000067       $C$DW$L$_hlr_gauss_obs_score_f$5$B:
     306                      .dwpsn  file "C:/Users/a0221074/Desktop/C5000/IBM_Watson_TIdesign_workarea/CSL_bitbucket/c55_csl/c55x
     307 000067 ED24          MOV dbl(*SP(#18)), XAR3
         000069 BF   
     308 00006a F814          MPYMK *SP(#10), #3, AC0 ; |98| 
TMS320C55x Assembler PC v4.4.1 Wed Sep 13 16:33:14 2017

Tools Copyright (c) 1996-2012 Texas Instruments Incorporated
C:\Users\a0221074\AppData\Local\Temp\0730410                         PAGE    7

         00006c 0300 
     309 00006e 4020          ADD #2, AC0 ; |98| 
     310 000070 2204          MOV AC0, T0 ; |98| 
     311 000072 A50C          MOV *SP(#6), T1 ; |98| 
     312 000074 D36B          MPYM *AR3(T0), T1, AC0 ; |98| 
         000076 05   
     313 000077 ED10          MOV dbl(*SP(#8)), XAR3
         000079 BF   
     314 00007a 2209          MOV AC0, AR1 ; |98| 
     315 00007c ED6D          MOV dbl(*AR3(#1182)), XAR3
         00007e BF04 
         000080 9E   
     316              
     317 000081 8E34          MOV XAR3, dbl(*SP(#26))
         000083 BB10 
         000085 B590 
     318              ||      AADD AR1, AR3 ; |98| 
     319              
     320                      .dwpsn  file "C:/Users/a0221074/Desktop/C5000/IBM_Watson_TIdesign_workarea/CSL_bitbucket/c55_csl/c55x
     321 000087 ED24          MOV dbl(*SP(#18)), XAR3
         000089 BF   
     322 00008a F814          MPYMK *SP(#10), #3, AC0 ; |99| 
         00008c 0300 
     323 00008e 4030          ADD #3, AC0 ; |99| 
     324 000090 2204          MOV AC0, T0 ; |99| 
     325 000092 D36B          MPYM *AR3(T0), T1, AC0 ; |99| 
         000094 05   
     326 000095 ED10          MOV dbl(*SP(#8)), XAR3
         000097 BF   
     327 000098 2209          MOV AC0, AR1 ; |99| 
     328 00009a ED6D          MOV dbl(*AR3(#1186)), XAR3
         00009c BF04 
         00009e A2   
     329              
     330 00009f 8E38          MOV XAR3, dbl(*SP(#28))
         0000a1 BB10 
         0000a3 B590 
     331              ||      AADD AR1, AR3 ; |99| 
     332              
     333                      .dwpsn  file "C:/Users/a0221074/Desktop/C5000/IBM_Watson_TIdesign_workarea/CSL_bitbucket/c55_csl/c55x
     334 0000a5 ED24          MOV dbl(*SP(#18)), XAR3
         0000a7 BF   
     335 0000a8 F814          MPYMK *SP(#10), #3, AC0 ; |100| 
         0000aa 0300 
     336 0000ac 4030          ADD #3, AC0 ; |100| 
     337 0000ae 2204          MOV AC0, T0 ; |100| 
     338 0000b0 A46B          MOV *AR3(T0), T0 ; |100| 
     339 0000b2 ED10          MOV dbl(*SP(#8)), XAR3
         0000b4 BF   
     340 0000b5 ED6D          MOV dbl(*AR3(#1196)), XAR3
         0000b7 BF04 
         0000b9 AC   
     341 0000ba A96B          MOV *AR3(T0), AR1 ; |100| 
     342 0000bc C93C          MOV AR1, *SP(#30) ; |100| 
     343                      .dwpsn  file "C:/Users/a0221074/Desktop/C5000/IBM_Watson_TIdesign_workarea/CSL_bitbucket/c55_csl/c55x
TMS320C55x Assembler PC v4.4.1 Wed Sep 13 16:33:14 2017

Tools Copyright (c) 1996-2012 Texas Instruments Incorporated
C:\Users\a0221074\AppData\Local\Temp\0730410                         PAGE    8

     344 0000be ED00          MOV dbl(*SP(#0)), XAR3
         0000c0 BF   
     345 0000c1 EB40          MOV XAR3, dbl(*SP(#32))
         0000c3 B5   
     346                      .dwpsn  file "C:/Users/a0221074/Desktop/C5000/IBM_Watson_TIdesign_workarea/CSL_bitbucket/c55_csl/c55x
     347 0000c4 3C00          MOV #0, AC0 ; |103| 
     348 0000c6 EB18          MOV AC0, dbl(*SP(#12)) ; |103| 
         0000c8 08   
     349 0000c9 A90C          MOV *SP(#6), AR1 ; |103| 
     350 0000cb E62C          MOV #0, *SP(#22) ; |103| 
         0000cd 00   
     351 0000ce AA2C          MOV *SP(#22), AR2 ; |103| 
     352 0000d0 12A8          CMP AR2 >= AR1, TC1 ; |103| 
         0000d2 90   
     353 0000d3 0464          BCC $C$L7,TC1 ; |103| 
         0000d5 78   
     354                                                      ; branchcc occurs ; |103| 
     355 0000d6       $C$DW$L$_hlr_gauss_obs_score_f$5$E:
     356 0000d6       $C$L4:    
     357 0000d6       $C$DW$L$_hlr_gauss_obs_score_f$6$B:
     358 0000d6 ED34          MOV dbl(*SP(#26)), XAR3
         0000d8 BF   
     359 0000d9 A963          MOV *AR3+, AR1 ; |103| 
     360 0000db EB34          MOV XAR3, dbl(*SP(#26))
         0000dd B5   
     361 0000de ED40          MOV dbl(*SP(#32)), XAR3
         0000e0 BF   
     362              
     363 0000e1 A963          MOV *AR3+, AR1 ; |103| 
     364 0000e3 2391  ||      MOV AR1, AC1
     365              
     366 0000e5 2290          MOV AR1, AC0
     367              
     368 0000ea 2710          SUB AC1, AC0 ; |103| 
     369 0000e7 EB40  ||      MOV XAR3, dbl(*SP(#32))
         0000e9 B5   
     370              
     371 0000ec EB30          MOV AC0, dbl(*SP(#24)) ; |103| 
         0000ee 08   
     372 0000ef 7680          MOV #-32768, AC0 ; |103| 
         0000f1 0008 
     373 0000f3 ED30          MOV dbl(*SP(#24)), AC1 ; |103| 
         0000f5 18   
     374 0000f6 1208          CMP AC1 <= AC0, TC1 ; |103| 
         0000f8 10   
     375 0000f9 61E4          BCC $C$L5,TC1 ; |103| 
     376                                                      ; branchcc occurs ; |103| 
     377 0000fb       $C$DW$L$_hlr_gauss_obs_score_f$6$E:
     378 0000fb       $C$DW$L$_hlr_gauss_obs_score_f$7$B:
     379 0000fb ED30          MOV dbl(*SP(#24)), AC0 ; |103| 
         0000fd 08   
     380 0000fe       $C$DW$L$_hlr_gauss_obs_score_f$7$E:
     381 0000fe       $C$L5:    
     382 0000fe       $C$DW$L$_hlr_gauss_obs_score_f$8$B:
     383 0000fe EB30          MOV AC0, dbl(*SP(#24)) ; |103| 
TMS320C55x Assembler PC v4.4.1 Wed Sep 13 16:33:14 2017

Tools Copyright (c) 1996-2012 Texas Instruments Incorporated
C:\Users\a0221074\AppData\Local\Temp\0730410                         PAGE    9

         000100 08   
     384 000101 767F          MOV #32767, AC0 ; |103| 
         000103 FF08 
     385 000105 ED30          MOV dbl(*SP(#24)), AC1 ; |103| 
         000107 18   
     386 000108 1218          CMP AC1 >= AC0, TC1 ; |103| 
         00010a 00   
     387 00010b 61E4          BCC $C$L6,TC1 ; |103| 
     388                                                      ; branchcc occurs ; |103| 
     389 00010d       $C$DW$L$_hlr_gauss_obs_score_f$8$E:
     390 00010d       $C$DW$L$_hlr_gauss_obs_score_f$9$B:
     391 00010d ED30          MOV dbl(*SP(#24)), AC0 ; |103| 
         00010f 08   
     392 000110       $C$DW$L$_hlr_gauss_obs_score_f$9$E:
     393 000110       $C$L6:    
     394 000110       $C$DW$L$_hlr_gauss_obs_score_f$10$B:
     395 000110 EB30          MOV AC0, dbl(*SP(#24)) ; |103| 
         000112 08   
     396 000113 A932          MOV *SP(#25), AR1 ; |103| 
     397 000115 C944          MOV AR1, *SP(#34) ; |103| 
     398 000117 D344          SQRM *SP(#34), AC0 ; |103| 
         000119 08   
     399 00011a EB30          MOV AC0, dbl(*SP(#24)) ; |103| 
         00011c 08   
     400 00011d 7640          MOV #16384, AC0 ; |103| 
         00011f 0008 
     401 000121 ED30          ADD dbl(*SP(#24)), AC0, AC0 ; |103| 
         000123 00   
     402 000124 EB30          MOV AC0, dbl(*SP(#24)) ; |103| 
         000126 08   
     403 000127 ED30          MOV dbl(*SP(#24)), AC0 ; |103| 
         000129 08   
     404 00012a 1005          SFTS AC0, #-15, AC0 ; |103| 
         00012c 31   
     405 00012d C044          MOV AC0, *SP(#34) ; |103| 
     406 00012f ED38          MOV dbl(*SP(#28)), XAR3
         000131 BF   
     407 000132 A563          MOV *AR3+, T1 ; |103| 
     408 000134 EB38          MOV XAR3, dbl(*SP(#28))
         000136 B5   
     409 000137 D344          MPYM *SP(#34), T1, AC0 ; |103| 
         000139 05   
     410 00013a ED18          SUB AC0, dbl(*SP(#12)), AC0 ; |103| 
         00013c 04   
     411 00013d EB18          MOV AC0, dbl(*SP(#12)) ; |103| 
         00013f 08   
     412 000140 A90C          MOV *SP(#6), AR1 ; |103| 
     413 000142 F72C          ADD #1, *SP(#22) ; |103| 
         000144 0001 
     414 000146 AA2C          MOV *SP(#22), AR2 ; |103| 
     415 000148 12A4          CMP AR2 < AR1, TC1 ; |103| 
         00014a 90   
     416 00014b 0464          BCC $C$L4,TC1 ; |103| 
         00014d 88   
     417                                                      ; branchcc occurs ; |103| 
TMS320C55x Assembler PC v4.4.1 Wed Sep 13 16:33:14 2017

Tools Copyright (c) 1996-2012 Texas Instruments Incorporated
C:\Users\a0221074\AppData\Local\Temp\0730410                         PAGE   10

     418 00014e       $C$DW$L$_hlr_gauss_obs_score_f$10$E:
     419 00014e       $C$L7:    
     420 00014e       $C$DW$L$_hlr_gauss_obs_score_f$11$B:
     421 00014e 7602          MOV #512, AC0 ; |103| 
         000150 0008 
     422 000152 ED18          ADD dbl(*SP(#12)), AC0, AC0 ; |103| 
         000154 00   
     423 000155 EB18          MOV AC0, dbl(*SP(#12)) ; |103| 
         000157 08   
     424 000158 ED18          MOV dbl(*SP(#12)), AC0 ; |103| 
         00015a 08   
     425 00015b 1005          SFTS AC0, #-10, AC0 ; |103| 
         00015d 36   
     426 00015e EB18          MOV AC0, dbl(*SP(#12)) ; |103| 
         000160 08   
     427 000161 A03C          MOV *SP(#30), AC0 ; |103| 
     428 000163 ED18          SUB AC0, dbl(*SP(#12)), AC0 ; |103| 
         000165 04   
     429 000166 EB18          MOV AC0, dbl(*SP(#12)) ; |103| 
         000168 08   
     430 000169 ED18          MOV dbl(*SP(#12)), AC0 ; |103| 
         00016b 08   
     431 00016c 4440          SFTS AC0, #-1 ; |103| 
     432 00016e EB18          MOV AC0, dbl(*SP(#12)) ; |103| 
         000170 08   
     433                      .dwpsn  file "C:/Users/a0221074/Desktop/C5000/IBM_Watson_TIdesign_workarea/CSL_bitbucket/c55_csl/c55x
     434 000171 ED20          MOV dbl(*SP(#16)), XAR3
         000173 BF   
     435 000174 F814          MPYMK *SP(#10), #3, AC0 ; |107| 
         000176 0300 
     436 000178 2204          MOV AC0, T0 ; |107| 
     437 00017a A06B          MOV *AR3(T0), AC0 ; |107| 
     438 00017c ED18          ADD dbl(*SP(#12)), AC0, AC0 ; |107| 
         00017e 00   
     439 00017f EB18          MOV AC0, dbl(*SP(#12)) ; |107| 
         000181 08   
     440                      .dwpsn  file "C:/Users/a0221074/Desktop/C5000/IBM_Watson_TIdesign_workarea/CSL_bitbucket/c55_csl/c55x
     441 000182 F006          CMP *SP(#3) == #1, TC1 ; |109| 
         000184 0001 
     442 000186 0474          BCC $C$L15,!TC1 ; |109| 
         000188 72   
     443                                                      ; branchcc occurs ; |109| 
     444 000189       $C$DW$L$_hlr_gauss_obs_score_f$11$E:
     445 000189       $C$DW$L$_hlr_gauss_obs_score_f$12$B:
     446                      .dwpsn  file "C:/Users/a0221074/Desktop/C5000/IBM_Watson_TIdesign_workarea/CSL_bitbucket/c55_csl/c55x
     447 000189 A914          MOV *SP(#10), AR1 ; |112| 
     448 00018b 0419          BCC $C$L10,AR1 != #0 ; |112| 
         00018d 31   
     449                                                      ; branchcc occurs ; |112| 
     450 00018e       $C$DW$L$_hlr_gauss_obs_score_f$12$E:
     451 00018e       $C$DW$L$_hlr_gauss_obs_score_f$13$B:
     452 00018e 7680          MOV #-32768, AC0 ; |112| 
         000190 0008 
     453 000192 ED18          MOV dbl(*SP(#12)), AC1 ; |112| 
         000194 18   
TMS320C55x Assembler PC v4.4.1 Wed Sep 13 16:33:14 2017

Tools Copyright (c) 1996-2012 Texas Instruments Incorporated
C:\Users\a0221074\AppData\Local\Temp\0730410                         PAGE   11

     454 000195 1208          CMP AC1 <= AC0, TC1 ; |112| 
         000197 10   
     455 000198 61E4          BCC $C$L8,TC1 ; |112| 
     456                                                      ; branchcc occurs ; |112| 
     457 00019a       $C$DW$L$_hlr_gauss_obs_score_f$13$E:
     458 00019a       $C$DW$L$_hlr_gauss_obs_score_f$14$B:
     459 00019a ED18          MOV dbl(*SP(#12)), AC0 ; |112| 
         00019c 08   
     460 00019d       $C$DW$L$_hlr_gauss_obs_score_f$14$E:
     461 00019d       $C$L8:    
     462 00019d       $C$DW$L$_hlr_gauss_obs_score_f$15$B:
     463 00019d 767F          MOV #32767, AC1 ; |112| 
         00019f FF18 
     464 0001a1 1208          CMP AC0 >= AC1, TC1 ; |112| 
         0001a3 10   
     465 0001a4 0464          BCC $C$L9,TC1 ; |112| 
         0001a6 12   
     466                                                      ; branchcc occurs ; |112| 
     467 0001a7       $C$DW$L$_hlr_gauss_obs_score_f$15$E:
     468 0001a7       $C$DW$L$_hlr_gauss_obs_score_f$16$B:
     469 0001a7 7680          MOV #-32768, AC0 ; |112| 
         0001a9 0008 
     470 0001ab ED18          MOV dbl(*SP(#12)), AC1 ; |112| 
         0001ad 18   
     471 0001ae 1208          CMP AC1 <= AC0, TC1 ; |112| 
         0001b0 10   
     472 0001b1 0464          BCC $C$L14,TC1 ; |112| 
         0001b3 43   
     473                                                      ; branchcc occurs ; |112| 
     474 0001b4       $C$DW$L$_hlr_gauss_obs_score_f$16$E:
     475 0001b4       $C$DW$L$_hlr_gauss_obs_score_f$17$B:
     476 0001b4 ED18          MOV dbl(*SP(#12)), AC0 ; |112| 
         0001b6 08   
     477 0001b7 4A3E          B $C$L14  ; |112| 
     478                                                      ; branch occurs ; |112| 
     479 0001b9       $C$DW$L$_hlr_gauss_obs_score_f$17$E:
     480 0001b9       $C$L9:    
     481 0001b9       $C$DW$L$_hlr_gauss_obs_score_f$18$B:
     482 0001b9 767F          MOV #32767, AC0 ; |112| 
         0001bb FF08 
     483 0001bd 4A38          B $C$L14  ; |112| 
     484                                                      ; branch occurs ; |112| 
     485 0001bf       $C$DW$L$_hlr_gauss_obs_score_f$18$E:
     486 0001bf       $C$L10:    
     487 0001bf       $C$DW$L$_hlr_gauss_obs_score_f$19$B:
     488 0001bf 7680          MOV #-32768, AC0 ; |112| 
         0001c1 0008 
     489 0001c3 ED18          MOV dbl(*SP(#12)), AC1 ; |112| 
         0001c5 18   
     490 0001c6 1208          CMP AC1 <= AC0, TC1 ; |112| 
         0001c8 10   
     491 0001c9 61E4          BCC $C$L11,TC1 ; |112| 
     492                                                      ; branchcc occurs ; |112| 
     493 0001cb       $C$DW$L$_hlr_gauss_obs_score_f$19$E:
     494 0001cb       $C$DW$L$_hlr_gauss_obs_score_f$20$B:
TMS320C55x Assembler PC v4.4.1 Wed Sep 13 16:33:14 2017

Tools Copyright (c) 1996-2012 Texas Instruments Incorporated
C:\Users\a0221074\AppData\Local\Temp\0730410                         PAGE   12

     495 0001cb ED18          MOV dbl(*SP(#12)), AC0 ; |112| 
         0001cd 08   
     496 0001ce       $C$DW$L$_hlr_gauss_obs_score_f$20$E:
     497 0001ce       $C$L11:    
     498 0001ce       $C$DW$L$_hlr_gauss_obs_score_f$21$B:
     499 0001ce 767F          MOV #32767, AC1 ; |112| 
         0001d0 FF18 
     500 0001d2 1208          CMP AC0 >= AC1, TC1 ; |112| 
         0001d4 10   
     501 0001d5 0464          BCC $C$L12,TC1 ; |112| 
         0001d7 11   
     502                                                      ; branchcc occurs ; |112| 
     503 0001d8       $C$DW$L$_hlr_gauss_obs_score_f$21$E:
     504 0001d8       $C$DW$L$_hlr_gauss_obs_score_f$22$B:
     505 0001d8 7680          MOV #-32768, AC0 ; |112| 
         0001da 0008 
     506 0001dc ED18          MOV dbl(*SP(#12)), AC1 ; |112| 
         0001de 18   
     507 0001df 1208          CMP AC1 <= AC0, TC1 ; |112| 
         0001e1 10   
     508 0001e2 64E4          BCC $C$L13,TC1 ; |112| 
     509                                                      ; branchcc occurs ; |112| 
     510 0001e4       $C$DW$L$_hlr_gauss_obs_score_f$22$E:
     511 0001e4       $C$DW$L$_hlr_gauss_obs_score_f$23$B:
     512 0001e4 ED18          MOV dbl(*SP(#12)), AC0 ; |112| 
         0001e6 08   
     513 0001e7 4A04          B $C$L13  ; |112| 
     514                                                      ; branch occurs ; |112| 
     515 0001e9       $C$DW$L$_hlr_gauss_obs_score_f$23$E:
     516 0001e9       $C$L12:    
     517 0001e9       $C$DW$L$_hlr_gauss_obs_score_f$24$B:
     518 0001e9 767F          MOV #32767, AC0 ; |112| 
         0001eb FF08 
     519 0001ed       $C$DW$L$_hlr_gauss_obs_score_f$24$E:
     520 0001ed       $C$L13:    
     521 0001ed       $C$DW$L$_hlr_gauss_obs_score_f$25$B:
     522 0001ed A41C          MOV *SP(#14), T0 ; |112| 
     523              $C$DW$35        .dwtag  DW_TAG_TI_branch
     524                      .dwattr $C$DW$35, DW_AT_low_pc(0x00)
     525                      .dwattr $C$DW$35, DW_AT_name("_hlr_logsum")
     526                      .dwattr $C$DW$35, DW_AT_TI_call
     527              
     528 0001ef 6C00          CALL #_hlr_logsum ; |112| 
         0001f1 0000+
     529 0001f3 2305  ||      MOV AC0, T1 ; |112| 
     530              
     531                                                      ; call occurs [#_hlr_logsum] ; |112| 
     532 0001f5 2240          MOV T0, AC0 ; |112| 
     533 0001f7       $C$DW$L$_hlr_gauss_obs_score_f$25$E:
     534 0001f7       $C$L14:    
     535 0001f7       $C$DW$L$_hlr_gauss_obs_score_f$26$B:
     536 0001f7 C01C          MOV AC0, *SP(#14) ; |112| 
     537                      .dwpsn  file "C:/Users/a0221074/Desktop/C5000/IBM_Watson_TIdesign_workarea/CSL_bitbucket/c55_csl/c55x
     538 0001f9 4A15          B $C$L16  ; |113| 
     539                                                      ; branch occurs ; |113| 
TMS320C55x Assembler PC v4.4.1 Wed Sep 13 16:33:14 2017

Tools Copyright (c) 1996-2012 Texas Instruments Incorporated
C:\Users\a0221074\AppData\Local\Temp\0730410                         PAGE   13

     540 0001fb       $C$DW$L$_hlr_gauss_obs_score_f$26$E:
     541 0001fb       $C$L15:    
     542 0001fb       $C$DW$L$_hlr_gauss_obs_score_f$27$B:
     543                      .dwpsn  file "C:/Users/a0221074/Desktop/C5000/IBM_Watson_TIdesign_workarea/CSL_bitbucket/c55_csl/c55x
     544 0001fb A01C          MOV *SP(#14), AC0 ; |116| 
     545 0001fd ED18          MOV dbl(*SP(#12)), AC1 ; |116| 
         0001ff 18   
     546 000200 1208          CMP AC1 <= AC0, TC1 ; |116| 
         000202 10   
     547 000203 65E4          BCC $C$L16,TC1 ; |116| 
     548                                                      ; branchcc occurs ; |116| 
     549 000205       $C$DW$L$_hlr_gauss_obs_score_f$27$E:
     550 000205       $C$DW$L$_hlr_gauss_obs_score_f$28$B:
     551                      .dwpsn  file "C:/Users/a0221074/Desktop/C5000/IBM_Watson_TIdesign_workarea/CSL_bitbucket/c55_csl/c55x
     552 000205 A91A          MOV *SP(#13), AR1 ; |118| 
     553 000207 C91C          MOV AR1, *SP(#14) ; |118| 
     554                      .dwpsn  file "C:/Users/a0221074/Desktop/C5000/IBM_Watson_TIdesign_workarea/CSL_bitbucket/c55_csl/c55x
     555 000209 ED08          MOV dbl(*SP(#4)), XAR3
         00020b BF   
     556 00020c A914          MOV *SP(#10), AR1 ; |119| 
     557 00020e C961          MOV AR1, *AR3 ; |119| 
     558 000210       $C$DW$L$_hlr_gauss_obs_score_f$28$E:
     559 000210       $C$L16:    
     560 000210       $C$DW$L$_hlr_gauss_obs_score_f$29$B:
     561                      .dwpsn  file "C:/Users/a0221074/Desktop/C5000/IBM_Watson_TIdesign_workarea/CSL_bitbucket/c55_csl/c55x
     562 000210 F714          ADD #1, *SP(#10) ; |96| 
         000212 0001 
     563                      .dwpsn  file "C:/Users/a0221074/Desktop/C5000/IBM_Watson_TIdesign_workarea/CSL_bitbucket/c55_csl/c55x
     564 000214 A92A          MOV *SP(#21), AR1 ; |96| 
     565 000216 AA14          MOV *SP(#10), AR2 ; |96| 
     566 000218 12A4          CMP AR2 < AR1, TC1 ; |96| 
         00021a 90   
     567 00021b 6D64          BCC $C$L3,TC1 ; |96| 
         00021d FE48 
     568                                                      ; branchcc occurs ; |96| 
     569 00021f       $C$DW$L$_hlr_gauss_obs_score_f$29$E:
     570 00021f       $C$L17:    
     571                      .dwpsn  file "C:/Users/a0221074/Desktop/C5000/IBM_Watson_TIdesign_workarea/CSL_bitbucket/c55_csl/c55x
     572 00021f A41C          MOV *SP(#14), T0 ; |124| 
     573                      .dwpsn  file "C:/Users/a0221074/Desktop/C5000/IBM_Watson_TIdesign_workarea/CSL_bitbucket/c55_csl/c55x
     574 000221 4E23          AADD #35, SP
     575                      .dwcfi  cfa_offset, 1
     576              $C$DW$36        .dwtag  DW_TAG_TI_branch
     577                      .dwattr $C$DW$36, DW_AT_low_pc(0x00)
     578                      .dwattr $C$DW$36, DW_AT_TI_return
     579 000223 4804          RET
     580                                                      ; return occurs
     581              
     582              $C$DW$37        .dwtag  DW_TAG_TI_loop
     583                      .dwattr $C$DW$37, DW_AT_name("C:\\Users\\a0221074\\AppData\\Local\\Temp\\0730410:$C$L3:1:1505334792")
     584                      .dwattr $C$DW$37, DW_AT_TI_begin_file("C:/Users/a0221074/Desktop/C5000/IBM_Watson_TIdesign_workarea/C
     585                      .dwattr $C$DW$37, DW_AT_TI_begin_line(0x60)
     586                      .dwattr $C$DW$37, DW_AT_TI_end_line(0x7a)
     587              $C$DW$38        .dwtag  DW_TAG_TI_loop_range
     588                      .dwattr $C$DW$38, DW_AT_low_pc($C$DW$L$_hlr_gauss_obs_score_f$5$B)
TMS320C55x Assembler PC v4.4.1 Wed Sep 13 16:33:14 2017

Tools Copyright (c) 1996-2012 Texas Instruments Incorporated
C:\Users\a0221074\AppData\Local\Temp\0730410                         PAGE   14

     589                      .dwattr $C$DW$38, DW_AT_high_pc($C$DW$L$_hlr_gauss_obs_score_f$5$E)
     590              $C$DW$39        .dwtag  DW_TAG_TI_loop_range
     591                      .dwattr $C$DW$39, DW_AT_low_pc($C$DW$L$_hlr_gauss_obs_score_f$19$B)
     592                      .dwattr $C$DW$39, DW_AT_high_pc($C$DW$L$_hlr_gauss_obs_score_f$19$E)
     593              $C$DW$40        .dwtag  DW_TAG_TI_loop_range
     594                      .dwattr $C$DW$40, DW_AT_low_pc($C$DW$L$_hlr_gauss_obs_score_f$20$B)
     595                      .dwattr $C$DW$40, DW_AT_high_pc($C$DW$L$_hlr_gauss_obs_score_f$20$E)
     596              $C$DW$41        .dwtag  DW_TAG_TI_loop_range
     597                      .dwattr $C$DW$41, DW_AT_low_pc($C$DW$L$_hlr_gauss_obs_score_f$21$B)
     598                      .dwattr $C$DW$41, DW_AT_high_pc($C$DW$L$_hlr_gauss_obs_score_f$21$E)
     599              $C$DW$42        .dwtag  DW_TAG_TI_loop_range
     600                      .dwattr $C$DW$42, DW_AT_low_pc($C$DW$L$_hlr_gauss_obs_score_f$22$B)
     601                      .dwattr $C$DW$42, DW_AT_high_pc($C$DW$L$_hlr_gauss_obs_score_f$22$E)
     602              $C$DW$43        .dwtag  DW_TAG_TI_loop_range
     603                      .dwattr $C$DW$43, DW_AT_low_pc($C$DW$L$_hlr_gauss_obs_score_f$23$B)
     604                      .dwattr $C$DW$43, DW_AT_high_pc($C$DW$L$_hlr_gauss_obs_score_f$23$E)
     605              $C$DW$44        .dwtag  DW_TAG_TI_loop_range
     606                      .dwattr $C$DW$44, DW_AT_low_pc($C$DW$L$_hlr_gauss_obs_score_f$24$B)
     607                      .dwattr $C$DW$44, DW_AT_high_pc($C$DW$L$_hlr_gauss_obs_score_f$24$E)
     608              $C$DW$45        .dwtag  DW_TAG_TI_loop_range
     609                      .dwattr $C$DW$45, DW_AT_low_pc($C$DW$L$_hlr_gauss_obs_score_f$11$B)
     610                      .dwattr $C$DW$45, DW_AT_high_pc($C$DW$L$_hlr_gauss_obs_score_f$11$E)
     611              $C$DW$46        .dwtag  DW_TAG_TI_loop_range
     612                      .dwattr $C$DW$46, DW_AT_low_pc($C$DW$L$_hlr_gauss_obs_score_f$12$B)
     613                      .dwattr $C$DW$46, DW_AT_high_pc($C$DW$L$_hlr_gauss_obs_score_f$12$E)
     614              $C$DW$47        .dwtag  DW_TAG_TI_loop_range
     615                      .dwattr $C$DW$47, DW_AT_low_pc($C$DW$L$_hlr_gauss_obs_score_f$13$B)
     616                      .dwattr $C$DW$47, DW_AT_high_pc($C$DW$L$_hlr_gauss_obs_score_f$13$E)
     617              $C$DW$48        .dwtag  DW_TAG_TI_loop_range
     618                      .dwattr $C$DW$48, DW_AT_low_pc($C$DW$L$_hlr_gauss_obs_score_f$14$B)
     619                      .dwattr $C$DW$48, DW_AT_high_pc($C$DW$L$_hlr_gauss_obs_score_f$14$E)
     620              $C$DW$49        .dwtag  DW_TAG_TI_loop_range
     621                      .dwattr $C$DW$49, DW_AT_low_pc($C$DW$L$_hlr_gauss_obs_score_f$15$B)
     622                      .dwattr $C$DW$49, DW_AT_high_pc($C$DW$L$_hlr_gauss_obs_score_f$15$E)
     623              $C$DW$50        .dwtag  DW_TAG_TI_loop_range
     624                      .dwattr $C$DW$50, DW_AT_low_pc($C$DW$L$_hlr_gauss_obs_score_f$16$B)
     625                      .dwattr $C$DW$50, DW_AT_high_pc($C$DW$L$_hlr_gauss_obs_score_f$16$E)
     626              $C$DW$51        .dwtag  DW_TAG_TI_loop_range
     627                      .dwattr $C$DW$51, DW_AT_low_pc($C$DW$L$_hlr_gauss_obs_score_f$17$B)
     628                      .dwattr $C$DW$51, DW_AT_high_pc($C$DW$L$_hlr_gauss_obs_score_f$17$E)
     629              $C$DW$52        .dwtag  DW_TAG_TI_loop_range
     630                      .dwattr $C$DW$52, DW_AT_low_pc($C$DW$L$_hlr_gauss_obs_score_f$18$B)
     631                      .dwattr $C$DW$52, DW_AT_high_pc($C$DW$L$_hlr_gauss_obs_score_f$18$E)
     632              $C$DW$53        .dwtag  DW_TAG_TI_loop_range
     633                      .dwattr $C$DW$53, DW_AT_low_pc($C$DW$L$_hlr_gauss_obs_score_f$25$B)
     634                      .dwattr $C$DW$53, DW_AT_high_pc($C$DW$L$_hlr_gauss_obs_score_f$25$E)
     635              $C$DW$54        .dwtag  DW_TAG_TI_loop_range
     636                      .dwattr $C$DW$54, DW_AT_low_pc($C$DW$L$_hlr_gauss_obs_score_f$26$B)
     637                      .dwattr $C$DW$54, DW_AT_high_pc($C$DW$L$_hlr_gauss_obs_score_f$26$E)
     638              $C$DW$55        .dwtag  DW_TAG_TI_loop_range
     639                      .dwattr $C$DW$55, DW_AT_low_pc($C$DW$L$_hlr_gauss_obs_score_f$27$B)
     640                      .dwattr $C$DW$55, DW_AT_high_pc($C$DW$L$_hlr_gauss_obs_score_f$27$E)
     641              $C$DW$56        .dwtag  DW_TAG_TI_loop_range
     642                      .dwattr $C$DW$56, DW_AT_low_pc($C$DW$L$_hlr_gauss_obs_score_f$28$B)
     643                      .dwattr $C$DW$56, DW_AT_high_pc($C$DW$L$_hlr_gauss_obs_score_f$28$E)
TMS320C55x Assembler PC v4.4.1 Wed Sep 13 16:33:14 2017

Tools Copyright (c) 1996-2012 Texas Instruments Incorporated
C:\Users\a0221074\AppData\Local\Temp\0730410                         PAGE   15

     644              $C$DW$57        .dwtag  DW_TAG_TI_loop_range
     645                      .dwattr $C$DW$57, DW_AT_low_pc($C$DW$L$_hlr_gauss_obs_score_f$29$B)
     646                      .dwattr $C$DW$57, DW_AT_high_pc($C$DW$L$_hlr_gauss_obs_score_f$29$E)
     647              
     648              $C$DW$58        .dwtag  DW_TAG_TI_loop
     649                      .dwattr $C$DW$58, DW_AT_name("C:\\Users\\a0221074\\AppData\\Local\\Temp\\0730410:$C$L4:2:1505334792")
     650                      .dwattr $C$DW$58, DW_AT_TI_begin_file("C:/Users/a0221074/Desktop/C5000/IBM_Watson_TIdesign_workarea/C
     651                      .dwattr $C$DW$58, DW_AT_TI_begin_line(0x67)
     652                      .dwattr $C$DW$58, DW_AT_TI_end_line(0x67)
     653              $C$DW$59        .dwtag  DW_TAG_TI_loop_range
     654                      .dwattr $C$DW$59, DW_AT_low_pc($C$DW$L$_hlr_gauss_obs_score_f$6$B)
     655                      .dwattr $C$DW$59, DW_AT_high_pc($C$DW$L$_hlr_gauss_obs_score_f$6$E)
     656              $C$DW$60        .dwtag  DW_TAG_TI_loop_range
     657                      .dwattr $C$DW$60, DW_AT_low_pc($C$DW$L$_hlr_gauss_obs_score_f$7$B)
     658                      .dwattr $C$DW$60, DW_AT_high_pc($C$DW$L$_hlr_gauss_obs_score_f$7$E)
     659              $C$DW$61        .dwtag  DW_TAG_TI_loop_range
     660                      .dwattr $C$DW$61, DW_AT_low_pc($C$DW$L$_hlr_gauss_obs_score_f$8$B)
     661                      .dwattr $C$DW$61, DW_AT_high_pc($C$DW$L$_hlr_gauss_obs_score_f$8$E)
     662              $C$DW$62        .dwtag  DW_TAG_TI_loop_range
     663                      .dwattr $C$DW$62, DW_AT_low_pc($C$DW$L$_hlr_gauss_obs_score_f$9$B)
     664                      .dwattr $C$DW$62, DW_AT_high_pc($C$DW$L$_hlr_gauss_obs_score_f$9$E)
     665              $C$DW$63        .dwtag  DW_TAG_TI_loop_range
     666                      .dwattr $C$DW$63, DW_AT_low_pc($C$DW$L$_hlr_gauss_obs_score_f$10$B)
     667                      .dwattr $C$DW$63, DW_AT_high_pc($C$DW$L$_hlr_gauss_obs_score_f$10$E)
     668                      .dwendtag $C$DW$58
     669              
     670                      .dwendtag $C$DW$37
     671              
     672                      .dwattr $C$DW$7, DW_AT_TI_end_file("C:/Users/a0221074/Desktop/C5000/IBM_Watson_TIdesign_workarea/CSL_
     673                      .dwattr $C$DW$7, DW_AT_TI_end_line(0x7d)
     674                      .dwattr $C$DW$7, DW_AT_TI_end_column(0x01)
     675                      .dwendentry
     676                      .dwendtag $C$DW$7
     677              
     678 000000               .sect   ".text:_hlr_logsum"
     679                      .clink
     680                      .global _hlr_logsum
     681              
     682              $C$DW$64        .dwtag  DW_TAG_subprogram, DW_AT_name("hlr_logsum")
     683                      .dwattr $C$DW$64, DW_AT_low_pc(_hlr_logsum)
     684                      .dwattr $C$DW$64, DW_AT_high_pc(0x00)
     685                      .dwattr $C$DW$64, DW_AT_TI_symbol_name("_hlr_logsum")
     686                      .dwattr $C$DW$64, DW_AT_external
     687                      .dwattr $C$DW$64, DW_AT_type(*$C$DW$T$8)
     688                      .dwattr $C$DW$64, DW_AT_TI_begin_file("C:/Users/a0221074/Desktop/C5000/IBM_Watson_TIdesign_workarea/C
     689                      .dwattr $C$DW$64, DW_AT_TI_begin_line(0x89)
     690                      .dwattr $C$DW$64, DW_AT_TI_begin_column(0x1e)
     691                      .dwattr $C$DW$64, DW_AT_TI_max_frame_size(0x0c)
     692                      .dwpsn  file "C:/Users/a0221074/Desktop/C5000/IBM_Watson_TIdesign_workarea/CSL_bitbucket/c55_csl/c55x
     693              
     694                      .dwfde $C$DW$CIE, _hlr_logsum
     695              $C$DW$65        .dwtag  DW_TAG_formal_parameter, DW_AT_name("lna")
     696                      .dwattr $C$DW$65, DW_AT_TI_symbol_name("_lna")
     697                      .dwattr $C$DW$65, DW_AT_type(*$C$DW$T$8)
     698                      .dwattr $C$DW$65, DW_AT_location[DW_OP_reg12]
TMS320C55x Assembler PC v4.4.1 Wed Sep 13 16:33:14 2017

Tools Copyright (c) 1996-2012 Texas Instruments Incorporated
C:\Users\a0221074\AppData\Local\Temp\0730410                         PAGE   16

     699              $C$DW$66        .dwtag  DW_TAG_formal_parameter, DW_AT_name("lnb")
     700                      .dwattr $C$DW$66, DW_AT_TI_symbol_name("_lnb")
     701                      .dwattr $C$DW$66, DW_AT_type(*$C$DW$T$8)
     702                      .dwattr $C$DW$66, DW_AT_location[DW_OP_reg13]
     703              ;*******************************************************************************
     704              ;* FUNCTION NAME: hlr_logsum                                                   *
     705              ;*                                                                             *
     706              ;*   Function Uses Regs : AC0,AC0,AC1,AC1,T0,T1,AR1,AR2,SP,CARRY,TC1,M40,SATA, *
     707              ;*                        SATD,RDM,FRCT,SMUL                                   *
     708              ;*   Stack Frame        : Compact (No Frame Pointer, w/ debug)                 *
     709              ;*   Total Frame Size   : 12 words                                             *
     710              ;*                        (2 return address/alignment)                         *
     711              ;*                        (10 local values)                                    *
     712              ;*   Min System Stack   : 1 word                                               *
     713              ;*******************************************************************************
     714 000000       _hlr_logsum:
     715                      .dwcfi  cfa_offset, 1
     716                      .dwcfi  save_reg_to_mem, 91, -1
     717 000000 4EF5          AADD #-11, SP
     718                      .dwcfi  cfa_offset, 12
     719              $C$DW$67        .dwtag  DW_TAG_variable, DW_AT_name("lna")
     720                      .dwattr $C$DW$67, DW_AT_TI_symbol_name("_lna")
     721                      .dwattr $C$DW$67, DW_AT_type(*$C$DW$T$8)
     722                      .dwattr $C$DW$67, DW_AT_location[DW_OP_bregx 0x24 0]
     723              $C$DW$68        .dwtag  DW_TAG_variable, DW_AT_name("lnb")
     724                      .dwattr $C$DW$68, DW_AT_TI_symbol_name("_lnb")
     725                      .dwattr $C$DW$68, DW_AT_type(*$C$DW$T$8)
     726                      .dwattr $C$DW$68, DW_AT_location[DW_OP_bregx 0x24 1]
     727              $C$DW$69        .dwtag  DW_TAG_variable, DW_AT_name("s_temp")
     728                      .dwattr $C$DW$69, DW_AT_TI_symbol_name("_s_temp")
     729                      .dwattr $C$DW$69, DW_AT_type(*$C$DW$T$8)
     730                      .dwattr $C$DW$69, DW_AT_location[DW_OP_bregx 0x24 2]
     731              $C$DW$70        .dwtag  DW_TAG_variable, DW_AT_name("temp")
     732                      .dwattr $C$DW$70, DW_AT_TI_symbol_name("_temp")
     733                      .dwattr $C$DW$70, DW_AT_type(*$C$DW$T$12)
     734                      .dwattr $C$DW$70, DW_AT_location[DW_OP_bregx 0x24 4]
     735              $C$DW$71        .dwtag  DW_TAG_variable, DW_AT_name("diff")
     736                      .dwattr $C$DW$71, DW_AT_TI_symbol_name("_diff")
     737                      .dwattr $C$DW$71, DW_AT_type(*$C$DW$T$12)
     738                      .dwattr $C$DW$71, DW_AT_location[DW_OP_bregx 0x24 6]
     739              $C$DW$72        .dwtag  DW_TAG_variable, DW_AT_name("result")
     740                      .dwattr $C$DW$72, DW_AT_TI_symbol_name("_result")
     741                      .dwattr $C$DW$72, DW_AT_type(*$C$DW$T$8)
     742                      .dwattr $C$DW$72, DW_AT_location[DW_OP_bregx 0x24 8]
     743              $C$DW$73        .dwtag  DW_TAG_variable, DW_AT_name("adb")
     744                      .dwattr $C$DW$73, DW_AT_TI_symbol_name("_adb")
     745                      .dwattr $C$DW$73, DW_AT_type(*$C$DW$T$9)
     746                      .dwattr $C$DW$73, DW_AT_location[DW_OP_bregx 0x24 9]
     747 000002 C502          MOV T1, *SP(#1) ; |138| 
     748 000004 C400          MOV T0, *SP(#0) ; |138| 
     749                      .dwpsn  file "C:/Users/a0221074/Desktop/C5000/IBM_Watson_TIdesign_workarea/CSL_bitbucket/c55_csl/c55x
     750              
     751 000006 A902          MOV *SP(#1), AR1 ; |146| 
     752 000008 234A  ||      MOV T0, AR2 ; |146| 
     753              
TMS320C55x Assembler PC v4.4.1 Wed Sep 13 16:33:14 2017

Tools Copyright (c) 1996-2012 Texas Instruments Incorporated
C:\Users\a0221074\AppData\Local\Temp\0730410                         PAGE   17

     754 00000a 12A8          CMP AR2 >= AR1, TC1 ; |146| 
         00000c 90   
     755 00000d 6564          BCC $C$L18,TC1 ; |146| 
     756                                                      ; branchcc occurs ; |146| 
     757                      .dwpsn  file "C:/Users/a0221074/Desktop/C5000/IBM_Watson_TIdesign_workarea/CSL_bitbucket/c55_csl/c55x
     758 00000f C904          MOV AR1, *SP(#2) ; |148| 
     759                      .dwpsn  file "C:/Users/a0221074/Desktop/C5000/IBM_Watson_TIdesign_workarea/CSL_bitbucket/c55_csl/c55x
     760 000011 A900          MOV *SP(#0), AR1 ; |149| 
     761 000013 C902          MOV AR1, *SP(#1) ; |149| 
     762                      .dwpsn  file "C:/Users/a0221074/Desktop/C5000/IBM_Watson_TIdesign_workarea/CSL_bitbucket/c55_csl/c55x
     763 000015 A904          MOV *SP(#2), AR1 ; |150| 
     764 000017 C900          MOV AR1, *SP(#0) ; |150| 
     765 000019       $C$L18:    
     766                      .dwpsn  file "C:/Users/a0221074/Desktop/C5000/IBM_Watson_TIdesign_workarea/CSL_bitbucket/c55_csl/c55x
     767 000019 A002          MOV *SP(#1), AC0 ; |154| 
     768 00001b EB0C          MOV AC0, dbl(*SP(#6)) ; |154| 
         00001d 08   
     769                      .dwpsn  file "C:/Users/a0221074/Desktop/C5000/IBM_Watson_TIdesign_workarea/CSL_bitbucket/c55_csl/c55x
     770 00001e A000          MOV *SP(#0), AC0 ; |155| 
     771 000020 ED0C          SUB AC0, dbl(*SP(#6)), AC0 ; |155| 
         000022 04   
     772 000023 EB0C          MOV AC0, dbl(*SP(#6)) ; |155| 
         000025 08   
     773                      .dwpsn  file "C:/Users/a0221074/Desktop/C5000/IBM_Watson_TIdesign_workarea/CSL_bitbucket/c55_csl/c55x
     774 000026 ED0C          MOV dbl(*SP(#6)), AC1 ; |156| 
         000028 18   
     775 000029 76FE          MOV #-448, AC0 ; |156| 
         00002b 4008 
     776 00002d 1218          CMP AC1 >= AC0, TC1 ; |156| 
         00002f 00   
     777 000030 62E4          BCC $C$L19,TC1 ; |156| 
     778                                                      ; branchcc occurs ; |156| 
     779                      .dwpsn  file "C:/Users/a0221074/Desktop/C5000/IBM_Watson_TIdesign_workarea/CSL_bitbucket/c55_csl/c55x
     780 000032 A400          MOV *SP(#0), T0 ; |157| 
     781 000034 0600          B $C$L21  ; |157| 
         000036 48   
     782                                                      ; branch occurs ; |157| 
     783 000037       $C$L19:    
     784                      .dwpsn  file "C:/Users/a0221074/Desktop/C5000/IBM_Watson_TIdesign_workarea/CSL_bitbucket/c55_csl/c55x
     785 000037 A90E          MOV *SP(#7), AR1 ; |160| 
     786 000039 C904          MOV AR1, *SP(#2) ; |160| 
     787                      .dwpsn  file "C:/Users/a0221074/Desktop/C5000/IBM_Watson_TIdesign_workarea/CSL_bitbucket/c55_csl/c55x
     788 00003b 3C65          MOV #6, T1
     789              $C$DW$74        .dwtag  DW_TAG_TI_branch
     790                      .dwattr $C$DW$74, DW_AT_low_pc(0x00)
     791                      .dwattr $C$DW$74, DW_AT_name("_hlr_expn")
     792                      .dwattr $C$DW$74, DW_AT_TI_call
     793              
     794 00003d 6C00          CALL #_hlr_expn ; |161| 
         00003f 0000+
     795 000041 2394  ||      MOV AR1, T0
     796              
     797                                                      ; call occurs [#_hlr_expn] ; |161| 
     798 000043 C412          MOV T0, *SP(#9) ; |161| 
     799                      .dwpsn  file "C:/Users/a0221074/Desktop/C5000/IBM_Watson_TIdesign_workarea/CSL_bitbucket/c55_csl/c55x
TMS320C55x Assembler PC v4.4.1 Wed Sep 13 16:33:14 2017

Tools Copyright (c) 1996-2012 Texas Instruments Incorporated
C:\Users\a0221074\AppData\Local\Temp\0730410                         PAGE   18

     800              $C$DW$75        .dwtag  DW_TAG_TI_branch
     801                      .dwattr $C$DW$75, DW_AT_low_pc(0x00)
     802                      .dwattr $C$DW$75, DW_AT_name("_hlr_log_one")
     803                      .dwattr $C$DW$75, DW_AT_TI_call
     804 000045 6C00          CALL #_hlr_log_one ; |164| 
         000047 0000+
     805                                                      ; call occurs [#_hlr_log_one] ; |164| 
     806 000049 C410          MOV T0, *SP(#8) ; |164| 
     807                      .dwpsn  file "C:/Users/a0221074/Desktop/C5000/IBM_Watson_TIdesign_workarea/CSL_bitbucket/c55_csl/c55x
     808 00004b A010          MOV *SP(#8), AC0 ; |167| 
     809 00004d EB08          MOV AC0, dbl(*SP(#4)) ; |167| 
         00004f 08   
     810                      .dwpsn  file "C:/Users/a0221074/Desktop/C5000/IBM_Watson_TIdesign_workarea/CSL_bitbucket/c55_csl/c55x
     811 000050 ED08          MOV dbl(*SP(#4)), AC0 ; |168| 
         000052 08   
     812 000053 A100          MOV *SP(#0), AC1 ; |168| 
     813 000055 1013          ADD AC1 << #9, AC0 ; |168| 
         000057 09   
     814 000058 EB08          MOV AC0, dbl(*SP(#4)) ; |168| 
         00005a 08   
     815                      .dwpsn  file "C:/Users/a0221074/Desktop/C5000/IBM_Watson_TIdesign_workarea/CSL_bitbucket/c55_csl/c55x
     816 00005b 7601          MOV #256, AC0 ; |169| 
         00005d 0008 
     817 00005f ED08          ADD dbl(*SP(#4)), AC0, AC0 ; |169| 
         000061 00   
     818 000062 EB08          MOV AC0, dbl(*SP(#4)) ; |169| 
         000064 08   
     819                      .dwpsn  file "C:/Users/a0221074/Desktop/C5000/IBM_Watson_TIdesign_workarea/CSL_bitbucket/c55_csl/c55x
     820 000065 ED08          MOV dbl(*SP(#4)), AC0 ; |170| 
         000067 08   
     821 000068 1005          SFTS AC0, #-9, AC0 ; |170| 
         00006a 37   
     822 00006b EB08          MOV AC0, dbl(*SP(#4)) ; |170| 
         00006d 08   
     823                      .dwpsn  file "C:/Users/a0221074/Desktop/C5000/IBM_Watson_TIdesign_workarea/CSL_bitbucket/c55_csl/c55x
     824 00006e 767F          MOV #32767, AC0 ; |171| 
         000070 FF08 
     825 000072 ED08          MOV dbl(*SP(#4)), AC1 ; |171| 
         000074 18   
     826 000075 1208          CMP AC1 <= AC0, TC1 ; |171| 
         000077 10   
     827 000078 61E4          BCC $C$L20,TC1 ; |171| 
     828                                                      ; branchcc occurs ; |171| 
     829                      .dwpsn  file "C:/Users/a0221074/Desktop/C5000/IBM_Watson_TIdesign_workarea/CSL_bitbucket/c55_csl/c55x
     830 00007a EB08          MOV AC0, dbl(*SP(#4)) ; |172| 
         00007c 08   
     831 00007d       $C$L20:    
     832                      .dwpsn  file "C:/Users/a0221074/Desktop/C5000/IBM_Watson_TIdesign_workarea/CSL_bitbucket/c55_csl/c55x
     833 00007d A40A          MOV *SP(#5), T0 ; |174| 
     834 00007f       $C$L21:    
     835                      .dwpsn  file "C:/Users/a0221074/Desktop/C5000/IBM_Watson_TIdesign_workarea/CSL_bitbucket/c55_csl/c55x
     836 00007f 4E0B          AADD #11, SP
     837                      .dwcfi  cfa_offset, 1
     838              $C$DW$76        .dwtag  DW_TAG_TI_branch
     839                      .dwattr $C$DW$76, DW_AT_low_pc(0x00)
TMS320C55x Assembler PC v4.4.1 Wed Sep 13 16:33:14 2017

Tools Copyright (c) 1996-2012 Texas Instruments Incorporated
C:\Users\a0221074\AppData\Local\Temp\0730410                         PAGE   19

     840                      .dwattr $C$DW$76, DW_AT_TI_return
     841 000081 4804          RET
     842                                                      ; return occurs
     843                      .dwattr $C$DW$64, DW_AT_TI_end_file("C:/Users/a0221074/Desktop/C5000/IBM_Watson_TIdesign_workarea/CSL
     844                      .dwattr $C$DW$64, DW_AT_TI_end_line(0xaf)
     845                      .dwattr $C$DW$64, DW_AT_TI_end_column(0x01)
     846                      .dwendentry
     847                      .dwendtag $C$DW$64
     848              
     849 000000               .sect   ".text:_hlr_expn"
     850                      .clink
     851                      .global _hlr_expn
     852              
     853              $C$DW$77        .dwtag  DW_TAG_subprogram, DW_AT_name("hlr_expn")
     854                      .dwattr $C$DW$77, DW_AT_low_pc(_hlr_expn)
     855                      .dwattr $C$DW$77, DW_AT_high_pc(0x00)
     856                      .dwattr $C$DW$77, DW_AT_TI_symbol_name("_hlr_expn")
     857                      .dwattr $C$DW$77, DW_AT_external
     858                      .dwattr $C$DW$77, DW_AT_type(*$C$DW$T$9)
     859                      .dwattr $C$DW$77, DW_AT_TI_begin_file("C:/Users/a0221074/Desktop/C5000/IBM_Watson_TIdesign_workarea/C
     860                      .dwattr $C$DW$77, DW_AT_TI_begin_line(0xb8)
     861                      .dwattr $C$DW$77, DW_AT_TI_begin_column(0x27)
     862                      .dwattr $C$DW$77, DW_AT_TI_max_frame_size(0x14)
     863                      .dwpsn  file "C:/Users/a0221074/Desktop/C5000/IBM_Watson_TIdesign_workarea/CSL_bitbucket/c55_csl/c55x
     864              
     865                      .dwfde $C$DW$CIE, _hlr_expn
     866              $C$DW$78        .dwtag  DW_TAG_formal_parameter, DW_AT_name("x")
     867                      .dwattr $C$DW$78, DW_AT_TI_symbol_name("_x")
     868                      .dwattr $C$DW$78, DW_AT_type(*$C$DW$T$8)
     869                      .dwattr $C$DW$78, DW_AT_location[DW_OP_reg12]
     870              $C$DW$79        .dwtag  DW_TAG_formal_parameter, DW_AT_name("qpt")
     871                      .dwattr $C$DW$79, DW_AT_TI_symbol_name("_qpt")
     872                      .dwattr $C$DW$79, DW_AT_type(*$C$DW$T$8)
     873                      .dwattr $C$DW$79, DW_AT_location[DW_OP_reg13]
     874              ;*******************************************************************************
     875              ;* FUNCTION NAME: hlr_expn                                                     *
     876              ;*                                                                             *
     877              ;*   Function Uses Regs : AC0,AC0,AC1,AC1,T0,T1,AR1,AR2,XAR2,AR3,XAR3,SP,CSR,  *
     878              ;*                        RPTC,CARRY,TC1,M40,SATA,SATD,RDM,FRCT,SMUL           *
     879              ;*   Stack Frame        : Compact (No Frame Pointer, w/ debug)                 *
     880              ;*   Total Frame Size   : 20 words                                             *
     881              ;*                        (2 return address/alignment)                         *
     882              ;*                        (18 local values)                                    *
     883              ;*   Min System Stack   : 1 word                                               *
     884              ;*******************************************************************************
     885 000000       _hlr_expn:
     886                      .dwcfi  cfa_offset, 1
     887                      .dwcfi  save_reg_to_mem, 91, -1
     888 000000 4EED          AADD #-19, SP
     889                      .dwcfi  cfa_offset, 20
     890              $C$DW$80        .dwtag  DW_TAG_variable, DW_AT_name("x")
     891                      .dwattr $C$DW$80, DW_AT_TI_symbol_name("_x")
     892                      .dwattr $C$DW$80, DW_AT_type(*$C$DW$T$8)
     893                      .dwattr $C$DW$80, DW_AT_location[DW_OP_bregx 0x24 0]
     894              $C$DW$81        .dwtag  DW_TAG_variable, DW_AT_name("qpt")
TMS320C55x Assembler PC v4.4.1 Wed Sep 13 16:33:14 2017

Tools Copyright (c) 1996-2012 Texas Instruments Incorporated
C:\Users\a0221074\AppData\Local\Temp\0730410                         PAGE   20

     895                      .dwattr $C$DW$81, DW_AT_TI_symbol_name("_qpt")
     896                      .dwattr $C$DW$81, DW_AT_type(*$C$DW$T$8)
     897                      .dwattr $C$DW$81, DW_AT_location[DW_OP_bregx 0x24 1]
     898              $C$DW$82        .dwtag  DW_TAG_variable, DW_AT_name("ln2e")
     899                      .dwattr $C$DW$82, DW_AT_TI_symbol_name("_ln2e")
     900                      .dwattr $C$DW$82, DW_AT_type(*$C$DW$T$8)
     901                      .dwattr $C$DW$82, DW_AT_location[DW_OP_bregx 0x24 2]
     902              $C$DW$83        .dwtag  DW_TAG_variable, DW_AT_name("coef_pow2")
     903                      .dwattr $C$DW$83, DW_AT_TI_symbol_name("_coef_pow2")
     904                      .dwattr $C$DW$83, DW_AT_type(*$C$DW$T$109)
     905                      .dwattr $C$DW$83, DW_AT_location[DW_OP_bregx 0x24 3]
     906              $C$DW$84        .dwtag  DW_TAG_variable, DW_AT_name("temp")
     907                      .dwattr $C$DW$84, DW_AT_TI_symbol_name("_temp")
     908                      .dwattr $C$DW$84, DW_AT_type(*$C$DW$T$12)
     909                      .dwattr $C$DW$84, DW_AT_location[DW_OP_bregx 0x24 8]
     910              $C$DW$85        .dwtag  DW_TAG_variable, DW_AT_name("itemp")
     911                      .dwattr $C$DW$85, DW_AT_TI_symbol_name("_itemp")
     912                      .dwattr $C$DW$85, DW_AT_type(*$C$DW$T$12)
     913                      .dwattr $C$DW$85, DW_AT_location[DW_OP_bregx 0x24 10]
     914              $C$DW$86        .dwtag  DW_TAG_variable, DW_AT_name("ftemp")
     915                      .dwattr $C$DW$86, DW_AT_TI_symbol_name("_ftemp")
     916                      .dwattr $C$DW$86, DW_AT_type(*$C$DW$T$13)
     917                      .dwattr $C$DW$86, DW_AT_location[DW_OP_bregx 0x24 12]
     918              $C$DW$87        .dwtag  DW_TAG_variable, DW_AT_name("result")
     919                      .dwattr $C$DW$87, DW_AT_TI_symbol_name("_result")
     920                      .dwattr $C$DW$87, DW_AT_type(*$C$DW$T$9)
     921                      .dwattr $C$DW$87, DW_AT_location[DW_OP_bregx 0x24 14]
     922              $C$DW$88        .dwtag  DW_TAG_variable, DW_AT_name("frac")
     923                      .dwattr $C$DW$88, DW_AT_TI_symbol_name("_frac")
     924                      .dwattr $C$DW$88, DW_AT_type(*$C$DW$T$8)
     925                      .dwattr $C$DW$88, DW_AT_location[DW_OP_bregx 0x24 15]
     926              $C$DW$89        .dwtag  DW_TAG_variable, DW_AT_name("s_temp")
     927                      .dwattr $C$DW$89, DW_AT_TI_symbol_name("_s_temp")
     928                      .dwattr $C$DW$89, DW_AT_type(*$C$DW$T$8)
     929                      .dwattr $C$DW$89, DW_AT_location[DW_OP_bregx 0x24 16]
     930              $C$DW$90        .dwtag  DW_TAG_variable, DW_AT_name("coef")
     931                      .dwattr $C$DW$90, DW_AT_TI_symbol_name("_coef")
     932                      .dwattr $C$DW$90, DW_AT_type(*$C$DW$T$8)
     933                      .dwattr $C$DW$90, DW_AT_location[DW_OP_bregx 0x24 17]
     934 000002 C502          MOV T1, *SP(#1) ; |185| 
     935 000004 C400          MOV T0, *SP(#0) ; |185| 
     936                      .dwpsn  file "C:/Users/a0221074/Desktop/C5000/IBM_Watson_TIdesign_workarea/CSL_bitbucket/c55_csl/c55x
     937 000006 FB04          MOV #23637, *SP(#2) ; |187| 
         000008 5C55 
     938                      .dwpsn  file "C:/Users/a0221074/Desktop/C5000/IBM_Watson_TIdesign_workarea/CSL_bitbucket/c55_csl/c55x
     939 00000a EC31          AMOV #_$P$T0$1, XAR3 ; |190| 
         00000c BE00 
         00000e 0000+
     940              
     941 000013 4D04          RPT #4    ; |190| 
     942 000010 EC06  ||      AMAR *SP(#3), XAR2
         000012 AE   
     943              
     944                                                          ; loop starts ; |190| 
     945 000015       $C$L22:    
TMS320C55x Assembler PC v4.4.1 Wed Sep 13 16:33:14 2017

Tools Copyright (c) 1996-2012 Texas Instruments Incorporated
C:\Users\a0221074\AppData\Local\Temp\0730410                         PAGE   21

     946 000015       $C$DW$L$_hlr_expn$2$B:
     947 000015 8065              MOV *AR3+, *AR2+ ; |190| 
         000017 14   
     948                                                      ; loop ends ; |190| 
     949 000018       $C$DW$L$_hlr_expn$2$E:
     950 000018       $C$L23:    
     951                      .dwpsn  file "C:/Users/a0221074/Desktop/C5000/IBM_Watson_TIdesign_workarea/CSL_bitbucket/c55_csl/c55x
     952 000018 A500          MOV *SP(#0), T1 ; |200| 
     953 00001a D304          MPYM *SP(#2), T1, AC0 ; |200| 
         00001c 05   
     954 00001d EB10          MOV AC0, dbl(*SP(#8)) ; |200| 
         00001f 08   
     955                      .dwpsn  file "C:/Users/a0221074/Desktop/C5000/IBM_Watson_TIdesign_workarea/CSL_bitbucket/c55_csl/c55x
     956 000020 ED10          MOV dbl(*SP(#8)), AC0 ; |203| 
         000022 08   
     957 000023 3400          NEG AC0, AC0 ; |203| 
     958 000025 EB10          MOV AC0, dbl(*SP(#8)) ; |203| 
         000027 08   
     959                      .dwpsn  file "C:/Users/a0221074/Desktop/C5000/IBM_Watson_TIdesign_workarea/CSL_bitbucket/c55_csl/c55x
     960 000028 A902          MOV *SP(#1), AR1 ; |209| 
     961 00002a 40E9          ADD #14, AR1 ; |209| 
     962 00002c 2290          MOV AR1, AC0
     963 00002e 3400          NEG AC0, AC0 ; |209| 
     964              
     965 000030 ED10          MOV dbl(*SP(#8)), AC0 ; |209| 
         000032 08   
     966 000033 2305  ||      MOV AC0, T1 ; |209| 
     967              
     968 000035 5C05          SFTS AC0, T1, AC0 ; |209| 
     969 000037 EB14          MOV AC0, dbl(*SP(#10)) ; |209| 
         000039 08   
     970                      .dwpsn  file "C:/Users/a0221074/Desktop/C5000/IBM_Watson_TIdesign_workarea/CSL_bitbucket/c55_csl/c55x
     971 00003a ED14          MOV dbl(*SP(#10)), AC1 ; |210| 
         00003c 18   
     972 00003d 7600          MOV #16, AC0 ; |210| 
         00003f 1008 
     973 000041 1214          CMP AC1 < AC0, TC1 ; |210| 
         000043 00   
     974 000044 62E4          BCC $C$L24,TC1 ; |210| 
     975                                                      ; branchcc occurs ; |210| 
     976                      .dwpsn  file "C:/Users/a0221074/Desktop/C5000/IBM_Watson_TIdesign_workarea/CSL_bitbucket/c55_csl/c55x
     977 000046 3C00          MOV #0, AC0
     978 000048 0600          B $C$L30  ; |211| 
         00004a EF   
     979                                                      ; branch occurs ; |211| 
     980 00004b       $C$L24:    
     981                      .dwpsn  file "C:/Users/a0221074/Desktop/C5000/IBM_Watson_TIdesign_workarea/CSL_bitbucket/c55_csl/c55x
     982 00004b A916          MOV *SP(#11), AR1 ; |214| 
     983 00004d C920          MOV AR1, *SP(#16) ; |214| 
     984                      .dwpsn  file "C:/Users/a0221074/Desktop/C5000/IBM_Watson_TIdesign_workarea/CSL_bitbucket/c55_csl/c55x
     985 00004f A020          MOV *SP(#16), AC0 ; |215| 
     986 000051 3400          NEG AC0, AC0 ; |215| 
     987              
     988 000053 3C00          MOV #0, AC0 ; |215| 
     989 000055 2305  ||      MOV AC0, T1 ; |215| 
TMS320C55x Assembler PC v4.4.1 Wed Sep 13 16:33:14 2017

Tools Copyright (c) 1996-2012 Texas Instruments Incorporated
C:\Users\a0221074\AppData\Local\Temp\0730410                         PAGE   22

     990              
     991 000057 7E80          OR #0x8000, AC0, AC0 ; |215| 
         000059 0000 
     992 00005b 5C05          SFTS AC0, T1, AC0 ; |215| 
     993 00005d C01C          MOV AC0, *SP(#14) ; |215| 
     994                      .dwpsn  file "C:/Users/a0221074/Desktop/C5000/IBM_Watson_TIdesign_workarea/CSL_bitbucket/c55_csl/c55x
     995 00005f A502          MOV *SP(#1), T1 ; |219| 
     996              
     997 000061 ED14          MOV dbl(*SP(#10)), AC0 ; |219| 
         000063 08   
     998 000064 41E5  ||      ADD #14, T1 ; |219| 
     999              
    1000 000066 5C05          SFTS AC0, T1, AC0 ; |219| 
    1001 000068 EB18          MOV AC0, dbl(*SP(#12)) ; |219| 
         00006a 08   
    1002                      .dwpsn  file "C:/Users/a0221074/Desktop/C5000/IBM_Watson_TIdesign_workarea/CSL_bitbucket/c55_csl/c55x
    1003 00006b ED18          MOV dbl(*SP(#12)), AC0 ; |220| 
         00006d 08   
    1004              
    1005 000071 3700          NOT AC0, AC0 ; |220| 
    1006 00006e ED10  ||      MOV dbl(*SP(#8)), AC1 ; |220| 
         000070 18   
    1007              
    1008 000073 2810          AND AC1, AC0 ; |220| 
    1009 000075 EB18          MOV AC0, dbl(*SP(#12)) ; |220| 
         000077 08   
    1010                      .dwpsn  file "C:/Users/a0221074/Desktop/C5000/IBM_Watson_TIdesign_workarea/CSL_bitbucket/c55_csl/c55x
    1011 000078 A902          MOV *SP(#1), AR1 ; |221| 
    1012              
    1013 00007a 40E9          ADD #14, AR1 ; |221| 
    1014 00007c 3DFA  ||      MOV #15, AR2
    1015              
    1016 00007e 12A4          CMP AR1 > AR2, TC1 ; |221| 
         000080 90   
    1017 000081 0464          BCC $C$L25,TC1 ; |221| 
         000083 11   
    1018                                                      ; branchcc occurs ; |221| 
    1019                      .dwpsn  file "C:/Users/a0221074/Desktop/C5000/IBM_Watson_TIdesign_workarea/CSL_bitbucket/c55_csl/c55x
    1020 000084 3CF9          MOV #15, AR1
    1021 000086 D702          SUB *SP(#1), AR1, T1 ; |223| 
         000088 59   
    1022              
    1023 00008c 43E5          SUB #14, T1 ; |223| 
    1024 000089 ED18  ||      MOV dbl(*SP(#12)), AC0 ; |223| 
         00008b 08   
    1025              
    1026 00008e 5C04          SFTL AC0, T1, AC0 ; |223| 
    1027 000090 EB18          MOV AC0, dbl(*SP(#12)) ; |223| 
         000092 08   
    1028                      .dwpsn  file "C:/Users/a0221074/Desktop/C5000/IBM_Watson_TIdesign_workarea/CSL_bitbucket/c55_csl/c55x
    1029 000093 4A1E          B $C$L26  ; |224| 
    1030                                                      ; branch occurs ; |224| 
    1031 000095       $C$L25:    
    1032                      .dwpsn  file "C:/Users/a0221074/Desktop/C5000/IBM_Watson_TIdesign_workarea/CSL_bitbucket/c55_csl/c55x
    1033 000095 A502          MOV *SP(#1), T1 ; |227| 
TMS320C55x Assembler PC v4.4.1 Wed Sep 13 16:33:14 2017

Tools Copyright (c) 1996-2012 Texas Instruments Incorporated
C:\Users\a0221074\AppData\Local\Temp\0730410                         PAGE   23

    1034              
    1035 000097 4225          SUB #2, T1 ; |227| 
    1036 000099 3D10  ||      MOV #1, AC0
    1037              
    1038 00009b 5C05          SFTS AC0, T1, AC0 ; |227| 
    1039 00009d A010          MOV mmap(AC0L), AC0 ; |227| 
         00009f 98   
    1040 0000a0 ED18          ADD dbl(*SP(#12)), AC0, AC0 ; |227| 
         0000a2 00   
    1041 0000a3 EB18          MOV AC0, dbl(*SP(#12)) ; |227| 
         0000a5 08   
    1042                      .dwpsn  file "C:/Users/a0221074/Desktop/C5000/IBM_Watson_TIdesign_workarea/CSL_bitbucket/c55_csl/c55x
    1043              
    1044 0000a6 ED18          MOV dbl(*SP(#12)), AC0 ; |228| 
         0000a8 08   
    1045 0000a9 3D19  ||      MOV #1, AR1
    1046              
    1047 0000ab D702          SUB *SP(#1), AR1, T1 ; |228| 
         0000ad 59   
    1048 0000ae 5C04          SFTL AC0, T1, AC0 ; |228| 
    1049 0000b0 EB18          MOV AC0, dbl(*SP(#12)) ; |228| 
         0000b2 08   
    1050 0000b3       $C$L26:    
    1051                      .dwpsn  file "C:/Users/a0221074/Desktop/C5000/IBM_Watson_TIdesign_workarea/CSL_bitbucket/c55_csl/c55x
    1052 0000b3 A91A          MOV *SP(#13), AR1 ; |232| 
    1053 0000b5 C91E          MOV AR1, *SP(#15) ; |232| 
    1054                      .dwpsn  file "C:/Users/a0221074/Desktop/C5000/IBM_Watson_TIdesign_workarea/CSL_bitbucket/c55_csl/c55x
    1055 0000b7 7640          MOV #16384, AR2 ; |233| 
         0000b9 00A8 
    1056 0000bb 1294          CMP AR1 < AR2, TC1 ; |233| 
         0000bd A0   
    1057 0000be 0464          BCC $C$L27,TC1 ; |233| 
         0000c0 11   
    1058                                                      ; branchcc occurs ; |233| 
    1059                      .dwpsn  file "C:/Users/a0221074/Desktop/C5000/IBM_Watson_TIdesign_workarea/CSL_bitbucket/c55_csl/c55x
    1060 0000c1 A91C          MOV *SP(#14), AR1 ; |235| 
    1061 0000c3 5091          SFTL AR1, #-1 ; |235| 
    1062 0000c5 C91C          MOV AR1, *SP(#14) ; |235| 
    1063                      .dwpsn  file "C:/Users/a0221074/Desktop/C5000/IBM_Watson_TIdesign_workarea/CSL_bitbucket/c55_csl/c55x
    1064 0000c7 3C00          MOV #0, AC0 ; |236| 
    1065 0000c9 7E80          OR #0x8000, AC0, AC0 ; |236| 
         0000cb 0000 
    1066 0000cd D81E          SUB AC0, *SP(#15), AC0 ; |236| 
         0000cf 00   
    1067 0000d0 C01E          MOV AC0, *SP(#15) ; |236| 
    1068 0000d2       $C$L27:    
    1069                      .dwpsn  file "C:/Users/a0221074/Desktop/C5000/IBM_Watson_TIdesign_workarea/CSL_bitbucket/c55_csl/c55x
    1070 0000d2 A91E          MOV *SP(#15), AR1 ; |238| 
    1071 0000d4 3499          NEG AR1, AR1 ; |238| 
    1072 0000d6 C91E          MOV AR1, *SP(#15) ; |238| 
    1073                      .dwpsn  file "C:/Users/a0221074/Desktop/C5000/IBM_Watson_TIdesign_workarea/CSL_bitbucket/c55_csl/c55x
    1074 0000d8 A906          MOV *SP(#3), AR1 ; |241| 
    1075 0000da C920          MOV AR1, *SP(#16) ; |241| 
    1076                      .dwpsn  file "C:/Users/a0221074/Desktop/C5000/IBM_Watson_TIdesign_workarea/CSL_bitbucket/c55_csl/c55x
    1077 0000dc E622          MOV #1, *SP(#17) ; |242| 
TMS320C55x Assembler PC v4.4.1 Wed Sep 13 16:33:14 2017

Tools Copyright (c) 1996-2012 Texas Instruments Incorporated
C:\Users\a0221074\AppData\Local\Temp\0730410                         PAGE   24

         0000de 01   
    1078                      .dwpsn  file "C:/Users/a0221074/Desktop/C5000/IBM_Watson_TIdesign_workarea/CSL_bitbucket/c55_csl/c55x
    1079              
    1080 0000df A922          MOV *SP(#17), AR1 ; |242| 
    1081 0000e1 3D5A  ||      MOV #5, AR2
    1082              
    1083 0000e3 1298          CMP AR1 >= AR2, TC1 ; |242| 
         0000e5 A0   
    1084 0000e6 0464          BCC $C$L29,TC1 ; |242| 
         0000e8 39   
    1085                                                      ; branchcc occurs ; |242| 
    1086 0000e9       $C$L28:    
    1087 0000e9       $C$DW$L$_hlr_expn$11$B:
    1088                      .dwpsn  file "C:/Users/a0221074/Desktop/C5000/IBM_Watson_TIdesign_workarea/CSL_bitbucket/c55_csl/c55x
    1089 0000e9 A51E          MOV *SP(#15), T1 ; |245| 
    1090 0000eb D320          MPYM *SP(#16), T1, AC0 ; |245| 
         0000ed 05   
    1091 0000ee EB10          MOV AC0, dbl(*SP(#8)) ; |245| 
         0000f0 08   
    1092                      .dwpsn  file "C:/Users/a0221074/Desktop/C5000/IBM_Watson_TIdesign_workarea/CSL_bitbucket/c55_csl/c55x
    1093 0000f1 A422          MOV *SP(#17), T0 ; |246| 
    1094 0000f3 EC06          AMAR *SP(#3), XAR3
         0000f5 BE   
    1095 0000f6 ED10          MOV dbl(*SP(#8)), AC0 ; |246| 
         0000f8 08   
    1096 0000f9 A16B          MOV *AR3(T0), AC1 ; |246| 
    1097 0000fb 1013          ADD AC1 << #15, AC0 ; |246| 
         0000fd 0F   
    1098 0000fe EB10          MOV AC0, dbl(*SP(#8)) ; |246| 
         000100 08   
    1099                      .dwpsn  file "C:/Users/a0221074/Desktop/C5000/IBM_Watson_TIdesign_workarea/CSL_bitbucket/c55_csl/c55x
    1100 000101 7640          MOV #16384, AC0 ; |249| 
         000103 0008 
    1101 000105 ED10          ADD dbl(*SP(#8)), AC0, AC0 ; |249| 
         000107 00   
    1102 000108 EB10          MOV AC0, dbl(*SP(#8)) ; |249| 
         00010a 08   
    1103                      .dwpsn  file "C:/Users/a0221074/Desktop/C5000/IBM_Watson_TIdesign_workarea/CSL_bitbucket/c55_csl/c55x
    1104 00010b ED10          MOV dbl(*SP(#8)), AC0 ; |250| 
         00010d 08   
    1105 00010e 1005          SFTS AC0, #-15, AC0 ; |250| 
         000110 31   
    1106 000111 EB10          MOV AC0, dbl(*SP(#8)) ; |250| 
         000113 08   
    1107 000114 C020          MOV AC0, *SP(#16) ; |250| 
    1108                      .dwpsn  file "C:/Users/a0221074/Desktop/C5000/IBM_Watson_TIdesign_workarea/CSL_bitbucket/c55_csl/c55x
    1109 000116 F722          ADD #1, *SP(#17) ; |242| 
         000118 0001 
    1110                      .dwpsn  file "C:/Users/a0221074/Desktop/C5000/IBM_Watson_TIdesign_workarea/CSL_bitbucket/c55_csl/c55x
    1111 00011a A922          MOV *SP(#17), AR1 ; |242| 
    1112 00011c 1294          CMP AR1 < AR2, TC1 ; |242| 
         00011e A0   
    1113 00011f 0464          BCC $C$L28,TC1 ; |242| 
         000121 C7   
    1114                                                      ; branchcc occurs ; |242| 
TMS320C55x Assembler PC v4.4.1 Wed Sep 13 16:33:14 2017

Tools Copyright (c) 1996-2012 Texas Instruments Incorporated
C:\Users\a0221074\AppData\Local\Temp\0730410                         PAGE   25

    1115 000122       $C$DW$L$_hlr_expn$11$E:
    1116 000122       $C$L29:    
    1117                      .dwpsn  file "C:/Users/a0221074/Desktop/C5000/IBM_Watson_TIdesign_workarea/CSL_bitbucket/c55_csl/c55x
    1118 000122 A520          MOV *SP(#16), T1 ; |254| 
    1119 000124 D31C          MPYMU *SP(#14), T1, AC0 ; |254| 
         000126 0D   
    1120 000127 EB10          MOV AC0, dbl(*SP(#8)) ; |254| 
         000129 08   
    1121                      .dwpsn  file "C:/Users/a0221074/Desktop/C5000/IBM_Watson_TIdesign_workarea/CSL_bitbucket/c55_csl/c55x
    1122 00012a 7620          MOV #8192, AC0 ; |257| 
         00012c 0008 
    1123 00012e ED10          ADD dbl(*SP(#8)), AC0, AC0 ; |257| 
         000130 00   
    1124 000131 EB10          MOV AC0, dbl(*SP(#8)) ; |257| 
         000133 08   
    1125                      .dwpsn  file "C:/Users/a0221074/Desktop/C5000/IBM_Watson_TIdesign_workarea/CSL_bitbucket/c55_csl/c55x
    1126 000134 ED10          MOV dbl(*SP(#8)), AC0 ; |258| 
         000136 08   
    1127 000137 1005          SFTS AC0, #-14, AC0 ; |258| 
         000139 32   
    1128 00013a       $C$L30:    
    1129                      .dwpsn  file "C:/Users/a0221074/Desktop/C5000/IBM_Watson_TIdesign_workarea/CSL_bitbucket/c55_csl/c55x
    1130 00013a 2204          MOV AC0, T0 ; |258| 
    1131 00013c 4E13          AADD #19, SP ; |258| 
    1132                      .dwcfi  cfa_offset, 1
    1133              $C$DW$91        .dwtag  DW_TAG_TI_branch
    1134                      .dwattr $C$DW$91, DW_AT_low_pc(0x00)
    1135                      .dwattr $C$DW$91, DW_AT_TI_return
    1136 00013e 4804          RET       ; |258| 
    1137                                                      ; return occurs ; |258| 
    1138              
    1139              $C$DW$92        .dwtag  DW_TAG_TI_loop
    1140                      .dwattr $C$DW$92, DW_AT_name("C:\\Users\\a0221074\\AppData\\Local\\Temp\\0730410:$C$L28:1:1505334792"
    1141                      .dwattr $C$DW$92, DW_AT_TI_begin_file("C:/Users/a0221074/Desktop/C5000/IBM_Watson_TIdesign_workarea/C
    1142                      .dwattr $C$DW$92, DW_AT_TI_begin_line(0xf2)
    1143                      .dwattr $C$DW$92, DW_AT_TI_end_line(0xfb)
    1144              $C$DW$93        .dwtag  DW_TAG_TI_loop_range
    1145                      .dwattr $C$DW$93, DW_AT_low_pc($C$DW$L$_hlr_expn$11$B)
    1146                      .dwattr $C$DW$93, DW_AT_high_pc($C$DW$L$_hlr_expn$11$E)
    1147                      .dwendtag $C$DW$92
    1148              
    1149              
    1150              $C$DW$94        .dwtag  DW_TAG_TI_loop
    1151                      .dwattr $C$DW$94, DW_AT_name("C:\\Users\\a0221074\\AppData\\Local\\Temp\\0730410:$C$L22:1:1505334792"
    1152                      .dwattr $C$DW$94, DW_AT_TI_begin_file("C:/Users/a0221074/Desktop/C5000/IBM_Watson_TIdesign_workarea/C
    1153                      .dwattr $C$DW$94, DW_AT_TI_begin_line(0xbe)
    1154                      .dwattr $C$DW$94, DW_AT_TI_end_line(0xbe)
    1155              $C$DW$95        .dwtag  DW_TAG_TI_loop_range
    1156                      .dwattr $C$DW$95, DW_AT_low_pc($C$DW$L$_hlr_expn$2$B)
    1157                      .dwattr $C$DW$95, DW_AT_high_pc($C$DW$L$_hlr_expn$2$E)
    1158                      .dwendtag $C$DW$94
    1159              
    1160                      .dwattr $C$DW$77, DW_AT_TI_end_file("C:/Users/a0221074/Desktop/C5000/IBM_Watson_TIdesign_workarea/CSL
    1161                      .dwattr $C$DW$77, DW_AT_TI_end_line(0x103)
    1162                      .dwattr $C$DW$77, DW_AT_TI_end_column(0x01)
TMS320C55x Assembler PC v4.4.1 Wed Sep 13 16:33:14 2017

Tools Copyright (c) 1996-2012 Texas Instruments Incorporated
C:\Users\a0221074\AppData\Local\Temp\0730410                         PAGE   26

    1163                      .dwendentry
    1164                      .dwendtag $C$DW$77
    1165              
    1166 000000               .sect   ".text:_hlr_expn_q"
    1167                      .clink
    1168                      .global _hlr_expn_q
    1169              
    1170              $C$DW$96        .dwtag  DW_TAG_subprogram, DW_AT_name("hlr_expn_q")
    1171                      .dwattr $C$DW$96, DW_AT_low_pc(_hlr_expn_q)
    1172                      .dwattr $C$DW$96, DW_AT_high_pc(0x00)
    1173                      .dwattr $C$DW$96, DW_AT_TI_symbol_name("_hlr_expn_q")
    1174                      .dwattr $C$DW$96, DW_AT_external
    1175                      .dwattr $C$DW$96, DW_AT_type(*$C$DW$T$9)
    1176                      .dwattr $C$DW$96, DW_AT_TI_begin_file("C:/Users/a0221074/Desktop/C5000/IBM_Watson_TIdesign_workarea/C
    1177                      .dwattr $C$DW$96, DW_AT_TI_begin_line(0x10b)
    1178                      .dwattr $C$DW$96, DW_AT_TI_begin_column(0x10)
    1179                      .dwattr $C$DW$96, DW_AT_TI_max_frame_size(0x0c)
    1180                      .dwpsn  file "C:/Users/a0221074/Desktop/C5000/IBM_Watson_TIdesign_workarea/CSL_bitbucket/c55_csl/c55x
    1181              
    1182                      .dwfde $C$DW$CIE, _hlr_expn_q
    1183              $C$DW$97        .dwtag  DW_TAG_formal_parameter, DW_AT_name("x")
    1184                      .dwattr $C$DW$97, DW_AT_TI_symbol_name("_x")
    1185                      .dwattr $C$DW$97, DW_AT_type(*$C$DW$T$8)
    1186                      .dwattr $C$DW$97, DW_AT_location[DW_OP_reg12]
    1187              $C$DW$98        .dwtag  DW_TAG_formal_parameter, DW_AT_name("qpt")
    1188                      .dwattr $C$DW$98, DW_AT_TI_symbol_name("_qpt")
    1189                      .dwattr $C$DW$98, DW_AT_type(*$C$DW$T$8)
    1190                      .dwattr $C$DW$98, DW_AT_location[DW_OP_reg13]
    1191              $C$DW$99        .dwtag  DW_TAG_formal_parameter, DW_AT_name("rNorm")
    1192                      .dwattr $C$DW$99, DW_AT_TI_symbol_name("_rNorm")
    1193                      .dwattr $C$DW$99, DW_AT_type(*$C$DW$T$21)
    1194                      .dwattr $C$DW$99, DW_AT_location[DW_OP_reg17]
    1195              ;*******************************************************************************
    1196              ;* FUNCTION NAME: hlr_expn_q                                                   *
    1197              ;*                                                                             *
    1198              ;*   Function Uses Regs : AC0,AC0,AC1,AC1,T0,T1,AR0,XAR0,AR1,AR3,XAR3,SP,CARRY,*
    1199              ;*                        TC1,M40,SATA,SATD,RDM,FRCT,SMUL                      *
    1200              ;*   Stack Frame        : Compact (No Frame Pointer, w/ debug)                 *
    1201              ;*   Total Frame Size   : 12 words                                             *
    1202              ;*                        (2 return address/alignment)                         *
    1203              ;*                        (10 local values)                                    *
    1204              ;*   Min System Stack   : 1 word                                               *
    1205              ;*******************************************************************************
    1206 000000       _hlr_expn_q:
    1207                      .dwcfi  cfa_offset, 1
    1208                      .dwcfi  save_reg_to_mem, 91, -1
    1209 000000 4EF5          AADD #-11, SP
    1210                      .dwcfi  cfa_offset, 12
    1211              $C$DW$100       .dwtag  DW_TAG_variable, DW_AT_name("x")
    1212                      .dwattr $C$DW$100, DW_AT_TI_symbol_name("_x")
    1213                      .dwattr $C$DW$100, DW_AT_type(*$C$DW$T$8)
    1214                      .dwattr $C$DW$100, DW_AT_location[DW_OP_bregx 0x24 0]
    1215              $C$DW$101       .dwtag  DW_TAG_variable, DW_AT_name("qpt")
    1216                      .dwattr $C$DW$101, DW_AT_TI_symbol_name("_qpt")
    1217                      .dwattr $C$DW$101, DW_AT_type(*$C$DW$T$8)
TMS320C55x Assembler PC v4.4.1 Wed Sep 13 16:33:14 2017

Tools Copyright (c) 1996-2012 Texas Instruments Incorporated
C:\Users\a0221074\AppData\Local\Temp\0730410                         PAGE   27

    1218                      .dwattr $C$DW$101, DW_AT_location[DW_OP_bregx 0x24 1]
    1219              $C$DW$102       .dwtag  DW_TAG_variable, DW_AT_name("rNorm")
    1220                      .dwattr $C$DW$102, DW_AT_TI_symbol_name("_rNorm")
    1221                      .dwattr $C$DW$102, DW_AT_type(*$C$DW$T$21)
    1222                      .dwattr $C$DW$102, DW_AT_location[DW_OP_bregx 0x24 2]
    1223              $C$DW$103       .dwtag  DW_TAG_variable, DW_AT_name("tmpx")
    1224                      .dwattr $C$DW$103, DW_AT_TI_symbol_name("_tmpx")
    1225                      .dwattr $C$DW$103, DW_AT_type(*$C$DW$T$20)
    1226                      .dwattr $C$DW$103, DW_AT_location[DW_OP_bregx 0x24 4]
    1227              $C$DW$104       .dwtag  DW_TAG_variable, DW_AT_name("norm")
    1228                      .dwattr $C$DW$104, DW_AT_TI_symbol_name("_norm")
    1229                      .dwattr $C$DW$104, DW_AT_type(*$C$DW$T$8)
    1230                      .dwattr $C$DW$104, DW_AT_location[DW_OP_bregx 0x24 5]
    1231              $C$DW$105       .dwtag  DW_TAG_variable, DW_AT_name("ltmp")
    1232                      .dwattr $C$DW$105, DW_AT_TI_symbol_name("_ltmp")
    1233                      .dwattr $C$DW$105, DW_AT_type(*$C$DW$T$12)
    1234                      .dwattr $C$DW$105, DW_AT_location[DW_OP_bregx 0x24 6]
    1235              $C$DW$106       .dwtag  DW_TAG_variable, DW_AT_name("lnum")
    1236                      .dwattr $C$DW$106, DW_AT_TI_symbol_name("_lnum")
    1237                      .dwattr $C$DW$106, DW_AT_type(*$C$DW$T$12)
    1238                      .dwattr $C$DW$106, DW_AT_location[DW_OP_bregx 0x24 8]
    1239 000002 EB04          MOV XAR0, dbl(*SP(#2))
         000004 85   
    1240 000005 C502          MOV T1, *SP(#1) ; |268| 
    1241 000007 C400          MOV T0, *SP(#0) ; |268| 
    1242                      .dwpsn  file "C:/Users/a0221074/Desktop/C5000/IBM_Watson_TIdesign_workarea/CSL_bitbucket/c55_csl/c55x
    1243 000009 7A40          MOV #16384 << #16, AC0 ; |271| 
         00000b 000A 
    1244 00000d EB10          MOV AC0, dbl(*SP(#8)) ; |271| 
         00000f 08   
    1245                      .dwpsn  file "C:/Users/a0221074/Desktop/C5000/IBM_Watson_TIdesign_workarea/CSL_bitbucket/c55_csl/c55x
    1246 000010 ED04          MOV dbl(*SP(#2)), XAR3
         000012 BF   
    1247 000013 E661          MOV #15, *AR3 ; |273| 
         000015 0F   
    1248                      .dwpsn  file "C:/Users/a0221074/Desktop/C5000/IBM_Watson_TIdesign_workarea/CSL_bitbucket/c55_csl/c55x
    1249 000016 A900          MOV *SP(#0), AR1 ; |275| 
    1250 000018 6399          BCC $C$L31,AR1 != #0 ; |275| 
    1251                                                      ; branchcc occurs ; |275| 
    1252                      .dwpsn  file "C:/Users/a0221074/Desktop/C5000/IBM_Watson_TIdesign_workarea/CSL_bitbucket/c55_csl/c55x
    1253 00001a 7680          MOV #32768, T0 ; |276| 
         00001c 0048 
    1254 00001e 0600          B $C$L40  ; |276| 
         000020 98   
    1255                                                      ; branch occurs ; |276| 
    1256 000021       $C$L31:    
    1257                      .dwpsn  file "C:/Users/a0221074/Desktop/C5000/IBM_Watson_TIdesign_workarea/CSL_bitbucket/c55_csl/c55x
    1258 000021 65D9          BCC $C$L32,AR1 >= #0 ; |278| 
    1259                                                      ; branchcc occurs ; |278| 
    1260                      .dwpsn  file "C:/Users/a0221074/Desktop/C5000/IBM_Watson_TIdesign_workarea/CSL_bitbucket/c55_csl/c55x
    1261 000023 A502          MOV *SP(#1), T1 ; |279| 
    1262              $C$DW$107       .dwtag  DW_TAG_TI_branch
    1263                      .dwattr $C$DW$107, DW_AT_low_pc(0x00)
    1264                      .dwattr $C$DW$107, DW_AT_name("_hlr_expn")
    1265                      .dwattr $C$DW$107, DW_AT_TI_call
TMS320C55x Assembler PC v4.4.1 Wed Sep 13 16:33:14 2017

Tools Copyright (c) 1996-2012 Texas Instruments Incorporated
C:\Users\a0221074\AppData\Local\Temp\0730410                         PAGE   28

    1266              
    1267 000025 6C00          CALL #_hlr_expn ; |279| 
         000027 0000+
    1268 000029 2394  ||      MOV AR1, T0
    1269              
    1270                                                      ; call occurs [#_hlr_expn] ; |279| 
    1271 00002b 0600          B $C$L40  ; |279| 
         00002d 8B   
    1272                                                      ; branch occurs ; |279| 
    1273 00002e       $C$L32:    
    1274                      .dwpsn  file "C:/Users/a0221074/Desktop/C5000/IBM_Watson_TIdesign_workarea/CSL_bitbucket/c55_csl/c55x
    1275 00002e A502          MOV *SP(#1), T1 ; |281| 
    1276              $C$DW$108       .dwtag  DW_TAG_TI_branch
    1277                      .dwattr $C$DW$108, DW_AT_low_pc(0x00)
    1278                      .dwattr $C$DW$108, DW_AT_name("_hlr_expn")
    1279                      .dwattr $C$DW$108, DW_AT_TI_call
    1280              
    1281 000030 6C00          CALL #_hlr_expn ; |281| 
         000032 0000+
    1282 000034 3594  ||      NEG AR1, T0 ; |281| 
    1283              
    1284                                                      ; call occurs [#_hlr_expn] ; |281| 
    1285 000036 C408          MOV T0, *SP(#4) ; |281| 
    1286                      .dwpsn  file "C:/Users/a0221074/Desktop/C5000/IBM_Watson_TIdesign_workarea/CSL_bitbucket/c55_csl/c55x
    1287 000038 2249          MOV T0, AR1
    1288 00003a 6519          BCC $C$L33,AR1 != #0 ; |282| 
    1289                                                      ; branchcc occurs ; |282| 
    1290                      .dwpsn  file "C:/Users/a0221074/Desktop/C5000/IBM_Watson_TIdesign_workarea/CSL_bitbucket/c55_csl/c55x
    1291 00003c FB08          MOV #32768, *SP(#4) ; |283| 
         00003e 8000 
    1292                      .dwpsn  file "C:/Users/a0221074/Desktop/C5000/IBM_Watson_TIdesign_workarea/CSL_bitbucket/c55_csl/c55x
    1293 000040 E60A          MOV #0, *SP(#5) ; |283| 
         000042 00   
    1294                      .dwpsn  file "C:/Users/a0221074/Desktop/C5000/IBM_Watson_TIdesign_workarea/CSL_bitbucket/c55_csl/c55x
    1295 000043 0600          B $C$L39  ; |284| 
         000045 6A   
    1296                                                      ; branch occurs ; |284| 
    1297 000046       $C$L33:    
    1298                      .dwpsn  file "C:/Users/a0221074/Desktop/C5000/IBM_Watson_TIdesign_workarea/CSL_bitbucket/c55_csl/c55x
    1299 000046 DF08          MOV uns(*SP(#4)), AC1 ; |285| 
         000048 15   
    1300 000049 ED10          MOV dbl(*SP(#8)), AC0 ; |285| 
         00004b 08   
    1301              $C$DW$109       .dwtag  DW_TAG_TI_branch
    1302                      .dwattr $C$DW$109, DW_AT_low_pc(0x00)
    1303                      .dwattr $C$DW$109, DW_AT_name("__divli")
    1304                      .dwattr $C$DW$109, DW_AT_TI_call
    1305 00004c 6C00          CALL #__divli ; |285| 
         00004e 0000!
    1306                                                      ; call occurs [#__divli] ; |285| 
    1307 000050 EB0C          MOV AC0, dbl(*SP(#6)) ; |285| 
         000052 08   
    1308                      .dwpsn  file "C:/Users/a0221074/Desktop/C5000/IBM_Watson_TIdesign_workarea/CSL_bitbucket/c55_csl/c55x
    1309 000053 E60A          MOV #15, *SP(#5) ; |286| 
         000055 0F   
TMS320C55x Assembler PC v4.4.1 Wed Sep 13 16:33:14 2017

Tools Copyright (c) 1996-2012 Texas Instruments Incorporated
C:\Users\a0221074\AppData\Local\Temp\0730410                         PAGE   29

    1310                      .dwpsn  file "C:/Users/a0221074/Desktop/C5000/IBM_Watson_TIdesign_workarea/CSL_bitbucket/c55_csl/c55x
    1311 000056 3C00          MOV #0, AC0 ; |287| 
    1312 000058 7E80          OR #0x8000, AC0, AC0 ; |287| 
         00005a 0000 
    1313 00005c ED0C          MOV dbl(*SP(#6)), AC1 ; |287| 
         00005e 18   
    1314 00005f 1208          CMP AC1 <= AC0, TC1 ; |287| 
         000061 10   
    1315 000062 0464          BCC $C$L35,TC1 ; |287| 
         000064 1B   
    1316                                                      ; branchcc occurs ; |287| 
    1317 000065       $C$L34:    
    1318 000065       $C$DW$L$_hlr_expn_q$9$B:
    1319                      .dwpsn  file "C:/Users/a0221074/Desktop/C5000/IBM_Watson_TIdesign_workarea/CSL_bitbucket/c55_csl/c55x
    1320 000065 ED0C          MOV dbl(*SP(#6)), AC0 ; |287| 
         000067 08   
    1321 000068 4440          SFTS AC0, #-1 ; |287| 
    1322 00006a EB0C          MOV AC0, dbl(*SP(#6)) ; |287| 
         00006c 08   
    1323                      .dwpsn  file "C:/Users/a0221074/Desktop/C5000/IBM_Watson_TIdesign_workarea/CSL_bitbucket/c55_csl/c55x
    1324 00006d F70A          SUB #1, *SP(#5) ; |287| 
         00006f FFFF 
    1325                      .dwpsn  file "C:/Users/a0221074/Desktop/C5000/IBM_Watson_TIdesign_workarea/CSL_bitbucket/c55_csl/c55x
    1326              
    1327 000074 3D00          MOV #0, AC0 ; |287| 
    1328 000071 ED0C  ||      MOV dbl(*SP(#6)), AC1 ; |287| 
         000073 18   
    1329              
    1330 000076 7E80          OR #0x8000, AC0, AC0 ; |287| 
         000078 0000 
    1331 00007a 1204          CMP AC1 > AC0, TC1 ; |287| 
         00007c 10   
    1332 00007d 0464          BCC $C$L34,TC1 ; |287| 
         00007f E5   
    1333                                                      ; branchcc occurs ; |287| 
    1334 000080       $C$DW$L$_hlr_expn_q$9$E:
    1335 000080       $C$L35:    
    1336                      .dwpsn  file "C:/Users/a0221074/Desktop/C5000/IBM_Watson_TIdesign_workarea/CSL_bitbucket/c55_csl/c55x
    1337 000080 7680          MOV #-32768, AC0 ; |288| 
         000082 0008 
    1338 000084 ED0C          MOV dbl(*SP(#6)), AC1 ; |288| 
         000086 18   
    1339 000087 1208          CMP AC1 <= AC0, TC1 ; |288| 
         000089 10   
    1340 00008a 61E4          BCC $C$L36,TC1 ; |288| 
    1341                                                      ; branchcc occurs ; |288| 
    1342 00008c ED0C          MOV dbl(*SP(#6)), AC0 ; |288| 
         00008e 08   
    1343 00008f       $C$L36:    
    1344 00008f 767F          MOV #32767, AC1 ; |288| 
         000091 FF18 
    1345 000093 1208          CMP AC0 >= AC1, TC1 ; |288| 
         000095 10   
    1346 000096 0464          BCC $C$L37,TC1 ; |288| 
         000098 11   
TMS320C55x Assembler PC v4.4.1 Wed Sep 13 16:33:14 2017

Tools Copyright (c) 1996-2012 Texas Instruments Incorporated
C:\Users\a0221074\AppData\Local\Temp\0730410                         PAGE   30

    1347                                                      ; branchcc occurs ; |288| 
    1348 000099 7680          MOV #-32768, AC0 ; |288| 
         00009b 0008 
    1349 00009d ED0C          MOV dbl(*SP(#6)), AC1 ; |288| 
         00009f 18   
    1350 0000a0 1208          CMP AC1 <= AC0, TC1 ; |288| 
         0000a2 10   
    1351 0000a3 64E4          BCC $C$L38,TC1 ; |288| 
    1352                                                      ; branchcc occurs ; |288| 
    1353 0000a5 ED0C          MOV dbl(*SP(#6)), AC0 ; |288| 
         0000a7 08   
    1354 0000a8 4A04          B $C$L38  ; |288| 
    1355                                                      ; branch occurs ; |288| 
    1356 0000aa       $C$L37:    
    1357 0000aa 767F          MOV #32767, AC0 ; |288| 
         0000ac FF08 
    1358 0000ae       $C$L38:    
    1359 0000ae C008          MOV AC0, *SP(#4) ; |288| 
    1360 0000b0       $C$L39:    
    1361                      .dwpsn  file "C:/Users/a0221074/Desktop/C5000/IBM_Watson_TIdesign_workarea/CSL_bitbucket/c55_csl/c55x
    1362 0000b0 ED04          MOV dbl(*SP(#2)), XAR3
         0000b2 BF   
    1363 0000b3 A90A          MOV *SP(#5), AR1 ; |290| 
    1364 0000b5 C961          MOV AR1, *AR3 ; |290| 
    1365                      .dwpsn  file "C:/Users/a0221074/Desktop/C5000/IBM_Watson_TIdesign_workarea/CSL_bitbucket/c55_csl/c55x
    1366 0000b7 A408          MOV *SP(#4), T0 ; |291| 
    1367 0000b9       $C$L40:    
    1368                      .dwpsn  file "C:/Users/a0221074/Desktop/C5000/IBM_Watson_TIdesign_workarea/CSL_bitbucket/c55_csl/c55x
    1369 0000b9 4E0B          AADD #11, SP
    1370                      .dwcfi  cfa_offset, 1
    1371              $C$DW$110       .dwtag  DW_TAG_TI_branch
    1372                      .dwattr $C$DW$110, DW_AT_low_pc(0x00)
    1373                      .dwattr $C$DW$110, DW_AT_TI_return
    1374 0000bb 4804          RET
    1375                                                      ; return occurs
    1376              
    1377              $C$DW$111       .dwtag  DW_TAG_TI_loop
    1378                      .dwattr $C$DW$111, DW_AT_name("C:\\Users\\a0221074\\AppData\\Local\\Temp\\0730410:$C$L34:1:1505334792
    1379                      .dwattr $C$DW$111, DW_AT_TI_begin_file("C:/Users/a0221074/Desktop/C5000/IBM_Watson_TIdesign_workarea/
    1380                      .dwattr $C$DW$111, DW_AT_TI_begin_line(0x11f)
    1381                      .dwattr $C$DW$111, DW_AT_TI_end_line(0x11f)
    1382              $C$DW$112       .dwtag  DW_TAG_TI_loop_range
    1383                      .dwattr $C$DW$112, DW_AT_low_pc($C$DW$L$_hlr_expn_q$9$B)
    1384                      .dwattr $C$DW$112, DW_AT_high_pc($C$DW$L$_hlr_expn_q$9$E)
    1385                      .dwendtag $C$DW$111
    1386              
    1387                      .dwattr $C$DW$96, DW_AT_TI_end_file("C:/Users/a0221074/Desktop/C5000/IBM_Watson_TIdesign_workarea/CSL
    1388                      .dwattr $C$DW$96, DW_AT_TI_end_line(0x126)
    1389                      .dwattr $C$DW$96, DW_AT_TI_end_column(0x01)
    1390                      .dwendentry
    1391                      .dwendtag $C$DW$96
    1392              
    1393 000000               .sect   ".text:_hlr_log_one"
    1394                      .clink
    1395                      .global _hlr_log_one
TMS320C55x Assembler PC v4.4.1 Wed Sep 13 16:33:14 2017

Tools Copyright (c) 1996-2012 Texas Instruments Incorporated
C:\Users\a0221074\AppData\Local\Temp\0730410                         PAGE   31

    1396              
    1397              $C$DW$113       .dwtag  DW_TAG_subprogram, DW_AT_name("hlr_log_one")
    1398                      .dwattr $C$DW$113, DW_AT_low_pc(_hlr_log_one)
    1399                      .dwattr $C$DW$113, DW_AT_high_pc(0x00)
    1400                      .dwattr $C$DW$113, DW_AT_TI_symbol_name("_hlr_log_one")
    1401                      .dwattr $C$DW$113, DW_AT_external
    1402                      .dwattr $C$DW$113, DW_AT_type(*$C$DW$T$8)
    1403                      .dwattr $C$DW$113, DW_AT_TI_begin_file("C:/Users/a0221074/Desktop/C5000/IBM_Watson_TIdesign_workarea/
    1404                      .dwattr $C$DW$113, DW_AT_TI_begin_line(0x12e)
    1405                      .dwattr $C$DW$113, DW_AT_TI_begin_column(0x1e)
    1406                      .dwattr $C$DW$113, DW_AT_TI_max_frame_size(0x0c)
    1407                      .dwpsn  file "C:/Users/a0221074/Desktop/C5000/IBM_Watson_TIdesign_workarea/CSL_bitbucket/c55_csl/c55x
    1408              
    1409                      .dwfde $C$DW$CIE, _hlr_log_one
    1410              $C$DW$114       .dwtag  DW_TAG_formal_parameter, DW_AT_name("x")
    1411                      .dwattr $C$DW$114, DW_AT_TI_symbol_name("_x")
    1412                      .dwattr $C$DW$114, DW_AT_type(*$C$DW$T$9)
    1413                      .dwattr $C$DW$114, DW_AT_location[DW_OP_reg12]
    1414              ;*******************************************************************************
    1415              ;* FUNCTION NAME: hlr_log_one                                                  *
    1416              ;*                                                                             *
    1417              ;*   Function Uses Regs : AC0,AC0,AC1,AC1,T0,T1,AR1,AR2,XAR2,AR3,XAR3,SP,CSR,  *
    1418              ;*                        RPTC,CARRY,TC1,M40,SATA,SATD,RDM,FRCT,SMUL           *
    1419              ;*   Stack Frame        : Compact (No Frame Pointer, w/ debug)                 *
    1420              ;*   Total Frame Size   : 12 words                                             *
    1421              ;*                        (1 return address/alignment)                         *
    1422              ;*                        (11 local values)                                    *
    1423              ;*   Min System Stack   : 1 word                                               *
    1424              ;*******************************************************************************
    1425 000000       _hlr_log_one:
    1426                      .dwcfi  cfa_offset, 1
    1427                      .dwcfi  save_reg_to_mem, 91, -1
    1428 000000 4EF5          AADD #-11, SP
    1429                      .dwcfi  cfa_offset, 12
    1430              $C$DW$115       .dwtag  DW_TAG_variable, DW_AT_name("x")
    1431                      .dwattr $C$DW$115, DW_AT_TI_symbol_name("_x")
    1432                      .dwattr $C$DW$115, DW_AT_type(*$C$DW$T$9)
    1433                      .dwattr $C$DW$115, DW_AT_location[DW_OP_bregx 0x24 0]
    1434              $C$DW$116       .dwtag  DW_TAG_variable, DW_AT_name("coef_lnopx")
    1435                      .dwattr $C$DW$116, DW_AT_TI_symbol_name("_coef_lnopx")
    1436                      .dwattr $C$DW$116, DW_AT_type(*$C$DW$T$109)
    1437                      .dwattr $C$DW$116, DW_AT_location[DW_OP_bregx 0x24 1]
    1438              $C$DW$117       .dwtag  DW_TAG_variable, DW_AT_name("temp")
    1439                      .dwattr $C$DW$117, DW_AT_TI_symbol_name("_temp")
    1440                      .dwattr $C$DW$117, DW_AT_type(*$C$DW$T$12)
    1441                      .dwattr $C$DW$117, DW_AT_location[DW_OP_bregx 0x24 6]
    1442              $C$DW$118       .dwtag  DW_TAG_variable, DW_AT_name("s_temp")
    1443                      .dwattr $C$DW$118, DW_AT_TI_symbol_name("_s_temp")
    1444                      .dwattr $C$DW$118, DW_AT_type(*$C$DW$T$8)
    1445                      .dwattr $C$DW$118, DW_AT_location[DW_OP_bregx 0x24 8]
    1446              $C$DW$119       .dwtag  DW_TAG_variable, DW_AT_name("data")
    1447                      .dwattr $C$DW$119, DW_AT_TI_symbol_name("_data")
    1448                      .dwattr $C$DW$119, DW_AT_type(*$C$DW$T$8)
    1449                      .dwattr $C$DW$119, DW_AT_location[DW_OP_bregx 0x24 9]
    1450              $C$DW$120       .dwtag  DW_TAG_variable, DW_AT_name("coef")
TMS320C55x Assembler PC v4.4.1 Wed Sep 13 16:33:14 2017

Tools Copyright (c) 1996-2012 Texas Instruments Incorporated
C:\Users\a0221074\AppData\Local\Temp\0730410                         PAGE   32

    1451                      .dwattr $C$DW$120, DW_AT_TI_symbol_name("_coef")
    1452                      .dwattr $C$DW$120, DW_AT_type(*$C$DW$T$8)
    1453                      .dwattr $C$DW$120, DW_AT_location[DW_OP_bregx 0x24 10]
    1454 000002 C400          MOV T0, *SP(#0) ; |303| 
    1455                      .dwpsn  file "C:/Users/a0221074/Desktop/C5000/IBM_Watson_TIdesign_workarea/CSL_bitbucket/c55_csl/c55x
    1456 000004 EC31          AMOV #_$P$T1$2, XAR3 ; |305| 
         000006 BE00 
         000008 0000+
    1457              
    1458 00000d 4D04          RPT #4    ; |305| 
    1459 00000a EC02  ||      AMAR *SP(#1), XAR2
         00000c AE   
    1460              
    1461                                                          ; loop starts ; |305| 
    1462 00000f       $C$L41:    
    1463 00000f       $C$DW$L$_hlr_log_one$2$B:
    1464 00000f 8065              MOV *AR3+, *AR2+ ; |305| 
         000011 14   
    1465                                                      ; loop ends ; |305| 
    1466 000012       $C$DW$L$_hlr_log_one$2$E:
    1467 000012       $C$L42:    
    1468                      .dwpsn  file "C:/Users/a0221074/Desktop/C5000/IBM_Watson_TIdesign_workarea/CSL_bitbucket/c55_csl/c55x
    1469 000012 7680          MOV #32768, AR2 ; |313| 
         000014 00A8 
    1470 000016 A900          MOV *SP(#0), AR1 ; |313| 
    1471 000018 129C          CMPU AR1 != AR2, TC1 ; |313| 
         00001a A4   
    1472 00001b 63E4          BCC $C$L43,TC1 ; |313| 
    1473                                                      ; branchcc occurs ; |313| 
    1474                      .dwpsn  file "C:/Users/a0221074/Desktop/C5000/IBM_Watson_TIdesign_workarea/CSL_bitbucket/c55_csl/c55x
    1475 00001d 7658          MOV #22713, T0 ; |314| 
         00001f B948 
    1476 000021 0600          B $C$L46  ; |314| 
         000023 4D   
    1477                                                      ; branch occurs ; |314| 
    1478 000024       $C$L43:    
    1479                      .dwpsn  file "C:/Users/a0221074/Desktop/C5000/IBM_Watson_TIdesign_workarea/CSL_bitbucket/c55_csl/c55x
    1480 000024 A900          MOV *SP(#0), AR1 ; |318| 
    1481 000026 C912          MOV AR1, *SP(#9) ; |318| 
    1482                      .dwpsn  file "C:/Users/a0221074/Desktop/C5000/IBM_Watson_TIdesign_workarea/CSL_bitbucket/c55_csl/c55x
    1483 000028 A902          MOV *SP(#1), AR1 ; |319| 
    1484 00002a C910          MOV AR1, *SP(#8) ; |319| 
    1485                      .dwpsn  file "C:/Users/a0221074/Desktop/C5000/IBM_Watson_TIdesign_workarea/CSL_bitbucket/c55_csl/c55x
    1486 00002c E614          MOV #1, *SP(#10) ; |320| 
         00002e 01   
    1487                      .dwpsn  file "C:/Users/a0221074/Desktop/C5000/IBM_Watson_TIdesign_workarea/CSL_bitbucket/c55_csl/c55x
    1488              
    1489 00002f A914          MOV *SP(#10), AR1 ; |320| 
    1490 000031 3D5A  ||      MOV #5, AR2
    1491              
    1492 000033 1298          CMP AR1 >= AR2, TC1 ; |320| 
         000035 A0   
    1493 000036 0464          BCC $C$L45,TC1 ; |320| 
         000038 36   
    1494                                                      ; branchcc occurs ; |320| 
TMS320C55x Assembler PC v4.4.1 Wed Sep 13 16:33:14 2017

Tools Copyright (c) 1996-2012 Texas Instruments Incorporated
C:\Users\a0221074\AppData\Local\Temp\0730410                         PAGE   33

    1495 000039       $C$L44:    
    1496 000039       $C$DW$L$_hlr_log_one$6$B:
    1497                      .dwpsn  file "C:/Users/a0221074/Desktop/C5000/IBM_Watson_TIdesign_workarea/CSL_bitbucket/c55_csl/c55x
    1498 000039 A512          MOV *SP(#9), T1 ; |323| 
    1499 00003b D310          MPYM *SP(#8), T1, AC0 ; |323| 
         00003d 05   
    1500 00003e EB0C          MOV AC0, dbl(*SP(#6)) ; |323| 
         000040 08   
    1501                      .dwpsn  file "C:/Users/a0221074/Desktop/C5000/IBM_Watson_TIdesign_workarea/CSL_bitbucket/c55_csl/c55x
    1502 000041 A414          MOV *SP(#10), T0 ; |324| 
    1503 000043 EC02          AMAR *SP(#1), XAR3
         000045 BE   
    1504 000046 ED0C          MOV dbl(*SP(#6)), AC0 ; |324| 
         000048 08   
    1505 000049 A16B          MOV *AR3(T0), AC1 ; |324| 
    1506 00004b 1013          ADD AC1 << #15, AC0 ; |324| 
         00004d 0F   
    1507 00004e EB0C          MOV AC0, dbl(*SP(#6)) ; |324| 
         000050 08   
    1508                      .dwpsn  file "C:/Users/a0221074/Desktop/C5000/IBM_Watson_TIdesign_workarea/CSL_bitbucket/c55_csl/c55x
    1509 000051 7640          MOV #16384, AC0 ; |327| 
         000053 0008 
    1510 000055 ED0C          ADD dbl(*SP(#6)), AC0, AC0 ; |327| 
         000057 00   
    1511 000058 EB0C          MOV AC0, dbl(*SP(#6)) ; |327| 
         00005a 08   
    1512                      .dwpsn  file "C:/Users/a0221074/Desktop/C5000/IBM_Watson_TIdesign_workarea/CSL_bitbucket/c55_csl/c55x
    1513 00005b ED0C          MOV dbl(*SP(#6)), AC0 ; |328| 
         00005d 08   
    1514 00005e 1005          SFTS AC0, #-15, AC0 ; |328| 
         000060 31   
    1515 000061 C010          MOV AC0, *SP(#8) ; |328| 
    1516                      .dwpsn  file "C:/Users/a0221074/Desktop/C5000/IBM_Watson_TIdesign_workarea/CSL_bitbucket/c55_csl/c55x
    1517 000063 F714          ADD #1, *SP(#10) ; |320| 
         000065 0001 
    1518                      .dwpsn  file "C:/Users/a0221074/Desktop/C5000/IBM_Watson_TIdesign_workarea/CSL_bitbucket/c55_csl/c55x
    1519 000067 A914          MOV *SP(#10), AR1 ; |320| 
    1520 000069 1294          CMP AR1 < AR2, TC1 ; |320| 
         00006b A0   
    1521 00006c 0464          BCC $C$L44,TC1 ; |320| 
         00006e CA   
    1522                                                      ; branchcc occurs ; |320| 
    1523 00006f       $C$DW$L$_hlr_log_one$6$E:
    1524 00006f       $C$L45:    
    1525                      .dwpsn  file "C:/Users/a0221074/Desktop/C5000/IBM_Watson_TIdesign_workarea/CSL_bitbucket/c55_csl/c55x
    1526 00006f A410          MOV *SP(#8), T0 ; |331| 
    1527 000071       $C$L46:    
    1528                      .dwpsn  file "C:/Users/a0221074/Desktop/C5000/IBM_Watson_TIdesign_workarea/CSL_bitbucket/c55_csl/c55x
    1529 000071 4E0B          AADD #11, SP
    1530                      .dwcfi  cfa_offset, 1
    1531              $C$DW$121       .dwtag  DW_TAG_TI_branch
    1532                      .dwattr $C$DW$121, DW_AT_low_pc(0x00)
    1533                      .dwattr $C$DW$121, DW_AT_TI_return
    1534 000073 4804          RET
    1535                                                      ; return occurs
TMS320C55x Assembler PC v4.4.1 Wed Sep 13 16:33:14 2017

Tools Copyright (c) 1996-2012 Texas Instruments Incorporated
C:\Users\a0221074\AppData\Local\Temp\0730410                         PAGE   34

    1536              
    1537              $C$DW$122       .dwtag  DW_TAG_TI_loop
    1538                      .dwattr $C$DW$122, DW_AT_name("C:\\Users\\a0221074\\AppData\\Local\\Temp\\0730410:$C$L44:1:1505334792
    1539                      .dwattr $C$DW$122, DW_AT_TI_begin_file("C:/Users/a0221074/Desktop/C5000/IBM_Watson_TIdesign_workarea/
    1540                      .dwattr $C$DW$122, DW_AT_TI_begin_line(0x140)
    1541                      .dwattr $C$DW$122, DW_AT_TI_end_line(0x149)
    1542              $C$DW$123       .dwtag  DW_TAG_TI_loop_range
    1543                      .dwattr $C$DW$123, DW_AT_low_pc($C$DW$L$_hlr_log_one$6$B)
    1544                      .dwattr $C$DW$123, DW_AT_high_pc($C$DW$L$_hlr_log_one$6$E)
    1545                      .dwendtag $C$DW$122
    1546              
    1547              
    1548              $C$DW$124       .dwtag  DW_TAG_TI_loop
    1549                      .dwattr $C$DW$124, DW_AT_name("C:\\Users\\a0221074\\AppData\\Local\\Temp\\0730410:$C$L41:1:1505334792
    1550                      .dwattr $C$DW$124, DW_AT_TI_begin_file("C:/Users/a0221074/Desktop/C5000/IBM_Watson_TIdesign_workarea/
    1551                      .dwattr $C$DW$124, DW_AT_TI_begin_line(0x131)
    1552                      .dwattr $C$DW$124, DW_AT_TI_end_line(0x131)
    1553              $C$DW$125       .dwtag  DW_TAG_TI_loop_range
    1554                      .dwattr $C$DW$125, DW_AT_low_pc($C$DW$L$_hlr_log_one$2$B)
    1555                      .dwattr $C$DW$125, DW_AT_high_pc($C$DW$L$_hlr_log_one$2$E)
    1556                      .dwendtag $C$DW$124
    1557              
    1558                      .dwattr $C$DW$113, DW_AT_TI_end_file("C:/Users/a0221074/Desktop/C5000/IBM_Watson_TIdesign_workarea/CS
    1559                      .dwattr $C$DW$113, DW_AT_TI_end_line(0x14c)
    1560                      .dwattr $C$DW$113, DW_AT_TI_end_column(0x01)
    1561                      .dwendentry
    1562                      .dwendtag $C$DW$113
    1563              
    1564 000000               .sect   ".text:_q15_x"
    1565                      .clink
    1566                      .global _q15_x
    1567              
    1568              $C$DW$126       .dwtag  DW_TAG_subprogram, DW_AT_name("q15_x")
    1569                      .dwattr $C$DW$126, DW_AT_low_pc(_q15_x)
    1570                      .dwattr $C$DW$126, DW_AT_high_pc(0x00)
    1571                      .dwattr $C$DW$126, DW_AT_TI_symbol_name("_q15_x")
    1572                      .dwattr $C$DW$126, DW_AT_external
    1573                      .dwattr $C$DW$126, DW_AT_type(*$C$DW$T$12)
    1574                      .dwattr $C$DW$126, DW_AT_TI_begin_file("C:/Users/a0221074/Desktop/C5000/IBM_Watson_TIdesign_workarea/
    1575                      .dwattr $C$DW$126, DW_AT_TI_begin_line(0x151)
    1576                      .dwattr $C$DW$126, DW_AT_TI_begin_column(0x1d)
    1577                      .dwattr $C$DW$126, DW_AT_TI_max_frame_size(0x0a)
    1578                      .dwpsn  file "C:/Users/a0221074/Desktop/C5000/IBM_Watson_TIdesign_workarea/CSL_bitbucket/c55_csl/c55x
    1579              
    1580                      .dwfde $C$DW$CIE, _q15_x
    1581              $C$DW$127       .dwtag  DW_TAG_formal_parameter, DW_AT_name("a")
    1582                      .dwattr $C$DW$127, DW_AT_TI_symbol_name("_a")
    1583                      .dwattr $C$DW$127, DW_AT_type(*$C$DW$T$20)
    1584                      .dwattr $C$DW$127, DW_AT_location[DW_OP_reg12]
    1585              $C$DW$128       .dwtag  DW_TAG_formal_parameter, DW_AT_name("b")
    1586                      .dwattr $C$DW$128, DW_AT_TI_symbol_name("_b")
    1587                      .dwattr $C$DW$128, DW_AT_type(*$C$DW$T$12)
    1588                      .dwattr $C$DW$128, DW_AT_location[DW_OP_reg0]
    1589              ;*******************************************************************************
    1590              ;* FUNCTION NAME: q15_x                                                        *
TMS320C55x Assembler PC v4.4.1 Wed Sep 13 16:33:14 2017

Tools Copyright (c) 1996-2012 Texas Instruments Incorporated
C:\Users\a0221074\AppData\Local\Temp\0730410                         PAGE   35

    1591              ;*                                                                             *
    1592              ;*   Function Uses Regs : AC0,AC0,AC1,AC1,T0,T1,AR1,SP,CARRY,TC1,M40,SATA,SATD,*
    1593              ;*                        RDM,FRCT,SMUL                                        *
    1594              ;*   Stack Frame        : Compact (No Frame Pointer, w/ debug)                 *
    1595              ;*   Total Frame Size   : 10 words                                             *
    1596              ;*                        (2 return address/alignment)                         *
    1597              ;*                        (8 local values)                                     *
    1598              ;*   Min System Stack   : 1 word                                               *
    1599              ;*******************************************************************************
    1600 000000       _q15_x:
    1601                      .dwcfi  cfa_offset, 1
    1602                      .dwcfi  save_reg_to_mem, 91, -1
    1603 000000 4EF7          AADD #-9, SP
    1604                      .dwcfi  cfa_offset, 10
    1605              $C$DW$129       .dwtag  DW_TAG_variable, DW_AT_name("a")
    1606                      .dwattr $C$DW$129, DW_AT_TI_symbol_name("_a")
    1607                      .dwattr $C$DW$129, DW_AT_type(*$C$DW$T$20)
    1608                      .dwattr $C$DW$129, DW_AT_location[DW_OP_bregx 0x24 0]
    1609              $C$DW$130       .dwtag  DW_TAG_variable, DW_AT_name("b")
    1610                      .dwattr $C$DW$130, DW_AT_TI_symbol_name("_b")
    1611                      .dwattr $C$DW$130, DW_AT_type(*$C$DW$T$12)
    1612                      .dwattr $C$DW$130, DW_AT_location[DW_OP_bregx 0x24 2]
    1613              $C$DW$131       .dwtag  DW_TAG_variable, DW_AT_name("tmp")
    1614                      .dwattr $C$DW$131, DW_AT_TI_symbol_name("_tmp")
    1615                      .dwattr $C$DW$131, DW_AT_type(*$C$DW$T$12)
    1616                      .dwattr $C$DW$131, DW_AT_location[DW_OP_bregx 0x24 4]
    1617              $C$DW$132       .dwtag  DW_TAG_variable, DW_AT_name("norm")
    1618                      .dwattr $C$DW$132, DW_AT_TI_symbol_name("_norm")
    1619                      .dwattr $C$DW$132, DW_AT_type(*$C$DW$T$8)
    1620                      .dwattr $C$DW$132, DW_AT_location[DW_OP_bregx 0x24 6]
    1621              $C$DW$133       .dwtag  DW_TAG_variable, DW_AT_name("tmp_s")
    1622                      .dwattr $C$DW$133, DW_AT_TI_symbol_name("_tmp_s")
    1623                      .dwattr $C$DW$133, DW_AT_type(*$C$DW$T$8)
    1624                      .dwattr $C$DW$133, DW_AT_location[DW_OP_bregx 0x24 7]
    1625 000002 EB04          MOV AC0, dbl(*SP(#2)) ; |338| 
         000004 08   
    1626 000005 C400          MOV T0, *SP(#0) ; |338| 
    1627                      .dwpsn  file "C:/Users/a0221074/Desktop/C5000/IBM_Watson_TIdesign_workarea/CSL_bitbucket/c55_csl/c55x
    1628 000007 ED04          MOV dbl(*SP(#2)), AC0 ; |342| 
         000009 08   
    1629 00000a 6290          BCC $C$L47,AC0 != #0 ; |342| 
    1630                                                      ; branchcc occurs ; |342| 
    1631                      .dwpsn  file "C:/Users/a0221074/Desktop/C5000/IBM_Watson_TIdesign_workarea/CSL_bitbucket/c55_csl/c55x
    1632 00000c 3C00          MOV #0, AC0 ; |342| 
    1633 00000e 0600          B $C$L53  ; |342| 
         000010 6E   
    1634                                                      ; branch occurs ; |342| 
    1635 000011       $C$L47:    
    1636                      .dwpsn  file "C:/Users/a0221074/Desktop/C5000/IBM_Watson_TIdesign_workarea/CSL_bitbucket/c55_csl/c55x
    1637 000011 ED04          MOV dbl(*SP(#2)), AC0 ; |344| 
         000013 08   
    1638 000014 62B0          BCC $C$L48,AC0 <= #0 ; |344| 
    1639                                                      ; branchcc occurs ; |344| 
    1640 000016 ED04          MOV dbl(*SP(#2)), AC0 ; |344| 
         000018 08   
TMS320C55x Assembler PC v4.4.1 Wed Sep 13 16:33:14 2017

Tools Copyright (c) 1996-2012 Texas Instruments Incorporated
C:\Users\a0221074\AppData\Local\Temp\0730410                         PAGE   36

    1641 000019 4A05          B $C$L49  ; |344| 
    1642                                                      ; branch occurs ; |344| 
    1643 00001b       $C$L48:    
    1644 00001b ED04          MOV dbl(*SP(#2)), AC0 ; |344| 
         00001d 08   
    1645 00001e 3400          NEG AC0, AC0 ; |344| 
    1646 000020       $C$L49:    
    1647 000020 EB08          MOV AC0, dbl(*SP(#4)) ; |344| 
         000022 08   
    1648                      .dwpsn  file "C:/Users/a0221074/Desktop/C5000/IBM_Watson_TIdesign_workarea/CSL_bitbucket/c55_csl/c55x
    1649 000023 E60C          MOV #0, *SP(#6) ; |345| 
         000025 00   
    1650 000026 7A40          MOV #16384 << #16, AC0 ; |345| 
         000028 000A 
    1651 00002a ED08          MOV dbl(*SP(#4)), AC1 ; |345| 
         00002c 18   
    1652 00002d 1218          CMP AC1 >= AC0, TC1 ; |345| 
         00002f 00   
    1653 000030 0464          BCC $C$L51,TC1 ; |345| 
         000032 19   
    1654                                                      ; branchcc occurs ; |345| 
    1655 000033       $C$L50:    
    1656 000033       $C$DW$L$_q15_x$7$B:
    1657 000033 ED08          MOV dbl(*SP(#4)), AC0 ; |345| 
         000035 08   
    1658 000036 5000          SFTL AC0, #1 ; |345| 
    1659 000038 EB08          MOV AC0, dbl(*SP(#4)) ; |345| 
         00003a 08   
    1660 00003b F70C          ADD #1, *SP(#6) ; |345| 
         00003d 0001 
    1661 00003f 7A40          MOV #16384 << #16, AC0 ; |345| 
         000041 000A 
    1662 000043 ED08          MOV dbl(*SP(#4)), AC1 ; |345| 
         000045 18   
    1663 000046 1214          CMP AC1 < AC0, TC1 ; |345| 
         000048 00   
    1664 000049 0464          BCC $C$L50,TC1 ; |345| 
         00004b E7   
    1665                                                      ; branchcc occurs ; |345| 
    1666 00004c       $C$DW$L$_q15_x$7$E:
    1667 00004c       $C$L51:    
    1668                      .dwpsn  file "C:/Users/a0221074/Desktop/C5000/IBM_Watson_TIdesign_workarea/CSL_bitbucket/c55_csl/c55x
    1669 00004c ED08          MOV dbl(*SP(#4)), AC0 ; |346| 
         00004e 08   
    1670 00004f BC0E          MOV HI(AC0), *SP(#7) ; |346| 
    1671                      .dwpsn  file "C:/Users/a0221074/Desktop/C5000/IBM_Watson_TIdesign_workarea/CSL_bitbucket/c55_csl/c55x
    1672 000051 B000          MOV *SP(#0) << #16, AC0
    1673 000053 1007          SFTL AC0, #0, AC0 ; |347| 
         000055 00   
    1674 000056 D30E          MPYM *SP(#7), AC0, AC0 ; |347| 
         000058 00   
    1675 000059 EB08          MOV AC0, dbl(*SP(#4)) ; |347| 
         00005b 08   
    1676                      .dwpsn  file "C:/Users/a0221074/Desktop/C5000/IBM_Watson_TIdesign_workarea/CSL_bitbucket/c55_csl/c55x
    1677 00005c ED08          MOV dbl(*SP(#4)), AC0 ; |348| 
TMS320C55x Assembler PC v4.4.1 Wed Sep 13 16:33:14 2017

Tools Copyright (c) 1996-2012 Texas Instruments Incorporated
C:\Users\a0221074\AppData\Local\Temp\0730410                         PAGE   37

         00005e 08   
    1678 00005f 5000          SFTL AC0, #1 ; |348| 
    1679 000061 EB08          MOV AC0, dbl(*SP(#4)) ; |348| 
         000063 08   
    1680                      .dwpsn  file "C:/Users/a0221074/Desktop/C5000/IBM_Watson_TIdesign_workarea/CSL_bitbucket/c55_csl/c55x
    1681 000064 A90C          MOV *SP(#6), AR1 ; |349| 
    1682              
    1683 000066 ED08          MOV dbl(*SP(#4)), AC0 ; |349| 
         000068 08   
    1684 000069 3595  ||      NEG AR1, T1 ; |349| 
    1685              
    1686 00006b 5C05          SFTS AC0, T1, AC0 ; |349| 
    1687 00006d EB08          MOV AC0, dbl(*SP(#4)) ; |349| 
         00006f 08   
    1688                      .dwpsn  file "C:/Users/a0221074/Desktop/C5000/IBM_Watson_TIdesign_workarea/CSL_bitbucket/c55_csl/c55x
    1689 000070 ED04          MOV dbl(*SP(#2)), AC0 ; |350| 
         000072 08   
    1690 000073 62B0          BCC $C$L52,AC0 <= #0 ; |350| 
    1691                                                      ; branchcc occurs ; |350| 
    1692 000075 ED08          MOV dbl(*SP(#4)), AC0 ; |350| 
         000077 08   
    1693 000078 4A05          B $C$L53  ; |350| 
    1694                                                      ; branch occurs ; |350| 
    1695 00007a       $C$L52:    
    1696 00007a ED08          MOV dbl(*SP(#4)), AC0 ; |350| 
         00007c 08   
    1697 00007d 3400          NEG AC0, AC0 ; |350| 
    1698 00007f       $C$L53:    
    1699                      .dwpsn  file "C:/Users/a0221074/Desktop/C5000/IBM_Watson_TIdesign_workarea/CSL_bitbucket/c55_csl/c55x
    1700 00007f 4E09          AADD #9, SP
    1701                      .dwcfi  cfa_offset, 1
    1702              $C$DW$134       .dwtag  DW_TAG_TI_branch
    1703                      .dwattr $C$DW$134, DW_AT_low_pc(0x00)
    1704                      .dwattr $C$DW$134, DW_AT_TI_return
    1705 000081 4804          RET
    1706                                                      ; return occurs
    1707              
    1708              $C$DW$135       .dwtag  DW_TAG_TI_loop
    1709                      .dwattr $C$DW$135, DW_AT_name("C:\\Users\\a0221074\\AppData\\Local\\Temp\\0730410:$C$L50:1:1505334792
    1710                      .dwattr $C$DW$135, DW_AT_TI_begin_file("C:/Users/a0221074/Desktop/C5000/IBM_Watson_TIdesign_workarea/
    1711                      .dwattr $C$DW$135, DW_AT_TI_begin_line(0x159)
    1712                      .dwattr $C$DW$135, DW_AT_TI_end_line(0x159)
    1713              $C$DW$136       .dwtag  DW_TAG_TI_loop_range
    1714                      .dwattr $C$DW$136, DW_AT_low_pc($C$DW$L$_q15_x$7$B)
    1715                      .dwattr $C$DW$136, DW_AT_high_pc($C$DW$L$_q15_x$7$E)
    1716                      .dwendtag $C$DW$135
    1717              
    1718                      .dwattr $C$DW$126, DW_AT_TI_end_file("C:/Users/a0221074/Desktop/C5000/IBM_Watson_TIdesign_workarea/CS
    1719                      .dwattr $C$DW$126, DW_AT_TI_end_line(0x160)
    1720                      .dwattr $C$DW$126, DW_AT_TI_end_column(0x01)
    1721                      .dwendentry
    1722                      .dwendtag $C$DW$126
    1723              
    1724 000000               .sect   ".text:_q14_x"
    1725                      .clink
TMS320C55x Assembler PC v4.4.1 Wed Sep 13 16:33:14 2017

Tools Copyright (c) 1996-2012 Texas Instruments Incorporated
C:\Users\a0221074\AppData\Local\Temp\0730410                         PAGE   38

    1726                      .global _q14_x
    1727              
    1728              $C$DW$137       .dwtag  DW_TAG_subprogram, DW_AT_name("q14_x")
    1729                      .dwattr $C$DW$137, DW_AT_low_pc(_q14_x)
    1730                      .dwattr $C$DW$137, DW_AT_high_pc(0x00)
    1731                      .dwattr $C$DW$137, DW_AT_TI_symbol_name("_q14_x")
    1732                      .dwattr $C$DW$137, DW_AT_external
    1733                      .dwattr $C$DW$137, DW_AT_type(*$C$DW$T$12)
    1734                      .dwattr $C$DW$137, DW_AT_TI_begin_file("C:/Users/a0221074/Desktop/C5000/IBM_Watson_TIdesign_workarea/
    1735                      .dwattr $C$DW$137, DW_AT_TI_begin_line(0x166)
    1736                      .dwattr $C$DW$137, DW_AT_TI_begin_column(0x1d)
    1737                      .dwattr $C$DW$137, DW_AT_TI_max_frame_size(0x0a)
    1738                      .dwpsn  file "C:/Users/a0221074/Desktop/C5000/IBM_Watson_TIdesign_workarea/CSL_bitbucket/c55_csl/c55x
    1739              
    1740                      .dwfde $C$DW$CIE, _q14_x
    1741              $C$DW$138       .dwtag  DW_TAG_formal_parameter, DW_AT_name("a")
    1742                      .dwattr $C$DW$138, DW_AT_TI_symbol_name("_a")
    1743                      .dwattr $C$DW$138, DW_AT_type(*$C$DW$T$8)
    1744                      .dwattr $C$DW$138, DW_AT_location[DW_OP_reg12]
    1745              $C$DW$139       .dwtag  DW_TAG_formal_parameter, DW_AT_name("b")
    1746                      .dwattr $C$DW$139, DW_AT_TI_symbol_name("_b")
    1747                      .dwattr $C$DW$139, DW_AT_type(*$C$DW$T$12)
    1748                      .dwattr $C$DW$139, DW_AT_location[DW_OP_reg0]
    1749              ;*******************************************************************************
    1750              ;* FUNCTION NAME: q14_x                                                        *
    1751              ;*                                                                             *
    1752              ;*   Function Uses Regs : AC0,AC0,AC1,AC1,T0,T1,AR1,SP,CARRY,TC1,M40,SATA,SATD,*
    1753              ;*                        RDM,FRCT,SMUL                                        *
    1754              ;*   Stack Frame        : Compact (No Frame Pointer, w/ debug)                 *
    1755              ;*   Total Frame Size   : 10 words                                             *
    1756              ;*                        (2 return address/alignment)                         *
    1757              ;*                        (8 local values)                                     *
    1758              ;*   Min System Stack   : 1 word                                               *
    1759              ;*******************************************************************************
    1760 000000       _q14_x:
    1761                      .dwcfi  cfa_offset, 1
    1762                      .dwcfi  save_reg_to_mem, 91, -1
    1763 000000 4EF7          AADD #-9, SP
    1764                      .dwcfi  cfa_offset, 10
    1765              $C$DW$140       .dwtag  DW_TAG_variable, DW_AT_name("a")
    1766                      .dwattr $C$DW$140, DW_AT_TI_symbol_name("_a")
    1767                      .dwattr $C$DW$140, DW_AT_type(*$C$DW$T$8)
    1768                      .dwattr $C$DW$140, DW_AT_location[DW_OP_bregx 0x24 0]
    1769              $C$DW$141       .dwtag  DW_TAG_variable, DW_AT_name("b")
    1770                      .dwattr $C$DW$141, DW_AT_TI_symbol_name("_b")
    1771                      .dwattr $C$DW$141, DW_AT_type(*$C$DW$T$12)
    1772                      .dwattr $C$DW$141, DW_AT_location[DW_OP_bregx 0x24 2]
    1773              $C$DW$142       .dwtag  DW_TAG_variable, DW_AT_name("tmp")
    1774                      .dwattr $C$DW$142, DW_AT_TI_symbol_name("_tmp")
    1775                      .dwattr $C$DW$142, DW_AT_type(*$C$DW$T$12)
    1776                      .dwattr $C$DW$142, DW_AT_location[DW_OP_bregx 0x24 4]
    1777              $C$DW$143       .dwtag  DW_TAG_variable, DW_AT_name("norm")
    1778                      .dwattr $C$DW$143, DW_AT_TI_symbol_name("_norm")
    1779                      .dwattr $C$DW$143, DW_AT_type(*$C$DW$T$8)
    1780                      .dwattr $C$DW$143, DW_AT_location[DW_OP_bregx 0x24 6]
TMS320C55x Assembler PC v4.4.1 Wed Sep 13 16:33:14 2017

Tools Copyright (c) 1996-2012 Texas Instruments Incorporated
C:\Users\a0221074\AppData\Local\Temp\0730410                         PAGE   39

    1781              $C$DW$144       .dwtag  DW_TAG_variable, DW_AT_name("tmp_s")
    1782                      .dwattr $C$DW$144, DW_AT_TI_symbol_name("_tmp_s")
    1783                      .dwattr $C$DW$144, DW_AT_type(*$C$DW$T$8)
    1784                      .dwattr $C$DW$144, DW_AT_location[DW_OP_bregx 0x24 7]
    1785 000002 EB04          MOV AC0, dbl(*SP(#2)) ; |359| 
         000004 08   
    1786 000005 C400          MOV T0, *SP(#0) ; |359| 
    1787                      .dwpsn  file "C:/Users/a0221074/Desktop/C5000/IBM_Watson_TIdesign_workarea/CSL_bitbucket/c55_csl/c55x
    1788 000007 ED04          MOV dbl(*SP(#2)), AC0 ; |363| 
         000009 08   
    1789 00000a 6290          BCC $C$L54,AC0 != #0 ; |363| 
    1790                                                      ; branchcc occurs ; |363| 
    1791                      .dwpsn  file "C:/Users/a0221074/Desktop/C5000/IBM_Watson_TIdesign_workarea/CSL_bitbucket/c55_csl/c55x
    1792 00000c 3C00          MOV #0, AC0 ; |363| 
    1793 00000e 0600          B $C$L60  ; |363| 
         000010 6C   
    1794                                                      ; branch occurs ; |363| 
    1795 000011       $C$L54:    
    1796                      .dwpsn  file "C:/Users/a0221074/Desktop/C5000/IBM_Watson_TIdesign_workarea/CSL_bitbucket/c55_csl/c55x
    1797 000011 ED04          MOV dbl(*SP(#2)), AC0 ; |365| 
         000013 08   
    1798 000014 62B0          BCC $C$L55,AC0 <= #0 ; |365| 
    1799                                                      ; branchcc occurs ; |365| 
    1800 000016 ED04          MOV dbl(*SP(#2)), AC0 ; |365| 
         000018 08   
    1801 000019 4A05          B $C$L56  ; |365| 
    1802                                                      ; branch occurs ; |365| 
    1803 00001b       $C$L55:    
    1804 00001b ED04          MOV dbl(*SP(#2)), AC0 ; |365| 
         00001d 08   
    1805 00001e 3400          NEG AC0, AC0 ; |365| 
    1806 000020       $C$L56:    
    1807 000020 EB08          MOV AC0, dbl(*SP(#4)) ; |365| 
         000022 08   
    1808                      .dwpsn  file "C:/Users/a0221074/Desktop/C5000/IBM_Watson_TIdesign_workarea/CSL_bitbucket/c55_csl/c55x
    1809 000023 E60C          MOV #0, *SP(#6) ; |366| 
         000025 00   
    1810 000026 7A40          MOV #16384 << #16, AC0 ; |366| 
         000028 000A 
    1811 00002a ED08          MOV dbl(*SP(#4)), AC1 ; |366| 
         00002c 18   
    1812 00002d 1218          CMP AC1 >= AC0, TC1 ; |366| 
         00002f 00   
    1813 000030 0464          BCC $C$L58,TC1 ; |366| 
         000032 19   
    1814                                                      ; branchcc occurs ; |366| 
    1815 000033       $C$L57:    
    1816 000033       $C$DW$L$_q14_x$7$B:
    1817 000033 ED08          MOV dbl(*SP(#4)), AC0 ; |366| 
         000035 08   
    1818 000036 5000          SFTL AC0, #1 ; |366| 
    1819 000038 EB08          MOV AC0, dbl(*SP(#4)) ; |366| 
         00003a 08   
    1820 00003b F70C          ADD #1, *SP(#6) ; |366| 
         00003d 0001 
TMS320C55x Assembler PC v4.4.1 Wed Sep 13 16:33:14 2017

Tools Copyright (c) 1996-2012 Texas Instruments Incorporated
C:\Users\a0221074\AppData\Local\Temp\0730410                         PAGE   40

    1821 00003f 7A40          MOV #16384 << #16, AC0 ; |366| 
         000041 000A 
    1822 000043 ED08          MOV dbl(*SP(#4)), AC1 ; |366| 
         000045 18   
    1823 000046 1214          CMP AC1 < AC0, TC1 ; |366| 
         000048 00   
    1824 000049 0464          BCC $C$L57,TC1 ; |366| 
         00004b E7   
    1825                                                      ; branchcc occurs ; |366| 
    1826 00004c       $C$DW$L$_q14_x$7$E:
    1827 00004c       $C$L58:    
    1828                      .dwpsn  file "C:/Users/a0221074/Desktop/C5000/IBM_Watson_TIdesign_workarea/CSL_bitbucket/c55_csl/c55x
    1829 00004c ED08          MOV dbl(*SP(#4)), AC0 ; |367| 
         00004e 08   
    1830 00004f BC0E          MOV HI(AC0), *SP(#7) ; |367| 
    1831                      .dwpsn  file "C:/Users/a0221074/Desktop/C5000/IBM_Watson_TIdesign_workarea/CSL_bitbucket/c55_csl/c55x
    1832 000051 A50E          MOV *SP(#7), T1 ; |368| 
    1833 000053 D300          MPYM *SP(#0), T1, AC0 ; |368| 
         000055 05   
    1834 000056 EB08          MOV AC0, dbl(*SP(#4)) ; |368| 
         000058 08   
    1835                      .dwpsn  file "C:/Users/a0221074/Desktop/C5000/IBM_Watson_TIdesign_workarea/CSL_bitbucket/c55_csl/c55x
    1836 000059 ED08          MOV dbl(*SP(#4)), AC0 ; |369| 
         00005b 08   
    1837 00005c 1005          SFTS AC0, #2, AC0 ; |369| 
         00005e 02   
    1838 00005f EB08          MOV AC0, dbl(*SP(#4)) ; |369| 
         000061 08   
    1839                      .dwpsn  file "C:/Users/a0221074/Desktop/C5000/IBM_Watson_TIdesign_workarea/CSL_bitbucket/c55_csl/c55x
    1840 000062 A90C          MOV *SP(#6), AR1 ; |370| 
    1841              
    1842 000064 ED08          MOV dbl(*SP(#4)), AC0 ; |370| 
         000066 08   
    1843 000067 3595  ||      NEG AR1, T1 ; |370| 
    1844              
    1845 000069 5C05          SFTS AC0, T1, AC0 ; |370| 
    1846 00006b EB08          MOV AC0, dbl(*SP(#4)) ; |370| 
         00006d 08   
    1847                      .dwpsn  file "C:/Users/a0221074/Desktop/C5000/IBM_Watson_TIdesign_workarea/CSL_bitbucket/c55_csl/c55x
    1848 00006e ED04          MOV dbl(*SP(#2)), AC0 ; |371| 
         000070 08   
    1849 000071 62B0          BCC $C$L59,AC0 <= #0 ; |371| 
    1850                                                      ; branchcc occurs ; |371| 
    1851 000073 ED08          MOV dbl(*SP(#4)), AC0 ; |371| 
         000075 08   
    1852 000076 4A05          B $C$L60  ; |371| 
    1853                                                      ; branch occurs ; |371| 
    1854 000078       $C$L59:    
    1855 000078 ED08          MOV dbl(*SP(#4)), AC0 ; |371| 
         00007a 08   
    1856 00007b 3400          NEG AC0, AC0 ; |371| 
    1857 00007d       $C$L60:    
    1858                      .dwpsn  file "C:/Users/a0221074/Desktop/C5000/IBM_Watson_TIdesign_workarea/CSL_bitbucket/c55_csl/c55x
    1859 00007d 4E09          AADD #9, SP
    1860                      .dwcfi  cfa_offset, 1
TMS320C55x Assembler PC v4.4.1 Wed Sep 13 16:33:14 2017

Tools Copyright (c) 1996-2012 Texas Instruments Incorporated
C:\Users\a0221074\AppData\Local\Temp\0730410                         PAGE   41

    1861              $C$DW$145       .dwtag  DW_TAG_TI_branch
    1862                      .dwattr $C$DW$145, DW_AT_low_pc(0x00)
    1863                      .dwattr $C$DW$145, DW_AT_TI_return
    1864 00007f 4804          RET
    1865                                                      ; return occurs
    1866              
    1867              $C$DW$146       .dwtag  DW_TAG_TI_loop
    1868                      .dwattr $C$DW$146, DW_AT_name("C:\\Users\\a0221074\\AppData\\Local\\Temp\\0730410:$C$L57:1:1505334792
    1869                      .dwattr $C$DW$146, DW_AT_TI_begin_file("C:/Users/a0221074/Desktop/C5000/IBM_Watson_TIdesign_workarea/
    1870                      .dwattr $C$DW$146, DW_AT_TI_begin_line(0x16e)
    1871                      .dwattr $C$DW$146, DW_AT_TI_end_line(0x16e)
    1872              $C$DW$147       .dwtag  DW_TAG_TI_loop_range
    1873                      .dwattr $C$DW$147, DW_AT_low_pc($C$DW$L$_q14_x$7$B)
    1874                      .dwattr $C$DW$147, DW_AT_high_pc($C$DW$L$_q14_x$7$E)
    1875                      .dwendtag $C$DW$146
    1876              
    1877                      .dwattr $C$DW$137, DW_AT_TI_end_file("C:/Users/a0221074/Desktop/C5000/IBM_Watson_TIdesign_workarea/CS
    1878                      .dwattr $C$DW$137, DW_AT_TI_end_line(0x175)
    1879                      .dwattr $C$DW$137, DW_AT_TI_end_column(0x01)
    1880                      .dwendentry
    1881                      .dwendtag $C$DW$137
    1882              
    1883 000000               .sect   ".text:_div32_32_Q"
    1884                      .clink
    1885                      .global _div32_32_Q
    1886              
    1887              $C$DW$148       .dwtag  DW_TAG_subprogram, DW_AT_name("div32_32_Q")
    1888                      .dwattr $C$DW$148, DW_AT_low_pc(_div32_32_Q)
    1889                      .dwattr $C$DW$148, DW_AT_high_pc(0x00)
    1890                      .dwattr $C$DW$148, DW_AT_TI_symbol_name("_div32_32_Q")
    1891                      .dwattr $C$DW$148, DW_AT_external
    1892                      .dwattr $C$DW$148, DW_AT_type(*$C$DW$T$12)
    1893                      .dwattr $C$DW$148, DW_AT_TI_begin_file("C:/Users/a0221074/Desktop/C5000/IBM_Watson_TIdesign_workarea/
    1894                      .dwattr $C$DW$148, DW_AT_TI_begin_line(0x17a)
    1895                      .dwattr $C$DW$148, DW_AT_TI_begin_column(0x1d)
    1896                      .dwattr $C$DW$148, DW_AT_TI_max_frame_size(0x10)
    1897                      .dwpsn  file "C:/Users/a0221074/Desktop/C5000/IBM_Watson_TIdesign_workarea/CSL_bitbucket/c55_csl/c55x
    1898              
    1899                      .dwfde $C$DW$CIE, _div32_32_Q
    1900              $C$DW$149       .dwtag  DW_TAG_formal_parameter, DW_AT_name("num")
    1901                      .dwattr $C$DW$149, DW_AT_TI_symbol_name("_num")
    1902                      .dwattr $C$DW$149, DW_AT_type(*$C$DW$T$12)
    1903                      .dwattr $C$DW$149, DW_AT_location[DW_OP_reg0]
    1904              $C$DW$150       .dwtag  DW_TAG_formal_parameter, DW_AT_name("den")
    1905                      .dwattr $C$DW$150, DW_AT_TI_symbol_name("_den")
    1906                      .dwattr $C$DW$150, DW_AT_type(*$C$DW$T$12)
    1907                      .dwattr $C$DW$150, DW_AT_location[DW_OP_reg3]
    1908              $C$DW$151       .dwtag  DW_TAG_formal_parameter, DW_AT_name("q_prec")
    1909                      .dwattr $C$DW$151, DW_AT_TI_symbol_name("_q_prec")
    1910                      .dwattr $C$DW$151, DW_AT_type(*$C$DW$T$20)
    1911                      .dwattr $C$DW$151, DW_AT_location[DW_OP_reg12]
    1912              ;*******************************************************************************
    1913              ;* FUNCTION NAME: div32_32_Q                                                   *
    1914              ;*                                                                             *
    1915              ;*   Function Uses Regs : AC0,AC0,AC1,AC1,T0,T1,AR1,SP,CARRY,TC1,M40,SATA,SATD,*
TMS320C55x Assembler PC v4.4.1 Wed Sep 13 16:33:14 2017

Tools Copyright (c) 1996-2012 Texas Instruments Incorporated
C:\Users\a0221074\AppData\Local\Temp\0730410                         PAGE   42

    1916              ;*                        RDM,FRCT,SMUL                                        *
    1917              ;*   Stack Frame        : Compact (No Frame Pointer, w/ debug)                 *
    1918              ;*   Total Frame Size   : 16 words                                             *
    1919              ;*                        (1 return address/alignment)                         *
    1920              ;*                        (15 local values)                                    *
    1921              ;*   Min System Stack   : 1 word                                               *
    1922              ;*******************************************************************************
    1923 000000       _div32_32_Q:
    1924                      .dwcfi  cfa_offset, 1
    1925                      .dwcfi  save_reg_to_mem, 91, -1
    1926 000000 4EF1          AADD #-15, SP
    1927                      .dwcfi  cfa_offset, 16
    1928              $C$DW$152       .dwtag  DW_TAG_variable, DW_AT_name("num")
    1929                      .dwattr $C$DW$152, DW_AT_TI_symbol_name("_num")
    1930                      .dwattr $C$DW$152, DW_AT_type(*$C$DW$T$12)
    1931                      .dwattr $C$DW$152, DW_AT_location[DW_OP_bregx 0x24 0]
    1932              $C$DW$153       .dwtag  DW_TAG_variable, DW_AT_name("den")
    1933                      .dwattr $C$DW$153, DW_AT_TI_symbol_name("_den")
    1934                      .dwattr $C$DW$153, DW_AT_type(*$C$DW$T$12)
    1935                      .dwattr $C$DW$153, DW_AT_location[DW_OP_bregx 0x24 2]
    1936              $C$DW$154       .dwtag  DW_TAG_variable, DW_AT_name("q_prec")
    1937                      .dwattr $C$DW$154, DW_AT_TI_symbol_name("_q_prec")
    1938                      .dwattr $C$DW$154, DW_AT_type(*$C$DW$T$20)
    1939                      .dwattr $C$DW$154, DW_AT_location[DW_OP_bregx 0x24 4]
    1940              $C$DW$155       .dwtag  DW_TAG_variable, DW_AT_name("tmp1")
    1941                      .dwattr $C$DW$155, DW_AT_TI_symbol_name("_tmp1")
    1942                      .dwattr $C$DW$155, DW_AT_type(*$C$DW$T$12)
    1943                      .dwattr $C$DW$155, DW_AT_location[DW_OP_bregx 0x24 6]
    1944              $C$DW$156       .dwtag  DW_TAG_variable, DW_AT_name("tmp2")
    1945                      .dwattr $C$DW$156, DW_AT_TI_symbol_name("_tmp2")
    1946                      .dwattr $C$DW$156, DW_AT_type(*$C$DW$T$12)
    1947                      .dwattr $C$DW$156, DW_AT_location[DW_OP_bregx 0x24 8]
    1948              $C$DW$157       .dwtag  DW_TAG_variable, DW_AT_name("tmp3")
    1949                      .dwattr $C$DW$157, DW_AT_TI_symbol_name("_tmp3")
    1950                      .dwattr $C$DW$157, DW_AT_type(*$C$DW$T$12)
    1951                      .dwattr $C$DW$157, DW_AT_location[DW_OP_bregx 0x24 10]
    1952              $C$DW$158       .dwtag  DW_TAG_variable, DW_AT_name("norm_n")
    1953                      .dwattr $C$DW$158, DW_AT_TI_symbol_name("_norm_n")
    1954                      .dwattr $C$DW$158, DW_AT_type(*$C$DW$T$8)
    1955                      .dwattr $C$DW$158, DW_AT_location[DW_OP_bregx 0x24 12]
    1956              $C$DW$159       .dwtag  DW_TAG_variable, DW_AT_name("norm_d")
    1957                      .dwattr $C$DW$159, DW_AT_TI_symbol_name("_norm_d")
    1958                      .dwattr $C$DW$159, DW_AT_type(*$C$DW$T$8)
    1959                      .dwattr $C$DW$159, DW_AT_location[DW_OP_bregx 0x24 13]
    1960              $C$DW$160       .dwtag  DW_TAG_variable, DW_AT_name("d")
    1961                      .dwattr $C$DW$160, DW_AT_TI_symbol_name("_d")
    1962                      .dwattr $C$DW$160, DW_AT_type(*$C$DW$T$8)
    1963                      .dwattr $C$DW$160, DW_AT_location[DW_OP_bregx 0x24 14]
    1964 000002 C408          MOV T0, *SP(#4) ; |379| 
    1965 000004 EB04          MOV AC1, dbl(*SP(#2)) ; |379| 
         000006 18   
    1966 000007 EB00          MOV AC0, dbl(*SP(#0)) ; |379| 
         000009 08   
    1967                      .dwpsn  file "C:/Users/a0221074/Desktop/C5000/IBM_Watson_TIdesign_workarea/CSL_bitbucket/c55_csl/c55x
    1968 00000a ED00          MOV dbl(*SP(#0)), AC0 ; |383| 
TMS320C55x Assembler PC v4.4.1 Wed Sep 13 16:33:14 2017

Tools Copyright (c) 1996-2012 Texas Instruments Incorporated
C:\Users\a0221074\AppData\Local\Temp\0730410                         PAGE   43

         00000c 08   
    1969 00000d 6290          BCC $C$L61,AC0 != #0 ; |383| 
    1970                                                      ; branchcc occurs ; |383| 
    1971                      .dwpsn  file "C:/Users/a0221074/Desktop/C5000/IBM_Watson_TIdesign_workarea/CSL_bitbucket/c55_csl/c55x
    1972 00000f 3C00          MOV #0, AC0 ; |383| 
    1973 000011 0600          B $C$L76  ; |383| 
         000013 E5   
    1974                                                      ; branch occurs ; |383| 
    1975 000014       $C$L61:    
    1976                      .dwpsn  file "C:/Users/a0221074/Desktop/C5000/IBM_Watson_TIdesign_workarea/CSL_bitbucket/c55_csl/c55x
    1977 000014 ED00          MOV dbl(*SP(#0)), AC0 ; |385| 
         000016 08   
    1978 000017 6550          BCC $C$L62,AC0 >= #0 ; |385| 
    1979                                                      ; branchcc occurs ; |385| 
    1980                      .dwpsn  file "C:/Users/a0221074/Desktop/C5000/IBM_Watson_TIdesign_workarea/CSL_bitbucket/c55_csl/c55x
    1981 000019 ED00          MOV dbl(*SP(#0)), AC0 ; |385| 
         00001b 08   
    1982 00001c 3400          NEG AC0, AC0 ; |385| 
    1983 00001e EB0C          MOV AC0, dbl(*SP(#6)) ; |385| 
         000020 08   
    1984 000021 4A06          B $C$L63  ; |385| 
    1985                                                      ; branch occurs ; |385| 
    1986 000023       $C$L62:    
    1987                      .dwpsn  file "C:/Users/a0221074/Desktop/C5000/IBM_Watson_TIdesign_workarea/CSL_bitbucket/c55_csl/c55x
    1988 000023 ED00          MOV dbl(*SP(#0)), AC0 ; |386| 
         000025 08   
    1989 000026 EB0C          MOV AC0, dbl(*SP(#6)) ; |386| 
         000028 08   
    1990 000029       $C$L63:    
    1991                      .dwpsn  file "C:/Users/a0221074/Desktop/C5000/IBM_Watson_TIdesign_workarea/CSL_bitbucket/c55_csl/c55x
    1992 000029 ED04          MOV dbl(*SP(#2)), AC0 ; |388| 
         00002b 08   
    1993 00002c 6550          BCC $C$L64,AC0 >= #0 ; |388| 
    1994                                                      ; branchcc occurs ; |388| 
    1995                      .dwpsn  file "C:/Users/a0221074/Desktop/C5000/IBM_Watson_TIdesign_workarea/CSL_bitbucket/c55_csl/c55x
    1996 00002e ED04          MOV dbl(*SP(#2)), AC0 ; |388| 
         000030 08   
    1997 000031 3400          NEG AC0, AC0 ; |388| 
    1998 000033 EB10          MOV AC0, dbl(*SP(#8)) ; |388| 
         000035 08   
    1999 000036 4A06          B $C$L65  ; |388| 
    2000                                                      ; branch occurs ; |388| 
    2001 000038       $C$L64:    
    2002                      .dwpsn  file "C:/Users/a0221074/Desktop/C5000/IBM_Watson_TIdesign_workarea/CSL_bitbucket/c55_csl/c55x
    2003 000038 ED04          MOV dbl(*SP(#2)), AC0 ; |389| 
         00003a 08   
    2004 00003b EB10          MOV AC0, dbl(*SP(#8)) ; |389| 
         00003d 08   
    2005 00003e       $C$L65:    
    2006                      .dwpsn  file "C:/Users/a0221074/Desktop/C5000/IBM_Watson_TIdesign_workarea/CSL_bitbucket/c55_csl/c55x
    2007 00003e E618          MOV #0, *SP(#12) ; |390| 
         000040 00   
    2008 000041 7A40          MOV #16384 << #16, AC0 ; |390| 
         000043 000A 
    2009 000045 ED0C          MOV dbl(*SP(#6)), AC1 ; |390| 
TMS320C55x Assembler PC v4.4.1 Wed Sep 13 16:33:14 2017

Tools Copyright (c) 1996-2012 Texas Instruments Incorporated
C:\Users\a0221074\AppData\Local\Temp\0730410                         PAGE   44

         000047 18   
    2010 000048 1218          CMP AC1 >= AC0, TC1 ; |390| 
         00004a 00   
    2011 00004b 0464          BCC $C$L67,TC1 ; |390| 
         00004d 19   
    2012                                                      ; branchcc occurs ; |390| 
    2013 00004e       $C$L66:    
    2014 00004e       $C$DW$L$_div32_32_Q$10$B:
    2015 00004e ED0C          MOV dbl(*SP(#6)), AC0 ; |390| 
         000050 08   
    2016 000051 5000          SFTL AC0, #1 ; |390| 
    2017 000053 EB0C          MOV AC0, dbl(*SP(#6)) ; |390| 
         000055 08   
    2018 000056 F718          ADD #1, *SP(#12) ; |390| 
         000058 0001 
    2019 00005a 7A40          MOV #16384 << #16, AC0 ; |390| 
         00005c 000A 
    2020 00005e ED0C          MOV dbl(*SP(#6)), AC1 ; |390| 
         000060 18   
    2021 000061 1214          CMP AC1 < AC0, TC1 ; |390| 
         000063 00   
    2022 000064 0464          BCC $C$L66,TC1 ; |390| 
         000066 E7   
    2023                                                      ; branchcc occurs ; |390| 
    2024 000067       $C$DW$L$_div32_32_Q$10$E:
    2025 000067       $C$L67:    
    2026                      .dwpsn  file "C:/Users/a0221074/Desktop/C5000/IBM_Watson_TIdesign_workarea/CSL_bitbucket/c55_csl/c55x
    2027              
    2028 00006a 3D11          MOV #1, AC1 ; |391| 
    2029 000067 ED10  ||      MOV dbl(*SP(#8)), AC0 ; |391| 
         000069 08   
    2030              
    2031 00006c 1208          CMP AC1 <= AC0, TC1 ; |391| 
         00006e 10   
    2032 00006f 6264          BCC $C$L68,TC1 ; |391| 
    2033                                                      ; branchcc occurs ; |391| 
    2034              
    2035 000071 4A03          B $C$L69  ; |391| 
    2036 000073 3D10  ||      MOV #1, AC0 ; |391| 
    2037              
    2038                                                      ; branch occurs ; |391| 
    2039 000075       $C$L68:    
    2040 000075 ED10          MOV dbl(*SP(#8)), AC0 ; |391| 
         000077 08   
    2041 000078       $C$L69:    
    2042 000078 EB10          MOV AC0, dbl(*SP(#8)) ; |391| 
         00007a 08   
    2043                      .dwpsn  file "C:/Users/a0221074/Desktop/C5000/IBM_Watson_TIdesign_workarea/CSL_bitbucket/c55_csl/c55x
    2044 00007b E61A          MOV #0, *SP(#13) ; |392| 
         00007d 00   
    2045 00007e 7A40          MOV #16384 << #16, AC0 ; |392| 
         000080 000A 
    2046 000082 ED10          MOV dbl(*SP(#8)), AC1 ; |392| 
         000084 18   
    2047 000085 1218          CMP AC1 >= AC0, TC1 ; |392| 
TMS320C55x Assembler PC v4.4.1 Wed Sep 13 16:33:14 2017

Tools Copyright (c) 1996-2012 Texas Instruments Incorporated
C:\Users\a0221074\AppData\Local\Temp\0730410                         PAGE   45

         000087 00   
    2048 000088 0464          BCC $C$L71,TC1 ; |392| 
         00008a 19   
    2049                                                      ; branchcc occurs ; |392| 
    2050 00008b       $C$L70:    
    2051 00008b       $C$DW$L$_div32_32_Q$15$B:
    2052 00008b ED10          MOV dbl(*SP(#8)), AC0 ; |392| 
         00008d 08   
    2053 00008e 5000          SFTL AC0, #1 ; |392| 
    2054 000090 EB10          MOV AC0, dbl(*SP(#8)) ; |392| 
         000092 08   
    2055 000093 F71A          ADD #1, *SP(#13) ; |392| 
         000095 0001 
    2056 000097 7A40          MOV #16384 << #16, AC0 ; |392| 
         000099 000A 
    2057 00009b ED10          MOV dbl(*SP(#8)), AC1 ; |392| 
         00009d 18   
    2058 00009e 1214          CMP AC1 < AC0, TC1 ; |392| 
         0000a0 00   
    2059 0000a1 0464          BCC $C$L70,TC1 ; |392| 
         0000a3 E7   
    2060                                                      ; branchcc occurs ; |392| 
    2061 0000a4       $C$DW$L$_div32_32_Q$15$E:
    2062 0000a4       $C$L71:    
    2063                      .dwpsn  file "C:/Users/a0221074/Desktop/C5000/IBM_Watson_TIdesign_workarea/CSL_bitbucket/c55_csl/c55x
    2064 0000a4 A908          MOV *SP(#4), AR1 ; |393| 
    2065              
    2066 0000a9 3595          NEG AR1, T1 ; |393| 
    2067 0000a6 ED10  ||      MOV dbl(*SP(#8)), AC0 ; |393| 
         0000a8 08   
    2068              
    2069 0000ab 5C05          SFTS AC0, T1, AC0 ; |393| 
    2070 0000ad EB10          MOV AC0, dbl(*SP(#8)) ; |393| 
         0000af 08   
    2071                      .dwpsn  file "C:/Users/a0221074/Desktop/C5000/IBM_Watson_TIdesign_workarea/CSL_bitbucket/c55_csl/c55x
    2072 0000b0 ED10          MOV dbl(*SP(#8)), AC1 ; |394| 
         0000b2 18   
    2073 0000b3 ED0C          MOV dbl(*SP(#6)), AC0 ; |394| 
         0000b5 08   
    2074              $C$DW$161       .dwtag  DW_TAG_TI_branch
    2075                      .dwattr $C$DW$161, DW_AT_low_pc(0x00)
    2076                      .dwattr $C$DW$161, DW_AT_name("__divli")
    2077                      .dwattr $C$DW$161, DW_AT_TI_call
    2078 0000b6 6C00          CALL #__divli ; |394| 
         0000b8 0000!
    2079                                                      ; call occurs [#__divli] ; |394| 
    2080 0000ba EB14          MOV AC0, dbl(*SP(#10)) ; |394| 
         0000bc 08   
    2081                      .dwpsn  file "C:/Users/a0221074/Desktop/C5000/IBM_Watson_TIdesign_workarea/CSL_bitbucket/c55_csl/c55x
    2082 0000bd A918          MOV *SP(#12), AR1 ; |395| 
    2083 0000bf D81A          SUB AR1, *SP(#13), AR1 ; |395| 
         0000c1 99   
    2084 0000c2 C91C          MOV AR1, *SP(#14) ; |395| 
    2085                      .dwpsn  file "C:/Users/a0221074/Desktop/C5000/IBM_Watson_TIdesign_workarea/CSL_bitbucket/c55_csl/c55x
    2086 0000c4 6639          BCC $C$L72,AR1 <= #0 ; |396| 
TMS320C55x Assembler PC v4.4.1 Wed Sep 13 16:33:14 2017

Tools Copyright (c) 1996-2012 Texas Instruments Incorporated
C:\Users\a0221074\AppData\Local\Temp\0730410                         PAGE   46

    2087                                                      ; branchcc occurs ; |396| 
    2088                      .dwpsn  file "C:/Users/a0221074/Desktop/C5000/IBM_Watson_TIdesign_workarea/CSL_bitbucket/c55_csl/c55x
    2089              
    2090 0000c6 ED14          MOV dbl(*SP(#10)), AC0 ; |396| 
         0000c8 08   
    2091 0000c9 2395  ||      MOV AR1, T1 ; |396| 
    2092              
    2093 0000cb 5C05          SFTS AC0, T1, AC0 ; |396| 
    2094 0000cd EB14          MOV AC0, dbl(*SP(#10)) ; |396| 
         0000cf 08   
    2095 0000d0 4A0A          B $C$L73  ; |396| 
    2096                                                      ; branch occurs ; |396| 
    2097 0000d2       $C$L72:    
    2098                      .dwpsn  file "C:/Users/a0221074/Desktop/C5000/IBM_Watson_TIdesign_workarea/CSL_bitbucket/c55_csl/c55x
    2099              
    2100 0000d2 ED14          MOV dbl(*SP(#10)), AC0 ; |397| 
         0000d4 08   
    2101 0000d5 2395  ||      MOV AR1, T1 ; |397| 
    2102              
    2103 0000d7 5C05          SFTS AC0, T1, AC0 ; |397| 
    2104 0000d9 EB14          MOV AC0, dbl(*SP(#10)) ; |397| 
         0000db 08   
    2105 0000dc       $C$L73:    
    2106                      .dwpsn  file "C:/Users/a0221074/Desktop/C5000/IBM_Watson_TIdesign_workarea/CSL_bitbucket/c55_csl/c55x
    2107 0000dc ED00          MOV dbl(*SP(#0)), AC0 ; |398| 
         0000de 08   
    2108 0000df 6450          BCC $C$L74,AC0 >= #0 ; |398| 
    2109                                                      ; branchcc occurs ; |398| 
    2110                      .dwpsn  file "C:/Users/a0221074/Desktop/C5000/IBM_Watson_TIdesign_workarea/CSL_bitbucket/c55_csl/c55x
    2111 0000e1 ED14          MOV dbl(*SP(#10)), AC0 ; |398| 
         0000e3 08   
    2112 0000e4 3400          NEG AC0, AC0 ; |398| 
    2113 0000e6 EB14          MOV AC0, dbl(*SP(#10)) ; |398| 
         0000e8 08   
    2114 0000e9       $C$L74:    
    2115                      .dwpsn  file "C:/Users/a0221074/Desktop/C5000/IBM_Watson_TIdesign_workarea/CSL_bitbucket/c55_csl/c55x
    2116 0000e9 ED04          MOV dbl(*SP(#2)), AC0 ; |399| 
         0000eb 08   
    2117 0000ec 6450          BCC $C$L75,AC0 >= #0 ; |399| 
    2118                                                      ; branchcc occurs ; |399| 
    2119                      .dwpsn  file "C:/Users/a0221074/Desktop/C5000/IBM_Watson_TIdesign_workarea/CSL_bitbucket/c55_csl/c55x
    2120 0000ee ED14          MOV dbl(*SP(#10)), AC0 ; |399| 
         0000f0 08   
    2121 0000f1 3400          NEG AC0, AC0 ; |399| 
    2122 0000f3 EB14          MOV AC0, dbl(*SP(#10)) ; |399| 
         0000f5 08   
    2123 0000f6       $C$L75:    
    2124                      .dwpsn  file "C:/Users/a0221074/Desktop/C5000/IBM_Watson_TIdesign_workarea/CSL_bitbucket/c55_csl/c55x
    2125 0000f6 ED14          MOV dbl(*SP(#10)), AC0 ; |400| 
         0000f8 08   
    2126 0000f9       $C$L76:    
    2127                      .dwpsn  file "C:/Users/a0221074/Desktop/C5000/IBM_Watson_TIdesign_workarea/CSL_bitbucket/c55_csl/c55x
    2128 0000f9 4E0F          AADD #15, SP
    2129                      .dwcfi  cfa_offset, 1
    2130              $C$DW$162       .dwtag  DW_TAG_TI_branch
TMS320C55x Assembler PC v4.4.1 Wed Sep 13 16:33:14 2017

Tools Copyright (c) 1996-2012 Texas Instruments Incorporated
C:\Users\a0221074\AppData\Local\Temp\0730410                         PAGE   47

    2131                      .dwattr $C$DW$162, DW_AT_low_pc(0x00)
    2132                      .dwattr $C$DW$162, DW_AT_TI_return
    2133 0000fb 4804          RET
    2134                                                      ; return occurs
    2135              
    2136              $C$DW$163       .dwtag  DW_TAG_TI_loop
    2137                      .dwattr $C$DW$163, DW_AT_name("C:\\Users\\a0221074\\AppData\\Local\\Temp\\0730410:$C$L70:1:1505334792
    2138                      .dwattr $C$DW$163, DW_AT_TI_begin_file("C:/Users/a0221074/Desktop/C5000/IBM_Watson_TIdesign_workarea/
    2139                      .dwattr $C$DW$163, DW_AT_TI_begin_line(0x188)
    2140                      .dwattr $C$DW$163, DW_AT_TI_end_line(0x188)
    2141              $C$DW$164       .dwtag  DW_TAG_TI_loop_range
    2142                      .dwattr $C$DW$164, DW_AT_low_pc($C$DW$L$_div32_32_Q$15$B)
    2143                      .dwattr $C$DW$164, DW_AT_high_pc($C$DW$L$_div32_32_Q$15$E)
    2144                      .dwendtag $C$DW$163
    2145              
    2146              
    2147              $C$DW$165       .dwtag  DW_TAG_TI_loop
    2148                      .dwattr $C$DW$165, DW_AT_name("C:\\Users\\a0221074\\AppData\\Local\\Temp\\0730410:$C$L66:1:1505334792
    2149                      .dwattr $C$DW$165, DW_AT_TI_begin_file("C:/Users/a0221074/Desktop/C5000/IBM_Watson_TIdesign_workarea/
    2150                      .dwattr $C$DW$165, DW_AT_TI_begin_line(0x186)
    2151                      .dwattr $C$DW$165, DW_AT_TI_end_line(0x186)
    2152              $C$DW$166       .dwtag  DW_TAG_TI_loop_range
    2153                      .dwattr $C$DW$166, DW_AT_low_pc($C$DW$L$_div32_32_Q$10$B)
    2154                      .dwattr $C$DW$166, DW_AT_high_pc($C$DW$L$_div32_32_Q$10$E)
    2155                      .dwendtag $C$DW$165
    2156              
    2157                      .dwattr $C$DW$148, DW_AT_TI_end_file("C:/Users/a0221074/Desktop/C5000/IBM_Watson_TIdesign_workarea/CS
    2158                      .dwattr $C$DW$148, DW_AT_TI_end_line(0x192)
    2159                      .dwattr $C$DW$148, DW_AT_TI_end_column(0x01)
    2160                      .dwendentry
    2161                      .dwendtag $C$DW$148
    2162              
    2163 000000               .sect   ".text:_div32_32"
    2164                      .clink
    2165                      .global _div32_32
    2166              
    2167              $C$DW$167       .dwtag  DW_TAG_subprogram, DW_AT_name("div32_32")
    2168                      .dwattr $C$DW$167, DW_AT_low_pc(_div32_32)
    2169                      .dwattr $C$DW$167, DW_AT_high_pc(0x00)
    2170                      .dwattr $C$DW$167, DW_AT_TI_symbol_name("_div32_32")
    2171                      .dwattr $C$DW$167, DW_AT_external
    2172                      .dwattr $C$DW$167, DW_AT_type(*$C$DW$T$12)
    2173                      .dwattr $C$DW$167, DW_AT_TI_begin_file("C:/Users/a0221074/Desktop/C5000/IBM_Watson_TIdesign_workarea/
    2174                      .dwattr $C$DW$167, DW_AT_TI_begin_line(0x198)
    2175                      .dwattr $C$DW$167, DW_AT_TI_begin_column(0x06)
    2176                      .dwattr $C$DW$167, DW_AT_TI_max_frame_size(0x0e)
    2177                      .dwpsn  file "C:/Users/a0221074/Desktop/C5000/IBM_Watson_TIdesign_workarea/CSL_bitbucket/c55_csl/c55x
    2178              
    2179                      .dwfde $C$DW$CIE, _div32_32
    2180              $C$DW$168       .dwtag  DW_TAG_formal_parameter, DW_AT_name("num")
    2181                      .dwattr $C$DW$168, DW_AT_TI_symbol_name("_num")
    2182                      .dwattr $C$DW$168, DW_AT_type(*$C$DW$T$12)
    2183                      .dwattr $C$DW$168, DW_AT_location[DW_OP_reg0]
    2184              $C$DW$169       .dwtag  DW_TAG_formal_parameter, DW_AT_name("den")
    2185                      .dwattr $C$DW$169, DW_AT_TI_symbol_name("_den")
TMS320C55x Assembler PC v4.4.1 Wed Sep 13 16:33:14 2017

Tools Copyright (c) 1996-2012 Texas Instruments Incorporated
C:\Users\a0221074\AppData\Local\Temp\0730410                         PAGE   48

    2186                      .dwattr $C$DW$169, DW_AT_type(*$C$DW$T$12)
    2187                      .dwattr $C$DW$169, DW_AT_location[DW_OP_reg3]
    2188              ;*******************************************************************************
    2189              ;* FUNCTION NAME: div32_32                                                     *
    2190              ;*                                                                             *
    2191              ;*   Function Uses Regs : AC0,AC0,AC1,AC1,T1,AR1,SP,CARRY,TC1,M40,SATA,SATD,   *
    2192              ;*                        RDM,FRCT,SMUL                                        *
    2193              ;*   Stack Frame        : Compact (No Frame Pointer, w/ debug)                 *
    2194              ;*   Total Frame Size   : 14 words                                             *
    2195              ;*                        (1 return address/alignment)                         *
    2196              ;*                        (13 local values)                                    *
    2197              ;*   Min System Stack   : 1 word                                               *
    2198              ;*******************************************************************************
    2199 000000       _div32_32:
    2200                      .dwcfi  cfa_offset, 1
    2201                      .dwcfi  save_reg_to_mem, 91, -1
    2202 000000 4EF3          AADD #-13, SP
    2203                      .dwcfi  cfa_offset, 14
    2204              $C$DW$170       .dwtag  DW_TAG_variable, DW_AT_name("num")
    2205                      .dwattr $C$DW$170, DW_AT_TI_symbol_name("_num")
    2206                      .dwattr $C$DW$170, DW_AT_type(*$C$DW$T$12)
    2207                      .dwattr $C$DW$170, DW_AT_location[DW_OP_bregx 0x24 0]
    2208              $C$DW$171       .dwtag  DW_TAG_variable, DW_AT_name("den")
    2209                      .dwattr $C$DW$171, DW_AT_TI_symbol_name("_den")
    2210                      .dwattr $C$DW$171, DW_AT_type(*$C$DW$T$12)
    2211                      .dwattr $C$DW$171, DW_AT_location[DW_OP_bregx 0x24 2]
    2212              $C$DW$172       .dwtag  DW_TAG_variable, DW_AT_name("tmp1")
    2213                      .dwattr $C$DW$172, DW_AT_TI_symbol_name("_tmp1")
    2214                      .dwattr $C$DW$172, DW_AT_type(*$C$DW$T$12)
    2215                      .dwattr $C$DW$172, DW_AT_location[DW_OP_bregx 0x24 4]
    2216              $C$DW$173       .dwtag  DW_TAG_variable, DW_AT_name("tmp2")
    2217                      .dwattr $C$DW$173, DW_AT_TI_symbol_name("_tmp2")
    2218                      .dwattr $C$DW$173, DW_AT_type(*$C$DW$T$12)
    2219                      .dwattr $C$DW$173, DW_AT_location[DW_OP_bregx 0x24 6]
    2220              $C$DW$174       .dwtag  DW_TAG_variable, DW_AT_name("tmp3")
    2221                      .dwattr $C$DW$174, DW_AT_TI_symbol_name("_tmp3")
    2222                      .dwattr $C$DW$174, DW_AT_type(*$C$DW$T$12)
    2223                      .dwattr $C$DW$174, DW_AT_location[DW_OP_bregx 0x24 8]
    2224              $C$DW$175       .dwtag  DW_TAG_variable, DW_AT_name("norm_n")
    2225                      .dwattr $C$DW$175, DW_AT_TI_symbol_name("_norm_n")
    2226                      .dwattr $C$DW$175, DW_AT_type(*$C$DW$T$8)
    2227                      .dwattr $C$DW$175, DW_AT_location[DW_OP_bregx 0x24 10]
    2228              $C$DW$176       .dwtag  DW_TAG_variable, DW_AT_name("norm_d")
    2229                      .dwattr $C$DW$176, DW_AT_TI_symbol_name("_norm_d")
    2230                      .dwattr $C$DW$176, DW_AT_type(*$C$DW$T$8)
    2231                      .dwattr $C$DW$176, DW_AT_location[DW_OP_bregx 0x24 11]
    2232              $C$DW$177       .dwtag  DW_TAG_variable, DW_AT_name("d")
    2233                      .dwattr $C$DW$177, DW_AT_TI_symbol_name("_d")
    2234                      .dwattr $C$DW$177, DW_AT_type(*$C$DW$T$8)
    2235                      .dwattr $C$DW$177, DW_AT_location[DW_OP_bregx 0x24 12]
    2236 000002 EB04          MOV AC1, dbl(*SP(#2)) ; |409| 
         000004 18   
    2237 000005 EB00          MOV AC0, dbl(*SP(#0)) ; |409| 
         000007 08   
    2238                      .dwpsn  file "C:/Users/a0221074/Desktop/C5000/IBM_Watson_TIdesign_workarea/CSL_bitbucket/c55_csl/c55x
TMS320C55x Assembler PC v4.4.1 Wed Sep 13 16:33:14 2017

Tools Copyright (c) 1996-2012 Texas Instruments Incorporated
C:\Users\a0221074\AppData\Local\Temp\0730410                         PAGE   49

    2239 000008 ED00          MOV dbl(*SP(#0)), AC0 ; |413| 
         00000a 08   
    2240 00000b 6290          BCC $C$L77,AC0 != #0 ; |413| 
    2241                                                      ; branchcc occurs ; |413| 
    2242                      .dwpsn  file "C:/Users/a0221074/Desktop/C5000/IBM_Watson_TIdesign_workarea/CSL_bitbucket/c55_csl/c55x
    2243 00000d 3C00          MOV #0, AC0 ; |413| 
    2244 00000f 0600          B $C$L92  ; |413| 
         000011 DE   
    2245                                                      ; branch occurs ; |413| 
    2246 000012       $C$L77:    
    2247                      .dwpsn  file "C:/Users/a0221074/Desktop/C5000/IBM_Watson_TIdesign_workarea/CSL_bitbucket/c55_csl/c55x
    2248 000012 ED00          MOV dbl(*SP(#0)), AC0 ; |415| 
         000014 08   
    2249 000015 6550          BCC $C$L78,AC0 >= #0 ; |415| 
    2250                                                      ; branchcc occurs ; |415| 
    2251                      .dwpsn  file "C:/Users/a0221074/Desktop/C5000/IBM_Watson_TIdesign_workarea/CSL_bitbucket/c55_csl/c55x
    2252 000017 ED00          MOV dbl(*SP(#0)), AC0 ; |415| 
         000019 08   
    2253 00001a 3400          NEG AC0, AC0 ; |415| 
    2254 00001c EB08          MOV AC0, dbl(*SP(#4)) ; |415| 
         00001e 08   
    2255 00001f 4A06          B $C$L79  ; |415| 
    2256                                                      ; branch occurs ; |415| 
    2257 000021       $C$L78:    
    2258                      .dwpsn  file "C:/Users/a0221074/Desktop/C5000/IBM_Watson_TIdesign_workarea/CSL_bitbucket/c55_csl/c55x
    2259 000021 ED00          MOV dbl(*SP(#0)), AC0 ; |416| 
         000023 08   
    2260 000024 EB08          MOV AC0, dbl(*SP(#4)) ; |416| 
         000026 08   
    2261 000027       $C$L79:    
    2262                      .dwpsn  file "C:/Users/a0221074/Desktop/C5000/IBM_Watson_TIdesign_workarea/CSL_bitbucket/c55_csl/c55x
    2263 000027 ED04          MOV dbl(*SP(#2)), AC0 ; |417| 
         000029 08   
    2264 00002a 6550          BCC $C$L80,AC0 >= #0 ; |417| 
    2265                                                      ; branchcc occurs ; |417| 
    2266                      .dwpsn  file "C:/Users/a0221074/Desktop/C5000/IBM_Watson_TIdesign_workarea/CSL_bitbucket/c55_csl/c55x
    2267 00002c ED04          MOV dbl(*SP(#2)), AC0 ; |417| 
         00002e 08   
    2268 00002f 3400          NEG AC0, AC0 ; |417| 
    2269 000031 EB0C          MOV AC0, dbl(*SP(#6)) ; |417| 
         000033 08   
    2270 000034 4A06          B $C$L81  ; |417| 
    2271                                                      ; branch occurs ; |417| 
    2272 000036       $C$L80:    
    2273                      .dwpsn  file "C:/Users/a0221074/Desktop/C5000/IBM_Watson_TIdesign_workarea/CSL_bitbucket/c55_csl/c55x
    2274 000036 ED04          MOV dbl(*SP(#2)), AC0 ; |418| 
         000038 08   
    2275 000039 EB0C          MOV AC0, dbl(*SP(#6)) ; |418| 
         00003b 08   
    2276 00003c       $C$L81:    
    2277                      .dwpsn  file "C:/Users/a0221074/Desktop/C5000/IBM_Watson_TIdesign_workarea/CSL_bitbucket/c55_csl/c55x
    2278              
    2279 00003f 3D11          MOV #1, AC1 ; |419| 
    2280 00003c ED0C  ||      MOV dbl(*SP(#6)), AC0 ; |419| 
         00003e 08   
TMS320C55x Assembler PC v4.4.1 Wed Sep 13 16:33:14 2017

Tools Copyright (c) 1996-2012 Texas Instruments Incorporated
C:\Users\a0221074\AppData\Local\Temp\0730410                         PAGE   50

    2281              
    2282 000041 1208          CMP AC1 <= AC0, TC1 ; |419| 
         000043 10   
    2283 000044 6264          BCC $C$L82,TC1 ; |419| 
    2284                                                      ; branchcc occurs ; |419| 
    2285              
    2286 000046 4A03          B $C$L83  ; |419| 
    2287 000048 3D10  ||      MOV #1, AC0 ; |419| 
    2288              
    2289                                                      ; branch occurs ; |419| 
    2290 00004a       $C$L82:    
    2291 00004a ED0C          MOV dbl(*SP(#6)), AC0 ; |419| 
         00004c 08   
    2292 00004d       $C$L83:    
    2293 00004d EB0C          MOV AC0, dbl(*SP(#6)) ; |419| 
         00004f 08   
    2294                      .dwpsn  file "C:/Users/a0221074/Desktop/C5000/IBM_Watson_TIdesign_workarea/CSL_bitbucket/c55_csl/c55x
    2295 000050 E614          MOV #0, *SP(#10) ; |421| 
         000052 00   
    2296 000053 7A40          MOV #16384 << #16, AC0 ; |421| 
         000055 000A 
    2297 000057 ED08          MOV dbl(*SP(#4)), AC1 ; |421| 
         000059 18   
    2298 00005a 1218          CMP AC1 >= AC0, TC1 ; |421| 
         00005c 00   
    2299 00005d 0464          BCC $C$L85,TC1 ; |421| 
         00005f 19   
    2300                                                      ; branchcc occurs ; |421| 
    2301 000060       $C$L84:    
    2302 000060       $C$DW$L$_div32_32$13$B:
    2303 000060 ED08          MOV dbl(*SP(#4)), AC0 ; |421| 
         000062 08   
    2304 000063 5000          SFTL AC0, #1 ; |421| 
    2305 000065 EB08          MOV AC0, dbl(*SP(#4)) ; |421| 
         000067 08   
    2306 000068 F714          ADD #1, *SP(#10) ; |421| 
         00006a 0001 
    2307 00006c 7A40          MOV #16384 << #16, AC0 ; |421| 
         00006e 000A 
    2308 000070 ED08          MOV dbl(*SP(#4)), AC1 ; |421| 
         000072 18   
    2309 000073 1214          CMP AC1 < AC0, TC1 ; |421| 
         000075 00   
    2310 000076 0464          BCC $C$L84,TC1 ; |421| 
         000078 E7   
    2311                                                      ; branchcc occurs ; |421| 
    2312 000079       $C$DW$L$_div32_32$13$E:
    2313 000079       $C$L85:    
    2314                      .dwpsn  file "C:/Users/a0221074/Desktop/C5000/IBM_Watson_TIdesign_workarea/CSL_bitbucket/c55_csl/c55x
    2315 000079 E616          MOV #0, *SP(#11) ; |422| 
         00007b 00   
    2316 00007c ED0C          MOV dbl(*SP(#6)), AC1 ; |422| 
         00007e 18   
    2317 00007f 1218          CMP AC1 >= AC0, TC1 ; |422| 
         000081 00   
TMS320C55x Assembler PC v4.4.1 Wed Sep 13 16:33:14 2017

Tools Copyright (c) 1996-2012 Texas Instruments Incorporated
C:\Users\a0221074\AppData\Local\Temp\0730410                         PAGE   51

    2318 000082 0464          BCC $C$L87,TC1 ; |422| 
         000084 19   
    2319                                                      ; branchcc occurs ; |422| 
    2320 000085       $C$L86:    
    2321 000085       $C$DW$L$_div32_32$15$B:
    2322 000085 ED0C          MOV dbl(*SP(#6)), AC0 ; |422| 
         000087 08   
    2323 000088 5000          SFTL AC0, #1 ; |422| 
    2324 00008a EB0C          MOV AC0, dbl(*SP(#6)) ; |422| 
         00008c 08   
    2325 00008d F716          ADD #1, *SP(#11) ; |422| 
         00008f 0001 
    2326 000091 7A40          MOV #16384 << #16, AC0 ; |422| 
         000093 000A 
    2327 000095 ED0C          MOV dbl(*SP(#6)), AC1 ; |422| 
         000097 18   
    2328 000098 1214          CMP AC1 < AC0, TC1 ; |422| 
         00009a 00   
    2329 00009b 0464          BCC $C$L86,TC1 ; |422| 
         00009d E7   
    2330                                                      ; branchcc occurs ; |422| 
    2331 00009e       $C$DW$L$_div32_32$15$E:
    2332 00009e       $C$L87:    
    2333                      .dwpsn  file "C:/Users/a0221074/Desktop/C5000/IBM_Watson_TIdesign_workarea/CSL_bitbucket/c55_csl/c55x
    2334 00009e ED0C          MOV dbl(*SP(#6)), AC0 ; |423| 
         0000a0 08   
    2335 0000a1 1005          SFTS AC0, #-9, AC0 ; |423| 
         0000a3 37   
    2336 0000a4 EB0C          MOV AC0, dbl(*SP(#6)) ; |423| 
         0000a6 08   
    2337                      .dwpsn  file "C:/Users/a0221074/Desktop/C5000/IBM_Watson_TIdesign_workarea/CSL_bitbucket/c55_csl/c55x
    2338 0000a7 ED0C          MOV dbl(*SP(#6)), AC1 ; |424| 
         0000a9 18   
    2339 0000aa ED08          MOV dbl(*SP(#4)), AC0 ; |424| 
         0000ac 08   
    2340              $C$DW$178       .dwtag  DW_TAG_TI_branch
    2341                      .dwattr $C$DW$178, DW_AT_low_pc(0x00)
    2342                      .dwattr $C$DW$178, DW_AT_name("__divli")
    2343                      .dwattr $C$DW$178, DW_AT_TI_call
    2344 0000ad 6C00          CALL #__divli ; |424| 
         0000af 0000!
    2345                                                      ; call occurs [#__divli] ; |424| 
    2346 0000b1 EB10          MOV AC0, dbl(*SP(#8)) ; |424| 
         0000b3 08   
    2347                      .dwpsn  file "C:/Users/a0221074/Desktop/C5000/IBM_Watson_TIdesign_workarea/CSL_bitbucket/c55_csl/c55x
    2348 0000b4 A914          MOV *SP(#10), AR1 ; |425| 
    2349 0000b6 D816          SUB AR1, *SP(#11), AR1 ; |425| 
         0000b8 99   
    2350 0000b9 C918          MOV AR1, *SP(#12) ; |425| 
    2351                      .dwpsn  file "C:/Users/a0221074/Desktop/C5000/IBM_Watson_TIdesign_workarea/CSL_bitbucket/c55_csl/c55x
    2352 0000bb 6639          BCC $C$L88,AR1 <= #0 ; |426| 
    2353                                                      ; branchcc occurs ; |426| 
    2354                      .dwpsn  file "C:/Users/a0221074/Desktop/C5000/IBM_Watson_TIdesign_workarea/CSL_bitbucket/c55_csl/c55x
    2355              
    2356 0000bd ED10          MOV dbl(*SP(#8)), AC0 ; |426| 
TMS320C55x Assembler PC v4.4.1 Wed Sep 13 16:33:14 2017

Tools Copyright (c) 1996-2012 Texas Instruments Incorporated
C:\Users\a0221074\AppData\Local\Temp\0730410                         PAGE   52

         0000bf 08   
    2357 0000c0 2395  ||      MOV AR1, T1 ; |426| 
    2358              
    2359 0000c2 5C05          SFTS AC0, T1, AC0 ; |426| 
    2360 0000c4 EB10          MOV AC0, dbl(*SP(#8)) ; |426| 
         0000c6 08   
    2361 0000c7 4A0A          B $C$L89  ; |426| 
    2362                                                      ; branch occurs ; |426| 
    2363 0000c9       $C$L88:    
    2364                      .dwpsn  file "C:/Users/a0221074/Desktop/C5000/IBM_Watson_TIdesign_workarea/CSL_bitbucket/c55_csl/c55x
    2365              
    2366 0000c9 ED10          MOV dbl(*SP(#8)), AC0 ; |427| 
         0000cb 08   
    2367 0000cc 2395  ||      MOV AR1, T1 ; |427| 
    2368              
    2369 0000ce 5C05          SFTS AC0, T1, AC0 ; |427| 
    2370 0000d0 EB10          MOV AC0, dbl(*SP(#8)) ; |427| 
         0000d2 08   
    2371 0000d3       $C$L89:    
    2372                      .dwpsn  file "C:/Users/a0221074/Desktop/C5000/IBM_Watson_TIdesign_workarea/CSL_bitbucket/c55_csl/c55x
    2373 0000d3 ED00          MOV dbl(*SP(#0)), AC0 ; |428| 
         0000d5 08   
    2374 0000d6 6450          BCC $C$L90,AC0 >= #0 ; |428| 
    2375                                                      ; branchcc occurs ; |428| 
    2376                      .dwpsn  file "C:/Users/a0221074/Desktop/C5000/IBM_Watson_TIdesign_workarea/CSL_bitbucket/c55_csl/c55x
    2377 0000d8 ED10          MOV dbl(*SP(#8)), AC0 ; |428| 
         0000da 08   
    2378 0000db 3400          NEG AC0, AC0 ; |428| 
    2379 0000dd EB10          MOV AC0, dbl(*SP(#8)) ; |428| 
         0000df 08   
    2380 0000e0       $C$L90:    
    2381                      .dwpsn  file "C:/Users/a0221074/Desktop/C5000/IBM_Watson_TIdesign_workarea/CSL_bitbucket/c55_csl/c55x
    2382 0000e0 ED04          MOV dbl(*SP(#2)), AC0 ; |429| 
         0000e2 08   
    2383 0000e3 6450          BCC $C$L91,AC0 >= #0 ; |429| 
    2384                                                      ; branchcc occurs ; |429| 
    2385                      .dwpsn  file "C:/Users/a0221074/Desktop/C5000/IBM_Watson_TIdesign_workarea/CSL_bitbucket/c55_csl/c55x
    2386 0000e5 ED10          MOV dbl(*SP(#8)), AC0 ; |429| 
         0000e7 08   
    2387 0000e8 3400          NEG AC0, AC0 ; |429| 
    2388 0000ea EB10          MOV AC0, dbl(*SP(#8)) ; |429| 
         0000ec 08   
    2389 0000ed       $C$L91:    
    2390                      .dwpsn  file "C:/Users/a0221074/Desktop/C5000/IBM_Watson_TIdesign_workarea/CSL_bitbucket/c55_csl/c55x
    2391 0000ed ED10          MOV dbl(*SP(#8)), AC0 ; |430| 
         0000ef 08   
    2392 0000f0       $C$L92:    
    2393                      .dwpsn  file "C:/Users/a0221074/Desktop/C5000/IBM_Watson_TIdesign_workarea/CSL_bitbucket/c55_csl/c55x
    2394 0000f0 4E0D          AADD #13, SP
    2395                      .dwcfi  cfa_offset, 1
    2396              $C$DW$179       .dwtag  DW_TAG_TI_branch
    2397                      .dwattr $C$DW$179, DW_AT_low_pc(0x00)
    2398                      .dwattr $C$DW$179, DW_AT_TI_return
    2399 0000f2 4804          RET
    2400                                                      ; return occurs
TMS320C55x Assembler PC v4.4.1 Wed Sep 13 16:33:14 2017

Tools Copyright (c) 1996-2012 Texas Instruments Incorporated
C:\Users\a0221074\AppData\Local\Temp\0730410                         PAGE   53

    2401              
    2402              $C$DW$180       .dwtag  DW_TAG_TI_loop
    2403                      .dwattr $C$DW$180, DW_AT_name("C:\\Users\\a0221074\\AppData\\Local\\Temp\\0730410:$C$L86:1:1505334792
    2404                      .dwattr $C$DW$180, DW_AT_TI_begin_file("C:/Users/a0221074/Desktop/C5000/IBM_Watson_TIdesign_workarea/
    2405                      .dwattr $C$DW$180, DW_AT_TI_begin_line(0x1a6)
    2406                      .dwattr $C$DW$180, DW_AT_TI_end_line(0x1a6)
    2407              $C$DW$181       .dwtag  DW_TAG_TI_loop_range
    2408                      .dwattr $C$DW$181, DW_AT_low_pc($C$DW$L$_div32_32$15$B)
    2409                      .dwattr $C$DW$181, DW_AT_high_pc($C$DW$L$_div32_32$15$E)
    2410                      .dwendtag $C$DW$180
    2411              
    2412              
    2413              $C$DW$182       .dwtag  DW_TAG_TI_loop
    2414                      .dwattr $C$DW$182, DW_AT_name("C:\\Users\\a0221074\\AppData\\Local\\Temp\\0730410:$C$L84:1:1505334792
    2415                      .dwattr $C$DW$182, DW_AT_TI_begin_file("C:/Users/a0221074/Desktop/C5000/IBM_Watson_TIdesign_workarea/
    2416                      .dwattr $C$DW$182, DW_AT_TI_begin_line(0x1a5)
    2417                      .dwattr $C$DW$182, DW_AT_TI_end_line(0x1a5)
    2418              $C$DW$183       .dwtag  DW_TAG_TI_loop_range
    2419                      .dwattr $C$DW$183, DW_AT_low_pc($C$DW$L$_div32_32$13$B)
    2420                      .dwattr $C$DW$183, DW_AT_high_pc($C$DW$L$_div32_32$13$E)
    2421                      .dwendtag $C$DW$182
    2422              
    2423                      .dwattr $C$DW$167, DW_AT_TI_end_file("C:/Users/a0221074/Desktop/C5000/IBM_Watson_TIdesign_workarea/CS
    2424                      .dwattr $C$DW$167, DW_AT_TI_end_line(0x1b0)
    2425                      .dwattr $C$DW$167, DW_AT_TI_end_column(0x01)
    2426                      .dwendentry
    2427                      .dwendtag $C$DW$167
    2428              
    2429 000000               .sect   ".text:_fx_sqrt"
    2430                      .clink
    2431                      .global _fx_sqrt
    2432              
    2433              $C$DW$184       .dwtag  DW_TAG_subprogram, DW_AT_name("fx_sqrt")
    2434                      .dwattr $C$DW$184, DW_AT_low_pc(_fx_sqrt)
    2435                      .dwattr $C$DW$184, DW_AT_high_pc(0x00)
    2436                      .dwattr $C$DW$184, DW_AT_TI_symbol_name("_fx_sqrt")
    2437                      .dwattr $C$DW$184, DW_AT_external
    2438                      .dwattr $C$DW$184, DW_AT_type(*$C$DW$T$12)
    2439                      .dwattr $C$DW$184, DW_AT_TI_begin_file("C:/Users/a0221074/Desktop/C5000/IBM_Watson_TIdesign_workarea/
    2440                      .dwattr $C$DW$184, DW_AT_TI_begin_line(0x1b5)
    2441                      .dwattr $C$DW$184, DW_AT_TI_begin_column(0x1d)
    2442                      .dwattr $C$DW$184, DW_AT_TI_max_frame_size(0x0a)
    2443                      .dwpsn  file "C:/Users/a0221074/Desktop/C5000/IBM_Watson_TIdesign_workarea/CSL_bitbucket/c55_csl/c55x
    2444              
    2445                      .dwfde $C$DW$CIE, _fx_sqrt
    2446              $C$DW$185       .dwtag  DW_TAG_formal_parameter, DW_AT_name("x")
    2447                      .dwattr $C$DW$185, DW_AT_TI_symbol_name("_x")
    2448                      .dwattr $C$DW$185, DW_AT_type(*$C$DW$T$12)
    2449                      .dwattr $C$DW$185, DW_AT_location[DW_OP_reg0]
    2450              ;*******************************************************************************
    2451              ;* FUNCTION NAME: fx_sqrt                                                      *
    2452              ;*                                                                             *
    2453              ;*   Function Uses Regs : AC0,AC0,AC1,AC1,AR1,AR2,SP,CARRY,TC1,M40,SATA,SATD,  *
    2454              ;*                        RDM,FRCT,SMUL                                        *
    2455              ;*   Stack Frame        : Compact (No Frame Pointer, w/ debug)                 *
TMS320C55x Assembler PC v4.4.1 Wed Sep 13 16:33:14 2017

Tools Copyright (c) 1996-2012 Texas Instruments Incorporated
C:\Users\a0221074\AppData\Local\Temp\0730410                         PAGE   54

    2456              ;*   Total Frame Size   : 10 words                                             *
    2457              ;*                        (2 return address/alignment)                         *
    2458              ;*                        (8 local values)                                     *
    2459              ;*   Min System Stack   : 1 word                                               *
    2460              ;*******************************************************************************
    2461 000000       _fx_sqrt:
    2462                      .dwcfi  cfa_offset, 1
    2463                      .dwcfi  save_reg_to_mem, 91, -1
    2464 000000 4EF7          AADD #-9, SP
    2465                      .dwcfi  cfa_offset, 10
    2466              $C$DW$186       .dwtag  DW_TAG_variable, DW_AT_name("x")
    2467                      .dwattr $C$DW$186, DW_AT_TI_symbol_name("_x")
    2468                      .dwattr $C$DW$186, DW_AT_type(*$C$DW$T$12)
    2469                      .dwattr $C$DW$186, DW_AT_location[DW_OP_bregx 0x24 0]
    2470              $C$DW$187       .dwtag  DW_TAG_variable, DW_AT_name("y0")
    2471                      .dwattr $C$DW$187, DW_AT_TI_symbol_name("_y0")
    2472                      .dwattr $C$DW$187, DW_AT_type(*$C$DW$T$12)
    2473                      .dwattr $C$DW$187, DW_AT_location[DW_OP_bregx 0x24 2]
    2474              $C$DW$188       .dwtag  DW_TAG_variable, DW_AT_name("y1")
    2475                      .dwattr $C$DW$188, DW_AT_TI_symbol_name("_y1")
    2476                      .dwattr $C$DW$188, DW_AT_type(*$C$DW$T$12)
    2477                      .dwattr $C$DW$188, DW_AT_location[DW_OP_bregx 0x24 4]
    2478              $C$DW$189       .dwtag  DW_TAG_variable, DW_AT_name("z")
    2479                      .dwattr $C$DW$189, DW_AT_TI_symbol_name("_z")
    2480                      .dwattr $C$DW$189, DW_AT_type(*$C$DW$T$12)
    2481                      .dwattr $C$DW$189, DW_AT_location[DW_OP_bregx 0x24 6]
    2482 000002 EB00          MOV AC0, dbl(*SP(#0)) ; |438| 
         000004 08   
    2483                      .dwpsn  file "C:/Users/a0221074/Desktop/C5000/IBM_Watson_TIdesign_workarea/CSL_bitbucket/c55_csl/c55x
    2484 000005 ED00          MOV dbl(*SP(#0)), AC0 ; |441| 
         000007 08   
    2485 000008 6440          BCC $C$L93,AC0 > #0 ; |441| 
    2486                                                      ; branchcc occurs ; |441| 
    2487                      .dwpsn  file "C:/Users/a0221074/Desktop/C5000/IBM_Watson_TIdesign_workarea/CSL_bitbucket/c55_csl/c55x
    2488 00000a 3C00          MOV #0, AC0 ; |442| 
    2489 00000c EB08          MOV AC0, dbl(*SP(#4)) ; |442| 
         00000e 08   
    2490                      .dwpsn  file "C:/Users/a0221074/Desktop/C5000/IBM_Watson_TIdesign_workarea/CSL_bitbucket/c55_csl/c55x
    2491 00000f 0600          B $C$L95  ; |443| 
         000011 42   
    2492                                                      ; branch occurs ; |443| 
    2493 000012       $C$L93:    
    2494                      .dwpsn  file "C:/Users/a0221074/Desktop/C5000/IBM_Watson_TIdesign_workarea/CSL_bitbucket/c55_csl/c55x
    2495 000012 ED00          MOV dbl(*SP(#0)), AC0 ; |444| 
         000014 08   
    2496 000015 4440          SFTS AC0, #-1 ; |444| 
    2497 000017 EB08          MOV AC0, dbl(*SP(#4)) ; |444| 
         000019 08   
    2498                      .dwpsn  file "C:/Users/a0221074/Desktop/C5000/IBM_Watson_TIdesign_workarea/CSL_bitbucket/c55_csl/c55x
    2499 00001a ED08          MOV dbl(*SP(#4)), AC0 ; |445| 
         00001c 08   
    2500 00001d 6290          BCC $C$L94,AC0 != #0 ; |445| 
    2501                                                      ; branchcc occurs ; |445| 
    2502                      .dwpsn  file "C:/Users/a0221074/Desktop/C5000/IBM_Watson_TIdesign_workarea/CSL_bitbucket/c55_csl/c55x
    2503 00001f ED00          MOV dbl(*SP(#0)), AC0 ; |445| 
TMS320C55x Assembler PC v4.4.1 Wed Sep 13 16:33:14 2017

Tools Copyright (c) 1996-2012 Texas Instruments Incorporated
C:\Users\a0221074\AppData\Local\Temp\0730410                         PAGE   55

         000021 08   
    2504 000022 4A33          B $C$L96  ; |445| 
    2505                                                      ; branch occurs ; |445| 
    2506 000024       $C$L94:    
    2507 000024       $C$DW$L$_fx_sqrt$5$B:
    2508                      .dwpsn  file "C:/Users/a0221074/Desktop/C5000/IBM_Watson_TIdesign_workarea/CSL_bitbucket/c55_csl/c55x
    2509 000024 ED08          MOV dbl(*SP(#4)), AC0 ; |448| 
         000026 08   
    2510 000027 EB04          MOV AC0, dbl(*SP(#2)) ; |448| 
         000029 08   
    2511                      .dwpsn  file "C:/Users/a0221074/Desktop/C5000/IBM_Watson_TIdesign_workarea/CSL_bitbucket/c55_csl/c55x
    2512 00002a ED04          MOV dbl(*SP(#2)), AC1 ; |449| 
         00002c 18   
    2513 00002d ED00          MOV dbl(*SP(#0)), AC0 ; |449| 
         00002f 08   
    2514              $C$DW$190       .dwtag  DW_TAG_TI_branch
    2515                      .dwattr $C$DW$190, DW_AT_low_pc(0x00)
    2516                      .dwattr $C$DW$190, DW_AT_name("__divli")
    2517                      .dwattr $C$DW$190, DW_AT_TI_call
    2518 000030 6C00          CALL #__divli ; |449| 
         000032 0000!
    2519                                                      ; call occurs [#__divli] ; |449| 
    2520 000034 EB0C          MOV AC0, dbl(*SP(#6)) ; |449| 
         000036 08   
    2521                      .dwpsn  file "C:/Users/a0221074/Desktop/C5000/IBM_Watson_TIdesign_workarea/CSL_bitbucket/c55_csl/c55x
    2522 000037 ED0C          MOV dbl(*SP(#6)), AC0 ; |450| 
         000039 08   
    2523 00003a ED04          ADD dbl(*SP(#2)), AC0, AC0 ; |450| 
         00003c 00   
    2524 00003d 4440          SFTS AC0, #-1 ; |450| 
    2525 00003f EB08          MOV AC0, dbl(*SP(#4)) ; |450| 
         000041 08   
    2526                      .dwpsn  file "C:/Users/a0221074/Desktop/C5000/IBM_Watson_TIdesign_workarea/CSL_bitbucket/c55_csl/c55x
    2527 000042 ED08          MOV dbl(*SP(#4)), AC0 ; |451| 
         000044 08   
    2528 000045 ED04          SUB AC0, dbl(*SP(#2)), AC0 ; |451| 
         000047 04   
    2529 000048 2209          MOV AC0, AR1 ; |451| 
    2530              
    2531 00004a 3299          ABS AR1, AR1 ; |451| 
    2532 00004c 3D1A  ||      MOV #1, AR2
    2533              
    2534 00004e 12A4          CMP AR1 > AR2, TC1 ; |451| 
         000050 90   
    2535 000051 0464          BCC $C$L94,TC1 ; |451| 
         000053 D0   
    2536                                                      ; branchcc occurs ; |451| 
    2537 000054       $C$DW$L$_fx_sqrt$5$E:
    2538 000054       $C$L95:    
    2539                      .dwpsn  file "C:/Users/a0221074/Desktop/C5000/IBM_Watson_TIdesign_workarea/CSL_bitbucket/c55_csl/c55x
    2540 000054 ED08          MOV dbl(*SP(#4)), AC0 ; |454| 
         000056 08   
    2541 000057       $C$L96:    
    2542                      .dwpsn  file "C:/Users/a0221074/Desktop/C5000/IBM_Watson_TIdesign_workarea/CSL_bitbucket/c55_csl/c55x
    2543 000057 4E09          AADD #9, SP
TMS320C55x Assembler PC v4.4.1 Wed Sep 13 16:33:14 2017

Tools Copyright (c) 1996-2012 Texas Instruments Incorporated
C:\Users\a0221074\AppData\Local\Temp\0730410                         PAGE   56

    2544                      .dwcfi  cfa_offset, 1
    2545              $C$DW$191       .dwtag  DW_TAG_TI_branch
    2546                      .dwattr $C$DW$191, DW_AT_low_pc(0x00)
    2547                      .dwattr $C$DW$191, DW_AT_TI_return
    2548 000059 4804          RET
    2549                                                      ; return occurs
    2550              
    2551              $C$DW$192       .dwtag  DW_TAG_TI_loop
    2552                      .dwattr $C$DW$192, DW_AT_name("C:\\Users\\a0221074\\AppData\\Local\\Temp\\0730410:$C$L94:1:1505334792
    2553                      .dwattr $C$DW$192, DW_AT_TI_begin_file("C:/Users/a0221074/Desktop/C5000/IBM_Watson_TIdesign_workarea/
    2554                      .dwattr $C$DW$192, DW_AT_TI_begin_line(0x1bf)
    2555                      .dwattr $C$DW$192, DW_AT_TI_end_line(0x1c3)
    2556              $C$DW$193       .dwtag  DW_TAG_TI_loop_range
    2557                      .dwattr $C$DW$193, DW_AT_low_pc($C$DW$L$_fx_sqrt$5$B)
    2558                      .dwattr $C$DW$193, DW_AT_high_pc($C$DW$L$_fx_sqrt$5$E)
    2559                      .dwendtag $C$DW$192
    2560              
    2561                      .dwattr $C$DW$184, DW_AT_TI_end_file("C:/Users/a0221074/Desktop/C5000/IBM_Watson_TIdesign_workarea/CS
    2562                      .dwattr $C$DW$184, DW_AT_TI_end_line(0x1c7)
    2563                      .dwattr $C$DW$184, DW_AT_TI_end_column(0x01)
    2564                      .dwendentry
    2565                      .dwendtag $C$DW$184
    2566              
    2567 000000               .sect   ".text:_log_polyfit"
    2568                      .clink
    2569                      .global _log_polyfit
    2570              
    2571              $C$DW$194       .dwtag  DW_TAG_subprogram, DW_AT_name("log_polyfit")
    2572                      .dwattr $C$DW$194, DW_AT_low_pc(_log_polyfit)
    2573                      .dwattr $C$DW$194, DW_AT_high_pc(0x00)
    2574                      .dwattr $C$DW$194, DW_AT_TI_symbol_name("_log_polyfit")
    2575                      .dwattr $C$DW$194, DW_AT_external
    2576                      .dwattr $C$DW$194, DW_AT_type(*$C$DW$T$8)
    2577                      .dwattr $C$DW$194, DW_AT_TI_begin_file("C:/Users/a0221074/Desktop/C5000/IBM_Watson_TIdesign_workarea/
    2578                      .dwattr $C$DW$194, DW_AT_TI_begin_line(0x1d9)
    2579                      .dwattr $C$DW$194, DW_AT_TI_begin_column(0x01)
    2580                      .dwattr $C$DW$194, DW_AT_TI_max_frame_size(0x0c)
    2581                      .dwpsn  file "C:/Users/a0221074/Desktop/C5000/IBM_Watson_TIdesign_workarea/CSL_bitbucket/c55_csl/c55x
    2582              
    2583                      .dwfde $C$DW$CIE, _log_polyfit
    2584              $C$DW$195       .dwtag  DW_TAG_formal_parameter, DW_AT_name("value")
    2585                      .dwattr $C$DW$195, DW_AT_TI_symbol_name("_value")
    2586                      .dwattr $C$DW$195, DW_AT_type(*$C$DW$T$12)
    2587                      .dwattr $C$DW$195, DW_AT_location[DW_OP_reg0]
    2588              $C$DW$196       .dwtag  DW_TAG_formal_parameter, DW_AT_name("compensate")
    2589                      .dwattr $C$DW$196, DW_AT_TI_symbol_name("_compensate")
    2590                      .dwattr $C$DW$196, DW_AT_type(*$C$DW$T$8)
    2591                      .dwattr $C$DW$196, DW_AT_location[DW_OP_reg12]
    2592              ;*******************************************************************************
    2593              ;* FUNCTION NAME: log_polyfit                                                  *
    2594              ;*                                                                             *
    2595              ;*   Function Uses Regs : AC0,AC0,AC1,AC1,T0,T1,AR1,AR3,XAR3,SP,CARRY,TC1,M40, *
    2596              ;*                        SATA,SATD,RDM,FRCT,SMUL                              *
    2597              ;*   Stack Frame        : Compact (No Frame Pointer, w/ debug)                 *
    2598              ;*   Total Frame Size   : 12 words                                             *
TMS320C55x Assembler PC v4.4.1 Wed Sep 13 16:33:14 2017

Tools Copyright (c) 1996-2012 Texas Instruments Incorporated
C:\Users\a0221074\AppData\Local\Temp\0730410                         PAGE   57

    2599              ;*                        (2 return address/alignment)                         *
    2600              ;*                        (10 local values)                                    *
    2601              ;*   Min System Stack   : 1 word                                               *
    2602              ;*******************************************************************************
    2603 000000       _log_polyfit:
    2604                      .dwcfi  cfa_offset, 1
    2605                      .dwcfi  save_reg_to_mem, 91, -1
    2606 000000 4EF5          AADD #-11, SP
    2607                      .dwcfi  cfa_offset, 12
    2608              $C$DW$197       .dwtag  DW_TAG_variable, DW_AT_name("value")
    2609                      .dwattr $C$DW$197, DW_AT_TI_symbol_name("_value")
    2610                      .dwattr $C$DW$197, DW_AT_type(*$C$DW$T$12)
    2611                      .dwattr $C$DW$197, DW_AT_location[DW_OP_bregx 0x24 0]
    2612              $C$DW$198       .dwtag  DW_TAG_variable, DW_AT_name("compensate")
    2613                      .dwattr $C$DW$198, DW_AT_TI_symbol_name("_compensate")
    2614                      .dwattr $C$DW$198, DW_AT_type(*$C$DW$T$8)
    2615                      .dwattr $C$DW$198, DW_AT_location[DW_OP_bregx 0x24 2]
    2616              $C$DW$199       .dwtag  DW_TAG_variable, DW_AT_name("result")
    2617                      .dwattr $C$DW$199, DW_AT_TI_symbol_name("_result")
    2618                      .dwattr $C$DW$199, DW_AT_type(*$C$DW$T$8)
    2619                      .dwattr $C$DW$199, DW_AT_location[DW_OP_bregx 0x24 3]
    2620              $C$DW$200       .dwtag  DW_TAG_variable, DW_AT_name("data")
    2621                      .dwattr $C$DW$200, DW_AT_TI_symbol_name("_data")
    2622                      .dwattr $C$DW$200, DW_AT_type(*$C$DW$T$8)
    2623                      .dwattr $C$DW$200, DW_AT_location[DW_OP_bregx 0x24 4]
    2624              $C$DW$201       .dwtag  DW_TAG_variable, DW_AT_name("norm")
    2625                      .dwattr $C$DW$201, DW_AT_TI_symbol_name("_norm")
    2626                      .dwattr $C$DW$201, DW_AT_type(*$C$DW$T$8)
    2627                      .dwattr $C$DW$201, DW_AT_location[DW_OP_bregx 0x24 5]
    2628              $C$DW$202       .dwtag  DW_TAG_variable, DW_AT_name("i")
    2629                      .dwattr $C$DW$202, DW_AT_TI_symbol_name("_i")
    2630                      .dwattr $C$DW$202, DW_AT_type(*$C$DW$T$8)
    2631                      .dwattr $C$DW$202, DW_AT_location[DW_OP_bregx 0x24 6]
    2632              $C$DW$203       .dwtag  DW_TAG_variable, DW_AT_name("tmp")
    2633                      .dwattr $C$DW$203, DW_AT_TI_symbol_name("_tmp")
    2634                      .dwattr $C$DW$203, DW_AT_type(*$C$DW$T$12)
    2635                      .dwattr $C$DW$203, DW_AT_location[DW_OP_bregx 0x24 8]
    2636 000002 C404          MOV T0, *SP(#2) ; |474| 
    2637 000004 EB00          MOV AC0, dbl(*SP(#0)) ; |474| 
         000006 08   
    2638                      .dwpsn  file "C:/Users/a0221074/Desktop/C5000/IBM_Watson_TIdesign_workarea/CSL_bitbucket/c55_csl/c55x
    2639 000007 E606          MOV #0, *SP(#3) ; |476| 
         000009 00   
    2640                      .dwpsn  file "C:/Users/a0221074/Desktop/C5000/IBM_Watson_TIdesign_workarea/CSL_bitbucket/c55_csl/c55x
    2641 00000a ED00          MOV dbl(*SP(#0)), AC0 ; |482| 
         00000c 08   
    2642 00000d 62C0          BCC $C$L97,AC0 > #0 ; |482| 
    2643                                                      ; branchcc occurs ; |482| 
    2644                      .dwpsn  file "C:/Users/a0221074/Desktop/C5000/IBM_Watson_TIdesign_workarea/CSL_bitbucket/c55_csl/c55x
    2645 00000f 3C10          MOV #1, AC0 ; |485| 
    2646 000011 EB00          MOV AC0, dbl(*SP(#0)) ; |485| 
         000013 08   
    2647 000014       $C$L97:    
    2648                      .dwpsn  file "C:/Users/a0221074/Desktop/C5000/IBM_Watson_TIdesign_workarea/CSL_bitbucket/c55_csl/c55x
    2649 000014 E60A          MOV #0, *SP(#5) ; |490| 
TMS320C55x Assembler PC v4.4.1 Wed Sep 13 16:33:14 2017

Tools Copyright (c) 1996-2012 Texas Instruments Incorporated
C:\Users\a0221074\AppData\Local\Temp\0730410                         PAGE   58

         000016 00   
    2650                      .dwpsn  file "C:/Users/a0221074/Desktop/C5000/IBM_Watson_TIdesign_workarea/CSL_bitbucket/c55_csl/c55x
    2651 000017 7A40          MOV #16384 << #16, AC0 ; |490| 
         000019 000A 
    2652 00001b ED00          MOV dbl(*SP(#0)), AC1 ; |490| 
         00001d 18   
    2653 00001e 1218          CMP AC1 >= AC0, TC1 ; |490| 
         000020 00   
    2654 000021 0464          BCC $C$L99,TC1 ; |490| 
         000023 19   
    2655                                                      ; branchcc occurs ; |490| 
    2656 000024       $C$L98:    
    2657 000024       $C$DW$L$_log_polyfit$4$B:
    2658                      .dwpsn  file "C:/Users/a0221074/Desktop/C5000/IBM_Watson_TIdesign_workarea/CSL_bitbucket/c55_csl/c55x
    2659 000024 ED00          MOV dbl(*SP(#0)), AC0 ; |491| 
         000026 08   
    2660 000027 5000          SFTL AC0, #1 ; |491| 
    2661 000029 EB00          MOV AC0, dbl(*SP(#0)) ; |491| 
         00002b 08   
    2662                      .dwpsn  file "C:/Users/a0221074/Desktop/C5000/IBM_Watson_TIdesign_workarea/CSL_bitbucket/c55_csl/c55x
    2663 00002c F70A          ADD #1, *SP(#5) ; |490| 
         00002e 0001 
    2664                      .dwpsn  file "C:/Users/a0221074/Desktop/C5000/IBM_Watson_TIdesign_workarea/CSL_bitbucket/c55_csl/c55x
    2665 000030 ED00          MOV dbl(*SP(#0)), AC1 ; |490| 
         000032 18   
    2666 000033 7A40          MOV #16384 << #16, AC0 ; |490| 
         000035 000A 
    2667 000037 1214          CMP AC1 < AC0, TC1 ; |490| 
         000039 00   
    2668 00003a 0464          BCC $C$L98,TC1 ; |490| 
         00003c E7   
    2669                                                      ; branchcc occurs ; |490| 
    2670 00003d       $C$DW$L$_log_polyfit$4$E:
    2671 00003d       $C$L99:    
    2672                      .dwpsn  file "C:/Users/a0221074/Desktop/C5000/IBM_Watson_TIdesign_workarea/CSL_bitbucket/c55_csl/c55x
    2673 00003d ED00          MOV dbl(*SP(#0)), AC0 ; |495| 
         00003f 08   
    2674 000040 BC08          MOV HI(AC0), *SP(#4) ; |495| 
    2675                      .dwpsn  file "C:/Users/a0221074/Desktop/C5000/IBM_Watson_TIdesign_workarea/CSL_bitbucket/c55_csl/c55x
    2676 000042 A931          MOV *(#_coef_logpoly), AR1 ; |499| 
         000044 0000 
         000046 00+  
    2677 000047 C906          MOV AR1, *SP(#3) ; |499| 
    2678                      .dwpsn  file "C:/Users/a0221074/Desktop/C5000/IBM_Watson_TIdesign_workarea/CSL_bitbucket/c55_csl/c55x
    2679 000049 E60C          MOV #7, *SP(#6) ; |501| 
         00004b 07   
    2680                      .dwpsn  file "C:/Users/a0221074/Desktop/C5000/IBM_Watson_TIdesign_workarea/CSL_bitbucket/c55_csl/c55x
    2681 00004c A90C          MOV *SP(#6), AR1 ; |501| 
    2682 00004e 0429          BCC $C$L101,AR1 < #0 ; |501| 
         000050 37   
    2683                                                      ; branchcc occurs ; |501| 
    2684 000051       $C$L100:    
    2685 000051       $C$DW$L$_log_polyfit$6$B:
    2686                      .dwpsn  file "C:/Users/a0221074/Desktop/C5000/IBM_Watson_TIdesign_workarea/CSL_bitbucket/c55_csl/c55x
    2687 000051 A508          MOV *SP(#4), T1 ; |503| 
TMS320C55x Assembler PC v4.4.1 Wed Sep 13 16:33:14 2017

Tools Copyright (c) 1996-2012 Texas Instruments Incorporated
C:\Users\a0221074\AppData\Local\Temp\0730410                         PAGE   59

    2688 000053 D306          MPYM *SP(#3), T1, AC0 ; |503| 
         000055 05   
    2689 000056 EB10          MOV AC0, dbl(*SP(#8)) ; |503| 
         000058 08   
    2690                      .dwpsn  file "C:/Users/a0221074/Desktop/C5000/IBM_Watson_TIdesign_workarea/CSL_bitbucket/c55_csl/c55x
    2691 000059 ED10          MOV dbl(*SP(#8)), AC0 ; |504| 
         00005b 08   
    2692 00005c 5000          SFTL AC0, #1 ; |504| 
    2693 00005e EB10          MOV AC0, dbl(*SP(#8)) ; |504| 
         000060 08   
    2694                      .dwpsn  file "C:/Users/a0221074/Desktop/C5000/IBM_Watson_TIdesign_workarea/CSL_bitbucket/c55_csl/c55x
    2695 000061 3C89          MOV #8, AR1
    2696 000063 D70C          SUB *SP(#6), AR1, T0 ; |505| 
         000065 49   
    2697 000066 EC31          AMOV #_coef_logpoly, XAR3 ; |505| 
         000068 BE00 
         00006a 0000+
    2698 00006c B06B          MOV *AR3(T0) << #16, AC0 ; |505| 
    2699 00006e ED10          ADD dbl(*SP(#8)), AC0, AC0 ; |505| 
         000070 00   
    2700 000071 EB10          MOV AC0, dbl(*SP(#8)) ; |505| 
         000073 08   
    2701                      .dwpsn  file "C:/Users/a0221074/Desktop/C5000/IBM_Watson_TIdesign_workarea/CSL_bitbucket/c55_csl/c55x
    2702 000074 3C00          MOV #0, AC0 ; |506| 
    2703 000076 7E80          OR #0x8000, AC0, AC0 ; |506| 
         000078 0000 
    2704 00007a ED10          ADD dbl(*SP(#8)), AC0, AC0 ; |506| 
         00007c 00   
    2705 00007d BC06          MOV HI(AC0), *SP(#3) ; |506| 
    2706                      .dwpsn  file "C:/Users/a0221074/Desktop/C5000/IBM_Watson_TIdesign_workarea/CSL_bitbucket/c55_csl/c55x
    2707 00007f F70C          SUB #1, *SP(#6) ; |501| 
         000081 FFFF 
    2708                      .dwpsn  file "C:/Users/a0221074/Desktop/C5000/IBM_Watson_TIdesign_workarea/CSL_bitbucket/c55_csl/c55x
    2709 000083 A90C          MOV *SP(#6), AR1 ; |501| 
    2710 000085 0459          BCC $C$L100,AR1 >= #0 ; |501| 
         000087 C9   
    2711                                                      ; branchcc occurs ; |501| 
    2712 000088       $C$DW$L$_log_polyfit$6$E:
    2713 000088       $C$L101:    
    2714                      .dwpsn  file "C:/Users/a0221074/Desktop/C5000/IBM_Watson_TIdesign_workarea/CSL_bitbucket/c55_csl/c55x
    2715 000088 B006          MOV *SP(#3) << #16, AC0 ; |510| 
    2716 00008a 795E          MPYK #24103, AC0, AC0 ; |510| 
         00008c 2700 
    2717 00008e EB10          MOV AC0, dbl(*SP(#8)) ; |510| 
         000090 08   
    2718                      .dwpsn  file "C:/Users/a0221074/Desktop/C5000/IBM_Watson_TIdesign_workarea/CSL_bitbucket/c55_csl/c55x
    2719 000091 ED10          MOV dbl(*SP(#8)), AC0 ; |511| 
         000093 08   
    2720 000094 1005          SFTS AC0, #8, AC0 ; |511| 
         000096 08   
    2721 000097 EB10          MOV AC0, dbl(*SP(#8)) ; |511| 
         000099 08   
    2722                      .dwpsn  file "C:/Users/a0221074/Desktop/C5000/IBM_Watson_TIdesign_workarea/CSL_bitbucket/c55_csl/c55x
    2723 00009a ED10          MOV dbl(*SP(#8)), AC0 ; |516| 
         00009c 08   
TMS320C55x Assembler PC v4.4.1 Wed Sep 13 16:33:14 2017

Tools Copyright (c) 1996-2012 Texas Instruments Incorporated
C:\Users\a0221074\AppData\Local\Temp\0730410                         PAGE   60

    2724 00009d 1005          SFTS AC0, #-6, AC0 ; |516| 
         00009f 3A   
    2725 0000a0 EB10          MOV AC0, dbl(*SP(#8)) ; |516| 
         0000a2 08   
    2726                      .dwpsn  file "C:/Users/a0221074/Desktop/C5000/IBM_Watson_TIdesign_workarea/CSL_bitbucket/c55_csl/c55x
    2727 0000a3 A10A          MOV *SP(#5), AC1 ; |517| 
    2728 0000a5 ED10          MOV dbl(*SP(#8)), AC0 ; |517| 
         0000a7 08   
    2729 0000a8 1014          SUB AC1 << #25, AC0 ; |517| 
         0000aa 19   
    2730 0000ab EB10          MOV AC0, dbl(*SP(#8)) ; |517| 
         0000ad 08   
    2731                      .dwpsn  file "C:/Users/a0221074/Desktop/C5000/IBM_Watson_TIdesign_workarea/CSL_bitbucket/c55_csl/c55x
    2732 0000ae ED10          MOV dbl(*SP(#8)), AC0 ; |518| 
         0000b0 08   
    2733 0000b1 A104          MOV *SP(#2), AC1 ; |518| 
    2734 0000b3 1014          SUB AC1 << #25, AC0 ; |518| 
         0000b5 19   
    2735 0000b6 EB10          MOV AC0, dbl(*SP(#8)) ; |518| 
         0000b8 08   
    2736                      .dwpsn  file "C:/Users/a0221074/Desktop/C5000/IBM_Watson_TIdesign_workarea/CSL_bitbucket/c55_csl/c55x
    2737 0000b9 7A3E          MOV #15872 << #16, AC0 ; |520| 
         0000bb 000A 
    2738 0000bd ED10          ADD dbl(*SP(#8)), AC0, AC0 ; |520| 
         0000bf 00   
    2739 0000c0 EB10          MOV AC0, dbl(*SP(#8)) ; |520| 
         0000c2 08   
    2740                      .dwpsn  file "C:/Users/a0221074/Desktop/C5000/IBM_Watson_TIdesign_workarea/CSL_bitbucket/c55_csl/c55x
    2741 0000c3 3C00          MOV #0, AC0 ; |522| 
    2742 0000c5 7E80          OR #0x8000, AC0, AC0 ; |522| 
         0000c7 0000 
    2743 0000c9 ED10          ADD dbl(*SP(#8)), AC0, AC0 ; |522| 
         0000cb 00   
    2744 0000cc BC06          MOV HI(AC0), *SP(#3) ; |522| 
    2745                      .dwpsn  file "C:/Users/a0221074/Desktop/C5000/IBM_Watson_TIdesign_workarea/CSL_bitbucket/c55_csl/c55x
    2746 0000ce A406          MOV *SP(#3), T0 ; |524| 
    2747                      .dwpsn  file "C:/Users/a0221074/Desktop/C5000/IBM_Watson_TIdesign_workarea/CSL_bitbucket/c55_csl/c55x
    2748 0000d0 4E0B          AADD #11, SP
    2749                      .dwcfi  cfa_offset, 1
    2750              $C$DW$204       .dwtag  DW_TAG_TI_branch
    2751                      .dwattr $C$DW$204, DW_AT_low_pc(0x00)
    2752                      .dwattr $C$DW$204, DW_AT_TI_return
    2753 0000d2 4804          RET
    2754                                                      ; return occurs
    2755              
    2756              $C$DW$205       .dwtag  DW_TAG_TI_loop
    2757                      .dwattr $C$DW$205, DW_AT_name("C:\\Users\\a0221074\\AppData\\Local\\Temp\\0730410:$C$L100:1:150533479
    2758                      .dwattr $C$DW$205, DW_AT_TI_begin_file("C:/Users/a0221074/Desktop/C5000/IBM_Watson_TIdesign_workarea/
    2759                      .dwattr $C$DW$205, DW_AT_TI_begin_line(0x1f5)
    2760                      .dwattr $C$DW$205, DW_AT_TI_end_line(0x1fb)
    2761              $C$DW$206       .dwtag  DW_TAG_TI_loop_range
    2762                      .dwattr $C$DW$206, DW_AT_low_pc($C$DW$L$_log_polyfit$6$B)
    2763                      .dwattr $C$DW$206, DW_AT_high_pc($C$DW$L$_log_polyfit$6$E)
    2764                      .dwendtag $C$DW$205
    2765              
TMS320C55x Assembler PC v4.4.1 Wed Sep 13 16:33:14 2017

Tools Copyright (c) 1996-2012 Texas Instruments Incorporated
C:\Users\a0221074\AppData\Local\Temp\0730410                         PAGE   61

    2766              
    2767              $C$DW$207       .dwtag  DW_TAG_TI_loop
    2768                      .dwattr $C$DW$207, DW_AT_name("C:\\Users\\a0221074\\AppData\\Local\\Temp\\0730410:$C$L98:1:1505334792
    2769                      .dwattr $C$DW$207, DW_AT_TI_begin_file("C:/Users/a0221074/Desktop/C5000/IBM_Watson_TIdesign_workarea/
    2770                      .dwattr $C$DW$207, DW_AT_TI_begin_line(0x1ea)
    2771                      .dwattr $C$DW$207, DW_AT_TI_end_line(0x1eb)
    2772              $C$DW$208       .dwtag  DW_TAG_TI_loop_range
    2773                      .dwattr $C$DW$208, DW_AT_low_pc($C$DW$L$_log_polyfit$4$B)
    2774                      .dwattr $C$DW$208, DW_AT_high_pc($C$DW$L$_log_polyfit$4$E)
    2775                      .dwendtag $C$DW$207
    2776              
    2777                      .dwattr $C$DW$194, DW_AT_TI_end_file("C:/Users/a0221074/Desktop/C5000/IBM_Watson_TIdesign_workarea/CS
    2778                      .dwattr $C$DW$194, DW_AT_TI_end_line(0x20d)
    2779                      .dwattr $C$DW$194, DW_AT_TI_end_column(0x01)
    2780                      .dwendentry
    2781                      .dwendtag $C$DW$194
    2782              
    2783 000000               .sect   ".text:_pow_polyfit"
    2784                      .clink
    2785                      .global _pow_polyfit
    2786              
    2787              $C$DW$209       .dwtag  DW_TAG_subprogram, DW_AT_name("pow_polyfit")
    2788                      .dwattr $C$DW$209, DW_AT_low_pc(_pow_polyfit)
    2789                      .dwattr $C$DW$209, DW_AT_high_pc(0x00)
    2790                      .dwattr $C$DW$209, DW_AT_TI_symbol_name("_pow_polyfit")
    2791                      .dwattr $C$DW$209, DW_AT_external
    2792                      .dwattr $C$DW$209, DW_AT_type(*$C$DW$T$12)
    2793                      .dwattr $C$DW$209, DW_AT_TI_begin_file("C:/Users/a0221074/Desktop/C5000/IBM_Watson_TIdesign_workarea/
    2794                      .dwattr $C$DW$209, DW_AT_TI_begin_line(0x213)
    2795                      .dwattr $C$DW$209, DW_AT_TI_begin_column(0x1d)
    2796                      .dwattr $C$DW$209, DW_AT_TI_max_frame_size(0x0a)
    2797                      .dwpsn  file "C:/Users/a0221074/Desktop/C5000/IBM_Watson_TIdesign_workarea/CSL_bitbucket/c55_csl/c55x
    2798              
    2799                      .dwfde $C$DW$CIE, _pow_polyfit
    2800              $C$DW$210       .dwtag  DW_TAG_formal_parameter, DW_AT_name("value")
    2801                      .dwattr $C$DW$210, DW_AT_TI_symbol_name("_value")
    2802                      .dwattr $C$DW$210, DW_AT_type(*$C$DW$T$8)
    2803                      .dwattr $C$DW$210, DW_AT_location[DW_OP_reg12]
    2804              ;*******************************************************************************
    2805              ;* FUNCTION NAME: pow_polyfit                                                  *
    2806              ;*                                                                             *
    2807              ;*   Function Uses Regs : AC0,AC0,AC1,AC1,T0,T1,AR1,AR2,AR3,XAR3,SP,CARRY,TC1, *
    2808              ;*                        M40,SATA,SATD,RDM,FRCT,SMUL                          *
    2809              ;*   Stack Frame        : Compact (No Frame Pointer, w/ debug)                 *
    2810              ;*   Total Frame Size   : 10 words                                             *
    2811              ;*                        (2 return address/alignment)                         *
    2812              ;*                        (8 local values)                                     *
    2813              ;*   Min System Stack   : 1 word                                               *
    2814              ;*******************************************************************************
    2815 000000       _pow_polyfit:
    2816                      .dwcfi  cfa_offset, 1
    2817                      .dwcfi  save_reg_to_mem, 91, -1
    2818 000000 4EF7          AADD #-9, SP
    2819                      .dwcfi  cfa_offset, 10
    2820              $C$DW$211       .dwtag  DW_TAG_variable, DW_AT_name("value")
TMS320C55x Assembler PC v4.4.1 Wed Sep 13 16:33:14 2017

Tools Copyright (c) 1996-2012 Texas Instruments Incorporated
C:\Users\a0221074\AppData\Local\Temp\0730410                         PAGE   62

    2821                      .dwattr $C$DW$211, DW_AT_TI_symbol_name("_value")
    2822                      .dwattr $C$DW$211, DW_AT_type(*$C$DW$T$8)
    2823                      .dwattr $C$DW$211, DW_AT_location[DW_OP_bregx 0x24 0]
    2824              $C$DW$212       .dwtag  DW_TAG_variable, DW_AT_name("result")
    2825                      .dwattr $C$DW$212, DW_AT_TI_symbol_name("_result")
    2826                      .dwattr $C$DW$212, DW_AT_type(*$C$DW$T$8)
    2827                      .dwattr $C$DW$212, DW_AT_location[DW_OP_bregx 0x24 1]
    2828              $C$DW$213       .dwtag  DW_TAG_variable, DW_AT_name("data")
    2829                      .dwattr $C$DW$213, DW_AT_TI_symbol_name("_data")
    2830                      .dwattr $C$DW$213, DW_AT_type(*$C$DW$T$8)
    2831                      .dwattr $C$DW$213, DW_AT_location[DW_OP_bregx 0x24 2]
    2832              $C$DW$214       .dwtag  DW_TAG_variable, DW_AT_name("norm")
    2833                      .dwattr $C$DW$214, DW_AT_TI_symbol_name("_norm")
    2834                      .dwattr $C$DW$214, DW_AT_type(*$C$DW$T$8)
    2835                      .dwattr $C$DW$214, DW_AT_location[DW_OP_bregx 0x24 3]
    2836              $C$DW$215       .dwtag  DW_TAG_variable, DW_AT_name("i")
    2837                      .dwattr $C$DW$215, DW_AT_TI_symbol_name("_i")
    2838                      .dwattr $C$DW$215, DW_AT_type(*$C$DW$T$8)
    2839                      .dwattr $C$DW$215, DW_AT_location[DW_OP_bregx 0x24 4]
    2840              $C$DW$216       .dwtag  DW_TAG_variable, DW_AT_name("tmp")
    2841                      .dwattr $C$DW$216, DW_AT_TI_symbol_name("_tmp")
    2842                      .dwattr $C$DW$216, DW_AT_type(*$C$DW$T$12)
    2843                      .dwattr $C$DW$216, DW_AT_location[DW_OP_bregx 0x24 6]
    2844 000002 C400          MOV T0, *SP(#0) ; |532| 
    2845                      .dwpsn  file "C:/Users/a0221074/Desktop/C5000/IBM_Watson_TIdesign_workarea/CSL_bitbucket/c55_csl/c55x
    2846              
    2847 000008 2349          MOV T0, AR1 ; |540| 
    2848 000004 76FE  ||      MOV #-512, AR2 ; |540| 
         000006 00A8 
    2849              
    2850 00000a 1298          CMP AR1 >= AR2, TC1 ; |540| 
         00000c A0   
    2851 00000d 62E4          BCC $C$L102,TC1 ; |540| 
    2852                                                      ; branchcc occurs ; |540| 
    2853                      .dwpsn  file "C:/Users/a0221074/Desktop/C5000/IBM_Watson_TIdesign_workarea/CSL_bitbucket/c55_csl/c55x
    2854 00000f 3C00          MOV #0, AC0 ; |540| 
    2855 000011 0600          B $C$L110 ; |540| 
         000013 BC   
    2856                                                      ; branch occurs ; |540| 
    2857 000014       $C$L102:    
    2858                      .dwpsn  file "C:/Users/a0221074/Desktop/C5000/IBM_Watson_TIdesign_workarea/CSL_bitbucket/c55_csl/c55x
    2859 000014 62C9          BCC $C$L103,AR1 > #0 ; |541| 
    2860                                                      ; branchcc occurs ; |541| 
    2861                      .dwpsn  file "C:/Users/a0221074/Desktop/C5000/IBM_Watson_TIdesign_workarea/CSL_bitbucket/c55_csl/c55x
    2862 000016 3C10          MOV #1, AC0 ; |541| 
    2863 000018 0600          B $C$L110 ; |541| 
         00001a B5   
    2864                                                      ; branch occurs ; |541| 
    2865 00001b       $C$L103:    
    2866                      .dwpsn  file "C:/Users/a0221074/Desktop/C5000/IBM_Watson_TIdesign_workarea/CSL_bitbucket/c55_csl/c55x
    2867 00001b 763D          MOV #15870, AR2 ; |542| 
         00001d FEA8 
    2868 00001f 12A8          CMP AR1 <= AR2, TC1 ; |542| 
         000021 90   
    2869 000022 65E4          BCC $C$L104,TC1 ; |542| 
TMS320C55x Assembler PC v4.4.1 Wed Sep 13 16:33:14 2017

Tools Copyright (c) 1996-2012 Texas Instruments Incorporated
C:\Users\a0221074\AppData\Local\Temp\0730410                         PAGE   63

    2870                                                      ; branchcc occurs ; |542| 
    2871                      .dwpsn  file "C:/Users/a0221074/Desktop/C5000/IBM_Watson_TIdesign_workarea/CSL_bitbucket/c55_csl/c55x
    2872 000024 7A7F          MOV #32767 << #16, AC0 ; |542| 
         000026 FF0A 
    2873 000028 7EFF          OR #0xffff, AC0, AC0 ; |542| 
         00002a FF00 
    2874 00002c 0600          B $C$L110 ; |542| 
         00002e A1   
    2875                                                      ; branch occurs ; |542| 
    2876 00002f       $C$L104:    
    2877                      .dwpsn  file "C:/Users/a0221074/Desktop/C5000/IBM_Watson_TIdesign_workarea/CSL_bitbucket/c55_csl/c55x
    2878 00002f A900          MOV *SP(#0), AR1 ; |546| 
    2879 000031 7DFE          AND #0xfe00, AR1, AC0 ; |546| 
         000033 0009 
    2880 000035 1005          SFTS AC0, #-9, AC0 ; |546| 
         000037 37   
    2881 000038 C006          MOV AC0, *SP(#3) ; |546| 
    2882                      .dwpsn  file "C:/Users/a0221074/Desktop/C5000/IBM_Watson_TIdesign_workarea/CSL_bitbucket/c55_csl/c55x
    2883 00003a A900          MOV *SP(#0), AR1 ; |547| 
    2884 00003c 7D01          AND #0x01ff, AR1, AC0 ; |547| 
         00003e FF09 
    2885 000040 C004          MOV AC0, *SP(#2) ; |547| 
    2886                      .dwpsn  file "C:/Users/a0221074/Desktop/C5000/IBM_Watson_TIdesign_workarea/CSL_bitbucket/c55_csl/c55x
    2887 000042 A931          MOV *(#_coef_powpoly), AR1 ; |551| 
         000044 0000 
         000046 00+  
    2888 000047 C902          MOV AR1, *SP(#1) ; |551| 
    2889                      .dwpsn  file "C:/Users/a0221074/Desktop/C5000/IBM_Watson_TIdesign_workarea/CSL_bitbucket/c55_csl/c55x
    2890 000049 E608          MOV #5, *SP(#4) ; |553| 
         00004b 05   
    2891                      .dwpsn  file "C:/Users/a0221074/Desktop/C5000/IBM_Watson_TIdesign_workarea/CSL_bitbucket/c55_csl/c55x
    2892 00004c A908          MOV *SP(#4), AR1 ; |553| 
    2893 00004e 0429          BCC $C$L106,AR1 < #0 ; |553| 
         000050 33   
    2894                                                      ; branchcc occurs ; |553| 
    2895 000051       $C$L105:    
    2896 000051       $C$DW$L$_pow_polyfit$8$B:
    2897                      .dwpsn  file "C:/Users/a0221074/Desktop/C5000/IBM_Watson_TIdesign_workarea/CSL_bitbucket/c55_csl/c55x
    2898 000051 A504          MOV *SP(#2), T1 ; |555| 
    2899 000053 D302          MPYM *SP(#1), T1, AC0 ; |555| 
         000055 05   
    2900 000056 EB0C          MOV AC0, dbl(*SP(#6)) ; |555| 
         000058 08   
    2901                      .dwpsn  file "C:/Users/a0221074/Desktop/C5000/IBM_Watson_TIdesign_workarea/CSL_bitbucket/c55_csl/c55x
    2902 000059 3C69          MOV #6, AR1
    2903 00005b D708          SUB *SP(#4), AR1, T0 ; |556| 
         00005d 49   
    2904 00005e EC31          AMOV #_coef_powpoly, XAR3 ; |556| 
         000060 BE00 
         000062 0000+
    2905 000064 ED0C          MOV dbl(*SP(#6)), AC0 ; |556| 
         000066 08   
    2906 000067 A16B          MOV *AR3(T0), AC1 ; |556| 
    2907 000069 1013          ADD AC1 << #9, AC0 ; |556| 
         00006b 09   
TMS320C55x Assembler PC v4.4.1 Wed Sep 13 16:33:14 2017

Tools Copyright (c) 1996-2012 Texas Instruments Incorporated
C:\Users\a0221074\AppData\Local\Temp\0730410                         PAGE   64

    2908 00006c EB0C          MOV AC0, dbl(*SP(#6)) ; |556| 
         00006e 08   
    2909                      .dwpsn  file "C:/Users/a0221074/Desktop/C5000/IBM_Watson_TIdesign_workarea/CSL_bitbucket/c55_csl/c55x
    2910 00006f 7601          MOV #256, AC0 ; |557| 
         000071 0008 
    2911 000073 ED0C          ADD dbl(*SP(#6)), AC0, AC0 ; |557| 
         000075 00   
    2912 000076 1005          SFTS AC0, #-9, AC0 ; |557| 
         000078 37   
    2913 000079 C002          MOV AC0, *SP(#1) ; |557| 
    2914                      .dwpsn  file "C:/Users/a0221074/Desktop/C5000/IBM_Watson_TIdesign_workarea/CSL_bitbucket/c55_csl/c55x
    2915 00007b F708          SUB #1, *SP(#4) ; |553| 
         00007d FFFF 
    2916                      .dwpsn  file "C:/Users/a0221074/Desktop/C5000/IBM_Watson_TIdesign_workarea/CSL_bitbucket/c55_csl/c55x
    2917 00007f A908          MOV *SP(#4), AR1 ; |553| 
    2918 000081 0459          BCC $C$L105,AR1 >= #0 ; |553| 
         000083 CD   
    2919                                                      ; branchcc occurs ; |553| 
    2920 000084       $C$DW$L$_pow_polyfit$8$E:
    2921 000084       $C$L106:    
    2922                      .dwpsn  file "C:/Users/a0221074/Desktop/C5000/IBM_Watson_TIdesign_workarea/CSL_bitbucket/c55_csl/c55x
    2923 000084 A002          MOV *SP(#1), AC0 ; |561| 
    2924 000086 EB0C          MOV AC0, dbl(*SP(#6)) ; |561| 
         000088 08   
    2925                      .dwpsn  file "C:/Users/a0221074/Desktop/C5000/IBM_Watson_TIdesign_workarea/CSL_bitbucket/c55_csl/c55x
    2926              
    2927 000089 A906          MOV *SP(#3), AR1 ; |562| 
    2928 00008b 3DEA  ||      MOV #14, AR2
    2929              
    2930 00008d 12A8          CMP AR1 <= AR2, TC1 ; |562| 
         00008f 90   
    2931 000090 6764          BCC $C$L107,TC1 ; |562| 
    2932                                                      ; branchcc occurs ; |562| 
    2933                      .dwpsn  file "C:/Users/a0221074/Desktop/C5000/IBM_Watson_TIdesign_workarea/CSL_bitbucket/c55_csl/c55x
    2934 000092 2295          MOV AR1, T1 ; |563| 
    2935              
    2936 000097 43E5          SUB #14, T1 ; |563| 
    2937 000094 ED0C  ||      MOV dbl(*SP(#6)), AC0 ; |563| 
         000096 08   
    2938              
    2939 000099 5C05          SFTS AC0, T1, AC0 ; |563| 
    2940 00009b EB0C          MOV AC0, dbl(*SP(#6)) ; |563| 
         00009d 08   
    2941                      .dwpsn  file "C:/Users/a0221074/Desktop/C5000/IBM_Watson_TIdesign_workarea/CSL_bitbucket/c55_csl/c55x
    2942 00009e 4A2D          B $C$L109 ; |564| 
    2943                                                      ; branch occurs ; |564| 
    2944 0000a0       $C$L107:    
    2945                      .dwpsn  file "C:/Users/a0221074/Desktop/C5000/IBM_Watson_TIdesign_workarea/CSL_bitbucket/c55_csl/c55x
    2946 0000a0 3CE9          MOV #14, AR1
    2947 0000a2 D706          SUB *SP(#3), AR1, AR1 ; |566| 
         0000a4 99   
    2948 0000a5 4219          SUB #1, AR1 ; |566| 
    2949 0000a7 C908          MOV AR1, *SP(#4) ; |566| 
    2950                      .dwpsn  file "C:/Users/a0221074/Desktop/C5000/IBM_Watson_TIdesign_workarea/CSL_bitbucket/c55_csl/c55x
    2951 0000a9 67A9          BCC $C$L108,AR1 < #0 ; |567| 
TMS320C55x Assembler PC v4.4.1 Wed Sep 13 16:33:14 2017

Tools Copyright (c) 1996-2012 Texas Instruments Incorporated
C:\Users\a0221074\AppData\Local\Temp\0730410                         PAGE   65

    2952                                                      ; branchcc occurs ; |567| 
    2953                      .dwpsn  file "C:/Users/a0221074/Desktop/C5000/IBM_Watson_TIdesign_workarea/CSL_bitbucket/c55_csl/c55x
    2954              
    2955 0000ab 2295          MOV AR1, T1
    2956 0000ad 3D10  ||      MOV #1, AC0
    2957              
    2958 0000af 5C05          SFTS AC0, T1, AC0 ; |568| 
    2959 0000b1 A010          MOV mmap(AC0L), AC0 ; |568| 
         0000b3 98   
    2960 0000b4 ED0C          ADD dbl(*SP(#6)), AC0, AC0 ; |568| 
         0000b6 00   
    2961 0000b7 EB0C          MOV AC0, dbl(*SP(#6)) ; |568| 
         0000b9 08   
    2962 0000ba       $C$L108:    
    2963                      .dwpsn  file "C:/Users/a0221074/Desktop/C5000/IBM_Watson_TIdesign_workarea/CSL_bitbucket/c55_csl/c55x
    2964 0000ba 3CE9          MOV #14, AR1
    2965 0000bc D706          SUB *SP(#3), AR1, AR1 ; |569| 
         0000be 99   
    2966 0000bf 2290          MOV AR1, AC0
    2967 0000c1 3400          NEG AC0, AC0 ; |569| 
    2968              
    2969 0000c3 ED0C          MOV dbl(*SP(#6)), AC0 ; |569| 
         0000c5 08   
    2970 0000c6 2305  ||      MOV AC0, T1 ; |569| 
    2971              
    2972 0000c8 5C05          SFTS AC0, T1, AC0 ; |569| 
    2973 0000ca EB0C          MOV AC0, dbl(*SP(#6)) ; |569| 
         0000cc 08   
    2974 0000cd       $C$L109:    
    2975                      .dwpsn  file "C:/Users/a0221074/Desktop/C5000/IBM_Watson_TIdesign_workarea/CSL_bitbucket/c55_csl/c55x
    2976 0000cd ED0C          MOV dbl(*SP(#6)), AC0 ; |572| 
         0000cf 08   
    2977 0000d0       $C$L110:    
    2978                      .dwpsn  file "C:/Users/a0221074/Desktop/C5000/IBM_Watson_TIdesign_workarea/CSL_bitbucket/c55_csl/c55x
    2979 0000d0 4E09          AADD #9, SP
    2980                      .dwcfi  cfa_offset, 1
    2981              $C$DW$217       .dwtag  DW_TAG_TI_branch
    2982                      .dwattr $C$DW$217, DW_AT_low_pc(0x00)
    2983                      .dwattr $C$DW$217, DW_AT_TI_return
    2984 0000d2 4804          RET
    2985                                                      ; return occurs
    2986              
    2987              $C$DW$218       .dwtag  DW_TAG_TI_loop
    2988                      .dwattr $C$DW$218, DW_AT_name("C:\\Users\\a0221074\\AppData\\Local\\Temp\\0730410:$C$L105:1:150533479
    2989                      .dwattr $C$DW$218, DW_AT_TI_begin_file("C:/Users/a0221074/Desktop/C5000/IBM_Watson_TIdesign_workarea/
    2990                      .dwattr $C$DW$218, DW_AT_TI_begin_line(0x229)
    2991                      .dwattr $C$DW$218, DW_AT_TI_end_line(0x22e)
    2992              $C$DW$219       .dwtag  DW_TAG_TI_loop_range
    2993                      .dwattr $C$DW$219, DW_AT_low_pc($C$DW$L$_pow_polyfit$8$B)
    2994                      .dwattr $C$DW$219, DW_AT_high_pc($C$DW$L$_pow_polyfit$8$E)
    2995                      .dwendtag $C$DW$218
    2996              
    2997                      .dwattr $C$DW$209, DW_AT_TI_end_file("C:/Users/a0221074/Desktop/C5000/IBM_Watson_TIdesign_workarea/CS
    2998                      .dwattr $C$DW$209, DW_AT_TI_end_line(0x23d)
    2999                      .dwattr $C$DW$209, DW_AT_TI_end_column(0x01)
TMS320C55x Assembler PC v4.4.1 Wed Sep 13 16:33:14 2017

Tools Copyright (c) 1996-2012 Texas Instruments Incorporated
C:\Users\a0221074\AppData\Local\Temp\0730410                         PAGE   66

    3000                      .dwendentry
    3001                      .dwendtag $C$DW$209
    3002              
    3003 000000               .sect   ".text:_pow2x"
    3004                      .clink
    3005                      .global _pow2x
    3006              
    3007              $C$DW$220       .dwtag  DW_TAG_subprogram, DW_AT_name("pow2x")
    3008                      .dwattr $C$DW$220, DW_AT_low_pc(_pow2x)
    3009                      .dwattr $C$DW$220, DW_AT_high_pc(0x00)
    3010                      .dwattr $C$DW$220, DW_AT_TI_symbol_name("_pow2x")
    3011                      .dwattr $C$DW$220, DW_AT_external
    3012                      .dwattr $C$DW$220, DW_AT_type(*$C$DW$T$12)
    3013                      .dwattr $C$DW$220, DW_AT_TI_begin_file("C:/Users/a0221074/Desktop/C5000/IBM_Watson_TIdesign_workarea/
    3014                      .dwattr $C$DW$220, DW_AT_TI_begin_line(0x242)
    3015                      .dwattr $C$DW$220, DW_AT_TI_begin_column(0x07)
    3016                      .dwattr $C$DW$220, DW_AT_TI_max_frame_size(0x0a)
    3017                      .dwpsn  file "C:/Users/a0221074/Desktop/C5000/IBM_Watson_TIdesign_workarea/CSL_bitbucket/c55_csl/c55x
    3018              
    3019                      .dwfde $C$DW$CIE, _pow2x
    3020              $C$DW$221       .dwtag  DW_TAG_formal_parameter, DW_AT_name("l_in")
    3021                      .dwattr $C$DW$221, DW_AT_TI_symbol_name("_l_in")
    3022                      .dwattr $C$DW$221, DW_AT_type(*$C$DW$T$12)
    3023                      .dwattr $C$DW$221, DW_AT_location[DW_OP_reg0]
    3024              ;*******************************************************************************
    3025              ;* FUNCTION NAME: pow2x                                                        *
    3026              ;*                                                                             *
    3027              ;*   Function Uses Regs : AC0,AC0,AC1,AC1,T0,T1,AR1,SP,CARRY,M40,SATA,SATD,RDM,*
    3028              ;*                        FRCT,SMUL                                            *
    3029              ;*   Stack Frame        : Compact (No Frame Pointer, w/ debug)                 *
    3030              ;*   Total Frame Size   : 10 words                                             *
    3031              ;*                        (2 return address/alignment)                         *
    3032              ;*                        (8 local values)                                     *
    3033              ;*   Min System Stack   : 1 word                                               *
    3034              ;*******************************************************************************
    3035 000000       _pow2x:
    3036                      .dwcfi  cfa_offset, 1
    3037                      .dwcfi  save_reg_to_mem, 91, -1
    3038 000000 4EF7          AADD #-9, SP
    3039                      .dwcfi  cfa_offset, 10
    3040              $C$DW$222       .dwtag  DW_TAG_variable, DW_AT_name("l_in")
    3041                      .dwattr $C$DW$222, DW_AT_TI_symbol_name("_l_in")
    3042                      .dwattr $C$DW$222, DW_AT_type(*$C$DW$T$12)
    3043                      .dwattr $C$DW$222, DW_AT_location[DW_OP_bregx 0x24 0]
    3044              $C$DW$223       .dwtag  DW_TAG_variable, DW_AT_name("norm_pow")
    3045                      .dwattr $C$DW$223, DW_AT_TI_symbol_name("_norm_pow")
    3046                      .dwattr $C$DW$223, DW_AT_type(*$C$DW$T$8)
    3047                      .dwattr $C$DW$223, DW_AT_location[DW_OP_bregx 0x24 2]
    3048              $C$DW$224       .dwtag  DW_TAG_variable, DW_AT_name("tmp_l")
    3049                      .dwattr $C$DW$224, DW_AT_TI_symbol_name("_tmp_l")
    3050                      .dwattr $C$DW$224, DW_AT_type(*$C$DW$T$12)
    3051                      .dwattr $C$DW$224, DW_AT_location[DW_OP_bregx 0x24 4]
    3052              $C$DW$225       .dwtag  DW_TAG_variable, DW_AT_name("tmp_l2")
    3053                      .dwattr $C$DW$225, DW_AT_TI_symbol_name("_tmp_l2")
    3054                      .dwattr $C$DW$225, DW_AT_type(*$C$DW$T$12)
TMS320C55x Assembler PC v4.4.1 Wed Sep 13 16:33:14 2017

Tools Copyright (c) 1996-2012 Texas Instruments Incorporated
C:\Users\a0221074\AppData\Local\Temp\0730410                         PAGE   67

    3055                      .dwattr $C$DW$225, DW_AT_location[DW_OP_bregx 0x24 6]
    3056 000002 EB00          MOV AC0, dbl(*SP(#0)) ; |579| 
         000004 08   
    3057                      .dwpsn  file "C:/Users/a0221074/Desktop/C5000/IBM_Watson_TIdesign_workarea/CSL_bitbucket/c55_csl/c55x
    3058 000005 ED00          MOV dbl(*SP(#0)), AC0 ; |581| 
         000007 08   
    3059 000008 EB08          MOV AC0, dbl(*SP(#4)) ; |581| 
         00000a 08   
    3060                      .dwpsn  file "C:/Users/a0221074/Desktop/C5000/IBM_Watson_TIdesign_workarea/CSL_bitbucket/c55_csl/c55x
    3061 00000b ED00          MOV dbl(*SP(#0)), AC0 ; |582| 
         00000d 08   
    3062 00000e EB0C          MOV AC0, dbl(*SP(#6)) ; |582| 
         000010 08   
    3063                      .dwpsn  file "C:/Users/a0221074/Desktop/C5000/IBM_Watson_TIdesign_workarea/CSL_bitbucket/c55_csl/c55x
    3064 000011 763D          MOV #15870, AC0 ; |584| 
         000013 FE08 
    3065 000015 ED08          SUB AC0, dbl(*SP(#4)), AC0 ; |584| 
         000017 04   
    3066 000018 EB08          MOV AC0, dbl(*SP(#4)) ; |584| 
         00001a 08   
    3067                      .dwpsn  file "C:/Users/a0221074/Desktop/C5000/IBM_Watson_TIdesign_workarea/CSL_bitbucket/c55_csl/c55x
    3068 00001b ED08          MOV dbl(*SP(#4)), AC0 ; |585| 
         00001d 08   
    3069 00001e 62D0          BCC $C$L111,AC0 >= #0 ; |585| 
    3070                                                      ; branchcc occurs ; |585| 
    3071                      .dwpsn  file "C:/Users/a0221074/Desktop/C5000/IBM_Watson_TIdesign_workarea/CSL_bitbucket/c55_csl/c55x
    3072 000020 E604          MOV #0, *SP(#2) ; |585| 
         000022 00   
    3073 000023 4A14          B $C$L113 ; |585| 
    3074                                                      ; branch occurs ; |585| 
    3075 000025       $C$L111:    
    3076                      .dwpsn  file "C:/Users/a0221074/Desktop/C5000/IBM_Watson_TIdesign_workarea/CSL_bitbucket/c55_csl/c55x
    3077 000025 ED08          MOV dbl(*SP(#4)), AC0 ; |586| 
         000027 08   
    3078 000028 6290          BCC $C$L112,AC0 != #0 ; |586| 
    3079                                                      ; branchcc occurs ; |586| 
    3080                      .dwpsn  file "C:/Users/a0221074/Desktop/C5000/IBM_Watson_TIdesign_workarea/CSL_bitbucket/c55_csl/c55x
    3081 00002a E604          MOV #1, *SP(#2) ; |586| 
         00002c 01   
    3082 00002d 4A0A          B $C$L113 ; |586| 
    3083                                                      ; branch occurs ; |586| 
    3084 00002f       $C$L112:    
    3085                      .dwpsn  file "C:/Users/a0221074/Desktop/C5000/IBM_Watson_TIdesign_workarea/CSL_bitbucket/c55_csl/c55x
    3086 00002f ED08          MOV dbl(*SP(#4)), AC0 ; |587| 
         000031 08   
    3087 000032 1005          SFTS AC0, #-9, AC0 ; |587| 
         000034 37   
    3088 000035 4010          ADD #1, AC0 ; |587| 
    3089 000037 C004          MOV AC0, *SP(#2) ; |587| 
    3090 000039       $C$L113:    
    3091                      .dwpsn  file "C:/Users/a0221074/Desktop/C5000/IBM_Watson_TIdesign_workarea/CSL_bitbucket/c55_csl/c55x
    3092 000039 A104          MOV *SP(#2), AC1 ; |589| 
    3093 00003b ED0C          MOV dbl(*SP(#6)), AC0 ; |589| 
         00003d 08   
    3094 00003e 1014          SUB AC1 << #9, AC0 ; |589| 
TMS320C55x Assembler PC v4.4.1 Wed Sep 13 16:33:14 2017

Tools Copyright (c) 1996-2012 Texas Instruments Incorporated
C:\Users\a0221074\AppData\Local\Temp\0730410                         PAGE   68

         000040 09   
    3095 000041 EB0C          MOV AC0, dbl(*SP(#6)) ; |589| 
         000043 08   
    3096                      .dwpsn  file "C:/Users/a0221074/Desktop/C5000/IBM_Watson_TIdesign_workarea/CSL_bitbucket/c55_csl/c55x
    3097 000044 A40E          MOV *SP(#7), T0 ; |591| 
    3098              $C$DW$226       .dwtag  DW_TAG_TI_branch
    3099                      .dwattr $C$DW$226, DW_AT_low_pc(0x00)
    3100                      .dwattr $C$DW$226, DW_AT_name("_pow_polyfit")
    3101                      .dwattr $C$DW$226, DW_AT_TI_call
    3102 000046 6C00          CALL #_pow_polyfit ; |591| 
         000048 0000+
    3103                                                      ; call occurs [#_pow_polyfit] ; |591| 
    3104 00004a EB0C          MOV AC0, dbl(*SP(#6)) ; |591| 
         00004c 08   
    3105                      .dwpsn  file "C:/Users/a0221074/Desktop/C5000/IBM_Watson_TIdesign_workarea/CSL_bitbucket/c55_csl/c55x
    3106 00004d A904          MOV *SP(#2), AR1 ; |593| 
    3107 00004f 6629          BCC $C$L114,AR1 < #0 ; |593| 
    3108                                                      ; branchcc occurs ; |593| 
    3109                      .dwpsn  file "C:/Users/a0221074/Desktop/C5000/IBM_Watson_TIdesign_workarea/CSL_bitbucket/c55_csl/c55x
    3110              
    3111 000051 ED0C          MOV dbl(*SP(#6)), AC0 ; |593| 
         000053 08   
    3112 000054 2395  ||      MOV AR1, T1 ; |593| 
    3113              
    3114 000056 5C05          SFTS AC0, T1, AC0 ; |593| 
    3115 000058 EB0C          MOV AC0, dbl(*SP(#6)) ; |593| 
         00005a 08   
    3116 00005b 4A0A          B $C$L115 ; |593| 
    3117                                                      ; branch occurs ; |593| 
    3118 00005d       $C$L114:    
    3119                      .dwpsn  file "C:/Users/a0221074/Desktop/C5000/IBM_Watson_TIdesign_workarea/CSL_bitbucket/c55_csl/c55x
    3120              
    3121 00005d ED0C          MOV dbl(*SP(#6)), AC0 ; |594| 
         00005f 08   
    3122 000060 2395  ||      MOV AR1, T1 ; |594| 
    3123              
    3124 000062 5C05          SFTS AC0, T1, AC0 ; |594| 
    3125 000064 EB0C          MOV AC0, dbl(*SP(#6)) ; |594| 
         000066 08   
    3126 000067       $C$L115:    
    3127                      .dwpsn  file "C:/Users/a0221074/Desktop/C5000/IBM_Watson_TIdesign_workarea/CSL_bitbucket/c55_csl/c55x
    3128 000067 ED0C          MOV dbl(*SP(#6)), AC0 ; |596| 
         000069 08   
    3129                      .dwpsn  file "C:/Users/a0221074/Desktop/C5000/IBM_Watson_TIdesign_workarea/CSL_bitbucket/c55_csl/c55x
    3130 00006a 4E09          AADD #9, SP
    3131                      .dwcfi  cfa_offset, 1
    3132              $C$DW$227       .dwtag  DW_TAG_TI_branch
    3133                      .dwattr $C$DW$227, DW_AT_low_pc(0x00)
    3134                      .dwattr $C$DW$227, DW_AT_TI_return
    3135 00006c 4804          RET
    3136                                                      ; return occurs
    3137                      .dwattr $C$DW$220, DW_AT_TI_end_file("C:/Users/a0221074/Desktop/C5000/IBM_Watson_TIdesign_workarea/CS
    3138                      .dwattr $C$DW$220, DW_AT_TI_end_line(0x255)
    3139                      .dwattr $C$DW$220, DW_AT_TI_end_column(0x01)
    3140                      .dwendentry
TMS320C55x Assembler PC v4.4.1 Wed Sep 13 16:33:14 2017

Tools Copyright (c) 1996-2012 Texas Instruments Incorporated
C:\Users\a0221074\AppData\Local\Temp\0730410                         PAGE   69

    3141                      .dwendtag $C$DW$220
    3142              
    3143 000000               .sect   ".text:_gauss_det_const"
    3144                      .clink
    3145                      .global _gauss_det_const
    3146              
    3147              $C$DW$228       .dwtag  DW_TAG_subprogram, DW_AT_name("gauss_det_const")
    3148                      .dwattr $C$DW$228, DW_AT_low_pc(_gauss_det_const)
    3149                      .dwattr $C$DW$228, DW_AT_high_pc(0x00)
    3150                      .dwattr $C$DW$228, DW_AT_TI_symbol_name("_gauss_det_const")
    3151                      .dwattr $C$DW$228, DW_AT_external
    3152                      .dwattr $C$DW$228, DW_AT_type(*$C$DW$T$8)
    3153                      .dwattr $C$DW$228, DW_AT_TI_begin_file("C:/Users/a0221074/Desktop/C5000/IBM_Watson_TIdesign_workarea/
    3154                      .dwattr $C$DW$228, DW_AT_TI_begin_line(0x267)
    3155                      .dwattr $C$DW$228, DW_AT_TI_begin_column(0x1e)
    3156                      .dwattr $C$DW$228, DW_AT_TI_max_frame_size(0x0e)
    3157                      .dwpsn  file "C:/Users/a0221074/Desktop/C5000/IBM_Watson_TIdesign_workarea/CSL_bitbucket/c55_csl/c55x
    3158              
    3159                      .dwfde $C$DW$CIE, _gauss_det_const
    3160              $C$DW$229       .dwtag  DW_TAG_formal_parameter, DW_AT_name("cov")
    3161                      .dwattr $C$DW$229, DW_AT_TI_symbol_name("_cov")
    3162                      .dwattr $C$DW$229, DW_AT_type(*$C$DW$T$21)
    3163                      .dwattr $C$DW$229, DW_AT_location[DW_OP_reg17]
    3164              $C$DW$230       .dwtag  DW_TAG_formal_parameter, DW_AT_name("power_factor")
    3165                      .dwattr $C$DW$230, DW_AT_TI_symbol_name("_power_factor")
    3166                      .dwattr $C$DW$230, DW_AT_type(*$C$DW$T$20)
    3167                      .dwattr $C$DW$230, DW_AT_location[DW_OP_reg12]
    3168              $C$DW$231       .dwtag  DW_TAG_formal_parameter, DW_AT_name("mu_scale_p2")
    3169                      .dwattr $C$DW$231, DW_AT_TI_symbol_name("_mu_scale_p2")
    3170                      .dwattr $C$DW$231, DW_AT_type(*$C$DW$T$54)
    3171                      .dwattr $C$DW$231, DW_AT_location[DW_OP_reg19]
    3172              $C$DW$232       .dwtag  DW_TAG_formal_parameter, DW_AT_name("dim")
    3173                      .dwattr $C$DW$232, DW_AT_TI_symbol_name("_dim")
    3174                      .dwattr $C$DW$232, DW_AT_type(*$C$DW$T$53)
    3175                      .dwattr $C$DW$232, DW_AT_location[DW_OP_reg13]
    3176              ;*******************************************************************************
    3177              ;* FUNCTION NAME: gauss_det_const                                              *
    3178              ;*                                                                             *
    3179              ;*   Function Uses Regs : AC0,AC0,AC1,AC1,AC2,AC2,T0,T1,AR0,XAR0,AR1,XAR1,AR2, *
    3180              ;*                        XAR2,AR3,XAR3,SP,CARRY,TC1,M40,SATA,SATD,RDM,FRCT,   *
    3181              ;*                        SMUL                                                 *
    3182              ;*   Stack Frame        : Compact (No Frame Pointer, w/ debug)                 *
    3183              ;*   Total Frame Size   : 14 words                                             *
    3184              ;*                        (1 return address/alignment)                         *
    3185              ;*                        (13 local values)                                    *
    3186              ;*   Min System Stack   : 1 word                                               *
    3187              ;*******************************************************************************
    3188 000000       _gauss_det_const:
    3189                      .dwcfi  cfa_offset, 1
    3190                      .dwcfi  save_reg_to_mem, 91, -1
    3191 000000 4EF3          AADD #-13, SP
    3192                      .dwcfi  cfa_offset, 14
    3193              $C$DW$233       .dwtag  DW_TAG_variable, DW_AT_name("cov")
    3194                      .dwattr $C$DW$233, DW_AT_TI_symbol_name("_cov")
    3195                      .dwattr $C$DW$233, DW_AT_type(*$C$DW$T$21)
TMS320C55x Assembler PC v4.4.1 Wed Sep 13 16:33:14 2017

Tools Copyright (c) 1996-2012 Texas Instruments Incorporated
C:\Users\a0221074\AppData\Local\Temp\0730410                         PAGE   70

    3196                      .dwattr $C$DW$233, DW_AT_location[DW_OP_bregx 0x24 0]
    3197              $C$DW$234       .dwtag  DW_TAG_variable, DW_AT_name("power_factor")
    3198                      .dwattr $C$DW$234, DW_AT_TI_symbol_name("_power_factor")
    3199                      .dwattr $C$DW$234, DW_AT_type(*$C$DW$T$20)
    3200                      .dwattr $C$DW$234, DW_AT_location[DW_OP_bregx 0x24 2]
    3201              $C$DW$235       .dwtag  DW_TAG_variable, DW_AT_name("mu_scale_p2")
    3202                      .dwattr $C$DW$235, DW_AT_TI_symbol_name("_mu_scale_p2")
    3203                      .dwattr $C$DW$235, DW_AT_type(*$C$DW$T$54)
    3204                      .dwattr $C$DW$235, DW_AT_location[DW_OP_bregx 0x24 4]
    3205              $C$DW$236       .dwtag  DW_TAG_variable, DW_AT_name("dim")
    3206                      .dwattr $C$DW$236, DW_AT_TI_symbol_name("_dim")
    3207                      .dwattr $C$DW$236, DW_AT_type(*$C$DW$T$53)
    3208                      .dwattr $C$DW$236, DW_AT_location[DW_OP_bregx 0x24 6]
    3209              $C$DW$237       .dwtag  DW_TAG_variable, DW_AT_name("sum")
    3210                      .dwattr $C$DW$237, DW_AT_TI_symbol_name("_sum")
    3211                      .dwattr $C$DW$237, DW_AT_type(*$C$DW$T$12)
    3212                      .dwattr $C$DW$237, DW_AT_location[DW_OP_bregx 0x24 8]
    3213              $C$DW$238       .dwtag  DW_TAG_variable, DW_AT_name("sumc")
    3214                      .dwattr $C$DW$238, DW_AT_TI_symbol_name("_sumc")
    3215                      .dwattr $C$DW$238, DW_AT_type(*$C$DW$T$12)
    3216                      .dwattr $C$DW$238, DW_AT_location[DW_OP_bregx 0x24 10]
    3217              $C$DW$239       .dwtag  DW_TAG_variable, DW_AT_name("d")
    3218                      .dwattr $C$DW$239, DW_AT_TI_symbol_name("_d")
    3219                      .dwattr $C$DW$239, DW_AT_type(*$C$DW$T$20)
    3220                      .dwattr $C$DW$239, DW_AT_location[DW_OP_bregx 0x24 12]
    3221 000002 C50C          MOV T1, *SP(#6) ; |618| 
    3222 000004 EB08          MOV XAR1, dbl(*SP(#4))
         000006 95   
    3223 000007 C404          MOV T0, *SP(#2) ; |618| 
    3224 000009 EB00          MOV XAR0, dbl(*SP(#0))
         00000b 85   
    3225                      .dwpsn  file "C:/Users/a0221074/Desktop/C5000/IBM_Watson_TIdesign_workarea/CSL_bitbucket/c55_csl/c55x
    3226 00000c 3C00          MOV #0, AC0 ; |619| 
    3227 00000e EB10          MOV AC0, dbl(*SP(#8)) ; |619| 
         000010 08   
    3228                      .dwpsn  file "C:/Users/a0221074/Desktop/C5000/IBM_Watson_TIdesign_workarea/CSL_bitbucket/c55_csl/c55x
    3229 000011 EB14          MOV AC0, dbl(*SP(#10)) ; |620| 
         000013 08   
    3230                      .dwpsn  file "C:/Users/a0221074/Desktop/C5000/IBM_Watson_TIdesign_workarea/CSL_bitbucket/c55_csl/c55x
    3231 000014 E618          MOV #0, *SP(#12) ; |625| 
         000016 00   
    3232                      .dwpsn  file "C:/Users/a0221074/Desktop/C5000/IBM_Watson_TIdesign_workarea/CSL_bitbucket/c55_csl/c55x
    3233 000017 AA18          MOV *SP(#12), AR2 ; |625| 
    3234 000019 A90C          MOV *SP(#6), AR1 ; |625| 
    3235 00001b 12A8          CMPU AR2 >= AR1, TC1 ; |625| 
         00001d 94   
    3236 00001e 0464          BCC $C$L118,TC1 ; |625| 
         000020 41   
    3237                                                      ; branchcc occurs ; |625| 
    3238 000021       $C$L116:    
    3239 000021       $C$DW$L$_gauss_det_const$2$B:
    3240                      .dwpsn  file "C:/Users/a0221074/Desktop/C5000/IBM_Watson_TIdesign_workarea/CSL_bitbucket/c55_csl/c55x
    3241 000021 ED00          MOV dbl(*SP(#0)), XAR3
         000023 BF   
    3242 000024 DF18          MOV uns(*SP(#12)), AC0 ; |626| 
TMS320C55x Assembler PC v4.4.1 Wed Sep 13 16:33:14 2017

Tools Copyright (c) 1996-2012 Texas Instruments Incorporated
C:\Users\a0221074\AppData\Local\Temp\0730410                         PAGE   71

         000026 05   
    3243 000027 900A          MOV AC0, XAR2
    3244 000029 14A1          AADD XAR2, XAR3 ; |626| 
         00002b B0   
    3245 00002c A061          MOV *AR3, AC0 ; |626| 
    3246              $C$DW$240       .dwtag  DW_TAG_TI_branch
    3247                      .dwattr $C$DW$240, DW_AT_low_pc(0x00)
    3248                      .dwattr $C$DW$240, DW_AT_name("_log_polyfit")
    3249                      .dwattr $C$DW$240, DW_AT_TI_call
    3250              
    3251 00002e 6C00          CALL #_log_polyfit ; |626| 
         000030 0000+
    3252 000032 3D94  ||      MOV #9, T0
    3253              
    3254                                                      ; call occurs [#_log_polyfit] ; |626| 
    3255 000034 2240          MOV T0, AC0
    3256 000036 ED10          SUB AC0, dbl(*SP(#8)), AC0 ; |626| 
         000038 04   
    3257 000039 EB10          MOV AC0, dbl(*SP(#8)) ; |626| 
         00003b 08   
    3258                      .dwpsn  file "C:/Users/a0221074/Desktop/C5000/IBM_Watson_TIdesign_workarea/CSL_bitbucket/c55_csl/c55x
    3259 00003c ED08          MOV dbl(*SP(#4)), XAR3
         00003e BF   
    3260 00003f 90B0          MOV XAR3, AC0
    3261 000041 0400          BCC $C$L117,AC0 == #0 ; |629| 
         000043 10   
    3262                                                      ; branchcc occurs ; |629| 
    3263 000044       $C$DW$L$_gauss_det_const$2$E:
    3264 000044       $C$DW$L$_gauss_det_const$3$B:
    3265                      .dwpsn  file "C:/Users/a0221074/Desktop/C5000/IBM_Watson_TIdesign_workarea/CSL_bitbucket/c55_csl/c55x
    3266 000044 DF18          MOV uns(*SP(#12)), AC0 ; |629| 
         000046 05   
    3267 000047 900A          MOV AC0, XAR2
    3268 000049 14A1          AADD XAR2, XAR3 ; |629| 
         00004b B0   
    3269 00004c A061          MOV *AR3, AC0 ; |629| 
    3270 00004e ED14          ADD dbl(*SP(#10)), AC0, AC0 ; |629| 
         000050 00   
    3271 000051 EB14          MOV AC0, dbl(*SP(#10)) ; |629| 
         000053 08   
    3272 000054       $C$DW$L$_gauss_det_const$3$E:
    3273 000054       $C$L117:    
    3274 000054       $C$DW$L$_gauss_det_const$4$B:
    3275                      .dwpsn  file "C:/Users/a0221074/Desktop/C5000/IBM_Watson_TIdesign_workarea/CSL_bitbucket/c55_csl/c55x
    3276 000054 F718          ADD #1, *SP(#12) ; |625| 
         000056 0001 
    3277                      .dwpsn  file "C:/Users/a0221074/Desktop/C5000/IBM_Watson_TIdesign_workarea/CSL_bitbucket/c55_csl/c55x
    3278 000058 A90C          MOV *SP(#6), AR1 ; |625| 
    3279 00005a AA18          MOV *SP(#12), AR2 ; |625| 
    3280 00005c 12A4          CMPU AR2 < AR1, TC1 ; |625| 
         00005e 94   
    3281 00005f 0464          BCC $C$L116,TC1 ; |625| 
         000061 BF   
    3282                                                      ; branchcc occurs ; |625| 
    3283 000062       $C$DW$L$_gauss_det_const$4$E:
TMS320C55x Assembler PC v4.4.1 Wed Sep 13 16:33:14 2017

Tools Copyright (c) 1996-2012 Texas Instruments Incorporated
C:\Users\a0221074\AppData\Local\Temp\0730410                         PAGE   72

    3284 000062       $C$L118:    
    3285                      .dwpsn  file "C:/Users/a0221074/Desktop/C5000/IBM_Watson_TIdesign_workarea/CSL_bitbucket/c55_csl/c55x
    3286 000062 ED10          MOV dbl(*SP(#8)), AC0 ; |634| 
         000064 08   
    3287 000065 760B          MOV #2839, AC1 ; |634| 
         000067 1718 
    3288              $C$DW$241       .dwtag  DW_TAG_TI_branch
    3289                      .dwattr $C$DW$241, DW_AT_low_pc(0x00)
    3290                      .dwattr $C$DW$241, DW_AT_name("__mpyli")
    3291                      .dwattr $C$DW$241, DW_AT_TI_call
    3292 000069 6C00          CALL #__mpyli ; |634| 
         00006b 0000!
    3293                                                      ; call occurs [#__mpyli] ; |634| 
    3294 00006d EB10          MOV AC0, dbl(*SP(#8)) ; |634| 
         00006f 08   
    3295                      .dwpsn  file "C:/Users/a0221074/Desktop/C5000/IBM_Watson_TIdesign_workarea/CSL_bitbucket/c55_csl/c55x
    3296 000070 DF04          MOV uns(*SP(#2)), AC0 ; |639| 
         000072 05   
    3297 000073 ED14          MOV dbl(*SP(#10)), AC1 ; |639| 
         000075 18   
    3298              $C$DW$242       .dwtag  DW_TAG_TI_branch
    3299                      .dwattr $C$DW$242, DW_AT_low_pc(0x00)
    3300                      .dwattr $C$DW$242, DW_AT_name("__mpyli")
    3301                      .dwattr $C$DW$242, DW_AT_TI_call
    3302 000076 6C00          CALL #__mpyli ; |639| 
         000078 0000!
    3303                                                      ; call occurs [#__mpyli] ; |639| 
    3304 00007a EC31          AMOV #1453568, XAR3 ; |639| 
         00007c BE16 
         00007e 2E00 
    3305 000080 90B1          MOV XAR3, AC1
    3306              $C$DW$243       .dwtag  DW_TAG_TI_branch
    3307                      .dwattr $C$DW$243, DW_AT_low_pc(0x00)
    3308                      .dwattr $C$DW$243, DW_AT_name("__mpyli")
    3309                      .dwattr $C$DW$243, DW_AT_TI_call
    3310 000082 6C00          CALL #__mpyli ; |639| 
         000084 0000!
    3311                                                      ; call occurs [#__mpyli] ; |639| 
    3312 000086 EC31          AMOV #3854306, XAR3 ; |639| 
         000088 BE3A 
         00008a CFE2 
    3313 00008c 90B1          MOV XAR3, AC1
    3314              
    3315 00008e A00C          MOV *SP(#6), AC0 ; |639| 
    3316 000090 1B00  ||      OR #0, AC0, AC2
         000092 20   
    3317              
    3318              $C$DW$244       .dwtag  DW_TAG_TI_branch
    3319                      .dwattr $C$DW$244, DW_AT_low_pc(0x00)
    3320                      .dwattr $C$DW$244, DW_AT_name("__mpyli")
    3321                      .dwattr $C$DW$244, DW_AT_TI_call
    3322 000093 6C00          CALL #__mpyli ; |639| 
         000095 0000!
    3323                                                      ; call occurs [#__mpyli] ; |639| 
    3324 000097 ED10          ADD dbl(*SP(#8)), AC0, AC0 ; |639| 
TMS320C55x Assembler PC v4.4.1 Wed Sep 13 16:33:14 2017

Tools Copyright (c) 1996-2012 Texas Instruments Incorporated
C:\Users\a0221074\AppData\Local\Temp\0730410                         PAGE   73

         000099 00   
    3325 00009a 2420          ADD AC2, AC0 ; |639| 
    3326 00009c EB10          MOV AC0, dbl(*SP(#8)) ; |639| 
         00009e 08   
    3327                      .dwpsn  file "C:/Users/a0221074/Desktop/C5000/IBM_Watson_TIdesign_workarea/CSL_bitbucket/c55_csl/c55x
    3328 00009f ED10          MOV dbl(*SP(#8)), AC0 ; |642| 
         0000a1 08   
    3329 0000a2 1005          SFTS AC0, #-15, AC0 ; |642| 
         0000a4 31   
    3330 0000a5 EB10          MOV AC0, dbl(*SP(#8)) ; |642| 
         0000a7 08   
    3331                      .dwpsn  file "C:/Users/a0221074/Desktop/C5000/IBM_Watson_TIdesign_workarea/CSL_bitbucket/c55_csl/c55x
    3332 0000a8 A412          MOV *SP(#9), T0 ; |644| 
    3333                      .dwpsn  file "C:/Users/a0221074/Desktop/C5000/IBM_Watson_TIdesign_workarea/CSL_bitbucket/c55_csl/c55x
    3334 0000aa 4E0D          AADD #13, SP
    3335                      .dwcfi  cfa_offset, 1
    3336              $C$DW$245       .dwtag  DW_TAG_TI_branch
    3337                      .dwattr $C$DW$245, DW_AT_low_pc(0x00)
    3338                      .dwattr $C$DW$245, DW_AT_TI_return
    3339 0000ac 4804          RET
    3340                                                      ; return occurs
    3341              
    3342              $C$DW$246       .dwtag  DW_TAG_TI_loop
    3343                      .dwattr $C$DW$246, DW_AT_name("C:\\Users\\a0221074\\AppData\\Local\\Temp\\0730410:$C$L116:1:150533479
    3344                      .dwattr $C$DW$246, DW_AT_TI_begin_file("C:/Users/a0221074/Desktop/C5000/IBM_Watson_TIdesign_workarea/
    3345                      .dwattr $C$DW$246, DW_AT_TI_begin_line(0x271)
    3346                      .dwattr $C$DW$246, DW_AT_TI_end_line(0x276)
    3347              $C$DW$247       .dwtag  DW_TAG_TI_loop_range
    3348                      .dwattr $C$DW$247, DW_AT_low_pc($C$DW$L$_gauss_det_const$2$B)
    3349                      .dwattr $C$DW$247, DW_AT_high_pc($C$DW$L$_gauss_det_const$2$E)
    3350              $C$DW$248       .dwtag  DW_TAG_TI_loop_range
    3351                      .dwattr $C$DW$248, DW_AT_low_pc($C$DW$L$_gauss_det_const$3$B)
    3352                      .dwattr $C$DW$248, DW_AT_high_pc($C$DW$L$_gauss_det_const$3$E)
    3353              $C$DW$249       .dwtag  DW_TAG_TI_loop_range
    3354                      .dwattr $C$DW$249, DW_AT_low_pc($C$DW$L$_gauss_det_const$4$B)
    3355                      .dwattr $C$DW$249, DW_AT_high_pc($C$DW$L$_gauss_det_const$4$E)
    3356                      .dwendtag $C$DW$246
    3357              
    3358                      .dwattr $C$DW$228, DW_AT_TI_end_file("C:/Users/a0221074/Desktop/C5000/IBM_Watson_TIdesign_workarea/CS
    3359                      .dwattr $C$DW$228, DW_AT_TI_end_line(0x285)
    3360                      .dwattr $C$DW$228, DW_AT_TI_end_column(0x01)
    3361                      .dwendentry
    3362                      .dwendtag $C$DW$228
    3363              
    3364 000000               .sect   ".text:_uniq"
    3365                      .clink
    3366                      .global _uniq
    3367              
    3368              $C$DW$250       .dwtag  DW_TAG_subprogram, DW_AT_name("uniq")
    3369                      .dwattr $C$DW$250, DW_AT_low_pc(_uniq)
    3370                      .dwattr $C$DW$250, DW_AT_high_pc(0x00)
    3371                      .dwattr $C$DW$250, DW_AT_TI_symbol_name("_uniq")
    3372                      .dwattr $C$DW$250, DW_AT_external
    3373                      .dwattr $C$DW$250, DW_AT_type(*$C$DW$T$8)
    3374                      .dwattr $C$DW$250, DW_AT_TI_begin_file("C:/Users/a0221074/Desktop/C5000/IBM_Watson_TIdesign_workarea/
TMS320C55x Assembler PC v4.4.1 Wed Sep 13 16:33:14 2017

Tools Copyright (c) 1996-2012 Texas Instruments Incorporated
C:\Users\a0221074\AppData\Local\Temp\0730410                         PAGE   74

    3375                      .dwattr $C$DW$250, DW_AT_TI_begin_line(0x28d)
    3376                      .dwattr $C$DW$250, DW_AT_TI_begin_column(0x07)
    3377                      .dwattr $C$DW$250, DW_AT_TI_max_frame_size(0x0a)
    3378                      .dwpsn  file "C:/Users/a0221074/Desktop/C5000/IBM_Watson_TIdesign_workarea/CSL_bitbucket/c55_csl/c55x
    3379              
    3380                      .dwfde $C$DW$CIE, _uniq
    3381              $C$DW$251       .dwtag  DW_TAG_formal_parameter, DW_AT_name("imax_10")
    3382                      .dwattr $C$DW$251, DW_AT_TI_symbol_name("_imax_10")
    3383                      .dwattr $C$DW$251, DW_AT_type(*$C$DW$T$21)
    3384                      .dwattr $C$DW$251, DW_AT_location[DW_OP_reg17]
    3385              $C$DW$252       .dwtag  DW_TAG_formal_parameter, DW_AT_name("prob")
    3386                      .dwattr $C$DW$252, DW_AT_TI_symbol_name("_prob")
    3387                      .dwattr $C$DW$252, DW_AT_type(*$C$DW$T$21)
    3388                      .dwattr $C$DW$252, DW_AT_location[DW_OP_reg19]
    3389              $C$DW$253       .dwtag  DW_TAG_formal_parameter, DW_AT_name("inum")
    3390                      .dwattr $C$DW$253, DW_AT_TI_symbol_name("_inum")
    3391                      .dwattr $C$DW$253, DW_AT_type(*$C$DW$T$8)
    3392                      .dwattr $C$DW$253, DW_AT_location[DW_OP_reg12]
    3393              ;*******************************************************************************
    3394              ;* FUNCTION NAME: uniq                                                         *
    3395              ;*                                                                             *
    3396              ;*   Function Uses Regs : AC0,AC0,T0,AR0,XAR0,AR1,XAR1,AR2,XAR2,AR3,XAR3,SP,   *
    3397              ;*                        CARRY,TC1,M40,SATA,SATD,RDM,FRCT,SMUL                *
    3398              ;*   Stack Frame        : Compact (No Frame Pointer, w/ debug)                 *
    3399              ;*   Total Frame Size   : 10 words                                             *
    3400              ;*                        (2 return address/alignment)                         *
    3401              ;*                        (8 local values)                                     *
    3402              ;*   Min System Stack   : 1 word                                               *
    3403              ;*******************************************************************************
    3404 000000       _uniq:
    3405                      .dwcfi  cfa_offset, 1
    3406                      .dwcfi  save_reg_to_mem, 91, -1
    3407 000000 4EF7          AADD #-9, SP
    3408                      .dwcfi  cfa_offset, 10
    3409              $C$DW$254       .dwtag  DW_TAG_variable, DW_AT_name("imax_10")
    3410                      .dwattr $C$DW$254, DW_AT_TI_symbol_name("_imax_10")
    3411                      .dwattr $C$DW$254, DW_AT_type(*$C$DW$T$21)
    3412                      .dwattr $C$DW$254, DW_AT_location[DW_OP_bregx 0x24 0]
    3413              $C$DW$255       .dwtag  DW_TAG_variable, DW_AT_name("prob")
    3414                      .dwattr $C$DW$255, DW_AT_TI_symbol_name("_prob")
    3415                      .dwattr $C$DW$255, DW_AT_type(*$C$DW$T$21)
    3416                      .dwattr $C$DW$255, DW_AT_location[DW_OP_bregx 0x24 2]
    3417              $C$DW$256       .dwtag  DW_TAG_variable, DW_AT_name("inum")
    3418                      .dwattr $C$DW$256, DW_AT_TI_symbol_name("_inum")
    3419                      .dwattr $C$DW$256, DW_AT_type(*$C$DW$T$8)
    3420                      .dwattr $C$DW$256, DW_AT_location[DW_OP_bregx 0x24 4]
    3421              $C$DW$257       .dwtag  DW_TAG_variable, DW_AT_name("i")
    3422                      .dwattr $C$DW$257, DW_AT_TI_symbol_name("_i")
    3423                      .dwattr $C$DW$257, DW_AT_type(*$C$DW$T$8)
    3424                      .dwattr $C$DW$257, DW_AT_location[DW_OP_bregx 0x24 5]
    3425              $C$DW$258       .dwtag  DW_TAG_variable, DW_AT_name("j")
    3426                      .dwattr $C$DW$258, DW_AT_TI_symbol_name("_j")
    3427                      .dwattr $C$DW$258, DW_AT_type(*$C$DW$T$8)
    3428                      .dwattr $C$DW$258, DW_AT_location[DW_OP_bregx 0x24 6]
    3429              $C$DW$259       .dwtag  DW_TAG_variable, DW_AT_name("k")
TMS320C55x Assembler PC v4.4.1 Wed Sep 13 16:33:14 2017

Tools Copyright (c) 1996-2012 Texas Instruments Incorporated
C:\Users\a0221074\AppData\Local\Temp\0730410                         PAGE   75

    3430                      .dwattr $C$DW$259, DW_AT_TI_symbol_name("_k")
    3431                      .dwattr $C$DW$259, DW_AT_type(*$C$DW$T$8)
    3432                      .dwattr $C$DW$259, DW_AT_location[DW_OP_bregx 0x24 7]
    3433 000002 C408          MOV T0, *SP(#4) ; |654| 
    3434 000004 EB04          MOV XAR1, dbl(*SP(#2))
         000006 95   
    3435 000007 EB00          MOV XAR0, dbl(*SP(#0))
         000009 85   
    3436                      .dwpsn  file "C:/Users/a0221074/Desktop/C5000/IBM_Watson_TIdesign_workarea/CSL_bitbucket/c55_csl/c55x
    3437 00000a E60A          MOV #0, *SP(#5) ; |657| 
         00000c 00   
    3438                      .dwpsn  file "C:/Users/a0221074/Desktop/C5000/IBM_Watson_TIdesign_workarea/CSL_bitbucket/c55_csl/c55x
    3439 00000d AA0A          MOV *SP(#5), AR2 ; |657| 
    3440 00000f A908          MOV *SP(#4), AR1 ; |657| 
    3441 000011 12A8          CMP AR2 >= AR1, TC1 ; |657| 
         000013 90   
    3442 000014 6D64          BCC $C$L128,TC1 ; |657| 
         000016 00A4 
    3443                                                      ; branchcc occurs ; |657| 
    3444 000018       $C$L119:    
    3445 000018       $C$DW$L$_uniq$2$B:
    3446                      .dwpsn  file "C:/Users/a0221074/Desktop/C5000/IBM_Watson_TIdesign_workarea/CSL_bitbucket/c55_csl/c55x
    3447 000018 22A9          MOV AR2, AR1
    3448 00001a 4019          ADD #1, AR1 ; |658| 
    3449 00001c C90C          MOV AR1, *SP(#6) ; |658| 
    3450                      .dwpsn  file "C:/Users/a0221074/Desktop/C5000/IBM_Watson_TIdesign_workarea/CSL_bitbucket/c55_csl/c55x
    3451 00001e AA0C          MOV *SP(#6), AR2 ; |658| 
    3452 000020 A908          MOV *SP(#4), AR1 ; |658| 
    3453 000022 12A8          CMP AR2 >= AR1, TC1 ; |658| 
         000024 90   
    3454 000025 6D64          BCC $C$L127,TC1 ; |658| 
         000027 0084 
    3455                                                      ; branchcc occurs ; |658| 
    3456 000029       $C$DW$L$_uniq$2$E:
    3457 000029       $C$L120:    
    3458 000029       $C$DW$L$_uniq$3$B:
    3459                      .dwpsn  file "C:/Users/a0221074/Desktop/C5000/IBM_Watson_TIdesign_workarea/CSL_bitbucket/c55_csl/c55x
    3460 000029 22A4          MOV AR2, T0
    3461 00002b ED00          MOV dbl(*SP(#0)), XAR3
         00002d BF   
    3462 00002e A96B          MOV *AR3(T0), AR1 ; |659| 
    3463 000030 A40A          MOV *SP(#5), T0 ; |659| 
    3464 000032 AA6B          MOV *AR3(T0), AR2 ; |659| 
    3465 000034 12AC          CMP AR2 != AR1, TC1 ; |659| 
         000036 90   
    3466 000037 0464          BCC $C$L125,TC1 ; |659| 
         000039 64   
    3467                                                      ; branchcc occurs ; |659| 
    3468 00003a       $C$DW$L$_uniq$3$E:
    3469 00003a       $C$DW$L$_uniq$4$B:
    3470                      .dwpsn  file "C:/Users/a0221074/Desktop/C5000/IBM_Watson_TIdesign_workarea/CSL_bitbucket/c55_csl/c55x
    3471 00003a ED04          MOV dbl(*SP(#2)), XAR3
         00003c BF   
    3472 00003d 90B0          MOV XAR3, AC0
    3473 00003f 6780          BCC $C$L121,AC0 == #0 ; |660| 
TMS320C55x Assembler PC v4.4.1 Wed Sep 13 16:33:14 2017

Tools Copyright (c) 1996-2012 Texas Instruments Incorporated
C:\Users\a0221074\AppData\Local\Temp\0730410                         PAGE   76

    3474                                                      ; branchcc occurs ; |660| 
    3475 000041       $C$DW$L$_uniq$4$E:
    3476 000041       $C$DW$L$_uniq$5$B:
    3477                      .dwpsn  file "C:/Users/a0221074/Desktop/C5000/IBM_Watson_TIdesign_workarea/CSL_bitbucket/c55_csl/c55x
    3478 000041 2249          MOV T0, AR1
    3479 000043 ED04          MOV dbl(*SP(#2)), XAR2
         000045 AF   
    3480 000046 A40C          MOV *SP(#6), T0 ; |661| 
    3481 000048 1490          AADD AR1, AR3 ; |661| 
         00004a B0   
    3482 00004b 8161          ADD *AR3, *AR2(T0), AC0 ; |661| 
         00004d 70   
    3483 00004e BC61          MOV HI(AC0), *AR3
    3484 000050       $C$DW$L$_uniq$5$E:
    3485 000050       $C$L121:    
    3486 000050       $C$DW$L$_uniq$6$B:
    3487                      .dwpsn  file "C:/Users/a0221074/Desktop/C5000/IBM_Watson_TIdesign_workarea/CSL_bitbucket/c55_csl/c55x
    3488 000050 A90C          MOV *SP(#6), AR1 ; |662| 
    3489 000052 C90E          MOV AR1, *SP(#7) ; |662| 
    3490                      .dwpsn  file "C:/Users/a0221074/Desktop/C5000/IBM_Watson_TIdesign_workarea/CSL_bitbucket/c55_csl/c55x
    3491 000054 A908          MOV *SP(#4), AR1 ; |662| 
    3492              
    3493 000058 4319          SUB #1, AR1 ; |662| 
    3494 000056 AA0E  ||      MOV *SP(#7), AR2 ; |662| 
    3495              
    3496 00005a 12A8          CMP AR2 >= AR1, TC1 ; |662| 
         00005c 90   
    3497 00005d 0464          BCC $C$L124,TC1 ; |662| 
         00005f 38   
    3498                                                      ; branchcc occurs ; |662| 
    3499 000060       $C$DW$L$_uniq$6$E:
    3500 000060       $C$L122:    
    3501 000060       $C$DW$L$_uniq$7$B:
    3502                      .dwpsn  file "C:/Users/a0221074/Desktop/C5000/IBM_Watson_TIdesign_workarea/CSL_bitbucket/c55_csl/c55x
    3503 000060 A90E          MOV *SP(#7), AR1 ; |663| 
    3504 000062 ED00          MOV dbl(*SP(#0)), XAR3
         000064 BF   
    3505 000065 ED00          MOV dbl(*SP(#0)), XAR2
         000067 AF   
    3506 000068 A40E          MOV *SP(#7), T0 ; |663| 
    3507 00006a 4014          ADD #1, T0 ; |663| 
    3508 00006c 1490          AADD AR1, AR3 ; |663| 
         00006e B0   
    3509 00006f 805D          MOV *AR2(T0), *AR3 ; |663| 
         000071 84   
    3510                      .dwpsn  file "C:/Users/a0221074/Desktop/C5000/IBM_Watson_TIdesign_workarea/CSL_bitbucket/c55_csl/c55x
    3511 000072 ED04          MOV dbl(*SP(#2)), XAR3
         000074 BF   
    3512 000075 90B0          MOV XAR3, AC0
    3513 000077 6780          BCC $C$L123,AC0 == #0 ; |664| 
    3514                                                      ; branchcc occurs ; |664| 
    3515 000079       $C$DW$L$_uniq$7$E:
    3516 000079       $C$DW$L$_uniq$8$B:
    3517                      .dwpsn  file "C:/Users/a0221074/Desktop/C5000/IBM_Watson_TIdesign_workarea/CSL_bitbucket/c55_csl/c55x
    3518 000079 A90E          MOV *SP(#7), AR1 ; |665| 
TMS320C55x Assembler PC v4.4.1 Wed Sep 13 16:33:14 2017

Tools Copyright (c) 1996-2012 Texas Instruments Incorporated
C:\Users\a0221074\AppData\Local\Temp\0730410                         PAGE   77

    3519 00007b ED04          MOV dbl(*SP(#2)), XAR2
         00007d AF   
    3520 00007e A40E          MOV *SP(#7), T0 ; |665| 
    3521 000080 4014          ADD #1, T0 ; |665| 
    3522 000082 1490          AADD AR1, AR3 ; |665| 
         000084 B0   
    3523 000085 805D          MOV *AR2(T0), *AR3 ; |665| 
         000087 84   
    3524 000088       $C$DW$L$_uniq$8$E:
    3525 000088       $C$L123:    
    3526 000088       $C$DW$L$_uniq$9$B:
    3527                      .dwpsn  file "C:/Users/a0221074/Desktop/C5000/IBM_Watson_TIdesign_workarea/CSL_bitbucket/c55_csl/c55x
    3528 000088 F70E          ADD #1, *SP(#7) ; |662| 
         00008a 0001 
    3529                      .dwpsn  file "C:/Users/a0221074/Desktop/C5000/IBM_Watson_TIdesign_workarea/CSL_bitbucket/c55_csl/c55x
    3530 00008c A908          MOV *SP(#4), AR1 ; |662| 
    3531              
    3532 000090 4319          SUB #1, AR1 ; |662| 
    3533 00008e AA0E  ||      MOV *SP(#7), AR2 ; |662| 
    3534              
    3535 000092 12A4          CMP AR2 < AR1, TC1 ; |662| 
         000094 90   
    3536 000095 0464          BCC $C$L122,TC1 ; |662| 
         000097 C8   
    3537                                                      ; branchcc occurs ; |662| 
    3538 000098       $C$DW$L$_uniq$9$E:
    3539 000098       $C$L124:    
    3540 000098       $C$DW$L$_uniq$10$B:
    3541                      .dwpsn  file "C:/Users/a0221074/Desktop/C5000/IBM_Watson_TIdesign_workarea/CSL_bitbucket/c55_csl/c55x
    3542 000098 F708          SUB #1, *SP(#4) ; |667| 
         00009a FFFF 
    3543                      .dwpsn  file "C:/Users/a0221074/Desktop/C5000/IBM_Watson_TIdesign_workarea/CSL_bitbucket/c55_csl/c55x
    3544 00009c 4A04          B $C$L126 ; |668| 
    3545                                                      ; branch occurs ; |668| 
    3546 00009e       $C$DW$L$_uniq$10$E:
    3547 00009e       $C$L125:    
    3548 00009e       $C$DW$L$_uniq$11$B:
    3549                      .dwpsn  file "C:/Users/a0221074/Desktop/C5000/IBM_Watson_TIdesign_workarea/CSL_bitbucket/c55_csl/c55x
    3550 00009e F70C          ADD #1, *SP(#6) ; |668| 
         0000a0 0001 
    3551 0000a2       $C$DW$L$_uniq$11$E:
    3552 0000a2       $C$L126:    
    3553 0000a2       $C$DW$L$_uniq$12$B:
    3554                      .dwpsn  file "C:/Users/a0221074/Desktop/C5000/IBM_Watson_TIdesign_workarea/CSL_bitbucket/c55_csl/c55x
    3555 0000a2 A908          MOV *SP(#4), AR1 ; |658| 
    3556 0000a4 AA0C          MOV *SP(#6), AR2 ; |658| 
    3557 0000a6 12A4          CMP AR2 < AR1, TC1 ; |658| 
         0000a8 90   
    3558 0000a9 6D64          BCC $C$L120,TC1 ; |658| 
         0000ab FF7C 
    3559                                                      ; branchcc occurs ; |658| 
    3560 0000ad       $C$DW$L$_uniq$12$E:
    3561 0000ad       $C$L127:    
    3562 0000ad       $C$DW$L$_uniq$13$B:
    3563                      .dwpsn  file "C:/Users/a0221074/Desktop/C5000/IBM_Watson_TIdesign_workarea/CSL_bitbucket/c55_csl/c55x
TMS320C55x Assembler PC v4.4.1 Wed Sep 13 16:33:14 2017

Tools Copyright (c) 1996-2012 Texas Instruments Incorporated
C:\Users\a0221074\AppData\Local\Temp\0730410                         PAGE   78

    3564 0000ad F70A          ADD #1, *SP(#5) ; |657| 
         0000af 0001 
    3565                      .dwpsn  file "C:/Users/a0221074/Desktop/C5000/IBM_Watson_TIdesign_workarea/CSL_bitbucket/c55_csl/c55x
    3566 0000b1 A908          MOV *SP(#4), AR1 ; |657| 
    3567 0000b3 AA0A          MOV *SP(#5), AR2 ; |657| 
    3568 0000b5 12A4          CMP AR2 < AR1, TC1 ; |657| 
         0000b7 90   
    3569 0000b8 6D64          BCC $C$L119,TC1 ; |657| 
         0000ba FF5C 
    3570                                                      ; branchcc occurs ; |657| 
    3571 0000bc       $C$DW$L$_uniq$13$E:
    3572 0000bc       $C$L128:    
    3573                      .dwpsn  file "C:/Users/a0221074/Desktop/C5000/IBM_Watson_TIdesign_workarea/CSL_bitbucket/c55_csl/c55x
    3574 0000bc 2294          MOV AR1, T0
    3575                      .dwpsn  file "C:/Users/a0221074/Desktop/C5000/IBM_Watson_TIdesign_workarea/CSL_bitbucket/c55_csl/c55x
    3576 0000be 4E09          AADD #9, SP
    3577                      .dwcfi  cfa_offset, 1
    3578              $C$DW$260       .dwtag  DW_TAG_TI_branch
    3579                      .dwattr $C$DW$260, DW_AT_low_pc(0x00)
    3580                      .dwattr $C$DW$260, DW_AT_TI_return
    3581 0000c0 4804          RET
    3582                                                      ; return occurs
    3583              
    3584              $C$DW$261       .dwtag  DW_TAG_TI_loop
    3585                      .dwattr $C$DW$261, DW_AT_name("C:\\Users\\a0221074\\AppData\\Local\\Temp\\0730410:$C$L119:1:150533479
    3586                      .dwattr $C$DW$261, DW_AT_TI_begin_file("C:/Users/a0221074/Desktop/C5000/IBM_Watson_TIdesign_workarea/
    3587                      .dwattr $C$DW$261, DW_AT_TI_begin_line(0x291)
    3588                      .dwattr $C$DW$261, DW_AT_TI_end_line(0x29e)
    3589              $C$DW$262       .dwtag  DW_TAG_TI_loop_range
    3590                      .dwattr $C$DW$262, DW_AT_low_pc($C$DW$L$_uniq$2$B)
    3591                      .dwattr $C$DW$262, DW_AT_high_pc($C$DW$L$_uniq$2$E)
    3592              $C$DW$263       .dwtag  DW_TAG_TI_loop_range
    3593                      .dwattr $C$DW$263, DW_AT_low_pc($C$DW$L$_uniq$13$B)
    3594                      .dwattr $C$DW$263, DW_AT_high_pc($C$DW$L$_uniq$13$E)
    3595              
    3596              $C$DW$264       .dwtag  DW_TAG_TI_loop
    3597                      .dwattr $C$DW$264, DW_AT_name("C:\\Users\\a0221074\\AppData\\Local\\Temp\\0730410:$C$L120:2:150533479
    3598                      .dwattr $C$DW$264, DW_AT_TI_begin_file("C:/Users/a0221074/Desktop/C5000/IBM_Watson_TIdesign_workarea/
    3599                      .dwattr $C$DW$264, DW_AT_TI_begin_line(0x292)
    3600                      .dwattr $C$DW$264, DW_AT_TI_end_line(0x29d)
    3601              $C$DW$265       .dwtag  DW_TAG_TI_loop_range
    3602                      .dwattr $C$DW$265, DW_AT_low_pc($C$DW$L$_uniq$3$B)
    3603                      .dwattr $C$DW$265, DW_AT_high_pc($C$DW$L$_uniq$3$E)
    3604              $C$DW$266       .dwtag  DW_TAG_TI_loop_range
    3605                      .dwattr $C$DW$266, DW_AT_low_pc($C$DW$L$_uniq$4$B)
    3606                      .dwattr $C$DW$266, DW_AT_high_pc($C$DW$L$_uniq$4$E)
    3607              $C$DW$267       .dwtag  DW_TAG_TI_loop_range
    3608                      .dwattr $C$DW$267, DW_AT_low_pc($C$DW$L$_uniq$5$B)
    3609                      .dwattr $C$DW$267, DW_AT_high_pc($C$DW$L$_uniq$5$E)
    3610              $C$DW$268       .dwtag  DW_TAG_TI_loop_range
    3611                      .dwattr $C$DW$268, DW_AT_low_pc($C$DW$L$_uniq$6$B)
    3612                      .dwattr $C$DW$268, DW_AT_high_pc($C$DW$L$_uniq$6$E)
    3613              $C$DW$269       .dwtag  DW_TAG_TI_loop_range
    3614                      .dwattr $C$DW$269, DW_AT_low_pc($C$DW$L$_uniq$10$B)
    3615                      .dwattr $C$DW$269, DW_AT_high_pc($C$DW$L$_uniq$10$E)
TMS320C55x Assembler PC v4.4.1 Wed Sep 13 16:33:14 2017

Tools Copyright (c) 1996-2012 Texas Instruments Incorporated
C:\Users\a0221074\AppData\Local\Temp\0730410                         PAGE   79

    3616              $C$DW$270       .dwtag  DW_TAG_TI_loop_range
    3617                      .dwattr $C$DW$270, DW_AT_low_pc($C$DW$L$_uniq$11$B)
    3618                      .dwattr $C$DW$270, DW_AT_high_pc($C$DW$L$_uniq$11$E)
    3619              $C$DW$271       .dwtag  DW_TAG_TI_loop_range
    3620                      .dwattr $C$DW$271, DW_AT_low_pc($C$DW$L$_uniq$12$B)
    3621                      .dwattr $C$DW$271, DW_AT_high_pc($C$DW$L$_uniq$12$E)
    3622              
    3623              $C$DW$272       .dwtag  DW_TAG_TI_loop
    3624                      .dwattr $C$DW$272, DW_AT_name("C:\\Users\\a0221074\\AppData\\Local\\Temp\\0730410:$C$L122:3:150533479
    3625                      .dwattr $C$DW$272, DW_AT_TI_begin_file("C:/Users/a0221074/Desktop/C5000/IBM_Watson_TIdesign_workarea/
    3626                      .dwattr $C$DW$272, DW_AT_TI_begin_line(0x296)
    3627                      .dwattr $C$DW$272, DW_AT_TI_end_line(0x29a)
    3628              $C$DW$273       .dwtag  DW_TAG_TI_loop_range
    3629                      .dwattr $C$DW$273, DW_AT_low_pc($C$DW$L$_uniq$7$B)
    3630                      .dwattr $C$DW$273, DW_AT_high_pc($C$DW$L$_uniq$7$E)
    3631              $C$DW$274       .dwtag  DW_TAG_TI_loop_range
    3632                      .dwattr $C$DW$274, DW_AT_low_pc($C$DW$L$_uniq$8$B)
    3633                      .dwattr $C$DW$274, DW_AT_high_pc($C$DW$L$_uniq$8$E)
    3634              $C$DW$275       .dwtag  DW_TAG_TI_loop_range
    3635                      .dwattr $C$DW$275, DW_AT_low_pc($C$DW$L$_uniq$9$B)
    3636                      .dwattr $C$DW$275, DW_AT_high_pc($C$DW$L$_uniq$9$E)
    3637                      .dwendtag $C$DW$272
    3638              
    3639                      .dwendtag $C$DW$264
    3640              
    3641                      .dwendtag $C$DW$261
    3642              
    3643                      .dwattr $C$DW$250, DW_AT_TI_end_file("C:/Users/a0221074/Desktop/C5000/IBM_Watson_TIdesign_workarea/CS
    3644                      .dwattr $C$DW$250, DW_AT_TI_end_line(0x2a1)
    3645                      .dwattr $C$DW$250, DW_AT_TI_end_column(0x01)
    3646                      .dwendentry
    3647                      .dwendtag $C$DW$250
    3648              
    3649              ;******************************************************************************
    3650              ;* UNDEFINED EXTERNAL REFERENCES                                              *
    3651              ;******************************************************************************
    3652                      .global __divli
    3653                      .global __mpyli
    3654              
    3655              ;*******************************************************************************
    3656              ;* TYPE INFORMATION                                                            *
    3657              ;*******************************************************************************
    3658              
    3659              $C$DW$T$19      .dwtag  DW_TAG_structure_type
    3660                      .dwattr $C$DW$T$19, DW_AT_byte_size(0x03)
    3661              $C$DW$276       .dwtag  DW_TAG_member
    3662                      .dwattr $C$DW$276, DW_AT_type(*$C$DW$T$8)
    3663                      .dwattr $C$DW$276, DW_AT_name("num")
    3664                      .dwattr $C$DW$276, DW_AT_TI_symbol_name("_num")
    3665                      .dwattr $C$DW$276, DW_AT_data_member_location[DW_OP_plus_uconst 0x0]
    3666                      .dwattr $C$DW$276, DW_AT_accessibility(DW_ACCESS_public)
    3667              $C$DW$277       .dwtag  DW_TAG_member
    3668                      .dwattr $C$DW$277, DW_AT_type(*$C$DW$T$8)
    3669                      .dwattr $C$DW$277, DW_AT_name("x1")
    3670                      .dwattr $C$DW$277, DW_AT_TI_symbol_name("_x1")
TMS320C55x Assembler PC v4.4.1 Wed Sep 13 16:33:14 2017

Tools Copyright (c) 1996-2012 Texas Instruments Incorporated
C:\Users\a0221074\AppData\Local\Temp\0730410                         PAGE   80

    3671                      .dwattr $C$DW$277, DW_AT_data_member_location[DW_OP_plus_uconst 0x1]
    3672                      .dwattr $C$DW$277, DW_AT_accessibility(DW_ACCESS_public)
    3673              $C$DW$278       .dwtag  DW_TAG_member
    3674                      .dwattr $C$DW$278, DW_AT_type(*$C$DW$T$8)
    3675                      .dwattr $C$DW$278, DW_AT_name("x2")
    3676                      .dwattr $C$DW$278, DW_AT_TI_symbol_name("_x2")
    3677                      .dwattr $C$DW$278, DW_AT_data_member_location[DW_OP_plus_uconst 0x2]
    3678                      .dwattr $C$DW$278, DW_AT_accessibility(DW_ACCESS_public)
    3679                      .dwendtag $C$DW$T$19
    3680              
    3681              $C$DW$T$56      .dwtag  DW_TAG_typedef, DW_AT_name("mel_filter_type")
    3682                      .dwattr $C$DW$T$56, DW_AT_type(*$C$DW$T$19)
    3683                      .dwattr $C$DW$T$56, DW_AT_language(DW_LANG_C)
    3684              $C$DW$279       .dwtag  DW_TAG_TI_far_type
    3685                      .dwattr $C$DW$279, DW_AT_type(*$C$DW$T$56)
    3686              $C$DW$T$57      .dwtag  DW_TAG_const_type
    3687                      .dwattr $C$DW$T$57, DW_AT_type(*$C$DW$279)
    3688              $C$DW$T$58      .dwtag  DW_TAG_pointer_type
    3689                      .dwattr $C$DW$T$58, DW_AT_type(*$C$DW$T$57)
    3690                      .dwattr $C$DW$T$58, DW_AT_address_class(0x17)
    3691              
    3692              $C$DW$T$23      .dwtag  DW_TAG_structure_type
    3693                      .dwattr $C$DW$T$23, DW_AT_byte_size(0x18)
    3694              $C$DW$280       .dwtag  DW_TAG_member
    3695                      .dwattr $C$DW$280, DW_AT_type(*$C$DW$T$20)
    3696                      .dwattr $C$DW$280, DW_AT_name("max_mem_usage")
    3697                      .dwattr $C$DW$280, DW_AT_TI_symbol_name("_max_mem_usage")
    3698                      .dwattr $C$DW$280, DW_AT_data_member_location[DW_OP_plus_uconst 0x0]
    3699                      .dwattr $C$DW$280, DW_AT_accessibility(DW_ACCESS_public)
    3700              $C$DW$281       .dwtag  DW_TAG_member
    3701                      .dwattr $C$DW$281, DW_AT_type(*$C$DW$T$20)
    3702                      .dwattr $C$DW$281, DW_AT_name("n_terminals")
    3703                      .dwattr $C$DW$281, DW_AT_TI_symbol_name("_n_terminals")
    3704                      .dwattr $C$DW$281, DW_AT_data_member_location[DW_OP_plus_uconst 0x1]
    3705                      .dwattr $C$DW$281, DW_AT_accessibility(DW_ACCESS_public)
    3706              $C$DW$282       .dwtag  DW_TAG_member
    3707                      .dwattr $C$DW$282, DW_AT_type(*$C$DW$T$20)
    3708                      .dwattr $C$DW$282, DW_AT_name("n_monophones")
    3709                      .dwattr $C$DW$282, DW_AT_TI_symbol_name("_n_monophones")
    3710                      .dwattr $C$DW$282, DW_AT_data_member_location[DW_OP_plus_uconst 0x2]
    3711                      .dwattr $C$DW$282, DW_AT_accessibility(DW_ACCESS_public)
    3712              $C$DW$283       .dwtag  DW_TAG_member
    3713                      .dwattr $C$DW$283, DW_AT_type(*$C$DW$T$21)
    3714                      .dwattr $C$DW$283, DW_AT_name("hlrTreeBase")
    3715                      .dwattr $C$DW$283, DW_AT_TI_symbol_name("_hlrTreeBase")
    3716                      .dwattr $C$DW$283, DW_AT_data_member_location[DW_OP_plus_uconst 0x4]
    3717                      .dwattr $C$DW$283, DW_AT_accessibility(DW_ACCESS_public)
    3718              $C$DW$284       .dwtag  DW_TAG_member
    3719                      .dwattr $C$DW$284, DW_AT_type(*$C$DW$T$22)
    3720                      .dwattr $C$DW$284, DW_AT_name("hlrTerminal")
    3721                      .dwattr $C$DW$284, DW_AT_TI_symbol_name("_hlrTerminal")
    3722                      .dwattr $C$DW$284, DW_AT_data_member_location[DW_OP_plus_uconst 0x6]
    3723                      .dwattr $C$DW$284, DW_AT_accessibility(DW_ACCESS_public)
    3724              $C$DW$285       .dwtag  DW_TAG_member
    3725                      .dwattr $C$DW$285, DW_AT_type(*$C$DW$T$21)
TMS320C55x Assembler PC v4.4.1 Wed Sep 13 16:33:14 2017

Tools Copyright (c) 1996-2012 Texas Instruments Incorporated
C:\Users\a0221074\AppData\Local\Temp\0730410                         PAGE   81

    3726                      .dwattr $C$DW$285, DW_AT_name("pHMM2phone")
    3727                      .dwattr $C$DW$285, DW_AT_TI_symbol_name("_pHMM2phone")
    3728                      .dwattr $C$DW$285, DW_AT_data_member_location[DW_OP_plus_uconst 0x8]
    3729                      .dwattr $C$DW$285, DW_AT_accessibility(DW_ACCESS_public)
    3730              $C$DW$286       .dwtag  DW_TAG_member
    3731                      .dwattr $C$DW$286, DW_AT_type(*$C$DW$T$22)
    3732                      .dwattr $C$DW$286, DW_AT_name("hlrTransformIndex")
    3733                      .dwattr $C$DW$286, DW_AT_TI_symbol_name("_hlrTransformIndex")
    3734                      .dwattr $C$DW$286, DW_AT_data_member_location[DW_OP_plus_uconst 0xa]
    3735                      .dwattr $C$DW$286, DW_AT_accessibility(DW_ACCESS_public)
    3736              $C$DW$287       .dwtag  DW_TAG_member
    3737                      .dwattr $C$DW$287, DW_AT_type(*$C$DW$T$20)
    3738                      .dwattr $C$DW$287, DW_AT_name("hlr_TRANSFORM_SIZE")
    3739                      .dwattr $C$DW$287, DW_AT_TI_symbol_name("_hlr_TRANSFORM_SIZE")
    3740                      .dwattr $C$DW$287, DW_AT_data_member_location[DW_OP_plus_uconst 0xc]
    3741                      .dwattr $C$DW$287, DW_AT_accessibility(DW_ACCESS_public)
    3742              $C$DW$288       .dwtag  DW_TAG_member
    3743                      .dwattr $C$DW$288, DW_AT_type(*$C$DW$T$21)
    3744                      .dwattr $C$DW$288, DW_AT_name("hlrTransforms")
    3745                      .dwattr $C$DW$288, DW_AT_TI_symbol_name("_hlrTransforms")
    3746                      .dwattr $C$DW$288, DW_AT_data_member_location[DW_OP_plus_uconst 0xe]
    3747                      .dwattr $C$DW$288, DW_AT_accessibility(DW_ACCESS_public)
    3748              $C$DW$289       .dwtag  DW_TAG_member
    3749                      .dwattr $C$DW$289, DW_AT_type(*$C$DW$T$21)
    3750                      .dwattr $C$DW$289, DW_AT_name("pSegStat_dif1")
    3751                      .dwattr $C$DW$289, DW_AT_TI_symbol_name("_pSegStat_dif1")
    3752                      .dwattr $C$DW$289, DW_AT_data_member_location[DW_OP_plus_uconst 0x10]
    3753                      .dwattr $C$DW$289, DW_AT_accessibility(DW_ACCESS_public)
    3754              $C$DW$290       .dwtag  DW_TAG_member
    3755                      .dwattr $C$DW$290, DW_AT_type(*$C$DW$T$21)
    3756                      .dwattr $C$DW$290, DW_AT_name("pSegStat_dif2")
    3757                      .dwattr $C$DW$290, DW_AT_TI_symbol_name("_pSegStat_dif2")
    3758                      .dwattr $C$DW$290, DW_AT_data_member_location[DW_OP_plus_uconst 0x12]
    3759                      .dwattr $C$DW$290, DW_AT_accessibility(DW_ACCESS_public)
    3760              $C$DW$291       .dwtag  DW_TAG_member
    3761                      .dwattr $C$DW$291, DW_AT_type(*$C$DW$T$21)
    3762                      .dwattr $C$DW$291, DW_AT_name("pEnhanced")
    3763                      .dwattr $C$DW$291, DW_AT_TI_symbol_name("_pEnhanced")
    3764                      .dwattr $C$DW$291, DW_AT_data_member_location[DW_OP_plus_uconst 0x14]
    3765                      .dwattr $C$DW$291, DW_AT_accessibility(DW_ACCESS_public)
    3766              $C$DW$292       .dwtag  DW_TAG_member
    3767                      .dwattr $C$DW$292, DW_AT_type(*$C$DW$T$21)
    3768                      .dwattr $C$DW$292, DW_AT_name("bk_node_cnt")
    3769                      .dwattr $C$DW$292, DW_AT_TI_symbol_name("_bk_node_cnt")
    3770                      .dwattr $C$DW$292, DW_AT_data_member_location[DW_OP_plus_uconst 0x16]
    3771                      .dwattr $C$DW$292, DW_AT_accessibility(DW_ACCESS_public)
    3772                      .dwendtag $C$DW$T$23
    3773              
    3774              $C$DW$T$62      .dwtag  DW_TAG_typedef, DW_AT_name("FeaHLRAccType")
    3775                      .dwattr $C$DW$T$62, DW_AT_type(*$C$DW$T$23)
    3776                      .dwattr $C$DW$T$62, DW_AT_language(DW_LANG_C)
    3777              $C$DW$T$63      .dwtag  DW_TAG_pointer_type
    3778                      .dwattr $C$DW$T$63, DW_AT_type(*$C$DW$T$62)
    3779                      .dwattr $C$DW$T$63, DW_AT_address_class(0x17)
    3780              
TMS320C55x Assembler PC v4.4.1 Wed Sep 13 16:33:14 2017

Tools Copyright (c) 1996-2012 Texas Instruments Incorporated
C:\Users\a0221074\AppData\Local\Temp\0730410                         PAGE   82

    3781              $C$DW$T$24      .dwtag  DW_TAG_structure_type
    3782                      .dwattr $C$DW$T$24, DW_AT_byte_size(0x03)
    3783              $C$DW$293       .dwtag  DW_TAG_member
    3784                      .dwattr $C$DW$293, DW_AT_type(*$C$DW$T$9)
    3785                      .dwattr $C$DW$293, DW_AT_name("sym_code")
    3786                      .dwattr $C$DW$293, DW_AT_TI_symbol_name("_sym_code")
    3787                      .dwattr $C$DW$293, DW_AT_data_member_location[DW_OP_plus_uconst 0x0]
    3788                      .dwattr $C$DW$293, DW_AT_accessibility(DW_ACCESS_public)
    3789              $C$DW$294       .dwtag  DW_TAG_member
    3790                      .dwattr $C$DW$294, DW_AT_type(*$C$DW$T$9)
    3791                      .dwattr $C$DW$294, DW_AT_name("start_cell")
    3792                      .dwattr $C$DW$294, DW_AT_TI_symbol_name("_start_cell")
    3793                      .dwattr $C$DW$294, DW_AT_data_member_location[DW_OP_plus_uconst 0x1]
    3794                      .dwattr $C$DW$294, DW_AT_accessibility(DW_ACCESS_public)
    3795              $C$DW$295       .dwtag  DW_TAG_member
    3796                      .dwattr $C$DW$295, DW_AT_type(*$C$DW$T$9)
    3797                      .dwattr $C$DW$295, DW_AT_name("depth")
    3798                      .dwattr $C$DW$295, DW_AT_TI_symbol_name("_depth")
    3799                      .dwattr $C$DW$295, DW_AT_data_member_location[DW_OP_plus_uconst 0x2]
    3800                      .dwattr $C$DW$295, DW_AT_accessibility(DW_ACCESS_public)
    3801                      .dwendtag $C$DW$T$24
    3802              
    3803              $C$DW$T$65      .dwtag  DW_TAG_typedef, DW_AT_name("SymCell")
    3804                      .dwattr $C$DW$T$65, DW_AT_type(*$C$DW$T$24)
    3805                      .dwattr $C$DW$T$65, DW_AT_language(DW_LANG_C)
    3806              $C$DW$T$66      .dwtag  DW_TAG_pointer_type
    3807                      .dwattr $C$DW$T$66, DW_AT_type(*$C$DW$T$65)
    3808                      .dwattr $C$DW$T$66, DW_AT_address_class(0x17)
    3809              
    3810              $C$DW$T$25      .dwtag  DW_TAG_structure_type
    3811                      .dwattr $C$DW$T$25, DW_AT_byte_size(0x03)
    3812              $C$DW$296       .dwtag  DW_TAG_member
    3813                      .dwattr $C$DW$296, DW_AT_type(*$C$DW$T$8)
    3814                      .dwattr $C$DW$296, DW_AT_name("scr")
    3815                      .dwattr $C$DW$296, DW_AT_TI_symbol_name("_scr")
    3816                      .dwattr $C$DW$296, DW_AT_data_member_location[DW_OP_plus_uconst 0x0]
    3817                      .dwattr $C$DW$296, DW_AT_accessibility(DW_ACCESS_public)
    3818              $C$DW$297       .dwtag  DW_TAG_member
    3819                      .dwattr $C$DW$297, DW_AT_type(*$C$DW$T$9)
    3820                      .dwattr $C$DW$297, DW_AT_name("sym")
    3821                      .dwattr $C$DW$297, DW_AT_TI_symbol_name("_sym")
    3822                      .dwattr $C$DW$297, DW_AT_data_member_location[DW_OP_plus_uconst 0x1]
    3823                      .dwattr $C$DW$297, DW_AT_accessibility(DW_ACCESS_public)
    3824              $C$DW$298       .dwtag  DW_TAG_member
    3825                      .dwattr $C$DW$298, DW_AT_type(*$C$DW$T$9)
    3826                      .dwattr $C$DW$298, DW_AT_name("frm")
    3827                      .dwattr $C$DW$298, DW_AT_TI_symbol_name("_frm")
    3828                      .dwattr $C$DW$298, DW_AT_data_member_location[DW_OP_plus_uconst 0x2]
    3829                      .dwattr $C$DW$298, DW_AT_accessibility(DW_ACCESS_public)
    3830                      .dwendtag $C$DW$T$25
    3831              
    3832              $C$DW$T$67      .dwtag  DW_TAG_typedef, DW_AT_name("StateCell")
    3833                      .dwattr $C$DW$T$67, DW_AT_type(*$C$DW$T$25)
    3834                      .dwattr $C$DW$T$67, DW_AT_language(DW_LANG_C)
    3835              $C$DW$T$68      .dwtag  DW_TAG_pointer_type
TMS320C55x Assembler PC v4.4.1 Wed Sep 13 16:33:14 2017

Tools Copyright (c) 1996-2012 Texas Instruments Incorporated
C:\Users\a0221074\AppData\Local\Temp\0730410                         PAGE   83

    3836                      .dwattr $C$DW$T$68, DW_AT_type(*$C$DW$T$67)
    3837                      .dwattr $C$DW$T$68, DW_AT_address_class(0x17)
    3838              
    3839              $C$DW$T$26      .dwtag  DW_TAG_structure_type
    3840                      .dwattr $C$DW$T$26, DW_AT_byte_size(0x02)
    3841              $C$DW$299       .dwtag  DW_TAG_member
    3842                      .dwattr $C$DW$299, DW_AT_type(*$C$DW$T$9)
    3843                      .dwattr $C$DW$299, DW_AT_name("frm")
    3844                      .dwattr $C$DW$299, DW_AT_TI_symbol_name("_frm")
    3845                      .dwattr $C$DW$299, DW_AT_data_member_location[DW_OP_plus_uconst 0x0]
    3846                      .dwattr $C$DW$299, DW_AT_accessibility(DW_ACCESS_public)
    3847              $C$DW$300       .dwtag  DW_TAG_member
    3848                      .dwattr $C$DW$300, DW_AT_type(*$C$DW$T$9)
    3849                      .dwattr $C$DW$300, DW_AT_name("beam_idx")
    3850                      .dwattr $C$DW$300, DW_AT_TI_symbol_name("_beam_idx")
    3851                      .dwattr $C$DW$300, DW_AT_data_member_location[DW_OP_plus_uconst 0x1]
    3852                      .dwattr $C$DW$300, DW_AT_accessibility(DW_ACCESS_public)
    3853                      .dwendtag $C$DW$T$26
    3854              
    3855              $C$DW$T$71      .dwtag  DW_TAG_typedef, DW_AT_name("TimeType")
    3856                      .dwattr $C$DW$T$71, DW_AT_type(*$C$DW$T$26)
    3857                      .dwattr $C$DW$T$71, DW_AT_language(DW_LANG_C)
    3858              $C$DW$T$72      .dwtag  DW_TAG_pointer_type
    3859                      .dwattr $C$DW$T$72, DW_AT_type(*$C$DW$T$71)
    3860                      .dwattr $C$DW$T$72, DW_AT_address_class(0x17)
    3861              
    3862              $C$DW$T$28      .dwtag  DW_TAG_structure_type
    3863                      .dwattr $C$DW$T$28, DW_AT_byte_size(0x08)
    3864              $C$DW$301       .dwtag  DW_TAG_member
    3865                      .dwattr $C$DW$301, DW_AT_type(*$C$DW$T$9)
    3866                      .dwattr $C$DW$301, DW_AT_name("n_hmm")
    3867                      .dwattr $C$DW$301, DW_AT_TI_symbol_name("_n_hmm")
    3868                      .dwattr $C$DW$301, DW_AT_data_member_location[DW_OP_plus_uconst 0x0]
    3869                      .dwattr $C$DW$301, DW_AT_accessibility(DW_ACCESS_public)
    3870              $C$DW$302       .dwtag  DW_TAG_member
    3871                      .dwattr $C$DW$302, DW_AT_type(*$C$DW$T$9)
    3872                      .dwattr $C$DW$302, DW_AT_name("n_sym")
    3873                      .dwattr $C$DW$302, DW_AT_TI_symbol_name("_n_sym")
    3874                      .dwattr $C$DW$302, DW_AT_data_member_location[DW_OP_plus_uconst 0x1]
    3875                      .dwattr $C$DW$302, DW_AT_accessibility(DW_ACCESS_public)
    3876              $C$DW$303       .dwtag  DW_TAG_member
    3877                      .dwattr $C$DW$303, DW_AT_type(*$C$DW$T$9)
    3878                      .dwattr $C$DW$303, DW_AT_name("n_word")
    3879                      .dwattr $C$DW$303, DW_AT_TI_symbol_name("_n_word")
    3880                      .dwattr $C$DW$303, DW_AT_data_member_location[DW_OP_plus_uconst 0x2]
    3881                      .dwattr $C$DW$303, DW_AT_accessibility(DW_ACCESS_public)
    3882              $C$DW$304       .dwtag  DW_TAG_member
    3883                      .dwattr $C$DW$304, DW_AT_type(*$C$DW$T$9)
    3884                      .dwattr $C$DW$304, DW_AT_name("n_set")
    3885                      .dwattr $C$DW$304, DW_AT_TI_symbol_name("_n_set")
    3886                      .dwattr $C$DW$304, DW_AT_data_member_location[DW_OP_plus_uconst 0x3]
    3887                      .dwattr $C$DW$304, DW_AT_accessibility(DW_ACCESS_public)
    3888              $C$DW$305       .dwtag  DW_TAG_member
    3889                      .dwattr $C$DW$305, DW_AT_type(*$C$DW$T$9)
    3890                      .dwattr $C$DW$305, DW_AT_name("n_hmm_set")
TMS320C55x Assembler PC v4.4.1 Wed Sep 13 16:33:14 2017

Tools Copyright (c) 1996-2012 Texas Instruments Incorporated
C:\Users\a0221074\AppData\Local\Temp\0730410                         PAGE   84

    3891                      .dwattr $C$DW$305, DW_AT_TI_symbol_name("_n_hmm_set")
    3892                      .dwattr $C$DW$305, DW_AT_data_member_location[DW_OP_plus_uconst 0x4]
    3893                      .dwattr $C$DW$305, DW_AT_accessibility(DW_ACCESS_public)
    3894              $C$DW$306       .dwtag  DW_TAG_member
    3895                      .dwattr $C$DW$306, DW_AT_type(*$C$DW$T$9)
    3896                      .dwattr $C$DW$306, DW_AT_name("start")
    3897                      .dwattr $C$DW$306, DW_AT_TI_symbol_name("_start")
    3898                      .dwattr $C$DW$306, DW_AT_data_member_location[DW_OP_plus_uconst 0x5]
    3899                      .dwattr $C$DW$306, DW_AT_accessibility(DW_ACCESS_public)
    3900              $C$DW$307       .dwtag  DW_TAG_member
    3901                      .dwattr $C$DW$307, DW_AT_type(*$C$DW$T$9)
    3902                      .dwattr $C$DW$307, DW_AT_name("stop")
    3903                      .dwattr $C$DW$307, DW_AT_TI_symbol_name("_stop")
    3904                      .dwattr $C$DW$307, DW_AT_data_member_location[DW_OP_plus_uconst 0x6]
    3905                      .dwattr $C$DW$307, DW_AT_accessibility(DW_ACCESS_public)
    3906              $C$DW$308       .dwtag  DW_TAG_member
    3907                      .dwattr $C$DW$308, DW_AT_type(*$C$DW$T$27)
    3908                      .dwattr $C$DW$308, DW_AT_name("symlist")
    3909                      .dwattr $C$DW$308, DW_AT_TI_symbol_name("_symlist")
    3910                      .dwattr $C$DW$308, DW_AT_data_member_location[DW_OP_plus_uconst 0x7]
    3911                      .dwattr $C$DW$308, DW_AT_accessibility(DW_ACCESS_public)
    3912                      .dwendtag $C$DW$T$28
    3913              
    3914              $C$DW$T$75      .dwtag  DW_TAG_typedef, DW_AT_name("TransType")
    3915                      .dwattr $C$DW$T$75, DW_AT_type(*$C$DW$T$28)
    3916                      .dwattr $C$DW$T$75, DW_AT_language(DW_LANG_C)
    3917              $C$DW$T$76      .dwtag  DW_TAG_pointer_type
    3918                      .dwattr $C$DW$T$76, DW_AT_type(*$C$DW$T$75)
    3919                      .dwattr $C$DW$T$76, DW_AT_address_class(0x17)
    3920              
    3921              $C$DW$T$29      .dwtag  DW_TAG_structure_type
    3922                      .dwattr $C$DW$T$29, DW_AT_byte_size(0x02)
    3923              $C$DW$309       .dwtag  DW_TAG_member
    3924                      .dwattr $C$DW$309, DW_AT_type(*$C$DW$T$9)
    3925                      .dwattr $C$DW$309, DW_AT_name("high_pos")
    3926                      .dwattr $C$DW$309, DW_AT_TI_symbol_name("_high_pos")
    3927                      .dwattr $C$DW$309, DW_AT_data_member_location[DW_OP_plus_uconst 0x0]
    3928                      .dwattr $C$DW$309, DW_AT_accessibility(DW_ACCESS_public)
    3929              $C$DW$310       .dwtag  DW_TAG_member
    3930                      .dwattr $C$DW$310, DW_AT_type(*$C$DW$T$9)
    3931                      .dwattr $C$DW$310, DW_AT_name("cur_pos")
    3932                      .dwattr $C$DW$310, DW_AT_TI_symbol_name("_cur_pos")
    3933                      .dwattr $C$DW$310, DW_AT_data_member_location[DW_OP_plus_uconst 0x1]
    3934                      .dwattr $C$DW$310, DW_AT_accessibility(DW_ACCESS_public)
    3935                      .dwendtag $C$DW$T$29
    3936              
    3937              $C$DW$T$30      .dwtag  DW_TAG_typedef, DW_AT_name("PosType")
    3938                      .dwattr $C$DW$T$30, DW_AT_type(*$C$DW$T$29)
    3939                      .dwattr $C$DW$T$30, DW_AT_language(DW_LANG_C)
    3940              
    3941              $C$DW$T$31      .dwtag  DW_TAG_array_type
    3942                      .dwattr $C$DW$T$31, DW_AT_type(*$C$DW$T$30)
    3943                      .dwattr $C$DW$T$31, DW_AT_language(DW_LANG_C)
    3944                      .dwattr $C$DW$T$31, DW_AT_byte_size(0x04)
    3945              $C$DW$311       .dwtag  DW_TAG_subrange_type
TMS320C55x Assembler PC v4.4.1 Wed Sep 13 16:33:14 2017

Tools Copyright (c) 1996-2012 Texas Instruments Incorporated
C:\Users\a0221074\AppData\Local\Temp\0730410                         PAGE   85

    3946                      .dwattr $C$DW$311, DW_AT_upper_bound(0x01)
    3947                      .dwendtag $C$DW$T$31
    3948              
    3949              
    3950              $C$DW$T$32      .dwtag  DW_TAG_structure_type
    3951                      .dwattr $C$DW$T$32, DW_AT_byte_size(0x0a)
    3952              $C$DW$312       .dwtag  DW_TAG_member
    3953                      .dwattr $C$DW$312, DW_AT_type(*$C$DW$T$30)
    3954                      .dwattr $C$DW$312, DW_AT_name("state")
    3955                      .dwattr $C$DW$312, DW_AT_TI_symbol_name("_state")
    3956                      .dwattr $C$DW$312, DW_AT_data_member_location[DW_OP_plus_uconst 0x0]
    3957                      .dwattr $C$DW$312, DW_AT_accessibility(DW_ACCESS_public)
    3958              $C$DW$313       .dwtag  DW_TAG_member
    3959                      .dwattr $C$DW$313, DW_AT_type(*$C$DW$T$31)
    3960                      .dwattr $C$DW$313, DW_AT_name("sym")
    3961                      .dwattr $C$DW$313, DW_AT_TI_symbol_name("_sym")
    3962                      .dwattr $C$DW$313, DW_AT_data_member_location[DW_OP_plus_uconst 0x2]
    3963                      .dwattr $C$DW$313, DW_AT_accessibility(DW_ACCESS_public)
    3964              $C$DW$314       .dwtag  DW_TAG_member
    3965                      .dwattr $C$DW$314, DW_AT_type(*$C$DW$T$30)
    3966                      .dwattr $C$DW$314, DW_AT_name("beam")
    3967                      .dwattr $C$DW$314, DW_AT_TI_symbol_name("_beam")
    3968                      .dwattr $C$DW$314, DW_AT_data_member_location[DW_OP_plus_uconst 0x6]
    3969                      .dwattr $C$DW$314, DW_AT_accessibility(DW_ACCESS_public)
    3970              $C$DW$315       .dwtag  DW_TAG_member
    3971                      .dwattr $C$DW$315, DW_AT_type(*$C$DW$T$30)
    3972                      .dwattr $C$DW$315, DW_AT_name("time")
    3973                      .dwattr $C$DW$315, DW_AT_TI_symbol_name("_time")
    3974                      .dwattr $C$DW$315, DW_AT_data_member_location[DW_OP_plus_uconst 0x8]
    3975                      .dwattr $C$DW$315, DW_AT_accessibility(DW_ACCESS_public)
    3976                      .dwendtag $C$DW$T$32
    3977              
    3978              $C$DW$T$79      .dwtag  DW_TAG_typedef, DW_AT_name("EvalStat")
    3979                      .dwattr $C$DW$T$79, DW_AT_type(*$C$DW$T$32)
    3980                      .dwattr $C$DW$T$79, DW_AT_language(DW_LANG_C)
    3981              
    3982              $C$DW$T$34      .dwtag  DW_TAG_structure_type
    3983                      .dwattr $C$DW$T$34, DW_AT_byte_size(0x03)
    3984              $C$DW$316       .dwtag  DW_TAG_member
    3985                      .dwattr $C$DW$316, DW_AT_type(*$C$DW$T$33)
    3986                      .dwattr $C$DW$316, DW_AT_name("cur_sym")
    3987                      .dwattr $C$DW$316, DW_AT_TI_symbol_name("_cur_sym")
    3988                      .dwattr $C$DW$316, DW_AT_data_member_location[DW_OP_plus_uconst 0x0]
    3989                      .dwattr $C$DW$316, DW_AT_accessibility(DW_ACCESS_public)
    3990              $C$DW$317       .dwtag  DW_TAG_member
    3991                      .dwattr $C$DW$317, DW_AT_type(*$C$DW$T$9)
    3992                      .dwattr $C$DW$317, DW_AT_name("cur_state")
    3993                      .dwattr $C$DW$317, DW_AT_TI_symbol_name("_cur_state")
    3994                      .dwattr $C$DW$317, DW_AT_data_member_location[DW_OP_plus_uconst 0x2]
    3995                      .dwattr $C$DW$317, DW_AT_accessibility(DW_ACCESS_public)
    3996                      .dwendtag $C$DW$T$34
    3997              
    3998              $C$DW$T$80      .dwtag  DW_TAG_typedef, DW_AT_name("EvalIdx")
    3999                      .dwattr $C$DW$T$80, DW_AT_type(*$C$DW$T$34)
    4000                      .dwattr $C$DW$T$80, DW_AT_language(DW_LANG_C)
TMS320C55x Assembler PC v4.4.1 Wed Sep 13 16:33:14 2017

Tools Copyright (c) 1996-2012 Texas Instruments Incorporated
C:\Users\a0221074\AppData\Local\Temp\0730410                         PAGE   86

    4001              
    4002              $C$DW$T$81      .dwtag  DW_TAG_array_type
    4003                      .dwattr $C$DW$T$81, DW_AT_type(*$C$DW$T$80)
    4004                      .dwattr $C$DW$T$81, DW_AT_language(DW_LANG_C)
    4005                      .dwattr $C$DW$T$81, DW_AT_byte_size(0x06)
    4006              $C$DW$318       .dwtag  DW_TAG_subrange_type
    4007                      .dwattr $C$DW$318, DW_AT_upper_bound(0x01)
    4008                      .dwendtag $C$DW$T$81
    4009              
    4010              
    4011              $C$DW$T$36      .dwtag  DW_TAG_structure_type
    4012                      .dwattr $C$DW$T$36, DW_AT_byte_size(0x06)
    4013              $C$DW$319       .dwtag  DW_TAG_member
    4014                      .dwattr $C$DW$319, DW_AT_type(*$C$DW$T$9)
    4015                      .dwattr $C$DW$319, DW_AT_name("max_nbr_syms")
    4016                      .dwattr $C$DW$319, DW_AT_TI_symbol_name("_max_nbr_syms")
    4017                      .dwattr $C$DW$319, DW_AT_data_member_location[DW_OP_plus_uconst 0x0]
    4018                      .dwattr $C$DW$319, DW_AT_accessibility(DW_ACCESS_public)
    4019              $C$DW$320       .dwtag  DW_TAG_member
    4020                      .dwattr $C$DW$320, DW_AT_type(*$C$DW$T$8)
    4021                      .dwattr $C$DW$320, DW_AT_name("nbr_syms")
    4022                      .dwattr $C$DW$320, DW_AT_TI_symbol_name("_nbr_syms")
    4023                      .dwattr $C$DW$320, DW_AT_data_member_location[DW_OP_plus_uconst 0x1]
    4024                      .dwattr $C$DW$320, DW_AT_accessibility(DW_ACCESS_public)
    4025              $C$DW$321       .dwtag  DW_TAG_member
    4026                      .dwattr $C$DW$321, DW_AT_type(*$C$DW$T$21)
    4027                      .dwattr $C$DW$321, DW_AT_name("sym2pos")
    4028                      .dwattr $C$DW$321, DW_AT_TI_symbol_name("_sym2pos")
    4029                      .dwattr $C$DW$321, DW_AT_data_member_location[DW_OP_plus_uconst 0x2]
    4030                      .dwattr $C$DW$321, DW_AT_accessibility(DW_ACCESS_public)
    4031              $C$DW$322       .dwtag  DW_TAG_member
    4032                      .dwattr $C$DW$322, DW_AT_type(*$C$DW$T$35)
    4033                      .dwattr $C$DW$322, DW_AT_name("syms")
    4034                      .dwattr $C$DW$322, DW_AT_TI_symbol_name("_syms")
    4035                      .dwattr $C$DW$322, DW_AT_data_member_location[DW_OP_plus_uconst 0x4]
    4036                      .dwattr $C$DW$322, DW_AT_accessibility(DW_ACCESS_public)
    4037                      .dwendtag $C$DW$T$36
    4038              
    4039              $C$DW$T$82      .dwtag  DW_TAG_typedef, DW_AT_name("Sym2PosType")
    4040                      .dwattr $C$DW$T$82, DW_AT_type(*$C$DW$T$36)
    4041                      .dwattr $C$DW$T$82, DW_AT_language(DW_LANG_C)
    4042              
    4043              $C$DW$T$38      .dwtag  DW_TAG_structure_type
    4044                      .dwattr $C$DW$T$38, DW_AT_byte_size(0x16)
    4045              $C$DW$323       .dwtag  DW_TAG_member
    4046                      .dwattr $C$DW$323, DW_AT_type(*$C$DW$T$8)
    4047                      .dwattr $C$DW$323, DW_AT_name("scr")
    4048                      .dwattr $C$DW$323, DW_AT_TI_symbol_name("_scr")
    4049                      .dwattr $C$DW$323, DW_AT_data_member_location[DW_OP_plus_uconst 0x0]
    4050                      .dwattr $C$DW$323, DW_AT_accessibility(DW_ACCESS_public)
    4051              $C$DW$324       .dwtag  DW_TAG_member
    4052                      .dwattr $C$DW$324, DW_AT_type(*$C$DW$T$8)
    4053                      .dwattr $C$DW$324, DW_AT_name("n_ans")
    4054                      .dwattr $C$DW$324, DW_AT_TI_symbol_name("_n_ans")
    4055                      .dwattr $C$DW$324, DW_AT_data_member_location[DW_OP_plus_uconst 0x1]
TMS320C55x Assembler PC v4.4.1 Wed Sep 13 16:33:14 2017

Tools Copyright (c) 1996-2012 Texas Instruments Incorporated
C:\Users\a0221074\AppData\Local\Temp\0730410                         PAGE   87

    4056                      .dwattr $C$DW$324, DW_AT_accessibility(DW_ACCESS_public)
    4057              $C$DW$325       .dwtag  DW_TAG_member
    4058                      .dwattr $C$DW$325, DW_AT_type(*$C$DW$T$37)
    4059                      .dwattr $C$DW$325, DW_AT_name("answers")
    4060                      .dwattr $C$DW$325, DW_AT_TI_symbol_name("_answers")
    4061                      .dwattr $C$DW$325, DW_AT_data_member_location[DW_OP_plus_uconst 0x2]
    4062                      .dwattr $C$DW$325, DW_AT_accessibility(DW_ACCESS_public)
    4063                      .dwendtag $C$DW$T$38
    4064              
    4065              $C$DW$T$40      .dwtag  DW_TAG_typedef, DW_AT_name("NB_element")
    4066                      .dwattr $C$DW$T$40, DW_AT_type(*$C$DW$T$38)
    4067                      .dwattr $C$DW$T$40, DW_AT_language(DW_LANG_C)
    4068              
    4069              $C$DW$T$41      .dwtag  DW_TAG_array_type
    4070                      .dwattr $C$DW$T$41, DW_AT_type(*$C$DW$T$40)
    4071                      .dwattr $C$DW$T$41, DW_AT_language(DW_LANG_C)
    4072                      .dwattr $C$DW$T$41, DW_AT_byte_size(0x294)
    4073              $C$DW$326       .dwtag  DW_TAG_subrange_type
    4074                      .dwattr $C$DW$326, DW_AT_upper_bound(0x1d)
    4075                      .dwendtag $C$DW$T$41
    4076              
    4077              
    4078              $C$DW$T$42      .dwtag  DW_TAG_structure_type
    4079                      .dwattr $C$DW$T$42, DW_AT_byte_size(0x2b3)
    4080              $C$DW$327       .dwtag  DW_TAG_member
    4081                      .dwattr $C$DW$327, DW_AT_type(*$C$DW$T$8)
    4082                      .dwattr $C$DW$327, DW_AT_name("n_bests")
    4083                      .dwattr $C$DW$327, DW_AT_TI_symbol_name("_n_bests")
    4084                      .dwattr $C$DW$327, DW_AT_data_member_location[DW_OP_plus_uconst 0x0]
    4085                      .dwattr $C$DW$327, DW_AT_accessibility(DW_ACCESS_public)
    4086              $C$DW$328       .dwtag  DW_TAG_member
    4087                      .dwattr $C$DW$328, DW_AT_type(*$C$DW$T$39)
    4088                      .dwattr $C$DW$328, DW_AT_name("best_idx")
    4089                      .dwattr $C$DW$328, DW_AT_TI_symbol_name("_best_idx")
    4090                      .dwattr $C$DW$328, DW_AT_data_member_location[DW_OP_plus_uconst 0x1]
    4091                      .dwattr $C$DW$328, DW_AT_accessibility(DW_ACCESS_public)
    4092              $C$DW$329       .dwtag  DW_TAG_member
    4093                      .dwattr $C$DW$329, DW_AT_type(*$C$DW$T$41)
    4094                      .dwattr $C$DW$329, DW_AT_name("elem")
    4095                      .dwattr $C$DW$329, DW_AT_TI_symbol_name("_elem")
    4096                      .dwattr $C$DW$329, DW_AT_data_member_location[DW_OP_plus_uconst 0x1f]
    4097                      .dwattr $C$DW$329, DW_AT_accessibility(DW_ACCESS_public)
    4098                      .dwendtag $C$DW$T$42
    4099              
    4100              $C$DW$T$83      .dwtag  DW_TAG_typedef, DW_AT_name("NB_words")
    4101                      .dwattr $C$DW$T$83, DW_AT_type(*$C$DW$T$42)
    4102                      .dwattr $C$DW$T$83, DW_AT_language(DW_LANG_C)
    4103              
    4104              $C$DW$T$43      .dwtag  DW_TAG_structure_type
    4105                      .dwattr $C$DW$T$43, DW_AT_byte_size(0x14)
    4106              $C$DW$330       .dwtag  DW_TAG_member
    4107                      .dwattr $C$DW$330, DW_AT_type(*$C$DW$T$20)
    4108                      .dwattr $C$DW$330, DW_AT_name("alpha_p")
    4109                      .dwattr $C$DW$330, DW_AT_TI_symbol_name("_alpha_p")
    4110                      .dwattr $C$DW$330, DW_AT_data_member_location[DW_OP_plus_uconst 0x0]
TMS320C55x Assembler PC v4.4.1 Wed Sep 13 16:33:14 2017

Tools Copyright (c) 1996-2012 Texas Instruments Incorporated
C:\Users\a0221074\AppData\Local\Temp\0730410                         PAGE   88

    4111                      .dwattr $C$DW$330, DW_AT_accessibility(DW_ACCESS_public)
    4112              $C$DW$331       .dwtag  DW_TAG_member
    4113                      .dwattr $C$DW$331, DW_AT_type(*$C$DW$T$20)
    4114                      .dwattr $C$DW$331, DW_AT_name("sAlpha")
    4115                      .dwattr $C$DW$331, DW_AT_TI_symbol_name("_sAlpha")
    4116                      .dwattr $C$DW$331, DW_AT_data_member_location[DW_OP_plus_uconst 0x1]
    4117                      .dwattr $C$DW$331, DW_AT_accessibility(DW_ACCESS_public)
    4118              $C$DW$332       .dwtag  DW_TAG_member
    4119                      .dwattr $C$DW$332, DW_AT_type(*$C$DW$T$8)
    4120                      .dwattr $C$DW$332, DW_AT_name("sBeta")
    4121                      .dwattr $C$DW$332, DW_AT_TI_symbol_name("_sBeta")
    4122                      .dwattr $C$DW$332, DW_AT_data_member_location[DW_OP_plus_uconst 0x2]
    4123                      .dwattr $C$DW$332, DW_AT_accessibility(DW_ACCESS_public)
    4124              $C$DW$333       .dwtag  DW_TAG_member
    4125                      .dwattr $C$DW$333, DW_AT_type(*$C$DW$T$8)
    4126                      .dwattr $C$DW$333, DW_AT_name("lambdaLTEhigherE")
    4127                      .dwattr $C$DW$333, DW_AT_TI_symbol_name("_lambdaLTEhigherE")
    4128                      .dwattr $C$DW$333, DW_AT_data_member_location[DW_OP_plus_uconst 0x3]
    4129                      .dwattr $C$DW$333, DW_AT_accessibility(DW_ACCESS_public)
    4130              $C$DW$334       .dwtag  DW_TAG_member
    4131                      .dwattr $C$DW$334, DW_AT_type(*$C$DW$T$8)
    4132                      .dwattr $C$DW$334, DW_AT_name("frm_count")
    4133                      .dwattr $C$DW$334, DW_AT_TI_symbol_name("_frm_count")
    4134                      .dwattr $C$DW$334, DW_AT_data_member_location[DW_OP_plus_uconst 0x4]
    4135                      .dwattr $C$DW$334, DW_AT_accessibility(DW_ACCESS_public)
    4136              $C$DW$335       .dwtag  DW_TAG_member
    4137                      .dwattr $C$DW$335, DW_AT_type(*$C$DW$T$20)
    4138                      .dwattr $C$DW$335, DW_AT_name("prob_sp")
    4139                      .dwattr $C$DW$335, DW_AT_TI_symbol_name("_prob_sp")
    4140                      .dwattr $C$DW$335, DW_AT_data_member_location[DW_OP_plus_uconst 0x5]
    4141                      .dwattr $C$DW$335, DW_AT_accessibility(DW_ACCESS_public)
    4142              $C$DW$336       .dwtag  DW_TAG_member
    4143                      .dwattr $C$DW$336, DW_AT_type(*$C$DW$T$21)
    4144                      .dwattr $C$DW$336, DW_AT_name("s_noise_floor")
    4145                      .dwattr $C$DW$336, DW_AT_TI_symbol_name("_s_noise_floor")
    4146                      .dwattr $C$DW$336, DW_AT_data_member_location[DW_OP_plus_uconst 0x6]
    4147                      .dwattr $C$DW$336, DW_AT_accessibility(DW_ACCESS_public)
    4148              $C$DW$337       .dwtag  DW_TAG_member
    4149                      .dwattr $C$DW$337, DW_AT_type(*$C$DW$T$21)
    4150                      .dwattr $C$DW$337, DW_AT_name("snr")
    4151                      .dwattr $C$DW$337, DW_AT_TI_symbol_name("_snr")
    4152                      .dwattr $C$DW$337, DW_AT_data_member_location[DW_OP_plus_uconst 0x8]
    4153                      .dwattr $C$DW$337, DW_AT_accessibility(DW_ACCESS_public)
    4154              $C$DW$338       .dwtag  DW_TAG_member
    4155                      .dwattr $C$DW$338, DW_AT_type(*$C$DW$T$21)
    4156                      .dwattr $C$DW$338, DW_AT_name("ps_long_term_noise")
    4157                      .dwattr $C$DW$338, DW_AT_TI_symbol_name("_ps_long_term_noise")
    4158                      .dwattr $C$DW$338, DW_AT_data_member_location[DW_OP_plus_uconst 0xa]
    4159                      .dwattr $C$DW$338, DW_AT_accessibility(DW_ACCESS_public)
    4160              $C$DW$339       .dwtag  DW_TAG_member
    4161                      .dwattr $C$DW$339, DW_AT_type(*$C$DW$T$8)
    4162                      .dwattr $C$DW$339, DW_AT_name("frmEn")
    4163                      .dwattr $C$DW$339, DW_AT_TI_symbol_name("_frmEn")
    4164                      .dwattr $C$DW$339, DW_AT_data_member_location[DW_OP_plus_uconst 0xc]
    4165                      .dwattr $C$DW$339, DW_AT_accessibility(DW_ACCESS_public)
TMS320C55x Assembler PC v4.4.1 Wed Sep 13 16:33:14 2017

Tools Copyright (c) 1996-2012 Texas Instruments Incorporated
C:\Users\a0221074\AppData\Local\Temp\0730410                         PAGE   89

    4166              $C$DW$340       .dwtag  DW_TAG_member
    4167                      .dwattr $C$DW$340, DW_AT_type(*$C$DW$T$8)
    4168                      .dwattr $C$DW$340, DW_AT_name("meanEn")
    4169                      .dwattr $C$DW$340, DW_AT_TI_symbol_name("_meanEn")
    4170                      .dwattr $C$DW$340, DW_AT_data_member_location[DW_OP_plus_uconst 0xd]
    4171                      .dwattr $C$DW$340, DW_AT_accessibility(DW_ACCESS_public)
    4172              $C$DW$341       .dwtag  DW_TAG_member
    4173                      .dwattr $C$DW$341, DW_AT_type(*$C$DW$T$8)
    4174                      .dwattr $C$DW$341, DW_AT_name("prevMeanEn")
    4175                      .dwattr $C$DW$341, DW_AT_TI_symbol_name("_prevMeanEn")
    4176                      .dwattr $C$DW$341, DW_AT_data_member_location[DW_OP_plus_uconst 0xe]
    4177                      .dwattr $C$DW$341, DW_AT_accessibility(DW_ACCESS_public)
    4178              $C$DW$342       .dwtag  DW_TAG_member
    4179                      .dwattr $C$DW$342, DW_AT_type(*$C$DW$T$8)
    4180                      .dwattr $C$DW$342, DW_AT_name("noiselvl")
    4181                      .dwattr $C$DW$342, DW_AT_TI_symbol_name("_noiselvl")
    4182                      .dwattr $C$DW$342, DW_AT_data_member_location[DW_OP_plus_uconst 0xf]
    4183                      .dwattr $C$DW$342, DW_AT_accessibility(DW_ACCESS_public)
    4184              $C$DW$343       .dwtag  DW_TAG_member
    4185                      .dwattr $C$DW$343, DW_AT_type(*$C$DW$T$8)
    4186                      .dwattr $C$DW$343, DW_AT_name("lambdaLTE")
    4187                      .dwattr $C$DW$343, DW_AT_TI_symbol_name("_lambdaLTE")
    4188                      .dwattr $C$DW$343, DW_AT_data_member_location[DW_OP_plus_uconst 0x10]
    4189                      .dwattr $C$DW$343, DW_AT_accessibility(DW_ACCESS_public)
    4190              $C$DW$344       .dwtag  DW_TAG_member
    4191                      .dwattr $C$DW$344, DW_AT_type(*$C$DW$T$8)
    4192                      .dwattr $C$DW$344, DW_AT_name("nbSpeechFrame")
    4193                      .dwattr $C$DW$344, DW_AT_TI_symbol_name("_nbSpeechFrame")
    4194                      .dwattr $C$DW$344, DW_AT_data_member_location[DW_OP_plus_uconst 0x11]
    4195                      .dwattr $C$DW$344, DW_AT_accessibility(DW_ACCESS_public)
    4196              $C$DW$345       .dwtag  DW_TAG_member
    4197                      .dwattr $C$DW$345, DW_AT_type(*$C$DW$T$8)
    4198                      .dwattr $C$DW$345, DW_AT_name("hangOver")
    4199                      .dwattr $C$DW$345, DW_AT_TI_symbol_name("_hangOver")
    4200                      .dwattr $C$DW$345, DW_AT_data_member_location[DW_OP_plus_uconst 0x12]
    4201                      .dwattr $C$DW$345, DW_AT_accessibility(DW_ACCESS_public)
    4202                      .dwendtag $C$DW$T$43
    4203              
    4204              $C$DW$T$86      .dwtag  DW_TAG_typedef, DW_AT_name("NssType")
    4205                      .dwattr $C$DW$T$86, DW_AT_type(*$C$DW$T$43)
    4206                      .dwattr $C$DW$T$86, DW_AT_language(DW_LANG_C)
    4207              $C$DW$T$87      .dwtag  DW_TAG_pointer_type
    4208                      .dwattr $C$DW$T$87, DW_AT_type(*$C$DW$T$86)
    4209                      .dwattr $C$DW$T$87, DW_AT_address_class(0x17)
    4210              
    4211              $C$DW$T$44      .dwtag  DW_TAG_structure_type
    4212                      .dwattr $C$DW$T$44, DW_AT_byte_size(0x03)
    4213              $C$DW$346       .dwtag  DW_TAG_member
    4214                      .dwattr $C$DW$346, DW_AT_type(*$C$DW$T$8)
    4215                      .dwattr $C$DW$346, DW_AT_name("mean")
    4216                      .dwattr $C$DW$346, DW_AT_TI_symbol_name("_mean")
    4217                      .dwattr $C$DW$346, DW_AT_data_member_location[DW_OP_plus_uconst 0x0]
    4218                      .dwattr $C$DW$346, DW_AT_accessibility(DW_ACCESS_public)
    4219              $C$DW$347       .dwtag  DW_TAG_member
    4220                      .dwattr $C$DW$347, DW_AT_type(*$C$DW$T$8)
TMS320C55x Assembler PC v4.4.1 Wed Sep 13 16:33:14 2017

Tools Copyright (c) 1996-2012 Texas Instruments Incorporated
C:\Users\a0221074\AppData\Local\Temp\0730410                         PAGE   90

    4221                      .dwattr $C$DW$347, DW_AT_name("inv")
    4222                      .dwattr $C$DW$347, DW_AT_TI_symbol_name("_inv")
    4223                      .dwattr $C$DW$347, DW_AT_data_member_location[DW_OP_plus_uconst 0x1]
    4224                      .dwattr $C$DW$347, DW_AT_accessibility(DW_ACCESS_public)
    4225              $C$DW$348       .dwtag  DW_TAG_member
    4226                      .dwattr $C$DW$348, DW_AT_type(*$C$DW$T$8)
    4227                      .dwattr $C$DW$348, DW_AT_name("gconst")
    4228                      .dwattr $C$DW$348, DW_AT_TI_symbol_name("_gconst")
    4229                      .dwattr $C$DW$348, DW_AT_data_member_location[DW_OP_plus_uconst 0x2]
    4230                      .dwattr $C$DW$348, DW_AT_accessibility(DW_ACCESS_public)
    4231                      .dwendtag $C$DW$T$44
    4232              
    4233              $C$DW$T$46      .dwtag  DW_TAG_typedef, DW_AT_name("CM_hypo")
    4234                      .dwattr $C$DW$T$46, DW_AT_type(*$C$DW$T$44)
    4235                      .dwattr $C$DW$T$46, DW_AT_language(DW_LANG_C)
    4236              
    4237              $C$DW$T$48      .dwtag  DW_TAG_structure_type
    4238                      .dwattr $C$DW$T$48, DW_AT_byte_size(0x544)
    4239              $C$DW$349       .dwtag  DW_TAG_member
    4240                      .dwattr $C$DW$349, DW_AT_type(*$C$DW$T$45)
    4241                      .dwattr $C$DW$349, DW_AT_name("base_mem")
    4242                      .dwattr $C$DW$349, DW_AT_TI_symbol_name("_base_mem")
    4243                      .dwattr $C$DW$349, DW_AT_data_member_location[DW_OP_plus_uconst 0x0]
    4244                      .dwattr $C$DW$349, DW_AT_accessibility(DW_ACCESS_public)
    4245              $C$DW$350       .dwtag  DW_TAG_member
    4246                      .dwattr $C$DW$350, DW_AT_type(*$C$DW$T$20)
    4247                      .dwattr $C$DW$350, DW_AT_name("mem_count")
    4248                      .dwattr $C$DW$350, DW_AT_TI_symbol_name("_mem_count")
    4249                      .dwattr $C$DW$350, DW_AT_data_member_location[DW_OP_plus_uconst 0x514]
    4250                      .dwattr $C$DW$350, DW_AT_accessibility(DW_ACCESS_public)
    4251              $C$DW$351       .dwtag  DW_TAG_member
    4252                      .dwattr $C$DW$351, DW_AT_type(*$C$DW$T$22)
    4253                      .dwattr $C$DW$351, DW_AT_name("answers")
    4254                      .dwattr $C$DW$351, DW_AT_TI_symbol_name("_answers")
    4255                      .dwattr $C$DW$351, DW_AT_data_member_location[DW_OP_plus_uconst 0x516]
    4256                      .dwattr $C$DW$351, DW_AT_accessibility(DW_ACCESS_public)
    4257              $C$DW$352       .dwtag  DW_TAG_member
    4258                      .dwattr $C$DW$352, DW_AT_type(*$C$DW$T$22)
    4259                      .dwattr $C$DW$352, DW_AT_name("uStp")
    4260                      .dwattr $C$DW$352, DW_AT_TI_symbol_name("_uStp")
    4261                      .dwattr $C$DW$352, DW_AT_data_member_location[DW_OP_plus_uconst 0x518]
    4262                      .dwattr $C$DW$352, DW_AT_accessibility(DW_ACCESS_public)
    4263              $C$DW$353       .dwtag  DW_TAG_member
    4264                      .dwattr $C$DW$353, DW_AT_type(*$C$DW$T$20)
    4265                      .dwattr $C$DW$353, DW_AT_name("nWords")
    4266                      .dwattr $C$DW$353, DW_AT_TI_symbol_name("_nWords")
    4267                      .dwattr $C$DW$353, DW_AT_data_member_location[DW_OP_plus_uconst 0x51a]
    4268                      .dwattr $C$DW$353, DW_AT_accessibility(DW_ACCESS_public)
    4269              $C$DW$354       .dwtag  DW_TAG_member
    4270                      .dwattr $C$DW$354, DW_AT_type(*$C$DW$T$8)
    4271                      .dwattr $C$DW$354, DW_AT_name("nS")
    4272                      .dwattr $C$DW$354, DW_AT_TI_symbol_name("_nS")
    4273                      .dwattr $C$DW$354, DW_AT_data_member_location[DW_OP_plus_uconst 0x51b]
    4274                      .dwattr $C$DW$354, DW_AT_accessibility(DW_ACCESS_public)
    4275              $C$DW$355       .dwtag  DW_TAG_member
TMS320C55x Assembler PC v4.4.1 Wed Sep 13 16:33:14 2017

Tools Copyright (c) 1996-2012 Texas Instruments Incorporated
C:\Users\a0221074\AppData\Local\Temp\0730410                         PAGE   91

    4276                      .dwattr $C$DW$355, DW_AT_type(*$C$DW$T$21)
    4277                      .dwattr $C$DW$355, DW_AT_name("cm_scr")
    4278                      .dwattr $C$DW$355, DW_AT_TI_symbol_name("_cm_scr")
    4279                      .dwattr $C$DW$355, DW_AT_data_member_location[DW_OP_plus_uconst 0x51c]
    4280                      .dwattr $C$DW$355, DW_AT_accessibility(DW_ACCESS_public)
    4281              $C$DW$356       .dwtag  DW_TAG_member
    4282                      .dwattr $C$DW$356, DW_AT_type(*$C$DW$T$8)
    4283                      .dwattr $C$DW$356, DW_AT_name("bNeedUpdate")
    4284                      .dwattr $C$DW$356, DW_AT_TI_symbol_name("_bNeedUpdate")
    4285                      .dwattr $C$DW$356, DW_AT_data_member_location[DW_OP_plus_uconst 0x51e]
    4286                      .dwattr $C$DW$356, DW_AT_accessibility(DW_ACCESS_public)
    4287              $C$DW$357       .dwtag  DW_TAG_member
    4288                      .dwattr $C$DW$357, DW_AT_type(*$C$DW$T$21)
    4289                      .dwattr $C$DW$357, DW_AT_name("cm_anti_scr")
    4290                      .dwattr $C$DW$357, DW_AT_TI_symbol_name("_cm_anti_scr")
    4291                      .dwattr $C$DW$357, DW_AT_data_member_location[DW_OP_plus_uconst 0x520]
    4292                      .dwattr $C$DW$357, DW_AT_accessibility(DW_ACCESS_public)
    4293              $C$DW$358       .dwtag  DW_TAG_member
    4294                      .dwattr $C$DW$358, DW_AT_type(*$C$DW$T$12)
    4295                      .dwattr $C$DW$358, DW_AT_name("cm_fg_scr")
    4296                      .dwattr $C$DW$358, DW_AT_TI_symbol_name("_cm_fg_scr")
    4297                      .dwattr $C$DW$358, DW_AT_data_member_location[DW_OP_plus_uconst 0x522]
    4298                      .dwattr $C$DW$358, DW_AT_accessibility(DW_ACCESS_public)
    4299              $C$DW$359       .dwtag  DW_TAG_member
    4300                      .dwattr $C$DW$359, DW_AT_type(*$C$DW$T$12)
    4301                      .dwattr $C$DW$359, DW_AT_name("cm_bk_scr")
    4302                      .dwattr $C$DW$359, DW_AT_TI_symbol_name("_cm_bk_scr")
    4303                      .dwattr $C$DW$359, DW_AT_data_member_location[DW_OP_plus_uconst 0x524]
    4304                      .dwattr $C$DW$359, DW_AT_accessibility(DW_ACCESS_public)
    4305              $C$DW$360       .dwtag  DW_TAG_member
    4306                      .dwattr $C$DW$360, DW_AT_type(*$C$DW$T$8)
    4307                      .dwattr $C$DW$360, DW_AT_name("th_nbest")
    4308                      .dwattr $C$DW$360, DW_AT_TI_symbol_name("_th_nbest")
    4309                      .dwattr $C$DW$360, DW_AT_data_member_location[DW_OP_plus_uconst 0x526]
    4310                      .dwattr $C$DW$360, DW_AT_accessibility(DW_ACCESS_public)
    4311              $C$DW$361       .dwtag  DW_TAG_member
    4312                      .dwattr $C$DW$361, DW_AT_type(*$C$DW$T$8)
    4313                      .dwattr $C$DW$361, DW_AT_name("nSpeech")
    4314                      .dwattr $C$DW$361, DW_AT_TI_symbol_name("_nSpeech")
    4315                      .dwattr $C$DW$361, DW_AT_data_member_location[DW_OP_plus_uconst 0x527]
    4316                      .dwattr $C$DW$361, DW_AT_accessibility(DW_ACCESS_public)
    4317              $C$DW$362       .dwtag  DW_TAG_member
    4318                      .dwattr $C$DW$362, DW_AT_type(*$C$DW$T$8)
    4319                      .dwattr $C$DW$362, DW_AT_name("nNoise")
    4320                      .dwattr $C$DW$362, DW_AT_TI_symbol_name("_nNoise")
    4321                      .dwattr $C$DW$362, DW_AT_data_member_location[DW_OP_plus_uconst 0x528]
    4322                      .dwattr $C$DW$362, DW_AT_accessibility(DW_ACCESS_public)
    4323              $C$DW$363       .dwtag  DW_TAG_member
    4324                      .dwattr $C$DW$363, DW_AT_type(*$C$DW$T$12)
    4325                      .dwattr $C$DW$363, DW_AT_name("speech_power")
    4326                      .dwattr $C$DW$363, DW_AT_TI_symbol_name("_speech_power")
    4327                      .dwattr $C$DW$363, DW_AT_data_member_location[DW_OP_plus_uconst 0x52a]
    4328                      .dwattr $C$DW$363, DW_AT_accessibility(DW_ACCESS_public)
    4329              $C$DW$364       .dwtag  DW_TAG_member
    4330                      .dwattr $C$DW$364, DW_AT_type(*$C$DW$T$12)
TMS320C55x Assembler PC v4.4.1 Wed Sep 13 16:33:14 2017

Tools Copyright (c) 1996-2012 Texas Instruments Incorporated
C:\Users\a0221074\AppData\Local\Temp\0730410                         PAGE   92

    4331                      .dwattr $C$DW$364, DW_AT_name("noise_power")
    4332                      .dwattr $C$DW$364, DW_AT_TI_symbol_name("_noise_power")
    4333                      .dwattr $C$DW$364, DW_AT_data_member_location[DW_OP_plus_uconst 0x52c]
    4334                      .dwattr $C$DW$364, DW_AT_accessibility(DW_ACCESS_public)
    4335              $C$DW$365       .dwtag  DW_TAG_member
    4336                      .dwattr $C$DW$365, DW_AT_type(*$C$DW$T$12)
    4337                      .dwattr $C$DW$365, DW_AT_name("noise_power_sqr")
    4338                      .dwattr $C$DW$365, DW_AT_TI_symbol_name("_noise_power_sqr")
    4339                      .dwattr $C$DW$365, DW_AT_data_member_location[DW_OP_plus_uconst 0x52e]
    4340                      .dwattr $C$DW$365, DW_AT_accessibility(DW_ACCESS_public)
    4341              $C$DW$366       .dwtag  DW_TAG_member
    4342                      .dwattr $C$DW$366, DW_AT_type(*$C$DW$T$8)
    4343                      .dwattr $C$DW$366, DW_AT_name("NSNR")
    4344                      .dwattr $C$DW$366, DW_AT_TI_symbol_name("_NSNR")
    4345                      .dwattr $C$DW$366, DW_AT_data_member_location[DW_OP_plus_uconst 0x530]
    4346                      .dwattr $C$DW$366, DW_AT_accessibility(DW_ACCESS_public)
    4347              $C$DW$367       .dwtag  DW_TAG_member
    4348                      .dwattr $C$DW$367, DW_AT_type(*$C$DW$T$46)
    4349                      .dwattr $C$DW$367, DW_AT_name("H0")
    4350                      .dwattr $C$DW$367, DW_AT_TI_symbol_name("_H0")
    4351                      .dwattr $C$DW$367, DW_AT_data_member_location[DW_OP_plus_uconst 0x531]
    4352                      .dwattr $C$DW$367, DW_AT_accessibility(DW_ACCESS_public)
    4353              $C$DW$368       .dwtag  DW_TAG_member
    4354                      .dwattr $C$DW$368, DW_AT_type(*$C$DW$T$46)
    4355                      .dwattr $C$DW$368, DW_AT_name("H1")
    4356                      .dwattr $C$DW$368, DW_AT_TI_symbol_name("_H1")
    4357                      .dwattr $C$DW$368, DW_AT_data_member_location[DW_OP_plus_uconst 0x534]
    4358                      .dwattr $C$DW$368, DW_AT_accessibility(DW_ACCESS_public)
    4359              $C$DW$369       .dwtag  DW_TAG_member
    4360                      .dwattr $C$DW$369, DW_AT_type(*$C$DW$T$21)
    4361                      .dwattr $C$DW$369, DW_AT_name("lgBeta")
    4362                      .dwattr $C$DW$369, DW_AT_TI_symbol_name("_lgBeta")
    4363                      .dwattr $C$DW$369, DW_AT_data_member_location[DW_OP_plus_uconst 0x538]
    4364                      .dwattr $C$DW$369, DW_AT_accessibility(DW_ACCESS_public)
    4365              $C$DW$370       .dwtag  DW_TAG_member
    4366                      .dwattr $C$DW$370, DW_AT_type(*$C$DW$T$47)
    4367                      .dwattr $C$DW$370, DW_AT_name("acc_dif2_beta")
    4368                      .dwattr $C$DW$370, DW_AT_TI_symbol_name("_acc_dif2_beta")
    4369                      .dwattr $C$DW$370, DW_AT_data_member_location[DW_OP_plus_uconst 0x53a]
    4370                      .dwattr $C$DW$370, DW_AT_accessibility(DW_ACCESS_public)
    4371              $C$DW$371       .dwtag  DW_TAG_member
    4372                      .dwattr $C$DW$371, DW_AT_type(*$C$DW$T$8)
    4373                      .dwattr $C$DW$371, DW_AT_name("bCalced")
    4374                      .dwattr $C$DW$371, DW_AT_TI_symbol_name("_bCalced")
    4375                      .dwattr $C$DW$371, DW_AT_data_member_location[DW_OP_plus_uconst 0x53c]
    4376                      .dwattr $C$DW$371, DW_AT_accessibility(DW_ACCESS_public)
    4377              $C$DW$372       .dwtag  DW_TAG_member
    4378                      .dwattr $C$DW$372, DW_AT_type(*$C$DW$T$21)
    4379                      .dwattr $C$DW$372, DW_AT_name("sCH")
    4380                      .dwattr $C$DW$372, DW_AT_TI_symbol_name("_sCH")
    4381                      .dwattr $C$DW$372, DW_AT_data_member_location[DW_OP_plus_uconst 0x53e]
    4382                      .dwattr $C$DW$372, DW_AT_accessibility(DW_ACCESS_public)
    4383              $C$DW$373       .dwtag  DW_TAG_member
    4384                      .dwattr $C$DW$373, DW_AT_type(*$C$DW$T$47)
    4385                      .dwattr $C$DW$373, DW_AT_name("lAccum")
TMS320C55x Assembler PC v4.4.1 Wed Sep 13 16:33:14 2017

Tools Copyright (c) 1996-2012 Texas Instruments Incorporated
C:\Users\a0221074\AppData\Local\Temp\0730410                         PAGE   93

    4386                      .dwattr $C$DW$373, DW_AT_TI_symbol_name("_lAccum")
    4387                      .dwattr $C$DW$373, DW_AT_data_member_location[DW_OP_plus_uconst 0x540]
    4388                      .dwattr $C$DW$373, DW_AT_accessibility(DW_ACCESS_public)
    4389              $C$DW$374       .dwtag  DW_TAG_member
    4390                      .dwattr $C$DW$374, DW_AT_type(*$C$DW$T$8)
    4391                      .dwattr $C$DW$374, DW_AT_name("adp_th")
    4392                      .dwattr $C$DW$374, DW_AT_TI_symbol_name("_adp_th")
    4393                      .dwattr $C$DW$374, DW_AT_data_member_location[DW_OP_plus_uconst 0x542]
    4394                      .dwattr $C$DW$374, DW_AT_accessibility(DW_ACCESS_public)
    4395                      .dwendtag $C$DW$T$48
    4396              
    4397              $C$DW$T$88      .dwtag  DW_TAG_typedef, DW_AT_name("ConfType")
    4398                      .dwattr $C$DW$T$88, DW_AT_type(*$C$DW$T$48)
    4399                      .dwattr $C$DW$T$88, DW_AT_language(DW_LANG_C)
    4400              $C$DW$T$89      .dwtag  DW_TAG_pointer_type
    4401                      .dwattr $C$DW$T$89, DW_AT_type(*$C$DW$T$88)
    4402                      .dwattr $C$DW$T$89, DW_AT_address_class(0x17)
    4403              
    4404              $C$DW$T$91      .dwtag  DW_TAG_enumeration_type
    4405                      .dwattr $C$DW$T$91, DW_AT_name("ObsType")
    4406                      .dwattr $C$DW$T$91, DW_AT_byte_size(0x01)
    4407              $C$DW$375       .dwtag  DW_TAG_enumerator, DW_AT_name("VITERBI"), DW_AT_const_value(0x00)
    4408              $C$DW$376       .dwtag  DW_TAG_enumerator, DW_AT_name("FULL"), DW_AT_const_value(0x01)
    4409              $C$DW$377       .dwtag  DW_TAG_enumerator, DW_AT_name("COMPONENT"), DW_AT_const_value(0x02)
    4410                      .dwendtag $C$DW$T$91
    4411              
    4412              $C$DW$T$92      .dwtag  DW_TAG_typedef, DW_AT_name("ObsType")
    4413                      .dwattr $C$DW$T$92, DW_AT_type(*$C$DW$T$91)
    4414                      .dwattr $C$DW$T$92, DW_AT_language(DW_LANG_C)
    4415              $C$DW$T$4       .dwtag  DW_TAG_base_type
    4416                      .dwattr $C$DW$T$4, DW_AT_encoding(DW_ATE_boolean)
    4417                      .dwattr $C$DW$T$4, DW_AT_name("bool")
    4418                      .dwattr $C$DW$T$4, DW_AT_byte_size(0x01)
    4419              $C$DW$T$5       .dwtag  DW_TAG_base_type
    4420                      .dwattr $C$DW$T$5, DW_AT_encoding(DW_ATE_signed_char)
    4421                      .dwattr $C$DW$T$5, DW_AT_name("signed char")
    4422                      .dwattr $C$DW$T$5, DW_AT_byte_size(0x01)
    4423              $C$DW$T$6       .dwtag  DW_TAG_base_type
    4424                      .dwattr $C$DW$T$6, DW_AT_encoding(DW_ATE_unsigned_char)
    4425                      .dwattr $C$DW$T$6, DW_AT_name("unsigned char")
    4426                      .dwattr $C$DW$T$6, DW_AT_byte_size(0x01)
    4427              $C$DW$T$7       .dwtag  DW_TAG_base_type
    4428                      .dwattr $C$DW$T$7, DW_AT_encoding(DW_ATE_signed_char)
    4429                      .dwattr $C$DW$T$7, DW_AT_name("wchar_t")
    4430                      .dwattr $C$DW$T$7, DW_AT_byte_size(0x01)
    4431              $C$DW$T$8       .dwtag  DW_TAG_base_type
    4432                      .dwattr $C$DW$T$8, DW_AT_encoding(DW_ATE_signed)
    4433                      .dwattr $C$DW$T$8, DW_AT_name("short")
    4434                      .dwattr $C$DW$T$8, DW_AT_byte_size(0x01)
    4435              $C$DW$T$21      .dwtag  DW_TAG_pointer_type
    4436                      .dwattr $C$DW$T$21, DW_AT_type(*$C$DW$T$8)
    4437                      .dwattr $C$DW$T$21, DW_AT_address_class(0x17)
    4438              
    4439              $C$DW$T$39      .dwtag  DW_TAG_array_type
    4440                      .dwattr $C$DW$T$39, DW_AT_type(*$C$DW$T$8)
TMS320C55x Assembler PC v4.4.1 Wed Sep 13 16:33:14 2017

Tools Copyright (c) 1996-2012 Texas Instruments Incorporated
C:\Users\a0221074\AppData\Local\Temp\0730410                         PAGE   94

    4441                      .dwattr $C$DW$T$39, DW_AT_language(DW_LANG_C)
    4442                      .dwattr $C$DW$T$39, DW_AT_byte_size(0x1e)
    4443              $C$DW$378       .dwtag  DW_TAG_subrange_type
    4444                      .dwattr $C$DW$378, DW_AT_upper_bound(0x1d)
    4445                      .dwendtag $C$DW$T$39
    4446              
    4447              
    4448              $C$DW$T$45      .dwtag  DW_TAG_array_type
    4449                      .dwattr $C$DW$T$45, DW_AT_type(*$C$DW$T$8)
    4450                      .dwattr $C$DW$T$45, DW_AT_language(DW_LANG_C)
    4451                      .dwattr $C$DW$T$45, DW_AT_byte_size(0x514)
    4452              $C$DW$379       .dwtag  DW_TAG_subrange_type
    4453                      .dwattr $C$DW$379, DW_AT_upper_bound(0x513)
    4454                      .dwendtag $C$DW$T$45
    4455              
    4456              
    4457              $C$DW$T$50      .dwtag  DW_TAG_array_type
    4458                      .dwattr $C$DW$T$50, DW_AT_type(*$C$DW$T$8)
    4459                      .dwattr $C$DW$T$50, DW_AT_language(DW_LANG_C)
    4460                      .dwattr $C$DW$T$50, DW_AT_byte_size(0x100)
    4461              $C$DW$380       .dwtag  DW_TAG_subrange_type
    4462                      .dwattr $C$DW$380, DW_AT_upper_bound(0xff)
    4463                      .dwendtag $C$DW$T$50
    4464              
    4465              
    4466              $C$DW$T$51      .dwtag  DW_TAG_array_type
    4467                      .dwattr $C$DW$T$51, DW_AT_type(*$C$DW$T$8)
    4468                      .dwattr $C$DW$T$51, DW_AT_language(DW_LANG_C)
    4469                      .dwattr $C$DW$T$51, DW_AT_byte_size(0x10)
    4470              $C$DW$381       .dwtag  DW_TAG_subrange_type
    4471                      .dwattr $C$DW$381, DW_AT_upper_bound(0x0f)
    4472                      .dwendtag $C$DW$T$51
    4473              
    4474              
    4475              $C$DW$T$52      .dwtag  DW_TAG_array_type
    4476                      .dwattr $C$DW$T$52, DW_AT_type(*$C$DW$T$8)
    4477                      .dwattr $C$DW$T$52, DW_AT_language(DW_LANG_C)
    4478                      .dwattr $C$DW$T$52, DW_AT_byte_size(0xe0)
    4479              $C$DW$382       .dwtag  DW_TAG_subrange_type
    4480                      .dwattr $C$DW$382, DW_AT_upper_bound(0x0d)
    4481              $C$DW$383       .dwtag  DW_TAG_subrange_type
    4482                      .dwattr $C$DW$383, DW_AT_upper_bound(0x0f)
    4483                      .dwendtag $C$DW$T$52
    4484              
    4485              $C$DW$384       .dwtag  DW_TAG_TI_far_type
    4486                      .dwattr $C$DW$384, DW_AT_type(*$C$DW$T$8)
    4487              $C$DW$T$53      .dwtag  DW_TAG_const_type
    4488                      .dwattr $C$DW$T$53, DW_AT_type(*$C$DW$384)
    4489              $C$DW$T$54      .dwtag  DW_TAG_pointer_type
    4490                      .dwattr $C$DW$T$54, DW_AT_type(*$C$DW$T$53)
    4491                      .dwattr $C$DW$T$54, DW_AT_address_class(0x17)
    4492              
    4493              $C$DW$T$55      .dwtag  DW_TAG_array_type
    4494                      .dwattr $C$DW$T$55, DW_AT_type(*$C$DW$T$54)
    4495                      .dwattr $C$DW$T$55, DW_AT_language(DW_LANG_C)
TMS320C55x Assembler PC v4.4.1 Wed Sep 13 16:33:14 2017

Tools Copyright (c) 1996-2012 Texas Instruments Incorporated
C:\Users\a0221074\AppData\Local\Temp\0730410                         PAGE   95

    4496                      .dwattr $C$DW$T$55, DW_AT_byte_size(0x20)
    4497              $C$DW$385       .dwtag  DW_TAG_subrange_type
    4498                      .dwattr $C$DW$385, DW_AT_upper_bound(0x0f)
    4499                      .dwendtag $C$DW$T$55
    4500              
    4501              
    4502              $C$DW$T$93      .dwtag  DW_TAG_array_type
    4503                      .dwattr $C$DW$T$93, DW_AT_type(*$C$DW$T$53)
    4504                      .dwattr $C$DW$T$93, DW_AT_language(DW_LANG_C)
    4505                      .dwattr $C$DW$T$93, DW_AT_byte_size(0x07)
    4506              $C$DW$386       .dwtag  DW_TAG_subrange_type
    4507                      .dwattr $C$DW$386, DW_AT_upper_bound(0x06)
    4508                      .dwendtag $C$DW$T$93
    4509              
    4510              
    4511              $C$DW$T$94      .dwtag  DW_TAG_array_type
    4512                      .dwattr $C$DW$T$94, DW_AT_type(*$C$DW$T$53)
    4513                      .dwattr $C$DW$T$94, DW_AT_language(DW_LANG_C)
    4514                      .dwattr $C$DW$T$94, DW_AT_byte_size(0x09)
    4515              $C$DW$387       .dwtag  DW_TAG_subrange_type
    4516                      .dwattr $C$DW$387, DW_AT_upper_bound(0x08)
    4517                      .dwendtag $C$DW$T$94
    4518              
    4519              
    4520              $C$DW$T$95      .dwtag  DW_TAG_array_type
    4521                      .dwattr $C$DW$T$95, DW_AT_type(*$C$DW$T$53)
    4522                      .dwattr $C$DW$T$95, DW_AT_language(DW_LANG_C)
    4523                      .dwattr $C$DW$T$95, DW_AT_byte_size(0x05)
    4524              $C$DW$388       .dwtag  DW_TAG_subrange_type
    4525                      .dwattr $C$DW$388, DW_AT_upper_bound(0x04)
    4526                      .dwendtag $C$DW$T$95
    4527              
    4528              
    4529              $C$DW$T$59      .dwtag  DW_TAG_array_type
    4530                      .dwattr $C$DW$T$59, DW_AT_type(*$C$DW$T$8)
    4531                      .dwattr $C$DW$T$59, DW_AT_language(DW_LANG_C)
    4532                      .dwattr $C$DW$T$59, DW_AT_byte_size(0x80)
    4533              $C$DW$389       .dwtag  DW_TAG_subrange_type
    4534                      .dwattr $C$DW$389, DW_AT_upper_bound(0x7f)
    4535                      .dwendtag $C$DW$T$59
    4536              
    4537              
    4538              $C$DW$T$60      .dwtag  DW_TAG_array_type
    4539                      .dwattr $C$DW$T$60, DW_AT_type(*$C$DW$T$8)
    4540                      .dwattr $C$DW$T$60, DW_AT_language(DW_LANG_C)
    4541                      .dwattr $C$DW$T$60, DW_AT_byte_size(0x1a)
    4542              $C$DW$390       .dwtag  DW_TAG_subrange_type
    4543                      .dwattr $C$DW$390, DW_AT_upper_bound(0x19)
    4544                      .dwendtag $C$DW$T$60
    4545              
    4546              
    4547              $C$DW$T$78      .dwtag  DW_TAG_array_type
    4548                      .dwattr $C$DW$T$78, DW_AT_type(*$C$DW$T$8)
    4549                      .dwattr $C$DW$T$78, DW_AT_language(DW_LANG_C)
    4550                      .dwattr $C$DW$T$78, DW_AT_byte_size(0x20)
TMS320C55x Assembler PC v4.4.1 Wed Sep 13 16:33:14 2017

Tools Copyright (c) 1996-2012 Texas Instruments Incorporated
C:\Users\a0221074\AppData\Local\Temp\0730410                         PAGE   96

    4551              $C$DW$391       .dwtag  DW_TAG_subrange_type
    4552                      .dwattr $C$DW$391, DW_AT_upper_bound(0x1f)
    4553                      .dwendtag $C$DW$T$78
    4554              
    4555              
    4556              $C$DW$T$84      .dwtag  DW_TAG_array_type
    4557                      .dwattr $C$DW$T$84, DW_AT_type(*$C$DW$T$8)
    4558                      .dwattr $C$DW$T$84, DW_AT_language(DW_LANG_C)
    4559                      .dwattr $C$DW$T$84, DW_AT_byte_size(0x14)
    4560              $C$DW$392       .dwtag  DW_TAG_subrange_type
    4561                      .dwattr $C$DW$392, DW_AT_upper_bound(0x13)
    4562                      .dwendtag $C$DW$T$84
    4563              
    4564              
    4565              $C$DW$T$109     .dwtag  DW_TAG_array_type
    4566                      .dwattr $C$DW$T$109, DW_AT_type(*$C$DW$T$8)
    4567                      .dwattr $C$DW$T$109, DW_AT_language(DW_LANG_C)
    4568                      .dwattr $C$DW$T$109, DW_AT_byte_size(0x05)
    4569              $C$DW$393       .dwtag  DW_TAG_subrange_type
    4570                      .dwattr $C$DW$393, DW_AT_upper_bound(0x04)
    4571                      .dwendtag $C$DW$T$109
    4572              
    4573              $C$DW$T$9       .dwtag  DW_TAG_base_type
    4574                      .dwattr $C$DW$T$9, DW_AT_encoding(DW_ATE_unsigned)
    4575                      .dwattr $C$DW$T$9, DW_AT_name("unsigned short")
    4576                      .dwattr $C$DW$T$9, DW_AT_byte_size(0x01)
    4577              
    4578              $C$DW$T$27      .dwtag  DW_TAG_array_type
    4579                      .dwattr $C$DW$T$27, DW_AT_type(*$C$DW$T$9)
    4580                      .dwattr $C$DW$T$27, DW_AT_language(DW_LANG_C)
    4581                      .dwattr $C$DW$T$27, DW_AT_byte_size(0x01)
    4582              $C$DW$394       .dwtag  DW_TAG_subrange_type
    4583                      .dwattr $C$DW$394, DW_AT_upper_bound(0x00)
    4584                      .dwendtag $C$DW$T$27
    4585              
    4586              
    4587              $C$DW$T$33      .dwtag  DW_TAG_array_type
    4588                      .dwattr $C$DW$T$33, DW_AT_type(*$C$DW$T$9)
    4589                      .dwattr $C$DW$T$33, DW_AT_language(DW_LANG_C)
    4590                      .dwattr $C$DW$T$33, DW_AT_byte_size(0x02)
    4591              $C$DW$395       .dwtag  DW_TAG_subrange_type
    4592                      .dwattr $C$DW$395, DW_AT_upper_bound(0x01)
    4593                      .dwendtag $C$DW$T$33
    4594              
    4595              $C$DW$T$35      .dwtag  DW_TAG_pointer_type
    4596                      .dwattr $C$DW$T$35, DW_AT_type(*$C$DW$T$9)
    4597                      .dwattr $C$DW$T$35, DW_AT_address_class(0x17)
    4598              $C$DW$T$20      .dwtag  DW_TAG_typedef, DW_AT_name("ushort")
    4599                      .dwattr $C$DW$T$20, DW_AT_type(*$C$DW$T$9)
    4600                      .dwattr $C$DW$T$20, DW_AT_language(DW_LANG_C)
    4601              $C$DW$T$22      .dwtag  DW_TAG_pointer_type
    4602                      .dwattr $C$DW$T$22, DW_AT_type(*$C$DW$T$20)
    4603                      .dwattr $C$DW$T$22, DW_AT_address_class(0x17)
    4604              
    4605              $C$DW$T$37      .dwtag  DW_TAG_array_type
TMS320C55x Assembler PC v4.4.1 Wed Sep 13 16:33:14 2017

Tools Copyright (c) 1996-2012 Texas Instruments Incorporated
C:\Users\a0221074\AppData\Local\Temp\0730410                         PAGE   97

    4606                      .dwattr $C$DW$T$37, DW_AT_type(*$C$DW$T$20)
    4607                      .dwattr $C$DW$T$37, DW_AT_language(DW_LANG_C)
    4608                      .dwattr $C$DW$T$37, DW_AT_byte_size(0x14)
    4609              $C$DW$396       .dwtag  DW_TAG_subrange_type
    4610                      .dwattr $C$DW$396, DW_AT_upper_bound(0x13)
    4611                      .dwendtag $C$DW$T$37
    4612              
    4613              
    4614              $C$DW$T$85      .dwtag  DW_TAG_array_type
    4615                      .dwattr $C$DW$T$85, DW_AT_type(*$C$DW$T$20)
    4616                      .dwattr $C$DW$T$85, DW_AT_language(DW_LANG_C)
    4617                      .dwattr $C$DW$T$85, DW_AT_byte_size(0x02)
    4618              $C$DW$397       .dwtag  DW_TAG_subrange_type
    4619                      .dwattr $C$DW$397, DW_AT_upper_bound(0x01)
    4620                      .dwendtag $C$DW$T$85
    4621              
    4622              $C$DW$T$10      .dwtag  DW_TAG_base_type
    4623                      .dwattr $C$DW$T$10, DW_AT_encoding(DW_ATE_signed)
    4624                      .dwattr $C$DW$T$10, DW_AT_name("int")
    4625                      .dwattr $C$DW$T$10, DW_AT_byte_size(0x01)
    4626              $C$DW$T$11      .dwtag  DW_TAG_base_type
    4627                      .dwattr $C$DW$T$11, DW_AT_encoding(DW_ATE_unsigned)
    4628                      .dwattr $C$DW$T$11, DW_AT_name("unsigned int")
    4629                      .dwattr $C$DW$T$11, DW_AT_byte_size(0x01)
    4630              $C$DW$T$12      .dwtag  DW_TAG_base_type
    4631                      .dwattr $C$DW$T$12, DW_AT_encoding(DW_ATE_signed)
    4632                      .dwattr $C$DW$T$12, DW_AT_name("long")
    4633                      .dwattr $C$DW$T$12, DW_AT_byte_size(0x02)
    4634              $C$DW$T$47      .dwtag  DW_TAG_pointer_type
    4635                      .dwattr $C$DW$T$47, DW_AT_type(*$C$DW$T$12)
    4636                      .dwattr $C$DW$T$47, DW_AT_address_class(0x17)
    4637              
    4638              $C$DW$T$61      .dwtag  DW_TAG_array_type
    4639                      .dwattr $C$DW$T$61, DW_AT_type(*$C$DW$T$12)
    4640                      .dwattr $C$DW$T$61, DW_AT_language(DW_LANG_C)
    4641                      .dwattr $C$DW$T$61, DW_AT_byte_size(0xd0)
    4642              $C$DW$398       .dwtag  DW_TAG_subrange_type
    4643                      .dwattr $C$DW$398, DW_AT_upper_bound(0x67)
    4644                      .dwendtag $C$DW$T$61
    4645              
    4646              
    4647              $C$DW$T$64      .dwtag  DW_TAG_array_type
    4648                      .dwattr $C$DW$T$64, DW_AT_type(*$C$DW$T$12)
    4649                      .dwattr $C$DW$T$64, DW_AT_language(DW_LANG_C)
    4650                      .dwattr $C$DW$T$64, DW_AT_byte_size(0x20)
    4651              $C$DW$399       .dwtag  DW_TAG_subrange_type
    4652                      .dwattr $C$DW$399, DW_AT_upper_bound(0x0f)
    4653                      .dwendtag $C$DW$T$64
    4654              
    4655              $C$DW$T$13      .dwtag  DW_TAG_base_type
    4656                      .dwattr $C$DW$T$13, DW_AT_encoding(DW_ATE_unsigned)
    4657                      .dwattr $C$DW$T$13, DW_AT_name("unsigned long")
    4658                      .dwattr $C$DW$T$13, DW_AT_byte_size(0x02)
    4659              $C$DW$T$14      .dwtag  DW_TAG_base_type
    4660                      .dwattr $C$DW$T$14, DW_AT_encoding(DW_ATE_signed)
TMS320C55x Assembler PC v4.4.1 Wed Sep 13 16:33:14 2017

Tools Copyright (c) 1996-2012 Texas Instruments Incorporated
C:\Users\a0221074\AppData\Local\Temp\0730410                         PAGE   98

    4661                      .dwattr $C$DW$T$14, DW_AT_name("long long")
    4662                      .dwattr $C$DW$T$14, DW_AT_byte_size(0x04)
    4663                      .dwattr $C$DW$T$14, DW_AT_bit_size(0x28)
    4664                      .dwattr $C$DW$T$14, DW_AT_bit_offset(0x18)
    4665              $C$DW$T$15      .dwtag  DW_TAG_base_type
    4666                      .dwattr $C$DW$T$15, DW_AT_encoding(DW_ATE_unsigned)
    4667                      .dwattr $C$DW$T$15, DW_AT_name("unsigned long long")
    4668                      .dwattr $C$DW$T$15, DW_AT_byte_size(0x04)
    4669                      .dwattr $C$DW$T$15, DW_AT_bit_size(0x28)
    4670                      .dwattr $C$DW$T$15, DW_AT_bit_offset(0x18)
    4671              $C$DW$T$16      .dwtag  DW_TAG_base_type
    4672                      .dwattr $C$DW$T$16, DW_AT_encoding(DW_ATE_float)
    4673                      .dwattr $C$DW$T$16, DW_AT_name("float")
    4674                      .dwattr $C$DW$T$16, DW_AT_byte_size(0x02)
    4675              $C$DW$T$17      .dwtag  DW_TAG_base_type
    4676                      .dwattr $C$DW$T$17, DW_AT_encoding(DW_ATE_float)
    4677                      .dwattr $C$DW$T$17, DW_AT_name("double")
    4678                      .dwattr $C$DW$T$17, DW_AT_byte_size(0x02)
    4679              $C$DW$T$18      .dwtag  DW_TAG_base_type
    4680                      .dwattr $C$DW$T$18, DW_AT_encoding(DW_ATE_float)
    4681                      .dwattr $C$DW$T$18, DW_AT_name("long double")
    4682                      .dwattr $C$DW$T$18, DW_AT_byte_size(0x02)
    4683              $C$DW$T$73      .dwtag  DW_TAG_base_type
    4684                      .dwattr $C$DW$T$73, DW_AT_encoding(DW_ATE_signed_char)
    4685                      .dwattr $C$DW$T$73, DW_AT_name("signed char")
    4686                      .dwattr $C$DW$T$73, DW_AT_byte_size(0x01)
    4687              $C$DW$T$74      .dwtag  DW_TAG_pointer_type
    4688                      .dwattr $C$DW$T$74, DW_AT_type(*$C$DW$T$73)
    4689                      .dwattr $C$DW$T$74, DW_AT_address_class(0x17)
    4690              $C$DW$T$77      .dwtag  DW_TAG_pointer_type
    4691                      .dwattr $C$DW$T$77, DW_AT_type(*$C$DW$T$74)
    4692                      .dwattr $C$DW$T$77, DW_AT_address_class(0x17)
    4693              
    4694              $C$DW$T$49      .dwtag  DW_TAG_structure_type
    4695                      .dwattr $C$DW$T$49, DW_AT_name("ele")
    4696                      .dwattr $C$DW$T$49, DW_AT_byte_size(0x03)
    4697              $C$DW$400       .dwtag  DW_TAG_member
    4698                      .dwattr $C$DW$400, DW_AT_type(*$C$DW$T$9)
    4699                      .dwattr $C$DW$400, DW_AT_name("sym")
    4700                      .dwattr $C$DW$400, DW_AT_TI_symbol_name("_sym")
    4701                      .dwattr $C$DW$400, DW_AT_data_member_location[DW_OP_plus_uconst 0x0]
    4702                      .dwattr $C$DW$400, DW_AT_accessibility(DW_ACCESS_public)
    4703              $C$DW$401       .dwtag  DW_TAG_member
    4704                      .dwattr $C$DW$401, DW_AT_type(*$C$DW$T$9)
    4705                      .dwattr $C$DW$401, DW_AT_name("idx_flag")
    4706                      .dwattr $C$DW$401, DW_AT_TI_symbol_name("_idx_flag")
    4707                      .dwattr $C$DW$401, DW_AT_data_member_location[DW_OP_plus_uconst 0x1]
    4708                      .dwattr $C$DW$401, DW_AT_accessibility(DW_ACCESS_public)
    4709              $C$DW$402       .dwtag  DW_TAG_member
    4710                      .dwattr $C$DW$402, DW_AT_type(*$C$DW$T$9)
    4711                      .dwattr $C$DW$402, DW_AT_name("next")
    4712                      .dwattr $C$DW$402, DW_AT_TI_symbol_name("_next")
    4713                      .dwattr $C$DW$402, DW_AT_data_member_location[DW_OP_plus_uconst 0x2]
    4714                      .dwattr $C$DW$402, DW_AT_accessibility(DW_ACCESS_public)
    4715                      .dwendtag $C$DW$T$49
TMS320C55x Assembler PC v4.4.1 Wed Sep 13 16:33:14 2017

Tools Copyright (c) 1996-2012 Texas Instruments Incorporated
C:\Users\a0221074\AppData\Local\Temp\0730410                         PAGE   99

    4716              
    4717              $C$DW$T$69      .dwtag  DW_TAG_typedef, DW_AT_name("BeamType")
    4718                      .dwattr $C$DW$T$69, DW_AT_type(*$C$DW$T$49)
    4719                      .dwattr $C$DW$T$69, DW_AT_language(DW_LANG_C)
    4720              $C$DW$T$70      .dwtag  DW_TAG_pointer_type
    4721                      .dwattr $C$DW$T$70, DW_AT_type(*$C$DW$T$69)
    4722                      .dwattr $C$DW$T$70, DW_AT_address_class(0x17)
    4723              
    4724              $C$DW$T$90      .dwtag  DW_TAG_structure_type
    4725                      .dwattr $C$DW$T$90, DW_AT_name("gmhmm_type")
    4726                      .dwattr $C$DW$T$90, DW_AT_byte_size(0x7fe)
    4727              $C$DW$403       .dwtag  DW_TAG_member
    4728                      .dwattr $C$DW$403, DW_AT_type(*$C$DW$T$20)
    4729                      .dwattr $C$DW$403, DW_AT_name("avedepth")
    4730                      .dwattr $C$DW$403, DW_AT_TI_symbol_name("_avedepth")
    4731                      .dwattr $C$DW$403, DW_AT_data_member_location[DW_OP_plus_uconst 0x0]
    4732                      .dwattr $C$DW$403, DW_AT_accessibility(DW_ACCESS_public)
    4733              $C$DW$404       .dwtag  DW_TAG_member
    4734                      .dwattr $C$DW$404, DW_AT_type(*$C$DW$T$20)
    4735                      .dwattr $C$DW$404, DW_AT_name("bestdepth")
    4736                      .dwattr $C$DW$404, DW_AT_TI_symbol_name("_bestdepth")
    4737                      .dwattr $C$DW$404, DW_AT_data_member_location[DW_OP_plus_uconst 0x1]
    4738                      .dwattr $C$DW$404, DW_AT_accessibility(DW_ACCESS_public)
    4739              $C$DW$405       .dwtag  DW_TAG_member
    4740                      .dwattr $C$DW$405, DW_AT_type(*$C$DW$T$20)
    4741                      .dwattr $C$DW$405, DW_AT_name("index_mean")
    4742                      .dwattr $C$DW$405, DW_AT_TI_symbol_name("_index_mean")
    4743                      .dwattr $C$DW$405, DW_AT_data_member_location[DW_OP_plus_uconst 0x2]
    4744                      .dwattr $C$DW$405, DW_AT_accessibility(DW_ACCESS_public)
    4745              $C$DW$406       .dwtag  DW_TAG_member
    4746                      .dwattr $C$DW$406, DW_AT_type(*$C$DW$T$20)
    4747                      .dwattr $C$DW$406, DW_AT_name("signal_cnt")
    4748                      .dwattr $C$DW$406, DW_AT_TI_symbol_name("_signal_cnt")
    4749                      .dwattr $C$DW$406, DW_AT_data_member_location[DW_OP_plus_uconst 0x3]
    4750                      .dwattr $C$DW$406, DW_AT_accessibility(DW_ACCESS_public)
    4751              $C$DW$407       .dwtag  DW_TAG_member
    4752                      .dwattr $C$DW$407, DW_AT_type(*$C$DW$T$8)
    4753                      .dwattr $C$DW$407, DW_AT_name("buf_idx")
    4754                      .dwattr $C$DW$407, DW_AT_TI_symbol_name("_buf_idx")
    4755                      .dwattr $C$DW$407, DW_AT_data_member_location[DW_OP_plus_uconst 0x4]
    4756                      .dwattr $C$DW$407, DW_AT_accessibility(DW_ACCESS_public)
    4757              $C$DW$408       .dwtag  DW_TAG_member
    4758                      .dwattr $C$DW$408, DW_AT_type(*$C$DW$T$20)
    4759                      .dwattr $C$DW$408, DW_AT_name("speech_detected")
    4760                      .dwattr $C$DW$408, DW_AT_TI_symbol_name("_speech_detected")
    4761                      .dwattr $C$DW$408, DW_AT_data_member_location[DW_OP_plus_uconst 0x5]
    4762                      .dwattr $C$DW$408, DW_AT_accessibility(DW_ACCESS_public)
    4763              $C$DW$409       .dwtag  DW_TAG_member
    4764                      .dwattr $C$DW$409, DW_AT_type(*$C$DW$T$20)
    4765                      .dwattr $C$DW$409, DW_AT_name("mfcc_cnt")
    4766                      .dwattr $C$DW$409, DW_AT_TI_symbol_name("_mfcc_cnt")
    4767                      .dwattr $C$DW$409, DW_AT_data_member_location[DW_OP_plus_uconst 0x6]
    4768                      .dwattr $C$DW$409, DW_AT_accessibility(DW_ACCESS_public)
    4769              $C$DW$410       .dwtag  DW_TAG_member
    4770                      .dwattr $C$DW$410, DW_AT_type(*$C$DW$T$20)
TMS320C55x Assembler PC v4.4.1 Wed Sep 13 16:33:14 2017

Tools Copyright (c) 1996-2012 Texas Instruments Incorporated
C:\Users\a0221074\AppData\Local\Temp\0730410                         PAGE  100

    4771                      .dwattr $C$DW$410, DW_AT_name("nbr_cpy")
    4772                      .dwattr $C$DW$410, DW_AT_TI_symbol_name("_nbr_cpy")
    4773                      .dwattr $C$DW$410, DW_AT_data_member_location[DW_OP_plus_uconst 0x7]
    4774                      .dwattr $C$DW$410, DW_AT_accessibility(DW_ACCESS_public)
    4775              $C$DW$411       .dwtag  DW_TAG_member
    4776                      .dwattr $C$DW$411, DW_AT_type(*$C$DW$T$8)
    4777                      .dwattr $C$DW$411, DW_AT_name("last_sig")
    4778                      .dwattr $C$DW$411, DW_AT_TI_symbol_name("_last_sig")
    4779                      .dwattr $C$DW$411, DW_AT_data_member_location[DW_OP_plus_uconst 0x8]
    4780                      .dwattr $C$DW$411, DW_AT_accessibility(DW_ACCESS_public)
    4781              $C$DW$412       .dwtag  DW_TAG_member
    4782                      .dwattr $C$DW$412, DW_AT_type(*$C$DW$T$50)
    4783                      .dwattr $C$DW$412, DW_AT_name("sample_signal")
    4784                      .dwattr $C$DW$412, DW_AT_TI_symbol_name("_sample_signal")
    4785                      .dwattr $C$DW$412, DW_AT_data_member_location[DW_OP_plus_uconst 0x9]
    4786                      .dwattr $C$DW$412, DW_AT_accessibility(DW_ACCESS_public)
    4787              $C$DW$413       .dwtag  DW_TAG_member
    4788                      .dwattr $C$DW$413, DW_AT_type(*$C$DW$T$8)
    4789                      .dwattr $C$DW$413, DW_AT_name("amplitude_max")
    4790                      .dwattr $C$DW$413, DW_AT_TI_symbol_name("_amplitude_max")
    4791                      .dwattr $C$DW$413, DW_AT_data_member_location[DW_OP_plus_uconst 0x109]
    4792                      .dwattr $C$DW$413, DW_AT_accessibility(DW_ACCESS_public)
    4793              $C$DW$414       .dwtag  DW_TAG_member
    4794                      .dwattr $C$DW$414, DW_AT_type(*$C$DW$T$8)
    4795                      .dwattr $C$DW$414, DW_AT_name("amplitude_min")
    4796                      .dwattr $C$DW$414, DW_AT_TI_symbol_name("_amplitude_min")
    4797                      .dwattr $C$DW$414, DW_AT_data_member_location[DW_OP_plus_uconst 0x10a]
    4798                      .dwattr $C$DW$414, DW_AT_accessibility(DW_ACCESS_public)
    4799              $C$DW$415       .dwtag  DW_TAG_member
    4800                      .dwattr $C$DW$415, DW_AT_type(*$C$DW$T$8)
    4801                      .dwattr $C$DW$415, DW_AT_name("pred_first_frame")
    4802                      .dwattr $C$DW$415, DW_AT_TI_symbol_name("_pred_first_frame")
    4803                      .dwattr $C$DW$415, DW_AT_data_member_location[DW_OP_plus_uconst 0x10b]
    4804                      .dwattr $C$DW$415, DW_AT_accessibility(DW_ACCESS_public)
    4805              $C$DW$416       .dwtag  DW_TAG_member
    4806                      .dwattr $C$DW$416, DW_AT_type(*$C$DW$T$8)
    4807                      .dwattr $C$DW$416, DW_AT_name("frm_cnt")
    4808                      .dwattr $C$DW$416, DW_AT_TI_symbol_name("_frm_cnt")
    4809                      .dwattr $C$DW$416, DW_AT_data_member_location[DW_OP_plus_uconst 0x10c]
    4810                      .dwattr $C$DW$416, DW_AT_accessibility(DW_ACCESS_public)
    4811              $C$DW$417       .dwtag  DW_TAG_member
    4812                      .dwattr $C$DW$417, DW_AT_type(*$C$DW$T$8)
    4813                      .dwattr $C$DW$417, DW_AT_name("beam_count")
    4814                      .dwattr $C$DW$417, DW_AT_TI_symbol_name("_beam_count")
    4815                      .dwattr $C$DW$417, DW_AT_data_member_location[DW_OP_plus_uconst 0x10d]
    4816                      .dwattr $C$DW$417, DW_AT_accessibility(DW_ACCESS_public)
    4817              $C$DW$418       .dwtag  DW_TAG_member
    4818                      .dwattr $C$DW$418, DW_AT_type(*$C$DW$T$8)
    4819                      .dwattr $C$DW$418, DW_AT_name("active_beam_cells")
    4820                      .dwattr $C$DW$418, DW_AT_TI_symbol_name("_active_beam_cells")
    4821                      .dwattr $C$DW$418, DW_AT_data_member_location[DW_OP_plus_uconst 0x10e]
    4822                      .dwattr $C$DW$418, DW_AT_accessibility(DW_ACCESS_public)
    4823              $C$DW$419       .dwtag  DW_TAG_member
    4824                      .dwattr $C$DW$419, DW_AT_type(*$C$DW$T$8)
    4825                      .dwattr $C$DW$419, DW_AT_name("active_time_cells")
TMS320C55x Assembler PC v4.4.1 Wed Sep 13 16:33:14 2017

Tools Copyright (c) 1996-2012 Texas Instruments Incorporated
C:\Users\a0221074\AppData\Local\Temp\0730410                         PAGE  101

    4826                      .dwattr $C$DW$419, DW_AT_TI_symbol_name("_active_time_cells")
    4827                      .dwattr $C$DW$419, DW_AT_data_member_location[DW_OP_plus_uconst 0x10f]
    4828                      .dwattr $C$DW$419, DW_AT_accessibility(DW_ACCESS_public)
    4829              $C$DW$420       .dwtag  DW_TAG_member
    4830                      .dwattr $C$DW$420, DW_AT_type(*$C$DW$T$9)
    4831                      .dwattr $C$DW$420, DW_AT_name("ending_sym_count")
    4832                      .dwattr $C$DW$420, DW_AT_TI_symbol_name("_ending_sym_count")
    4833                      .dwattr $C$DW$420, DW_AT_data_member_location[DW_OP_plus_uconst 0x110]
    4834                      .dwattr $C$DW$420, DW_AT_accessibility(DW_ACCESS_public)
    4835              $C$DW$421       .dwtag  DW_TAG_member
    4836                      .dwattr $C$DW$421, DW_AT_type(*$C$DW$T$8)
    4837                      .dwattr $C$DW$421, DW_AT_name("comp_type")
    4838                      .dwattr $C$DW$421, DW_AT_TI_symbol_name("_comp_type")
    4839                      .dwattr $C$DW$421, DW_AT_data_member_location[DW_OP_plus_uconst 0x111]
    4840                      .dwattr $C$DW$421, DW_AT_accessibility(DW_ACCESS_public)
    4841              $C$DW$422       .dwtag  DW_TAG_member
    4842                      .dwattr $C$DW$422, DW_AT_type(*$C$DW$T$9)
    4843                      .dwattr $C$DW$422, DW_AT_name("low_vol_limit")
    4844                      .dwattr $C$DW$422, DW_AT_TI_symbol_name("_low_vol_limit")
    4845                      .dwattr $C$DW$422, DW_AT_data_member_location[DW_OP_plus_uconst 0x112]
    4846                      .dwattr $C$DW$422, DW_AT_accessibility(DW_ACCESS_public)
    4847              $C$DW$423       .dwtag  DW_TAG_member
    4848                      .dwattr $C$DW$423, DW_AT_type(*$C$DW$T$9)
    4849                      .dwattr $C$DW$423, DW_AT_name("high_vol_limit")
    4850                      .dwattr $C$DW$423, DW_AT_TI_symbol_name("_high_vol_limit")
    4851                      .dwattr $C$DW$423, DW_AT_data_member_location[DW_OP_plus_uconst 0x113]
    4852                      .dwattr $C$DW$423, DW_AT_accessibility(DW_ACCESS_public)
    4853              $C$DW$424       .dwtag  DW_TAG_member
    4854                      .dwattr $C$DW$424, DW_AT_type(*$C$DW$T$8)
    4855                      .dwattr $C$DW$424, DW_AT_name("vol")
    4856                      .dwattr $C$DW$424, DW_AT_TI_symbol_name("_vol")
    4857                      .dwattr $C$DW$424, DW_AT_data_member_location[DW_OP_plus_uconst 0x114]
    4858                      .dwattr $C$DW$424, DW_AT_accessibility(DW_ACCESS_public)
    4859              $C$DW$425       .dwtag  DW_TAG_member
    4860                      .dwattr $C$DW$425, DW_AT_type(*$C$DW$T$20)
    4861                      .dwattr $C$DW$425, DW_AT_name("n_mfcc")
    4862                      .dwattr $C$DW$425, DW_AT_TI_symbol_name("_n_mfcc")
    4863                      .dwattr $C$DW$425, DW_AT_data_member_location[DW_OP_plus_uconst 0x115]
    4864                      .dwattr $C$DW$425, DW_AT_accessibility(DW_ACCESS_public)
    4865              $C$DW$426       .dwtag  DW_TAG_member
    4866                      .dwattr $C$DW$426, DW_AT_type(*$C$DW$T$8)
    4867                      .dwattr $C$DW$426, DW_AT_name("nbr_dim")
    4868                      .dwattr $C$DW$426, DW_AT_TI_symbol_name("_nbr_dim")
    4869                      .dwattr $C$DW$426, DW_AT_data_member_location[DW_OP_plus_uconst 0x116]
    4870                      .dwattr $C$DW$426, DW_AT_accessibility(DW_ACCESS_public)
    4871              $C$DW$427       .dwtag  DW_TAG_member
    4872                      .dwattr $C$DW$427, DW_AT_type(*$C$DW$T$20)
    4873                      .dwattr $C$DW$427, DW_AT_name("n_filter")
    4874                      .dwattr $C$DW$427, DW_AT_TI_symbol_name("_n_filter")
    4875                      .dwattr $C$DW$427, DW_AT_data_member_location[DW_OP_plus_uconst 0x117]
    4876                      .dwattr $C$DW$427, DW_AT_accessibility(DW_ACCESS_public)
    4877              $C$DW$428       .dwtag  DW_TAG_member
    4878                      .dwattr $C$DW$428, DW_AT_type(*$C$DW$T$52)
    4879                      .dwattr $C$DW$428, DW_AT_name("mfcc_buf")
    4880                      .dwattr $C$DW$428, DW_AT_TI_symbol_name("_mfcc_buf")
TMS320C55x Assembler PC v4.4.1 Wed Sep 13 16:33:14 2017

Tools Copyright (c) 1996-2012 Texas Instruments Incorporated
C:\Users\a0221074\AppData\Local\Temp\0730410                         PAGE  102

    4881                      .dwattr $C$DW$428, DW_AT_data_member_location[DW_OP_plus_uconst 0x118]
    4882                      .dwattr $C$DW$428, DW_AT_accessibility(DW_ACCESS_public)
    4883              $C$DW$429       .dwtag  DW_TAG_member
    4884                      .dwattr $C$DW$429, DW_AT_type(*$C$DW$T$51)
    4885                      .dwattr $C$DW$429, DW_AT_name("mfcc_mean")
    4886                      .dwattr $C$DW$429, DW_AT_TI_symbol_name("_mfcc_mean")
    4887                      .dwattr $C$DW$429, DW_AT_data_member_location[DW_OP_plus_uconst 0x1f8]
    4888                      .dwattr $C$DW$429, DW_AT_accessibility(DW_ACCESS_public)
    4889              $C$DW$430       .dwtag  DW_TAG_member
    4890                      .dwattr $C$DW$430, DW_AT_type(*$C$DW$T$55)
    4891                      .dwattr $C$DW$430, DW_AT_name("cosxfm")
    4892                      .dwattr $C$DW$430, DW_AT_TI_symbol_name("_cosxfm")
    4893                      .dwattr $C$DW$430, DW_AT_data_member_location[DW_OP_plus_uconst 0x208]
    4894                      .dwattr $C$DW$430, DW_AT_accessibility(DW_ACCESS_public)
    4895              $C$DW$431       .dwtag  DW_TAG_member
    4896                      .dwattr $C$DW$431, DW_AT_type(*$C$DW$T$58)
    4897                      .dwattr $C$DW$431, DW_AT_name("mel_filter")
    4898                      .dwattr $C$DW$431, DW_AT_TI_symbol_name("_mel_filter")
    4899                      .dwattr $C$DW$431, DW_AT_data_member_location[DW_OP_plus_uconst 0x228]
    4900                      .dwattr $C$DW$431, DW_AT_accessibility(DW_ACCESS_public)
    4901              $C$DW$432       .dwtag  DW_TAG_member
    4902                      .dwattr $C$DW$432, DW_AT_type(*$C$DW$T$8)
    4903                      .dwattr $C$DW$432, DW_AT_name("th_noise_flr")
    4904                      .dwattr $C$DW$432, DW_AT_TI_symbol_name("_th_noise_flr")
    4905                      .dwattr $C$DW$432, DW_AT_data_member_location[DW_OP_plus_uconst 0x22a]
    4906                      .dwattr $C$DW$432, DW_AT_accessibility(DW_ACCESS_public)
    4907              $C$DW$433       .dwtag  DW_TAG_member
    4908                      .dwattr $C$DW$433, DW_AT_type(*$C$DW$T$8)
    4909                      .dwattr $C$DW$433, DW_AT_name("th_speech_delta")
    4910                      .dwattr $C$DW$433, DW_AT_TI_symbol_name("_th_speech_delta")
    4911                      .dwattr $C$DW$433, DW_AT_data_member_location[DW_OP_plus_uconst 0x22b]
    4912                      .dwattr $C$DW$433, DW_AT_accessibility(DW_ACCESS_public)
    4913              $C$DW$434       .dwtag  DW_TAG_member
    4914                      .dwattr $C$DW$434, DW_AT_type(*$C$DW$T$8)
    4915                      .dwattr $C$DW$434, DW_AT_name("th_min_speech_db")
    4916                      .dwattr $C$DW$434, DW_AT_TI_symbol_name("_th_min_speech_db")
    4917                      .dwattr $C$DW$434, DW_AT_data_member_location[DW_OP_plus_uconst 0x22c]
    4918                      .dwattr $C$DW$434, DW_AT_accessibility(DW_ACCESS_public)
    4919              $C$DW$435       .dwtag  DW_TAG_member
    4920                      .dwattr $C$DW$435, DW_AT_type(*$C$DW$T$8)
    4921                      .dwattr $C$DW$435, DW_AT_name("th_min_beg_frm")
    4922                      .dwattr $C$DW$435, DW_AT_TI_symbol_name("_th_min_beg_frm")
    4923                      .dwattr $C$DW$435, DW_AT_data_member_location[DW_OP_plus_uconst 0x22d]
    4924                      .dwattr $C$DW$435, DW_AT_accessibility(DW_ACCESS_public)
    4925              $C$DW$436       .dwtag  DW_TAG_member
    4926                      .dwattr $C$DW$436, DW_AT_type(*$C$DW$T$8)
    4927                      .dwattr $C$DW$436, DW_AT_name("th_min_end_frm")
    4928                      .dwattr $C$DW$436, DW_AT_TI_symbol_name("_th_min_end_frm")
    4929                      .dwattr $C$DW$436, DW_AT_data_member_location[DW_OP_plus_uconst 0x22e]
    4930                      .dwattr $C$DW$436, DW_AT_accessibility(DW_ACCESS_public)
    4931              $C$DW$437       .dwtag  DW_TAG_member
    4932                      .dwattr $C$DW$437, DW_AT_type(*$C$DW$T$8)
    4933                      .dwattr $C$DW$437, DW_AT_name("uttdet_cnt")
    4934                      .dwattr $C$DW$437, DW_AT_TI_symbol_name("_uttdet_cnt")
    4935                      .dwattr $C$DW$437, DW_AT_data_member_location[DW_OP_plus_uconst 0x22f]
TMS320C55x Assembler PC v4.4.1 Wed Sep 13 16:33:14 2017

Tools Copyright (c) 1996-2012 Texas Instruments Incorporated
C:\Users\a0221074\AppData\Local\Temp\0730410                         PAGE  103

    4936                      .dwattr $C$DW$437, DW_AT_accessibility(DW_ACCESS_public)
    4937              $C$DW$438       .dwtag  DW_TAG_member
    4938                      .dwattr $C$DW$438, DW_AT_type(*$C$DW$T$8)
    4939                      .dwattr $C$DW$438, DW_AT_name("noise_smooth")
    4940                      .dwattr $C$DW$438, DW_AT_TI_symbol_name("_noise_smooth")
    4941                      .dwattr $C$DW$438, DW_AT_data_member_location[DW_OP_plus_uconst 0x230]
    4942                      .dwattr $C$DW$438, DW_AT_accessibility(DW_ACCESS_public)
    4943              $C$DW$439       .dwtag  DW_TAG_member
    4944                      .dwattr $C$DW$439, DW_AT_type(*$C$DW$T$59)
    4945                      .dwattr $C$DW$439, DW_AT_name("ps_noisy_smoothed")
    4946                      .dwattr $C$DW$439, DW_AT_TI_symbol_name("_ps_noisy_smoothed")
    4947                      .dwattr $C$DW$439, DW_AT_data_member_location[DW_OP_plus_uconst 0x231]
    4948                      .dwattr $C$DW$439, DW_AT_accessibility(DW_ACCESS_public)
    4949              $C$DW$440       .dwtag  DW_TAG_member
    4950                      .dwattr $C$DW$440, DW_AT_type(*$C$DW$T$59)
    4951                      .dwattr $C$DW$440, DW_AT_name("noise_floor")
    4952                      .dwattr $C$DW$440, DW_AT_TI_symbol_name("_noise_floor")
    4953                      .dwattr $C$DW$440, DW_AT_data_member_location[DW_OP_plus_uconst 0x2b1]
    4954                      .dwattr $C$DW$440, DW_AT_accessibility(DW_ACCESS_public)
    4955              $C$DW$441       .dwtag  DW_TAG_member
    4956                      .dwattr $C$DW$441, DW_AT_type(*$C$DW$T$8)
    4957                      .dwattr $C$DW$441, DW_AT_name("sm_autoc")
    4958                      .dwattr $C$DW$441, DW_AT_TI_symbol_name("_sm_autoc")
    4959                      .dwattr $C$DW$441, DW_AT_data_member_location[DW_OP_plus_uconst 0x331]
    4960                      .dwattr $C$DW$441, DW_AT_accessibility(DW_ACCESS_public)
    4961              $C$DW$442       .dwtag  DW_TAG_member
    4962                      .dwattr $C$DW$442, DW_AT_type(*$C$DW$T$8)
    4963                      .dwattr $C$DW$442, DW_AT_name("speech_level")
    4964                      .dwattr $C$DW$442, DW_AT_TI_symbol_name("_speech_level")
    4965                      .dwattr $C$DW$442, DW_AT_data_member_location[DW_OP_plus_uconst 0x332]
    4966                      .dwattr $C$DW$442, DW_AT_accessibility(DW_ACCESS_public)
    4967              $C$DW$443       .dwtag  DW_TAG_member
    4968                      .dwattr $C$DW$443, DW_AT_type(*$C$DW$T$8)
    4969                      .dwattr $C$DW$443, DW_AT_name("noise_level")
    4970                      .dwattr $C$DW$443, DW_AT_TI_symbol_name("_noise_level")
    4971                      .dwattr $C$DW$443, DW_AT_data_member_location[DW_OP_plus_uconst 0x333]
    4972                      .dwattr $C$DW$443, DW_AT_accessibility(DW_ACCESS_public)
    4973              $C$DW$444       .dwtag  DW_TAG_member
    4974                      .dwattr $C$DW$444, DW_AT_type(*$C$DW$T$8)
    4975                      .dwattr $C$DW$444, DW_AT_name("uttdet_isspeech")
    4976                      .dwattr $C$DW$444, DW_AT_TI_symbol_name("_uttdet_isspeech")
    4977                      .dwattr $C$DW$444, DW_AT_data_member_location[DW_OP_plus_uconst 0x334]
    4978                      .dwattr $C$DW$444, DW_AT_accessibility(DW_ACCESS_public)
    4979              $C$DW$445       .dwtag  DW_TAG_member
    4980                      .dwattr $C$DW$445, DW_AT_type(*$C$DW$T$12)
    4981                      .dwattr $C$DW$445, DW_AT_name("delta_sum_accum")
    4982                      .dwattr $C$DW$445, DW_AT_TI_symbol_name("_delta_sum_accum")
    4983                      .dwattr $C$DW$445, DW_AT_data_member_location[DW_OP_plus_uconst 0x336]
    4984                      .dwattr $C$DW$445, DW_AT_accessibility(DW_ACCESS_public)
    4985              $C$DW$446       .dwtag  DW_TAG_member
    4986                      .dwattr $C$DW$446, DW_AT_type(*$C$DW$T$8)
    4987                      .dwattr $C$DW$446, DW_AT_name("uttdet_state")
    4988                      .dwattr $C$DW$446, DW_AT_TI_symbol_name("_uttdet_state")
    4989                      .dwattr $C$DW$446, DW_AT_data_member_location[DW_OP_plus_uconst 0x338]
    4990                      .dwattr $C$DW$446, DW_AT_accessibility(DW_ACCESS_public)
TMS320C55x Assembler PC v4.4.1 Wed Sep 13 16:33:14 2017

Tools Copyright (c) 1996-2012 Texas Instruments Incorporated
C:\Users\a0221074\AppData\Local\Temp\0730410                         PAGE  104

    4991              $C$DW$447       .dwtag  DW_TAG_member
    4992                      .dwattr $C$DW$447, DW_AT_type(*$C$DW$T$8)
    4993                      .dwattr $C$DW$447, DW_AT_name("uttdet_beg_frm")
    4994                      .dwattr $C$DW$447, DW_AT_TI_symbol_name("_uttdet_beg_frm")
    4995                      .dwattr $C$DW$447, DW_AT_data_member_location[DW_OP_plus_uconst 0x339]
    4996                      .dwattr $C$DW$447, DW_AT_accessibility(DW_ACCESS_public)
    4997              $C$DW$448       .dwtag  DW_TAG_member
    4998                      .dwattr $C$DW$448, DW_AT_type(*$C$DW$T$8)
    4999                      .dwattr $C$DW$448, DW_AT_name("uttdet_end_frm")
    5000                      .dwattr $C$DW$448, DW_AT_TI_symbol_name("_uttdet_end_frm")
    5001                      .dwattr $C$DW$448, DW_AT_data_member_location[DW_OP_plus_uconst 0x33a]
    5002                      .dwattr $C$DW$448, DW_AT_accessibility(DW_ACCESS_public)
    5003              $C$DW$449       .dwtag  DW_TAG_member
    5004                      .dwattr $C$DW$449, DW_AT_type(*$C$DW$T$8)
    5005                      .dwattr $C$DW$449, DW_AT_name("sr_is_end_of_grammar")
    5006                      .dwattr $C$DW$449, DW_AT_TI_symbol_name("_sr_is_end_of_grammar")
    5007                      .dwattr $C$DW$449, DW_AT_data_member_location[DW_OP_plus_uconst 0x33b]
    5008                      .dwattr $C$DW$449, DW_AT_accessibility(DW_ACCESS_public)
    5009              $C$DW$450       .dwtag  DW_TAG_member
    5010                      .dwattr $C$DW$450, DW_AT_type(*$C$DW$T$8)
    5011                      .dwattr $C$DW$450, DW_AT_name("sr_MAX_END_SYM")
    5012                      .dwattr $C$DW$450, DW_AT_TI_symbol_name("_sr_MAX_END_SYM")
    5013                      .dwattr $C$DW$450, DW_AT_data_member_location[DW_OP_plus_uconst 0x33c]
    5014                      .dwattr $C$DW$450, DW_AT_accessibility(DW_ACCESS_public)
    5015              $C$DW$451       .dwtag  DW_TAG_member
    5016                      .dwattr $C$DW$451, DW_AT_type(*$C$DW$T$8)
    5017                      .dwattr $C$DW$451, DW_AT_name("sr_MIN_END_SYM")
    5018                      .dwattr $C$DW$451, DW_AT_TI_symbol_name("_sr_MIN_END_SYM")
    5019                      .dwattr $C$DW$451, DW_AT_data_member_location[DW_OP_plus_uconst 0x33d]
    5020                      .dwattr $C$DW$451, DW_AT_accessibility(DW_ACCESS_public)
    5021              $C$DW$452       .dwtag  DW_TAG_member
    5022                      .dwattr $C$DW$452, DW_AT_type(*$C$DW$T$8)
    5023                      .dwattr $C$DW$452, DW_AT_name("gbg_end_of_speech")
    5024                      .dwattr $C$DW$452, DW_AT_TI_symbol_name("_gbg_end_of_speech")
    5025                      .dwattr $C$DW$452, DW_AT_data_member_location[DW_OP_plus_uconst 0x33e]
    5026                      .dwattr $C$DW$452, DW_AT_accessibility(DW_ACCESS_public)
    5027              $C$DW$453       .dwtag  DW_TAG_member
    5028                      .dwattr $C$DW$453, DW_AT_type(*$C$DW$T$8)
    5029                      .dwattr $C$DW$453, DW_AT_name("jac_vec_per_frame")
    5030                      .dwattr $C$DW$453, DW_AT_TI_symbol_name("_jac_vec_per_frame")
    5031                      .dwattr $C$DW$453, DW_AT_data_member_location[DW_OP_plus_uconst 0x33f]
    5032                      .dwattr $C$DW$453, DW_AT_accessibility(DW_ACCESS_public)
    5033              $C$DW$454       .dwtag  DW_TAG_member
    5034                      .dwattr $C$DW$454, DW_AT_type(*$C$DW$T$8)
    5035                      .dwattr $C$DW$454, DW_AT_name("jac_component_likelihood")
    5036                      .dwattr $C$DW$454, DW_AT_TI_symbol_name("_jac_component_likelihood")
    5037                      .dwattr $C$DW$454, DW_AT_data_member_location[DW_OP_plus_uconst 0x340]
    5038                      .dwattr $C$DW$454, DW_AT_accessibility(DW_ACCESS_public)
    5039              $C$DW$455       .dwtag  DW_TAG_member
    5040                      .dwattr $C$DW$455, DW_AT_type(*$C$DW$T$8)
    5041                      .dwattr $C$DW$455, DW_AT_name("jac_max_segment_size")
    5042                      .dwattr $C$DW$455, DW_AT_TI_symbol_name("_jac_max_segment_size")
    5043                      .dwattr $C$DW$455, DW_AT_data_member_location[DW_OP_plus_uconst 0x341]
    5044                      .dwattr $C$DW$455, DW_AT_accessibility(DW_ACCESS_public)
    5045              $C$DW$456       .dwtag  DW_TAG_member
TMS320C55x Assembler PC v4.4.1 Wed Sep 13 16:33:14 2017

Tools Copyright (c) 1996-2012 Texas Instruments Incorporated
C:\Users\a0221074\AppData\Local\Temp\0730410                         PAGE  105

    5046                      .dwattr $C$DW$456, DW_AT_type(*$C$DW$T$8)
    5047                      .dwattr $C$DW$456, DW_AT_name("jac_smooth_coef")
    5048                      .dwattr $C$DW$456, DW_AT_TI_symbol_name("_jac_smooth_coef")
    5049                      .dwattr $C$DW$456, DW_AT_data_member_location[DW_OP_plus_uconst 0x342]
    5050                      .dwattr $C$DW$456, DW_AT_accessibility(DW_ACCESS_public)
    5051              $C$DW$457       .dwtag  DW_TAG_member
    5052                      .dwattr $C$DW$457, DW_AT_type(*$C$DW$T$8)
    5053                      .dwattr $C$DW$457, DW_AT_name("jac_discount_factor")
    5054                      .dwattr $C$DW$457, DW_AT_TI_symbol_name("_jac_discount_factor")
    5055                      .dwattr $C$DW$457, DW_AT_data_member_location[DW_OP_plus_uconst 0x343]
    5056                      .dwattr $C$DW$457, DW_AT_accessibility(DW_ACCESS_public)
    5057              $C$DW$458       .dwtag  DW_TAG_member
    5058                      .dwattr $C$DW$458, DW_AT_type(*$C$DW$T$8)
    5059                      .dwattr $C$DW$458, DW_AT_name("jac_deweight_factor")
    5060                      .dwattr $C$DW$458, DW_AT_TI_symbol_name("_jac_deweight_factor")
    5061                      .dwattr $C$DW$458, DW_AT_data_member_location[DW_OP_plus_uconst 0x344]
    5062                      .dwattr $C$DW$458, DW_AT_accessibility(DW_ACCESS_public)
    5063              $C$DW$459       .dwtag  DW_TAG_member
    5064                      .dwattr $C$DW$459, DW_AT_type(*$C$DW$T$8)
    5065                      .dwattr $C$DW$459, DW_AT_name("jac_bayesian_weight")
    5066                      .dwattr $C$DW$459, DW_AT_TI_symbol_name("_jac_bayesian_weight")
    5067                      .dwattr $C$DW$459, DW_AT_data_member_location[DW_OP_plus_uconst 0x345]
    5068                      .dwattr $C$DW$459, DW_AT_accessibility(DW_ACCESS_public)
    5069              $C$DW$460       .dwtag  DW_TAG_member
    5070                      .dwattr $C$DW$460, DW_AT_type(*$C$DW$T$8)
    5071                      .dwattr $C$DW$460, DW_AT_name("sva_var_forget_factor")
    5072                      .dwattr $C$DW$460, DW_AT_TI_symbol_name("_sva_var_forget_factor")
    5073                      .dwattr $C$DW$460, DW_AT_data_member_location[DW_OP_plus_uconst 0x346]
    5074                      .dwattr $C$DW$460, DW_AT_accessibility(DW_ACCESS_public)
    5075              $C$DW$461       .dwtag  DW_TAG_member
    5076                      .dwattr $C$DW$461, DW_AT_type(*$C$DW$T$8)
    5077                      .dwattr $C$DW$461, DW_AT_name("sbc_fgt")
    5078                      .dwattr $C$DW$461, DW_AT_TI_symbol_name("_sbc_fgt")
    5079                      .dwattr $C$DW$461, DW_AT_data_member_location[DW_OP_plus_uconst 0x347]
    5080                      .dwattr $C$DW$461, DW_AT_accessibility(DW_ACCESS_public)
    5081              $C$DW$462       .dwtag  DW_TAG_member
    5082                      .dwattr $C$DW$462, DW_AT_type(*$C$DW$T$60)
    5083                      .dwattr $C$DW$462, DW_AT_name("log_H")
    5084                      .dwattr $C$DW$462, DW_AT_TI_symbol_name("_log_H")
    5085                      .dwattr $C$DW$462, DW_AT_data_member_location[DW_OP_plus_uconst 0x348]
    5086                      .dwattr $C$DW$462, DW_AT_accessibility(DW_ACCESS_public)
    5087              $C$DW$463       .dwtag  DW_TAG_member
    5088                      .dwattr $C$DW$463, DW_AT_type(*$C$DW$T$60)
    5089                      .dwattr $C$DW$463, DW_AT_name("log_N")
    5090                      .dwattr $C$DW$463, DW_AT_TI_symbol_name("_log_N")
    5091                      .dwattr $C$DW$463, DW_AT_data_member_location[DW_OP_plus_uconst 0x362]
    5092                      .dwattr $C$DW$463, DW_AT_accessibility(DW_ACCESS_public)
    5093              $C$DW$464       .dwtag  DW_TAG_member
    5094                      .dwattr $C$DW$464, DW_AT_type(*$C$DW$T$61)
    5095                      .dwattr $C$DW$464, DW_AT_name("accum")
    5096                      .dwattr $C$DW$464, DW_AT_TI_symbol_name("_accum")
    5097                      .dwattr $C$DW$464, DW_AT_data_member_location[DW_OP_plus_uconst 0x37c]
    5098                      .dwattr $C$DW$464, DW_AT_accessibility(DW_ACCESS_public)
    5099              $C$DW$465       .dwtag  DW_TAG_member
    5100                      .dwattr $C$DW$465, DW_AT_type(*$C$DW$T$20)
TMS320C55x Assembler PC v4.4.1 Wed Sep 13 16:33:14 2017

Tools Copyright (c) 1996-2012 Texas Instruments Incorporated
C:\Users\a0221074\AppData\Local\Temp\0730410                         PAGE  106

    5101                      .dwattr $C$DW$465, DW_AT_name("smooth_coef")
    5102                      .dwattr $C$DW$465, DW_AT_TI_symbol_name("_smooth_coef")
    5103                      .dwattr $C$DW$465, DW_AT_data_member_location[DW_OP_plus_uconst 0x44c]
    5104                      .dwattr $C$DW$465, DW_AT_accessibility(DW_ACCESS_public)
    5105              $C$DW$466       .dwtag  DW_TAG_member
    5106                      .dwattr $C$DW$466, DW_AT_type(*$C$DW$T$63)
    5107                      .dwattr $C$DW$466, DW_AT_name("sbcState")
    5108                      .dwattr $C$DW$466, DW_AT_TI_symbol_name("_sbcState")
    5109                      .dwattr $C$DW$466, DW_AT_data_member_location[DW_OP_plus_uconst 0x44e]
    5110                      .dwattr $C$DW$466, DW_AT_accessibility(DW_ACCESS_public)
    5111              $C$DW$467       .dwtag  DW_TAG_member
    5112                      .dwattr $C$DW$467, DW_AT_type(*$C$DW$T$51)
    5113                      .dwattr $C$DW$467, DW_AT_name("mfcc_noise")
    5114                      .dwattr $C$DW$467, DW_AT_TI_symbol_name("_mfcc_noise")
    5115                      .dwattr $C$DW$467, DW_AT_data_member_location[DW_OP_plus_uconst 0x450]
    5116                      .dwattr $C$DW$467, DW_AT_accessibility(DW_ACCESS_public)
    5117              $C$DW$468       .dwtag  DW_TAG_member
    5118                      .dwattr $C$DW$468, DW_AT_type(*$C$DW$T$64)
    5119                      .dwattr $C$DW$468, DW_AT_name("mfcc_noise_init_acc")
    5120                      .dwattr $C$DW$468, DW_AT_TI_symbol_name("_mfcc_noise_init_acc")
    5121                      .dwattr $C$DW$468, DW_AT_data_member_location[DW_OP_plus_uconst 0x460]
    5122                      .dwattr $C$DW$468, DW_AT_accessibility(DW_ACCESS_public)
    5123              $C$DW$469       .dwtag  DW_TAG_member
    5124                      .dwattr $C$DW$469, DW_AT_type(*$C$DW$T$22)
    5125                      .dwattr $C$DW$469, DW_AT_name("hmm_code")
    5126                      .dwattr $C$DW$469, DW_AT_TI_symbol_name("_hmm_code")
    5127                      .dwattr $C$DW$469, DW_AT_data_member_location[DW_OP_plus_uconst 0x480]
    5128                      .dwattr $C$DW$469, DW_AT_accessibility(DW_ACCESS_public)
    5129              $C$DW$470       .dwtag  DW_TAG_member
    5130                      .dwattr $C$DW$470, DW_AT_type(*$C$DW$T$22)
    5131                      .dwattr $C$DW$470, DW_AT_name("stt")
    5132                      .dwattr $C$DW$470, DW_AT_TI_symbol_name("_stt")
    5133                      .dwattr $C$DW$470, DW_AT_data_member_location[DW_OP_plus_uconst 0x482]
    5134                      .dwattr $C$DW$470, DW_AT_accessibility(DW_ACCESS_public)
    5135              $C$DW$471       .dwtag  DW_TAG_member
    5136                      .dwattr $C$DW$471, DW_AT_type(*$C$DW$T$22)
    5137                      .dwattr $C$DW$471, DW_AT_name("stp")
    5138                      .dwattr $C$DW$471, DW_AT_TI_symbol_name("_stp")
    5139                      .dwattr $C$DW$471, DW_AT_data_member_location[DW_OP_plus_uconst 0x484]
    5140                      .dwattr $C$DW$471, DW_AT_accessibility(DW_ACCESS_public)
    5141              $C$DW$472       .dwtag  DW_TAG_member
    5142                      .dwattr $C$DW$472, DW_AT_type(*$C$DW$T$20)
    5143                      .dwattr $C$DW$472, DW_AT_name("nbr_seg")
    5144                      .dwattr $C$DW$472, DW_AT_TI_symbol_name("_nbr_seg")
    5145                      .dwattr $C$DW$472, DW_AT_data_member_location[DW_OP_plus_uconst 0x486]
    5146                      .dwattr $C$DW$472, DW_AT_accessibility(DW_ACCESS_public)
    5147              $C$DW$473       .dwtag  DW_TAG_member
    5148                      .dwattr $C$DW$473, DW_AT_type(*$C$DW$T$20)
    5149                      .dwattr $C$DW$473, DW_AT_name("hmm_dlt")
    5150                      .dwattr $C$DW$473, DW_AT_TI_symbol_name("_hmm_dlt")
    5151                      .dwattr $C$DW$473, DW_AT_data_member_location[DW_OP_plus_uconst 0x487]
    5152                      .dwattr $C$DW$473, DW_AT_accessibility(DW_ACCESS_public)
    5153              $C$DW$474       .dwtag  DW_TAG_member
    5154                      .dwattr $C$DW$474, DW_AT_type(*$C$DW$T$20)
    5155                      .dwattr $C$DW$474, DW_AT_name("max_frame_nbr")
TMS320C55x Assembler PC v4.4.1 Wed Sep 13 16:33:14 2017

Tools Copyright (c) 1996-2012 Texas Instruments Incorporated
C:\Users\a0221074\AppData\Local\Temp\0730410                         PAGE  107

    5156                      .dwattr $C$DW$474, DW_AT_TI_symbol_name("_max_frame_nbr")
    5157                      .dwattr $C$DW$474, DW_AT_data_member_location[DW_OP_plus_uconst 0x488]
    5158                      .dwattr $C$DW$474, DW_AT_accessibility(DW_ACCESS_public)
    5159              $C$DW$475       .dwtag  DW_TAG_member
    5160                      .dwattr $C$DW$475, DW_AT_type(*$C$DW$T$66)
    5161                      .dwattr $C$DW$475, DW_AT_name("symcell_base")
    5162                      .dwattr $C$DW$475, DW_AT_TI_symbol_name("_symcell_base")
    5163                      .dwattr $C$DW$475, DW_AT_data_member_location[DW_OP_plus_uconst 0x48a]
    5164                      .dwattr $C$DW$475, DW_AT_accessibility(DW_ACCESS_public)
    5165              $C$DW$476       .dwtag  DW_TAG_member
    5166                      .dwattr $C$DW$476, DW_AT_type(*$C$DW$T$68)
    5167                      .dwattr $C$DW$476, DW_AT_name("statecell_base")
    5168                      .dwattr $C$DW$476, DW_AT_TI_symbol_name("_statecell_base")
    5169                      .dwattr $C$DW$476, DW_AT_data_member_location[DW_OP_plus_uconst 0x48c]
    5170                      .dwattr $C$DW$476, DW_AT_accessibility(DW_ACCESS_public)
    5171              $C$DW$477       .dwtag  DW_TAG_member
    5172                      .dwattr $C$DW$477, DW_AT_type(*$C$DW$T$70)
    5173                      .dwattr $C$DW$477, DW_AT_name("beam_base")
    5174                      .dwattr $C$DW$477, DW_AT_TI_symbol_name("_beam_base")
    5175                      .dwattr $C$DW$477, DW_AT_data_member_location[DW_OP_plus_uconst 0x48e]
    5176                      .dwattr $C$DW$477, DW_AT_accessibility(DW_ACCESS_public)
    5177              $C$DW$478       .dwtag  DW_TAG_member
    5178                      .dwattr $C$DW$478, DW_AT_type(*$C$DW$T$72)
    5179                      .dwattr $C$DW$478, DW_AT_name("time_base")
    5180                      .dwattr $C$DW$478, DW_AT_TI_symbol_name("_time_base")
    5181                      .dwattr $C$DW$478, DW_AT_data_member_location[DW_OP_plus_uconst 0x490]
    5182                      .dwattr $C$DW$478, DW_AT_accessibility(DW_ACCESS_public)
    5183              $C$DW$479       .dwtag  DW_TAG_member
    5184                      .dwattr $C$DW$479, DW_AT_type(*$C$DW$T$8)
    5185                      .dwattr $C$DW$479, DW_AT_name("bUseNBest")
    5186                      .dwattr $C$DW$479, DW_AT_TI_symbol_name("_bUseNBest")
    5187                      .dwattr $C$DW$479, DW_AT_data_member_location[DW_OP_plus_uconst 0x492]
    5188                      .dwattr $C$DW$479, DW_AT_accessibility(DW_ACCESS_public)
    5189              $C$DW$480       .dwtag  DW_TAG_member
    5190                      .dwattr $C$DW$480, DW_AT_type(*$C$DW$T$11)
    5191                      .dwattr $C$DW$480, DW_AT_name("total_words")
    5192                      .dwattr $C$DW$480, DW_AT_TI_symbol_name("_total_words")
    5193                      .dwattr $C$DW$480, DW_AT_data_member_location[DW_OP_plus_uconst 0x493]
    5194                      .dwattr $C$DW$480, DW_AT_accessibility(DW_ACCESS_public)
    5195              $C$DW$481       .dwtag  DW_TAG_member
    5196                      .dwattr $C$DW$481, DW_AT_type(*$C$DW$T$8)
    5197                      .dwattr $C$DW$481, DW_AT_name("prune")
    5198                      .dwattr $C$DW$481, DW_AT_TI_symbol_name("_prune")
    5199                      .dwattr $C$DW$481, DW_AT_data_member_location[DW_OP_plus_uconst 0x494]
    5200                      .dwattr $C$DW$481, DW_AT_accessibility(DW_ACCESS_public)
    5201              $C$DW$482       .dwtag  DW_TAG_member
    5202                      .dwattr $C$DW$482, DW_AT_type(*$C$DW$T$8)
    5203                      .dwattr $C$DW$482, DW_AT_name("tranwgt")
    5204                      .dwattr $C$DW$482, DW_AT_TI_symbol_name("_tranwgt")
    5205                      .dwattr $C$DW$482, DW_AT_data_member_location[DW_OP_plus_uconst 0x495]
    5206                      .dwattr $C$DW$482, DW_AT_accessibility(DW_ACCESS_public)
    5207              $C$DW$483       .dwtag  DW_TAG_member
    5208                      .dwattr $C$DW$483, DW_AT_type(*$C$DW$T$74)
    5209                      .dwattr $C$DW$483, DW_AT_name("chpr_Model_Dir")
    5210                      .dwattr $C$DW$483, DW_AT_TI_symbol_name("_chpr_Model_Dir")
TMS320C55x Assembler PC v4.4.1 Wed Sep 13 16:33:14 2017

Tools Copyright (c) 1996-2012 Texas Instruments Incorporated
C:\Users\a0221074\AppData\Local\Temp\0730410                         PAGE  108

    5211                      .dwattr $C$DW$483, DW_AT_data_member_location[DW_OP_plus_uconst 0x496]
    5212                      .dwattr $C$DW$483, DW_AT_accessibility(DW_ACCESS_public)
    5213              $C$DW$484       .dwtag  DW_TAG_member
    5214                      .dwattr $C$DW$484, DW_AT_type(*$C$DW$T$76)
    5215                      .dwattr $C$DW$484, DW_AT_name("trans")
    5216                      .dwattr $C$DW$484, DW_AT_TI_symbol_name("_trans")
    5217                      .dwattr $C$DW$484, DW_AT_data_member_location[DW_OP_plus_uconst 0x498]
    5218                      .dwattr $C$DW$484, DW_AT_accessibility(DW_ACCESS_public)
    5219              $C$DW$485       .dwtag  DW_TAG_member
    5220                      .dwattr $C$DW$485, DW_AT_type(*$C$DW$T$21)
    5221                      .dwattr $C$DW$485, DW_AT_name("base_net")
    5222                      .dwattr $C$DW$485, DW_AT_TI_symbol_name("_base_net")
    5223                      .dwattr $C$DW$485, DW_AT_data_member_location[DW_OP_plus_uconst 0x49a]
    5224                      .dwattr $C$DW$485, DW_AT_accessibility(DW_ACCESS_public)
    5225              $C$DW$486       .dwtag  DW_TAG_member
    5226                      .dwattr $C$DW$486, DW_AT_type(*$C$DW$T$35)
    5227                      .dwattr $C$DW$486, DW_AT_name("base_hmms")
    5228                      .dwattr $C$DW$486, DW_AT_TI_symbol_name("_base_hmms")
    5229                      .dwattr $C$DW$486, DW_AT_data_member_location[DW_OP_plus_uconst 0x49c]
    5230                      .dwattr $C$DW$486, DW_AT_accessibility(DW_ACCESS_public)
    5231              $C$DW$487       .dwtag  DW_TAG_member
    5232                      .dwattr $C$DW$487, DW_AT_type(*$C$DW$T$21)
    5233                      .dwattr $C$DW$487, DW_AT_name("base_mu")
    5234                      .dwattr $C$DW$487, DW_AT_TI_symbol_name("_base_mu")
    5235                      .dwattr $C$DW$487, DW_AT_data_member_location[DW_OP_plus_uconst 0x49e]
    5236                      .dwattr $C$DW$487, DW_AT_accessibility(DW_ACCESS_public)
    5237              $C$DW$488       .dwtag  DW_TAG_member
    5238                      .dwattr $C$DW$488, DW_AT_type(*$C$DW$T$21)
    5239                      .dwattr $C$DW$488, DW_AT_name("base_mu_orig")
    5240                      .dwattr $C$DW$488, DW_AT_TI_symbol_name("_base_mu_orig")
    5241                      .dwattr $C$DW$488, DW_AT_data_member_location[DW_OP_plus_uconst 0x4a0]
    5242                      .dwattr $C$DW$488, DW_AT_accessibility(DW_ACCESS_public)
    5243              $C$DW$489       .dwtag  DW_TAG_member
    5244                      .dwattr $C$DW$489, DW_AT_type(*$C$DW$T$21)
    5245                      .dwattr $C$DW$489, DW_AT_name("base_var")
    5246                      .dwattr $C$DW$489, DW_AT_TI_symbol_name("_base_var")
    5247                      .dwattr $C$DW$489, DW_AT_data_member_location[DW_OP_plus_uconst 0x4a2]
    5248                      .dwattr $C$DW$489, DW_AT_accessibility(DW_ACCESS_public)
    5249              $C$DW$490       .dwtag  DW_TAG_member
    5250                      .dwattr $C$DW$490, DW_AT_type(*$C$DW$T$21)
    5251                      .dwattr $C$DW$490, DW_AT_name("base_var_orig")
    5252                      .dwattr $C$DW$490, DW_AT_TI_symbol_name("_base_var_orig")
    5253                      .dwattr $C$DW$490, DW_AT_data_member_location[DW_OP_plus_uconst 0x4a4]
    5254                      .dwattr $C$DW$490, DW_AT_accessibility(DW_ACCESS_public)
    5255              $C$DW$491       .dwtag  DW_TAG_member
    5256                      .dwattr $C$DW$491, DW_AT_type(*$C$DW$T$21)
    5257                      .dwattr $C$DW$491, DW_AT_name("base_tran")
    5258                      .dwattr $C$DW$491, DW_AT_TI_symbol_name("_base_tran")
    5259                      .dwattr $C$DW$491, DW_AT_data_member_location[DW_OP_plus_uconst 0x4a6]
    5260                      .dwattr $C$DW$491, DW_AT_accessibility(DW_ACCESS_public)
    5261              $C$DW$492       .dwtag  DW_TAG_member
    5262                      .dwattr $C$DW$492, DW_AT_type(*$C$DW$T$35)
    5263                      .dwattr $C$DW$492, DW_AT_name("base_pdf")
    5264                      .dwattr $C$DW$492, DW_AT_TI_symbol_name("_base_pdf")
    5265                      .dwattr $C$DW$492, DW_AT_data_member_location[DW_OP_plus_uconst 0x4a8]
TMS320C55x Assembler PC v4.4.1 Wed Sep 13 16:33:14 2017

Tools Copyright (c) 1996-2012 Texas Instruments Incorporated
C:\Users\a0221074\AppData\Local\Temp\0730410                         PAGE  109

    5266                      .dwattr $C$DW$492, DW_AT_accessibility(DW_ACCESS_public)
    5267              $C$DW$493       .dwtag  DW_TAG_member
    5268                      .dwattr $C$DW$493, DW_AT_type(*$C$DW$T$21)
    5269                      .dwattr $C$DW$493, DW_AT_name("base_mixture")
    5270                      .dwattr $C$DW$493, DW_AT_TI_symbol_name("_base_mixture")
    5271                      .dwattr $C$DW$493, DW_AT_data_member_location[DW_OP_plus_uconst 0x4aa]
    5272                      .dwattr $C$DW$493, DW_AT_accessibility(DW_ACCESS_public)
    5273              $C$DW$494       .dwtag  DW_TAG_member
    5274                      .dwattr $C$DW$494, DW_AT_type(*$C$DW$T$21)
    5275                      .dwattr $C$DW$494, DW_AT_name("base_gconst")
    5276                      .dwattr $C$DW$494, DW_AT_TI_symbol_name("_base_gconst")
    5277                      .dwattr $C$DW$494, DW_AT_data_member_location[DW_OP_plus_uconst 0x4ac]
    5278                      .dwattr $C$DW$494, DW_AT_accessibility(DW_ACCESS_public)
    5279              $C$DW$495       .dwtag  DW_TAG_member
    5280                      .dwattr $C$DW$495, DW_AT_type(*$C$DW$T$21)
    5281                      .dwattr $C$DW$495, DW_AT_name("obs_scr")
    5282                      .dwattr $C$DW$495, DW_AT_TI_symbol_name("_obs_scr")
    5283                      .dwattr $C$DW$495, DW_AT_data_member_location[DW_OP_plus_uconst 0x4ae]
    5284                      .dwattr $C$DW$495, DW_AT_accessibility(DW_ACCESS_public)
    5285              $C$DW$496       .dwtag  DW_TAG_member
    5286                      .dwattr $C$DW$496, DW_AT_type(*$C$DW$T$21)
    5287                      .dwattr $C$DW$496, DW_AT_name("gauss_scr")
    5288                      .dwattr $C$DW$496, DW_AT_TI_symbol_name("_gauss_scr")
    5289                      .dwattr $C$DW$496, DW_AT_data_member_location[DW_OP_plus_uconst 0x4b0]
    5290                      .dwattr $C$DW$496, DW_AT_accessibility(DW_ACCESS_public)
    5291              $C$DW$497       .dwtag  DW_TAG_member
    5292                      .dwattr $C$DW$497, DW_AT_type(*$C$DW$T$21)
    5293                      .dwattr $C$DW$497, DW_AT_name("scale_mu")
    5294                      .dwattr $C$DW$497, DW_AT_TI_symbol_name("_scale_mu")
    5295                      .dwattr $C$DW$497, DW_AT_data_member_location[DW_OP_plus_uconst 0x4b2]
    5296                      .dwattr $C$DW$497, DW_AT_accessibility(DW_ACCESS_public)
    5297              $C$DW$498       .dwtag  DW_TAG_member
    5298                      .dwattr $C$DW$498, DW_AT_type(*$C$DW$T$21)
    5299                      .dwattr $C$DW$498, DW_AT_name("scale_var")
    5300                      .dwattr $C$DW$498, DW_AT_TI_symbol_name("_scale_var")
    5301                      .dwattr $C$DW$498, DW_AT_data_member_location[DW_OP_plus_uconst 0x4b4]
    5302                      .dwattr $C$DW$498, DW_AT_accessibility(DW_ACCESS_public)
    5303              $C$DW$499       .dwtag  DW_TAG_member
    5304                      .dwattr $C$DW$499, DW_AT_type(*$C$DW$T$9)
    5305                      .dwattr $C$DW$499, DW_AT_name("n_pdf")
    5306                      .dwattr $C$DW$499, DW_AT_TI_symbol_name("_n_pdf")
    5307                      .dwattr $C$DW$499, DW_AT_data_member_location[DW_OP_plus_uconst 0x4b6]
    5308                      .dwattr $C$DW$499, DW_AT_accessibility(DW_ACCESS_public)
    5309              $C$DW$500       .dwtag  DW_TAG_member
    5310                      .dwattr $C$DW$500, DW_AT_type(*$C$DW$T$9)
    5311                      .dwattr $C$DW$500, DW_AT_name("n_mu")
    5312                      .dwattr $C$DW$500, DW_AT_TI_symbol_name("_n_mu")
    5313                      .dwattr $C$DW$500, DW_AT_data_member_location[DW_OP_plus_uconst 0x4b7]
    5314                      .dwattr $C$DW$500, DW_AT_accessibility(DW_ACCESS_public)
    5315              $C$DW$501       .dwtag  DW_TAG_member
    5316                      .dwattr $C$DW$501, DW_AT_type(*$C$DW$T$9)
    5317                      .dwattr $C$DW$501, DW_AT_name("n_var")
    5318                      .dwattr $C$DW$501, DW_AT_TI_symbol_name("_n_var")
    5319                      .dwattr $C$DW$501, DW_AT_data_member_location[DW_OP_plus_uconst 0x4b8]
    5320                      .dwattr $C$DW$501, DW_AT_accessibility(DW_ACCESS_public)
TMS320C55x Assembler PC v4.4.1 Wed Sep 13 16:33:14 2017

Tools Copyright (c) 1996-2012 Texas Instruments Incorporated
C:\Users\a0221074\AppData\Local\Temp\0730410                         PAGE  110

    5321              $C$DW$502       .dwtag  DW_TAG_member
    5322                      .dwattr $C$DW$502, DW_AT_type(*$C$DW$T$77)
    5323                      .dwattr $C$DW$502, DW_AT_name("vocabulary")
    5324                      .dwattr $C$DW$502, DW_AT_TI_symbol_name("_vocabulary")
    5325                      .dwattr $C$DW$502, DW_AT_data_member_location[DW_OP_plus_uconst 0x4ba]
    5326                      .dwattr $C$DW$502, DW_AT_accessibility(DW_ACCESS_public)
    5327              $C$DW$503       .dwtag  DW_TAG_member
    5328                      .dwattr $C$DW$503, DW_AT_type(*$C$DW$T$21)
    5329                      .dwattr $C$DW$503, DW_AT_name("scale_feat")
    5330                      .dwattr $C$DW$503, DW_AT_TI_symbol_name("_scale_feat")
    5331                      .dwattr $C$DW$503, DW_AT_data_member_location[DW_OP_plus_uconst 0x4bc]
    5332                      .dwattr $C$DW$503, DW_AT_accessibility(DW_ACCESS_public)
    5333              $C$DW$504       .dwtag  DW_TAG_member
    5334                      .dwattr $C$DW$504, DW_AT_type(*$C$DW$T$78)
    5335                      .dwattr $C$DW$504, DW_AT_name("muScaleP2")
    5336                      .dwattr $C$DW$504, DW_AT_TI_symbol_name("_muScaleP2")
    5337                      .dwattr $C$DW$504, DW_AT_data_member_location[DW_OP_plus_uconst 0x4be]
    5338                      .dwattr $C$DW$504, DW_AT_accessibility(DW_ACCESS_public)
    5339              $C$DW$505       .dwtag  DW_TAG_member
    5340                      .dwattr $C$DW$505, DW_AT_type(*$C$DW$T$79)
    5341                      .dwattr $C$DW$505, DW_AT_name("evalstat")
    5342                      .dwattr $C$DW$505, DW_AT_TI_symbol_name("_evalstat")
    5343                      .dwattr $C$DW$505, DW_AT_data_member_location[DW_OP_plus_uconst 0x4de]
    5344                      .dwattr $C$DW$505, DW_AT_accessibility(DW_ACCESS_public)
    5345              $C$DW$506       .dwtag  DW_TAG_member
    5346                      .dwattr $C$DW$506, DW_AT_type(*$C$DW$T$81)
    5347                      .dwattr $C$DW$506, DW_AT_name("eval")
    5348                      .dwattr $C$DW$506, DW_AT_TI_symbol_name("_eval")
    5349                      .dwattr $C$DW$506, DW_AT_data_member_location[DW_OP_plus_uconst 0x4e8]
    5350                      .dwattr $C$DW$506, DW_AT_accessibility(DW_ACCESS_public)
    5351              $C$DW$507       .dwtag  DW_TAG_member
    5352                      .dwattr $C$DW$507, DW_AT_type(*$C$DW$T$82)
    5353                      .dwattr $C$DW$507, DW_AT_name("sym2pos_map")
    5354                      .dwattr $C$DW$507, DW_AT_TI_symbol_name("_sym2pos_map")
    5355                      .dwattr $C$DW$507, DW_AT_data_member_location[DW_OP_plus_uconst 0x4ee]
    5356                      .dwattr $C$DW$507, DW_AT_accessibility(DW_ACCESS_public)
    5357              $C$DW$508       .dwtag  DW_TAG_member
    5358                      .dwattr $C$DW$508, DW_AT_type(*$C$DW$T$8)
    5359                      .dwattr $C$DW$508, DW_AT_name("best_cur_scr")
    5360                      .dwattr $C$DW$508, DW_AT_TI_symbol_name("_best_cur_scr")
    5361                      .dwattr $C$DW$508, DW_AT_data_member_location[DW_OP_plus_uconst 0x4f4]
    5362                      .dwattr $C$DW$508, DW_AT_accessibility(DW_ACCESS_public)
    5363              $C$DW$509       .dwtag  DW_TAG_member
    5364                      .dwattr $C$DW$509, DW_AT_type(*$C$DW$T$8)
    5365                      .dwattr $C$DW$509, DW_AT_name("best_prev_scr")
    5366                      .dwattr $C$DW$509, DW_AT_TI_symbol_name("_best_prev_scr")
    5367                      .dwattr $C$DW$509, DW_AT_data_member_location[DW_OP_plus_uconst 0x4f5]
    5368                      .dwattr $C$DW$509, DW_AT_accessibility(DW_ACCESS_public)
    5369              $C$DW$510       .dwtag  DW_TAG_member
    5370                      .dwattr $C$DW$510, DW_AT_type(*$C$DW$T$12)
    5371                      .dwattr $C$DW$510, DW_AT_name("cum_best_prev_scr")
    5372                      .dwattr $C$DW$510, DW_AT_TI_symbol_name("_cum_best_prev_scr")
    5373                      .dwattr $C$DW$510, DW_AT_data_member_location[DW_OP_plus_uconst 0x4f6]
    5374                      .dwattr $C$DW$510, DW_AT_accessibility(DW_ACCESS_public)
    5375              $C$DW$511       .dwtag  DW_TAG_member
TMS320C55x Assembler PC v4.4.1 Wed Sep 13 16:33:14 2017

Tools Copyright (c) 1996-2012 Texas Instruments Incorporated
C:\Users\a0221074\AppData\Local\Temp\0730410                         PAGE  111

    5376                      .dwattr $C$DW$511, DW_AT_type(*$C$DW$T$9)
    5377                      .dwattr $C$DW$511, DW_AT_name("best_sym")
    5378                      .dwattr $C$DW$511, DW_AT_TI_symbol_name("_best_sym")
    5379                      .dwattr $C$DW$511, DW_AT_data_member_location[DW_OP_plus_uconst 0x4f8]
    5380                      .dwattr $C$DW$511, DW_AT_accessibility(DW_ACCESS_public)
    5381              $C$DW$512       .dwtag  DW_TAG_member
    5382                      .dwattr $C$DW$512, DW_AT_type(*$C$DW$T$9)
    5383                      .dwattr $C$DW$512, DW_AT_name("best_word")
    5384                      .dwattr $C$DW$512, DW_AT_TI_symbol_name("_best_word")
    5385                      .dwattr $C$DW$512, DW_AT_data_member_location[DW_OP_plus_uconst 0x4f9]
    5386                      .dwattr $C$DW$512, DW_AT_accessibility(DW_ACCESS_public)
    5387              $C$DW$513       .dwtag  DW_TAG_member
    5388                      .dwattr $C$DW$513, DW_AT_type(*$C$DW$T$9)
    5389                      .dwattr $C$DW$513, DW_AT_name("best_word_frm")
    5390                      .dwattr $C$DW$513, DW_AT_TI_symbol_name("_best_word_frm")
    5391                      .dwattr $C$DW$513, DW_AT_data_member_location[DW_OP_plus_uconst 0x4fa]
    5392                      .dwattr $C$DW$513, DW_AT_accessibility(DW_ACCESS_public)
    5393              $C$DW$514       .dwtag  DW_TAG_member
    5394                      .dwattr $C$DW$514, DW_AT_type(*$C$DW$T$9)
    5395                      .dwattr $C$DW$514, DW_AT_name("best_word_gender")
    5396                      .dwattr $C$DW$514, DW_AT_TI_symbol_name("_best_word_gender")
    5397                      .dwattr $C$DW$514, DW_AT_data_member_location[DW_OP_plus_uconst 0x4fb]
    5398                      .dwattr $C$DW$514, DW_AT_accessibility(DW_ACCESS_public)
    5399              $C$DW$515       .dwtag  DW_TAG_member
    5400                      .dwattr $C$DW$515, DW_AT_type(*$C$DW$T$83)
    5401                      .dwattr $C$DW$515, DW_AT_name("nbest")
    5402                      .dwattr $C$DW$515, DW_AT_TI_symbol_name("_nbest")
    5403                      .dwattr $C$DW$515, DW_AT_data_member_location[DW_OP_plus_uconst 0x4fc]
    5404                      .dwattr $C$DW$515, DW_AT_accessibility(DW_ACCESS_public)
    5405              $C$DW$516       .dwtag  DW_TAG_member
    5406                      .dwattr $C$DW$516, DW_AT_type(*$C$DW$T$8)
    5407                      .dwattr $C$DW$516, DW_AT_name("need_compact")
    5408                      .dwattr $C$DW$516, DW_AT_TI_symbol_name("_need_compact")
    5409                      .dwattr $C$DW$516, DW_AT_data_member_location[DW_OP_plus_uconst 0x7af]
    5410                      .dwattr $C$DW$516, DW_AT_accessibility(DW_ACCESS_public)
    5411              $C$DW$517       .dwtag  DW_TAG_member
    5412                      .dwattr $C$DW$517, DW_AT_type(*$C$DW$T$8)
    5413                      .dwattr $C$DW$517, DW_AT_name("word_backtrace")
    5414                      .dwattr $C$DW$517, DW_AT_TI_symbol_name("_word_backtrace")
    5415                      .dwattr $C$DW$517, DW_AT_data_member_location[DW_OP_plus_uconst 0x7b0]
    5416                      .dwattr $C$DW$517, DW_AT_accessibility(DW_ACCESS_public)
    5417              $C$DW$518       .dwtag  DW_TAG_member
    5418                      .dwattr $C$DW$518, DW_AT_type(*$C$DW$T$12)
    5419                      .dwattr $C$DW$518, DW_AT_name("best_sym_scr")
    5420                      .dwattr $C$DW$518, DW_AT_TI_symbol_name("_best_sym_scr")
    5421                      .dwattr $C$DW$518, DW_AT_data_member_location[DW_OP_plus_uconst 0x7b2]
    5422                      .dwattr $C$DW$518, DW_AT_accessibility(DW_ACCESS_public)
    5423              $C$DW$519       .dwtag  DW_TAG_member
    5424                      .dwattr $C$DW$519, DW_AT_type(*$C$DW$T$9)
    5425                      .dwattr $C$DW$519, DW_AT_name("next_time")
    5426                      .dwattr $C$DW$519, DW_AT_TI_symbol_name("_next_time")
    5427                      .dwattr $C$DW$519, DW_AT_data_member_location[DW_OP_plus_uconst 0x7b4]
    5428                      .dwattr $C$DW$519, DW_AT_accessibility(DW_ACCESS_public)
    5429              $C$DW$520       .dwtag  DW_TAG_member
    5430                      .dwattr $C$DW$520, DW_AT_type(*$C$DW$T$9)
TMS320C55x Assembler PC v4.4.1 Wed Sep 13 16:33:14 2017

Tools Copyright (c) 1996-2012 Texas Instruments Incorporated
C:\Users\a0221074\AppData\Local\Temp\0730410                         PAGE  112

    5431                      .dwattr $C$DW$520, DW_AT_name("last_beam_cell")
    5432                      .dwattr $C$DW$520, DW_AT_TI_symbol_name("_last_beam_cell")
    5433                      .dwattr $C$DW$520, DW_AT_data_member_location[DW_OP_plus_uconst 0x7b5]
    5434                      .dwattr $C$DW$520, DW_AT_accessibility(DW_ACCESS_public)
    5435              $C$DW$521       .dwtag  DW_TAG_member
    5436                      .dwattr $C$DW$521, DW_AT_type(*$C$DW$T$20)
    5437                      .dwattr $C$DW$521, DW_AT_name("max_state_cell")
    5438                      .dwattr $C$DW$521, DW_AT_TI_symbol_name("_max_state_cell")
    5439                      .dwattr $C$DW$521, DW_AT_data_member_location[DW_OP_plus_uconst 0x7b6]
    5440                      .dwattr $C$DW$521, DW_AT_accessibility(DW_ACCESS_public)
    5441              $C$DW$522       .dwtag  DW_TAG_member
    5442                      .dwattr $C$DW$522, DW_AT_type(*$C$DW$T$20)
    5443                      .dwattr $C$DW$522, DW_AT_name("max_beam_cell")
    5444                      .dwattr $C$DW$522, DW_AT_TI_symbol_name("_max_beam_cell")
    5445                      .dwattr $C$DW$522, DW_AT_data_member_location[DW_OP_plus_uconst 0x7b7]
    5446                      .dwattr $C$DW$522, DW_AT_accessibility(DW_ACCESS_public)
    5447              $C$DW$523       .dwtag  DW_TAG_member
    5448                      .dwattr $C$DW$523, DW_AT_type(*$C$DW$T$20)
    5449                      .dwattr $C$DW$523, DW_AT_name("max_time_cell")
    5450                      .dwattr $C$DW$523, DW_AT_TI_symbol_name("_max_time_cell")
    5451                      .dwattr $C$DW$523, DW_AT_data_member_location[DW_OP_plus_uconst 0x7b8]
    5452                      .dwattr $C$DW$523, DW_AT_accessibility(DW_ACCESS_public)
    5453              $C$DW$524       .dwtag  DW_TAG_member
    5454                      .dwattr $C$DW$524, DW_AT_type(*$C$DW$T$20)
    5455                      .dwattr $C$DW$524, DW_AT_name("max_sym_cell2")
    5456                      .dwattr $C$DW$524, DW_AT_TI_symbol_name("_max_sym_cell2")
    5457                      .dwattr $C$DW$524, DW_AT_data_member_location[DW_OP_plus_uconst 0x7b9]
    5458                      .dwattr $C$DW$524, DW_AT_accessibility(DW_ACCESS_public)
    5459              $C$DW$525       .dwtag  DW_TAG_member
    5460                      .dwattr $C$DW$525, DW_AT_type(*$C$DW$T$84)
    5461                      .dwattr $C$DW$525, DW_AT_name("time_table_idx")
    5462                      .dwattr $C$DW$525, DW_AT_TI_symbol_name("_time_table_idx")
    5463                      .dwattr $C$DW$525, DW_AT_data_member_location[DW_OP_plus_uconst 0x7ba]
    5464                      .dwattr $C$DW$525, DW_AT_accessibility(DW_ACCESS_public)
    5465              $C$DW$526       .dwtag  DW_TAG_member
    5466                      .dwattr $C$DW$526, DW_AT_type(*$C$DW$T$22)
    5467                      .dwattr $C$DW$526, DW_AT_name("answer")
    5468                      .dwattr $C$DW$526, DW_AT_TI_symbol_name("_answer")
    5469                      .dwattr $C$DW$526, DW_AT_data_member_location[DW_OP_plus_uconst 0x7ce]
    5470                      .dwattr $C$DW$526, DW_AT_accessibility(DW_ACCESS_public)
    5471              $C$DW$527       .dwtag  DW_TAG_member
    5472                      .dwattr $C$DW$527, DW_AT_type(*$C$DW$T$20)
    5473                      .dwattr $C$DW$527, DW_AT_name("nbr_ans")
    5474                      .dwattr $C$DW$527, DW_AT_TI_symbol_name("_nbr_ans")
    5475                      .dwattr $C$DW$527, DW_AT_data_member_location[DW_OP_plus_uconst 0x7d0]
    5476                      .dwattr $C$DW$527, DW_AT_accessibility(DW_ACCESS_public)
    5477              $C$DW$528       .dwtag  DW_TAG_member
    5478                      .dwattr $C$DW$528, DW_AT_type(*$C$DW$T$22)
    5479                      .dwattr $C$DW$528, DW_AT_name("mem_feature")
    5480                      .dwattr $C$DW$528, DW_AT_TI_symbol_name("_mem_feature")
    5481                      .dwattr $C$DW$528, DW_AT_data_member_location[DW_OP_plus_uconst 0x7d2]
    5482                      .dwattr $C$DW$528, DW_AT_accessibility(DW_ACCESS_public)
    5483              $C$DW$529       .dwtag  DW_TAG_member
    5484                      .dwattr $C$DW$529, DW_AT_type(*$C$DW$T$85)
    5485                      .dwattr $C$DW$529, DW_AT_name("total_frames")
TMS320C55x Assembler PC v4.4.1 Wed Sep 13 16:33:14 2017

Tools Copyright (c) 1996-2012 Texas Instruments Incorporated
C:\Users\a0221074\AppData\Local\Temp\0730410                         PAGE  113

    5486                      .dwattr $C$DW$529, DW_AT_TI_symbol_name("_total_frames")
    5487                      .dwattr $C$DW$529, DW_AT_data_member_location[DW_OP_plus_uconst 0x7d4]
    5488                      .dwattr $C$DW$529, DW_AT_accessibility(DW_ACCESS_public)
    5489              $C$DW$530       .dwtag  DW_TAG_member
    5490                      .dwattr $C$DW$530, DW_AT_type(*$C$DW$T$8)
    5491                      .dwattr $C$DW$530, DW_AT_name("nbr_loaded_utter")
    5492                      .dwattr $C$DW$530, DW_AT_TI_symbol_name("_nbr_loaded_utter")
    5493                      .dwattr $C$DW$530, DW_AT_data_member_location[DW_OP_plus_uconst 0x7d6]
    5494                      .dwattr $C$DW$530, DW_AT_accessibility(DW_ACCESS_public)
    5495              $C$DW$531       .dwtag  DW_TAG_member
    5496                      .dwattr $C$DW$531, DW_AT_type(*$C$DW$T$20)
    5497                      .dwattr $C$DW$531, DW_AT_name("mem_start_frame")
    5498                      .dwattr $C$DW$531, DW_AT_TI_symbol_name("_mem_start_frame")
    5499                      .dwattr $C$DW$531, DW_AT_data_member_location[DW_OP_plus_uconst 0x7d7]
    5500                      .dwattr $C$DW$531, DW_AT_accessibility(DW_ACCESS_public)
    5501              $C$DW$532       .dwtag  DW_TAG_member
    5502                      .dwattr $C$DW$532, DW_AT_type(*$C$DW$T$21)
    5503                      .dwattr $C$DW$532, DW_AT_name("offline_vq")
    5504                      .dwattr $C$DW$532, DW_AT_TI_symbol_name("_offline_vq")
    5505                      .dwattr $C$DW$532, DW_AT_data_member_location[DW_OP_plus_uconst 0x7d8]
    5506                      .dwattr $C$DW$532, DW_AT_accessibility(DW_ACCESS_public)
    5507              $C$DW$533       .dwtag  DW_TAG_member
    5508                      .dwattr $C$DW$533, DW_AT_type(*$C$DW$T$87)
    5509                      .dwattr $C$DW$533, DW_AT_name("pNss")
    5510                      .dwattr $C$DW$533, DW_AT_TI_symbol_name("_pNss")
    5511                      .dwattr $C$DW$533, DW_AT_data_member_location[DW_OP_plus_uconst 0x7da]
    5512                      .dwattr $C$DW$533, DW_AT_accessibility(DW_ACCESS_public)
    5513              $C$DW$534       .dwtag  DW_TAG_member
    5514                      .dwattr $C$DW$534, DW_AT_type(*$C$DW$T$8)
    5515                      .dwattr $C$DW$534, DW_AT_name("cm_score")
    5516                      .dwattr $C$DW$534, DW_AT_TI_symbol_name("_cm_score")
    5517                      .dwattr $C$DW$534, DW_AT_data_member_location[DW_OP_plus_uconst 0x7dc]
    5518                      .dwattr $C$DW$534, DW_AT_accessibility(DW_ACCESS_public)
    5519              $C$DW$535       .dwtag  DW_TAG_member
    5520                      .dwattr $C$DW$535, DW_AT_type(*$C$DW$T$89)
    5521                      .dwattr $C$DW$535, DW_AT_name("pConf")
    5522                      .dwattr $C$DW$535, DW_AT_TI_symbol_name("_pConf")
    5523                      .dwattr $C$DW$535, DW_AT_data_member_location[DW_OP_plus_uconst 0x7de]
    5524                      .dwattr $C$DW$535, DW_AT_accessibility(DW_ACCESS_public)
    5525              $C$DW$536       .dwtag  DW_TAG_member
    5526                      .dwattr $C$DW$536, DW_AT_type(*$C$DW$T$76)
    5527                      .dwattr $C$DW$536, DW_AT_name("trans_bk")
    5528                      .dwattr $C$DW$536, DW_AT_TI_symbol_name("_trans_bk")
    5529                      .dwattr $C$DW$536, DW_AT_data_member_location[DW_OP_plus_uconst 0x7e0]
    5530                      .dwattr $C$DW$536, DW_AT_accessibility(DW_ACCESS_public)
    5531              $C$DW$537       .dwtag  DW_TAG_member
    5532                      .dwattr $C$DW$537, DW_AT_type(*$C$DW$T$21)
    5533                      .dwattr $C$DW$537, DW_AT_name("base_net_bk")
    5534                      .dwattr $C$DW$537, DW_AT_TI_symbol_name("_base_net_bk")
    5535                      .dwattr $C$DW$537, DW_AT_data_member_location[DW_OP_plus_uconst 0x7e2]
    5536                      .dwattr $C$DW$537, DW_AT_accessibility(DW_ACCESS_public)
    5537              $C$DW$538       .dwtag  DW_TAG_member
    5538                      .dwattr $C$DW$538, DW_AT_type(*$C$DW$T$8)
    5539                      .dwattr $C$DW$538, DW_AT_name("nbr_ans_bk")
    5540                      .dwattr $C$DW$538, DW_AT_TI_symbol_name("_nbr_ans_bk")
TMS320C55x Assembler PC v4.4.1 Wed Sep 13 16:33:14 2017

Tools Copyright (c) 1996-2012 Texas Instruments Incorporated
C:\Users\a0221074\AppData\Local\Temp\0730410                         PAGE  114

    5541                      .dwattr $C$DW$538, DW_AT_data_member_location[DW_OP_plus_uconst 0x7e4]
    5542                      .dwattr $C$DW$538, DW_AT_accessibility(DW_ACCESS_public)
    5543              $C$DW$539       .dwtag  DW_TAG_member
    5544                      .dwattr $C$DW$539, DW_AT_type(*$C$DW$T$84)
    5545                      .dwattr $C$DW$539, DW_AT_name("answer_bk")
    5546                      .dwattr $C$DW$539, DW_AT_TI_symbol_name("_answer_bk")
    5547                      .dwattr $C$DW$539, DW_AT_data_member_location[DW_OP_plus_uconst 0x7e5]
    5548                      .dwattr $C$DW$539, DW_AT_accessibility(DW_ACCESS_public)
    5549              $C$DW$540       .dwtag  DW_TAG_member
    5550                      .dwattr $C$DW$540, DW_AT_type(*$C$DW$T$11)
    5551                      .dwattr $C$DW$540, DW_AT_name("FramesQueued")
    5552                      .dwattr $C$DW$540, DW_AT_TI_symbol_name("_FramesQueued")
    5553                      .dwattr $C$DW$540, DW_AT_data_member_location[DW_OP_plus_uconst 0x7f9]
    5554                      .dwattr $C$DW$540, DW_AT_accessibility(DW_ACCESS_public)
    5555              $C$DW$541       .dwtag  DW_TAG_member
    5556                      .dwattr $C$DW$541, DW_AT_type(*$C$DW$T$11)
    5557                      .dwattr $C$DW$541, DW_AT_name("prev_FramesQueued")
    5558                      .dwattr $C$DW$541, DW_AT_TI_symbol_name("_prev_FramesQueued")
    5559                      .dwattr $C$DW$541, DW_AT_data_member_location[DW_OP_plus_uconst 0x7fa]
    5560                      .dwattr $C$DW$541, DW_AT_accessibility(DW_ACCESS_public)
    5561              $C$DW$542       .dwtag  DW_TAG_member
    5562                      .dwattr $C$DW$542, DW_AT_type(*$C$DW$T$8)
    5563                      .dwattr $C$DW$542, DW_AT_name("guard")
    5564                      .dwattr $C$DW$542, DW_AT_TI_symbol_name("_guard")
    5565                      .dwattr $C$DW$542, DW_AT_data_member_location[DW_OP_plus_uconst 0x7fb]
    5566                      .dwattr $C$DW$542, DW_AT_accessibility(DW_ACCESS_public)
    5567              $C$DW$543       .dwtag  DW_TAG_member
    5568                      .dwattr $C$DW$543, DW_AT_type(*$C$DW$T$8)
    5569                      .dwattr $C$DW$543, DW_AT_name("realtime_th")
    5570                      .dwattr $C$DW$543, DW_AT_TI_symbol_name("_realtime_th")
    5571                      .dwattr $C$DW$543, DW_AT_data_member_location[DW_OP_plus_uconst 0x7fc]
    5572                      .dwattr $C$DW$543, DW_AT_accessibility(DW_ACCESS_public)
    5573              $C$DW$544       .dwtag  DW_TAG_member
    5574                      .dwattr $C$DW$544, DW_AT_type(*$C$DW$T$8)
    5575                      .dwattr $C$DW$544, DW_AT_name("realt_guard")
    5576                      .dwattr $C$DW$544, DW_AT_TI_symbol_name("_realt_guard")
    5577                      .dwattr $C$DW$544, DW_AT_data_member_location[DW_OP_plus_uconst 0x7fd]
    5578                      .dwattr $C$DW$544, DW_AT_accessibility(DW_ACCESS_public)
    5579                      .dwendtag $C$DW$T$90
    5580              
    5581              $C$DW$T$97      .dwtag  DW_TAG_typedef, DW_AT_name("gmhmm_type")
    5582                      .dwattr $C$DW$T$97, DW_AT_type(*$C$DW$T$90)
    5583                      .dwattr $C$DW$T$97, DW_AT_language(DW_LANG_C)
    5584              $C$DW$545       .dwtag  DW_TAG_TI_far_type
    5585                      .dwattr $C$DW$545, DW_AT_type(*$C$DW$T$97)
    5586              $C$DW$T$98      .dwtag  DW_TAG_const_type
    5587                      .dwattr $C$DW$T$98, DW_AT_type(*$C$DW$545)
    5588              $C$DW$T$99      .dwtag  DW_TAG_pointer_type
    5589                      .dwattr $C$DW$T$99, DW_AT_type(*$C$DW$T$98)
    5590                      .dwattr $C$DW$T$99, DW_AT_address_class(0x17)
    5591                      .dwattr $C$DW$CU, DW_AT_language(DW_LANG_C)
    5592              
    5593              ;***************************************************************
    5594              ;* DWARF CIE ENTRIES                                           *
    5595              ;***************************************************************
TMS320C55x Assembler PC v4.4.1 Wed Sep 13 16:33:14 2017

Tools Copyright (c) 1996-2012 Texas Instruments Incorporated
C:\Users\a0221074\AppData\Local\Temp\0730410                         PAGE  115

    5596              
    5597              $C$DW$CIE       .dwcie 91
    5598                      .dwcfi  cfa_register, 36
    5599                      .dwcfi  cfa_offset, 0
    5600                      .dwcfi  undefined, 0
    5601                      .dwcfi  undefined, 1
    5602                      .dwcfi  undefined, 2
    5603                      .dwcfi  undefined, 3
    5604                      .dwcfi  undefined, 4
    5605                      .dwcfi  undefined, 5
    5606                      .dwcfi  undefined, 6
    5607                      .dwcfi  undefined, 7
    5608                      .dwcfi  undefined, 8
    5609                      .dwcfi  undefined, 9
    5610                      .dwcfi  undefined, 10
    5611                      .dwcfi  undefined, 11
    5612                      .dwcfi  undefined, 12
    5613                      .dwcfi  undefined, 13
    5614                      .dwcfi  same_value, 14
    5615                      .dwcfi  same_value, 15
    5616                      .dwcfi  undefined, 16
    5617                      .dwcfi  undefined, 17
    5618                      .dwcfi  undefined, 18
    5619                      .dwcfi  undefined, 19
    5620                      .dwcfi  undefined, 20
    5621                      .dwcfi  undefined, 21
    5622                      .dwcfi  undefined, 22
    5623                      .dwcfi  undefined, 23
    5624                      .dwcfi  undefined, 24
    5625                      .dwcfi  undefined, 25
    5626                      .dwcfi  same_value, 26
    5627                      .dwcfi  same_value, 27
    5628                      .dwcfi  same_value, 28
    5629                      .dwcfi  same_value, 29
    5630                      .dwcfi  same_value, 30
    5631                      .dwcfi  same_value, 31
    5632                      .dwcfi  undefined, 32
    5633                      .dwcfi  undefined, 33
    5634                      .dwcfi  undefined, 34
    5635                      .dwcfi  undefined, 35
    5636                      .dwcfi  undefined, 36
    5637                      .dwcfi  undefined, 37
    5638                      .dwcfi  undefined, 38
    5639                      .dwcfi  undefined, 39
    5640                      .dwcfi  undefined, 40
    5641                      .dwcfi  undefined, 41
    5642                      .dwcfi  undefined, 42
    5643                      .dwcfi  undefined, 43
    5644                      .dwcfi  undefined, 44
    5645                      .dwcfi  undefined, 45
    5646                      .dwcfi  undefined, 46
    5647                      .dwcfi  undefined, 47
    5648                      .dwcfi  undefined, 48
    5649                      .dwcfi  undefined, 49
    5650                      .dwcfi  undefined, 50
TMS320C55x Assembler PC v4.4.1 Wed Sep 13 16:33:14 2017

Tools Copyright (c) 1996-2012 Texas Instruments Incorporated
C:\Users\a0221074\AppData\Local\Temp\0730410                         PAGE  116

    5651                      .dwcfi  undefined, 51
    5652                      .dwcfi  undefined, 52
    5653                      .dwcfi  undefined, 53
    5654                      .dwcfi  undefined, 54
    5655                      .dwcfi  undefined, 55
    5656                      .dwcfi  undefined, 56
    5657                      .dwcfi  undefined, 57
    5658                      .dwcfi  undefined, 58
    5659                      .dwcfi  undefined, 59
    5660                      .dwcfi  undefined, 60
    5661                      .dwcfi  undefined, 61
    5662                      .dwcfi  undefined, 62
    5663                      .dwcfi  undefined, 63
    5664                      .dwcfi  undefined, 64
    5665                      .dwcfi  undefined, 65
    5666                      .dwcfi  undefined, 66
    5667                      .dwcfi  undefined, 67
    5668                      .dwcfi  undefined, 68
    5669                      .dwcfi  undefined, 69
    5670                      .dwcfi  undefined, 70
    5671                      .dwcfi  undefined, 71
    5672                      .dwcfi  undefined, 72
    5673                      .dwcfi  undefined, 73
    5674                      .dwcfi  undefined, 74
    5675                      .dwcfi  undefined, 75
    5676                      .dwcfi  undefined, 76
    5677                      .dwcfi  undefined, 77
    5678                      .dwcfi  undefined, 78
    5679                      .dwcfi  undefined, 79
    5680                      .dwcfi  undefined, 80
    5681                      .dwcfi  undefined, 81
    5682                      .dwcfi  undefined, 82
    5683                      .dwcfi  undefined, 83
    5684                      .dwcfi  undefined, 84
    5685                      .dwcfi  undefined, 85
    5686                      .dwcfi  undefined, 86
    5687                      .dwcfi  undefined, 87
    5688                      .dwcfi  undefined, 88
    5689                      .dwcfi  undefined, 89
    5690                      .dwcfi  undefined, 90
    5691                      .dwcfi  undefined, 91
    5692                      .dwendentry
    5693              
    5694              ;***************************************************************
    5695              ;* DWARF REGISTER MAP                                          *
    5696              ;***************************************************************
    5697              
    5698              $C$DW$546       .dwtag  DW_TAG_TI_assign_register, DW_AT_name("AC0")
    5699                      .dwattr $C$DW$546, DW_AT_location[DW_OP_reg0]
    5700              $C$DW$547       .dwtag  DW_TAG_TI_assign_register, DW_AT_name("AC0")
    5701                      .dwattr $C$DW$547, DW_AT_location[DW_OP_reg1]
    5702              $C$DW$548       .dwtag  DW_TAG_TI_assign_register, DW_AT_name("AC0_G")
    5703                      .dwattr $C$DW$548, DW_AT_location[DW_OP_reg2]
    5704              $C$DW$549       .dwtag  DW_TAG_TI_assign_register, DW_AT_name("AC1")
    5705                      .dwattr $C$DW$549, DW_AT_location[DW_OP_reg3]
TMS320C55x Assembler PC v4.4.1 Wed Sep 13 16:33:14 2017

Tools Copyright (c) 1996-2012 Texas Instruments Incorporated
C:\Users\a0221074\AppData\Local\Temp\0730410                         PAGE  117

    5706              $C$DW$550       .dwtag  DW_TAG_TI_assign_register, DW_AT_name("AC1")
    5707                      .dwattr $C$DW$550, DW_AT_location[DW_OP_reg4]
    5708              $C$DW$551       .dwtag  DW_TAG_TI_assign_register, DW_AT_name("AC1_G")
    5709                      .dwattr $C$DW$551, DW_AT_location[DW_OP_reg5]
    5710              $C$DW$552       .dwtag  DW_TAG_TI_assign_register, DW_AT_name("AC2")
    5711                      .dwattr $C$DW$552, DW_AT_location[DW_OP_reg6]
    5712              $C$DW$553       .dwtag  DW_TAG_TI_assign_register, DW_AT_name("AC2")
    5713                      .dwattr $C$DW$553, DW_AT_location[DW_OP_reg7]
    5714              $C$DW$554       .dwtag  DW_TAG_TI_assign_register, DW_AT_name("AC2_G")
    5715                      .dwattr $C$DW$554, DW_AT_location[DW_OP_reg8]
    5716              $C$DW$555       .dwtag  DW_TAG_TI_assign_register, DW_AT_name("AC3")
    5717                      .dwattr $C$DW$555, DW_AT_location[DW_OP_reg9]
    5718              $C$DW$556       .dwtag  DW_TAG_TI_assign_register, DW_AT_name("AC3")
    5719                      .dwattr $C$DW$556, DW_AT_location[DW_OP_reg10]
    5720              $C$DW$557       .dwtag  DW_TAG_TI_assign_register, DW_AT_name("AC3_G")
    5721                      .dwattr $C$DW$557, DW_AT_location[DW_OP_reg11]
    5722              $C$DW$558       .dwtag  DW_TAG_TI_assign_register, DW_AT_name("T0")
    5723                      .dwattr $C$DW$558, DW_AT_location[DW_OP_reg12]
    5724              $C$DW$559       .dwtag  DW_TAG_TI_assign_register, DW_AT_name("T1")
    5725                      .dwattr $C$DW$559, DW_AT_location[DW_OP_reg13]
    5726              $C$DW$560       .dwtag  DW_TAG_TI_assign_register, DW_AT_name("T2")
    5727                      .dwattr $C$DW$560, DW_AT_location[DW_OP_reg14]
    5728              $C$DW$561       .dwtag  DW_TAG_TI_assign_register, DW_AT_name("T3")
    5729                      .dwattr $C$DW$561, DW_AT_location[DW_OP_reg15]
    5730              $C$DW$562       .dwtag  DW_TAG_TI_assign_register, DW_AT_name("AR0")
    5731                      .dwattr $C$DW$562, DW_AT_location[DW_OP_reg16]
    5732              $C$DW$563       .dwtag  DW_TAG_TI_assign_register, DW_AT_name("XAR0")
    5733                      .dwattr $C$DW$563, DW_AT_location[DW_OP_reg17]
    5734              $C$DW$564       .dwtag  DW_TAG_TI_assign_register, DW_AT_name("AR1")
    5735                      .dwattr $C$DW$564, DW_AT_location[DW_OP_reg18]
    5736              $C$DW$565       .dwtag  DW_TAG_TI_assign_register, DW_AT_name("XAR1")
    5737                      .dwattr $C$DW$565, DW_AT_location[DW_OP_reg19]
    5738              $C$DW$566       .dwtag  DW_TAG_TI_assign_register, DW_AT_name("AR2")
    5739                      .dwattr $C$DW$566, DW_AT_location[DW_OP_reg20]
    5740              $C$DW$567       .dwtag  DW_TAG_TI_assign_register, DW_AT_name("XAR2")
    5741                      .dwattr $C$DW$567, DW_AT_location[DW_OP_reg21]
    5742              $C$DW$568       .dwtag  DW_TAG_TI_assign_register, DW_AT_name("AR3")
    5743                      .dwattr $C$DW$568, DW_AT_location[DW_OP_reg22]
    5744              $C$DW$569       .dwtag  DW_TAG_TI_assign_register, DW_AT_name("XAR3")
    5745                      .dwattr $C$DW$569, DW_AT_location[DW_OP_reg23]
    5746              $C$DW$570       .dwtag  DW_TAG_TI_assign_register, DW_AT_name("AR4")
    5747                      .dwattr $C$DW$570, DW_AT_location[DW_OP_reg24]
    5748              $C$DW$571       .dwtag  DW_TAG_TI_assign_register, DW_AT_name("XAR4")
    5749                      .dwattr $C$DW$571, DW_AT_location[DW_OP_reg25]
    5750              $C$DW$572       .dwtag  DW_TAG_TI_assign_register, DW_AT_name("AR5")
    5751                      .dwattr $C$DW$572, DW_AT_location[DW_OP_reg26]
    5752              $C$DW$573       .dwtag  DW_TAG_TI_assign_register, DW_AT_name("XAR5")
    5753                      .dwattr $C$DW$573, DW_AT_location[DW_OP_reg27]
    5754              $C$DW$574       .dwtag  DW_TAG_TI_assign_register, DW_AT_name("AR6")
    5755                      .dwattr $C$DW$574, DW_AT_location[DW_OP_reg28]
    5756              $C$DW$575       .dwtag  DW_TAG_TI_assign_register, DW_AT_name("XAR6")
    5757                      .dwattr $C$DW$575, DW_AT_location[DW_OP_reg29]
    5758              $C$DW$576       .dwtag  DW_TAG_TI_assign_register, DW_AT_name("AR7")
    5759                      .dwattr $C$DW$576, DW_AT_location[DW_OP_reg30]
    5760              $C$DW$577       .dwtag  DW_TAG_TI_assign_register, DW_AT_name("XAR7")
TMS320C55x Assembler PC v4.4.1 Wed Sep 13 16:33:14 2017

Tools Copyright (c) 1996-2012 Texas Instruments Incorporated
C:\Users\a0221074\AppData\Local\Temp\0730410                         PAGE  118

    5761                      .dwattr $C$DW$577, DW_AT_location[DW_OP_reg31]
    5762              $C$DW$578       .dwtag  DW_TAG_TI_assign_register, DW_AT_name("FP")
    5763                      .dwattr $C$DW$578, DW_AT_location[DW_OP_regx 0x20]
    5764              $C$DW$579       .dwtag  DW_TAG_TI_assign_register, DW_AT_name("XFP")
    5765                      .dwattr $C$DW$579, DW_AT_location[DW_OP_regx 0x21]
    5766              $C$DW$580       .dwtag  DW_TAG_TI_assign_register, DW_AT_name("PC")
    5767                      .dwattr $C$DW$580, DW_AT_location[DW_OP_regx 0x22]
    5768              $C$DW$581       .dwtag  DW_TAG_TI_assign_register, DW_AT_name("SP")
    5769                      .dwattr $C$DW$581, DW_AT_location[DW_OP_regx 0x23]
    5770              $C$DW$582       .dwtag  DW_TAG_TI_assign_register, DW_AT_name("XSP")
    5771                      .dwattr $C$DW$582, DW_AT_location[DW_OP_regx 0x24]
    5772              $C$DW$583       .dwtag  DW_TAG_TI_assign_register, DW_AT_name("BKC")
    5773                      .dwattr $C$DW$583, DW_AT_location[DW_OP_regx 0x25]
    5774              $C$DW$584       .dwtag  DW_TAG_TI_assign_register, DW_AT_name("BK03")
    5775                      .dwattr $C$DW$584, DW_AT_location[DW_OP_regx 0x26]
    5776              $C$DW$585       .dwtag  DW_TAG_TI_assign_register, DW_AT_name("BK47")
    5777                      .dwattr $C$DW$585, DW_AT_location[DW_OP_regx 0x27]
    5778              $C$DW$586       .dwtag  DW_TAG_TI_assign_register, DW_AT_name("ST0")
    5779                      .dwattr $C$DW$586, DW_AT_location[DW_OP_regx 0x28]
    5780              $C$DW$587       .dwtag  DW_TAG_TI_assign_register, DW_AT_name("ST1")
    5781                      .dwattr $C$DW$587, DW_AT_location[DW_OP_regx 0x29]
    5782              $C$DW$588       .dwtag  DW_TAG_TI_assign_register, DW_AT_name("ST2")
    5783                      .dwattr $C$DW$588, DW_AT_location[DW_OP_regx 0x2a]
    5784              $C$DW$589       .dwtag  DW_TAG_TI_assign_register, DW_AT_name("ST3")
    5785                      .dwattr $C$DW$589, DW_AT_location[DW_OP_regx 0x2b]
    5786              $C$DW$590       .dwtag  DW_TAG_TI_assign_register, DW_AT_name("MDP")
    5787                      .dwattr $C$DW$590, DW_AT_location[DW_OP_regx 0x2c]
    5788              $C$DW$591       .dwtag  DW_TAG_TI_assign_register, DW_AT_name("MDP05")
    5789                      .dwattr $C$DW$591, DW_AT_location[DW_OP_regx 0x2d]
    5790              $C$DW$592       .dwtag  DW_TAG_TI_assign_register, DW_AT_name("MDP67")
    5791                      .dwattr $C$DW$592, DW_AT_location[DW_OP_regx 0x2e]
    5792              $C$DW$593       .dwtag  DW_TAG_TI_assign_register, DW_AT_name("BRC0")
    5793                      .dwattr $C$DW$593, DW_AT_location[DW_OP_regx 0x2f]
    5794              $C$DW$594       .dwtag  DW_TAG_TI_assign_register, DW_AT_name("RSA0")
    5795                      .dwattr $C$DW$594, DW_AT_location[DW_OP_regx 0x30]
    5796              $C$DW$595       .dwtag  DW_TAG_TI_assign_register, DW_AT_name("RSA0_H")
    5797                      .dwattr $C$DW$595, DW_AT_location[DW_OP_regx 0x31]
    5798              $C$DW$596       .dwtag  DW_TAG_TI_assign_register, DW_AT_name("REA0")
    5799                      .dwattr $C$DW$596, DW_AT_location[DW_OP_regx 0x32]
    5800              $C$DW$597       .dwtag  DW_TAG_TI_assign_register, DW_AT_name("REA0_H")
    5801                      .dwattr $C$DW$597, DW_AT_location[DW_OP_regx 0x33]
    5802              $C$DW$598       .dwtag  DW_TAG_TI_assign_register, DW_AT_name("BRS1")
    5803                      .dwattr $C$DW$598, DW_AT_location[DW_OP_regx 0x34]
    5804              $C$DW$599       .dwtag  DW_TAG_TI_assign_register, DW_AT_name("BRC1")
    5805                      .dwattr $C$DW$599, DW_AT_location[DW_OP_regx 0x35]
    5806              $C$DW$600       .dwtag  DW_TAG_TI_assign_register, DW_AT_name("RSA1")
    5807                      .dwattr $C$DW$600, DW_AT_location[DW_OP_regx 0x36]
    5808              $C$DW$601       .dwtag  DW_TAG_TI_assign_register, DW_AT_name("RSA1_H")
    5809                      .dwattr $C$DW$601, DW_AT_location[DW_OP_regx 0x37]
    5810              $C$DW$602       .dwtag  DW_TAG_TI_assign_register, DW_AT_name("REA1")
    5811                      .dwattr $C$DW$602, DW_AT_location[DW_OP_regx 0x38]
    5812              $C$DW$603       .dwtag  DW_TAG_TI_assign_register, DW_AT_name("REA1_H")
    5813                      .dwattr $C$DW$603, DW_AT_location[DW_OP_regx 0x39]
    5814              $C$DW$604       .dwtag  DW_TAG_TI_assign_register, DW_AT_name("CSR")
    5815                      .dwattr $C$DW$604, DW_AT_location[DW_OP_regx 0x3a]
TMS320C55x Assembler PC v4.4.1 Wed Sep 13 16:33:14 2017

Tools Copyright (c) 1996-2012 Texas Instruments Incorporated
C:\Users\a0221074\AppData\Local\Temp\0730410                         PAGE  119

    5816              $C$DW$605       .dwtag  DW_TAG_TI_assign_register, DW_AT_name("RPTC")
    5817                      .dwattr $C$DW$605, DW_AT_location[DW_OP_regx 0x3b]
    5818              $C$DW$606       .dwtag  DW_TAG_TI_assign_register, DW_AT_name("CDP")
    5819                      .dwattr $C$DW$606, DW_AT_location[DW_OP_regx 0x3c]
    5820              $C$DW$607       .dwtag  DW_TAG_TI_assign_register, DW_AT_name("XCDP")
    5821                      .dwattr $C$DW$607, DW_AT_location[DW_OP_regx 0x3d]
    5822              $C$DW$608       .dwtag  DW_TAG_TI_assign_register, DW_AT_name("TRN0")
    5823                      .dwattr $C$DW$608, DW_AT_location[DW_OP_regx 0x3e]
    5824              $C$DW$609       .dwtag  DW_TAG_TI_assign_register, DW_AT_name("TRN1")
    5825                      .dwattr $C$DW$609, DW_AT_location[DW_OP_regx 0x3f]
    5826              $C$DW$610       .dwtag  DW_TAG_TI_assign_register, DW_AT_name("BSA01")
    5827                      .dwattr $C$DW$610, DW_AT_location[DW_OP_regx 0x40]
    5828              $C$DW$611       .dwtag  DW_TAG_TI_assign_register, DW_AT_name("BSA23")
    5829                      .dwattr $C$DW$611, DW_AT_location[DW_OP_regx 0x41]
    5830              $C$DW$612       .dwtag  DW_TAG_TI_assign_register, DW_AT_name("BSA45")
    5831                      .dwattr $C$DW$612, DW_AT_location[DW_OP_regx 0x42]
    5832              $C$DW$613       .dwtag  DW_TAG_TI_assign_register, DW_AT_name("BSA67")
    5833                      .dwattr $C$DW$613, DW_AT_location[DW_OP_regx 0x43]
    5834              $C$DW$614       .dwtag  DW_TAG_TI_assign_register, DW_AT_name("BSAC")
    5835                      .dwattr $C$DW$614, DW_AT_location[DW_OP_regx 0x44]
    5836              $C$DW$615       .dwtag  DW_TAG_TI_assign_register, DW_AT_name("CARRY")
    5837                      .dwattr $C$DW$615, DW_AT_location[DW_OP_regx 0x45]
    5838              $C$DW$616       .dwtag  DW_TAG_TI_assign_register, DW_AT_name("TC1")
    5839                      .dwattr $C$DW$616, DW_AT_location[DW_OP_regx 0x46]
    5840              $C$DW$617       .dwtag  DW_TAG_TI_assign_register, DW_AT_name("TC2")
    5841                      .dwattr $C$DW$617, DW_AT_location[DW_OP_regx 0x47]
    5842              $C$DW$618       .dwtag  DW_TAG_TI_assign_register, DW_AT_name("M40")
    5843                      .dwattr $C$DW$618, DW_AT_location[DW_OP_regx 0x48]
    5844              $C$DW$619       .dwtag  DW_TAG_TI_assign_register, DW_AT_name("SXMD")
    5845                      .dwattr $C$DW$619, DW_AT_location[DW_OP_regx 0x49]
    5846              $C$DW$620       .dwtag  DW_TAG_TI_assign_register, DW_AT_name("ARMS")
    5847                      .dwattr $C$DW$620, DW_AT_location[DW_OP_regx 0x4a]
    5848              $C$DW$621       .dwtag  DW_TAG_TI_assign_register, DW_AT_name("C54CM")
    5849                      .dwattr $C$DW$621, DW_AT_location[DW_OP_regx 0x4b]
    5850              $C$DW$622       .dwtag  DW_TAG_TI_assign_register, DW_AT_name("SATA")
    5851                      .dwattr $C$DW$622, DW_AT_location[DW_OP_regx 0x4c]
    5852              $C$DW$623       .dwtag  DW_TAG_TI_assign_register, DW_AT_name("SATD")
    5853                      .dwattr $C$DW$623, DW_AT_location[DW_OP_regx 0x4d]
    5854              $C$DW$624       .dwtag  DW_TAG_TI_assign_register, DW_AT_name("RDM")
    5855                      .dwattr $C$DW$624, DW_AT_location[DW_OP_regx 0x4e]
    5856              $C$DW$625       .dwtag  DW_TAG_TI_assign_register, DW_AT_name("FRCT")
    5857                      .dwattr $C$DW$625, DW_AT_location[DW_OP_regx 0x4f]
    5858              $C$DW$626       .dwtag  DW_TAG_TI_assign_register, DW_AT_name("SMUL")
    5859                      .dwattr $C$DW$626, DW_AT_location[DW_OP_regx 0x50]
    5860              $C$DW$627       .dwtag  DW_TAG_TI_assign_register, DW_AT_name("INTM")
    5861                      .dwattr $C$DW$627, DW_AT_location[DW_OP_regx 0x51]
    5862              $C$DW$628       .dwtag  DW_TAG_TI_assign_register, DW_AT_name("AR0LC")
    5863                      .dwattr $C$DW$628, DW_AT_location[DW_OP_regx 0x52]
    5864              $C$DW$629       .dwtag  DW_TAG_TI_assign_register, DW_AT_name("AR1LC")
    5865                      .dwattr $C$DW$629, DW_AT_location[DW_OP_regx 0x53]
    5866              $C$DW$630       .dwtag  DW_TAG_TI_assign_register, DW_AT_name("AR2LC")
    5867                      .dwattr $C$DW$630, DW_AT_location[DW_OP_regx 0x54]
    5868              $C$DW$631       .dwtag  DW_TAG_TI_assign_register, DW_AT_name("AR3LC")
    5869                      .dwattr $C$DW$631, DW_AT_location[DW_OP_regx 0x55]
    5870              $C$DW$632       .dwtag  DW_TAG_TI_assign_register, DW_AT_name("AR4LC")
TMS320C55x Assembler PC v4.4.1 Wed Sep 13 16:33:14 2017

Tools Copyright (c) 1996-2012 Texas Instruments Incorporated
C:\Users\a0221074\AppData\Local\Temp\0730410                         PAGE  120

    5871                      .dwattr $C$DW$632, DW_AT_location[DW_OP_regx 0x56]
    5872              $C$DW$633       .dwtag  DW_TAG_TI_assign_register, DW_AT_name("AR5LC")
    5873                      .dwattr $C$DW$633, DW_AT_location[DW_OP_regx 0x57]
    5874              $C$DW$634       .dwtag  DW_TAG_TI_assign_register, DW_AT_name("AR6LC")
    5875                      .dwattr $C$DW$634, DW_AT_location[DW_OP_regx 0x58]
    5876              $C$DW$635       .dwtag  DW_TAG_TI_assign_register, DW_AT_name("AR7LC")
    5877                      .dwattr $C$DW$635, DW_AT_location[DW_OP_regx 0x59]
    5878              $C$DW$636       .dwtag  DW_TAG_TI_assign_register, DW_AT_name("CDPLC")
    5879                      .dwattr $C$DW$636, DW_AT_location[DW_OP_regx 0x5a]
    5880              $C$DW$637       .dwtag  DW_TAG_TI_assign_register, DW_AT_name("CIE_RETA")
    5881                      .dwattr $C$DW$637, DW_AT_location[DW_OP_regx 0x5b]
    5882                      .dwendtag $C$DW$CU
    5883              
    5883              
    5883              

No Assembly Errors, No Assembly Warnings
