TMS320C55x Assembler PC v4.4.1 Wed Sep 13 16:33:16 2017

Tools Copyright (c) 1996-2012 Texas Instruments Incorporated
C:\Users\a0221074\AppData\Local\Temp\2199210                         PAGE    1

    4242              ; Temporary Registers Used: None
       1              ;*******************************************************************************
       2              ;* TMS320C55x C/C++ Codegen                                          PC v4.4.1 *
       3              ;* Date/Time created: Wed Sep 13 16:33:15 2017                                 *
       4              ;*******************************************************************************
       5                      .compiler_opts --hll_source=on --mem_model:code=flat --mem_model:data=huge --object_format=coff --sil
       6                      .mmregs
       7                      .cpl_on
       8                      .arms_on
       9                      .c54cm_off
      10                      .asg AR6, FP
      11                      .asg XAR6, XFP
      12                      .asg DPH, MDP
      13                      .model call=c55_std
      14                      .model mem=huge
      15                      .noremark 5002  ; code respects overwrite rules
      16              ;*******************************************************************************
      17              ;* GLOBAL FILE PARAMETERS                                                      *
      18              ;*                                                                             *
      19              ;*   Architecture       : TMS320C55x                                           *
      20              ;*   Optimizing for     : Speed                                                *
      21              ;*   Memory             : Huge Model (23-Bit Data Pointers)                    *
      22              ;*   Calls              : Normal Library ASM calls                             *
      23              ;*   Debug Info         : Standard TI Debug Information                        *
      24              ;*******************************************************************************
      25              
      26              $C$DW$CU        .dwtag  DW_TAG_compile_unit
      27                      .dwattr $C$DW$CU, DW_AT_name("C:/Users/a0221074/Desktop/C5000/IBM_Watson_TIdesign_workarea/CSL_bitbuc
      28                      .dwattr $C$DW$CU, DW_AT_producer("TMS320C55x C/C++ Codegen PC v4.4.1 Copyright (c) 1996-2012 Texas In
      29                      .dwattr $C$DW$CU, DW_AT_TI_version(0x01)
      30                      .dwattr $C$DW$CU, DW_AT_comp_dir("C:\Users\a0221074\Desktop\C5000\IBM_Watson_TIdesign_workarea\CSL_bi
      31              
      32              $C$DW$1 .dwtag  DW_TAG_subprogram, DW_AT_name("OpenASR")
      33                      .dwattr $C$DW$1, DW_AT_TI_symbol_name("_OpenASR")
      34                      .dwattr $C$DW$1, DW_AT_type(*$C$DW$T$50)
      35                      .dwattr $C$DW$1, DW_AT_declaration
      36                      .dwattr $C$DW$1, DW_AT_external
      37              $C$DW$2 .dwtag  DW_TAG_formal_parameter
      38                      .dwattr $C$DW$2, DW_AT_type(*$C$DW$T$52)
      39              $C$DW$3 .dwtag  DW_TAG_formal_parameter
      40                      .dwattr $C$DW$3, DW_AT_type(*$C$DW$T$10)
      41              $C$DW$4 .dwtag  DW_TAG_formal_parameter
      42                      .dwattr $C$DW$4, DW_AT_type(*$C$DW$T$176)
      43                      .dwendtag $C$DW$1
      44              
      45              
      46              $C$DW$5 .dwtag  DW_TAG_subprogram, DW_AT_name("CloseASR")
      47                      .dwattr $C$DW$5, DW_AT_TI_symbol_name("_CloseASR")
      48                      .dwattr $C$DW$5, DW_AT_declaration
      49                      .dwattr $C$DW$5, DW_AT_external
      50              $C$DW$6 .dwtag  DW_TAG_formal_parameter
      51                      .dwattr $C$DW$6, DW_AT_type(*$C$DW$T$176)
      52                      .dwendtag $C$DW$5
      53              
      54              
TMS320C55x Assembler PC v4.4.1 Wed Sep 13 16:33:16 2017

Tools Copyright (c) 1996-2012 Texas Instruments Incorporated
C:\Users\a0221074\AppData\Local\Temp\2199210                         PAGE    2

      55              $C$DW$7 .dwtag  DW_TAG_subprogram, DW_AT_name("CallSearchEngine")
      56                      .dwattr $C$DW$7, DW_AT_TI_symbol_name("_CallSearchEngine")
      57                      .dwattr $C$DW$7, DW_AT_type(*$C$DW$T$50)
      58                      .dwattr $C$DW$7, DW_AT_declaration
      59                      .dwattr $C$DW$7, DW_AT_external
      60              $C$DW$8 .dwtag  DW_TAG_formal_parameter
      61                      .dwattr $C$DW$8, DW_AT_type(*$C$DW$T$21)
      62              $C$DW$9 .dwtag  DW_TAG_formal_parameter
      63                      .dwattr $C$DW$9, DW_AT_type(*$C$DW$T$176)
      64              $C$DW$10        .dwtag  DW_TAG_formal_parameter
      65                      .dwattr $C$DW$10, DW_AT_type(*$C$DW$T$11)
      66              $C$DW$11        .dwtag  DW_TAG_formal_parameter
      67                      .dwattr $C$DW$11, DW_AT_type(*$C$DW$T$8)
      68                      .dwendtag $C$DW$7
      69              
      70              
      71              $C$DW$12        .dwtag  DW_TAG_subprogram, DW_AT_name("CloseSearchEngine")
      72                      .dwattr $C$DW$12, DW_AT_TI_symbol_name("_CloseSearchEngine")
      73                      .dwattr $C$DW$12, DW_AT_type(*$C$DW$T$50)
      74                      .dwattr $C$DW$12, DW_AT_declaration
      75                      .dwattr $C$DW$12, DW_AT_external
      76              $C$DW$13        .dwtag  DW_TAG_formal_parameter
      77                      .dwattr $C$DW$13, DW_AT_type(*$C$DW$T$50)
      78              $C$DW$14        .dwtag  DW_TAG_formal_parameter
      79                      .dwattr $C$DW$14, DW_AT_type(*$C$DW$T$176)
      80                      .dwendtag $C$DW$12
      81              
      82              
      83              $C$DW$15        .dwtag  DW_TAG_subprogram, DW_AT_name("GetSearchMemorySize")
      84                      .dwattr $C$DW$15, DW_AT_TI_symbol_name("_GetSearchMemorySize")
      85                      .dwattr $C$DW$15, DW_AT_type(*$C$DW$T$9)
      86                      .dwattr $C$DW$15, DW_AT_declaration
      87                      .dwattr $C$DW$15, DW_AT_external
      88              $C$DW$16        .dwtag  DW_TAG_formal_parameter
      89                      .dwattr $C$DW$16, DW_AT_type(*$C$DW$T$176)
      90                      .dwendtag $C$DW$15
      91              
      92              
      93              $C$DW$17        .dwtag  DW_TAG_subprogram, DW_AT_name("GetMaxFrames")
      94                      .dwattr $C$DW$17, DW_AT_TI_symbol_name("_GetMaxFrames")
      95                      .dwattr $C$DW$17, DW_AT_type(*$C$DW$T$9)
      96                      .dwattr $C$DW$17, DW_AT_declaration
      97                      .dwattr $C$DW$17, DW_AT_external
      98              $C$DW$18        .dwtag  DW_TAG_formal_parameter
      99                      .dwattr $C$DW$18, DW_AT_type(*$C$DW$T$176)
     100                      .dwendtag $C$DW$17
     101              
     102              
     103              $C$DW$19        .dwtag  DW_TAG_subprogram, DW_AT_name("GetFrameCount")
     104                      .dwattr $C$DW$19, DW_AT_TI_symbol_name("_GetFrameCount")
     105                      .dwattr $C$DW$19, DW_AT_type(*$C$DW$T$8)
     106                      .dwattr $C$DW$19, DW_AT_declaration
     107                      .dwattr $C$DW$19, DW_AT_external
     108              $C$DW$20        .dwtag  DW_TAG_formal_parameter
     109                      .dwattr $C$DW$20, DW_AT_type(*$C$DW$T$191)
TMS320C55x Assembler PC v4.4.1 Wed Sep 13 16:33:16 2017

Tools Copyright (c) 1996-2012 Texas Instruments Incorporated
C:\Users\a0221074\AppData\Local\Temp\2199210                         PAGE    3

     110                      .dwendtag $C$DW$19
     111              
     112              
     113              $C$DW$21        .dwtag  DW_TAG_subprogram, DW_AT_name("GetTotalScore")
     114                      .dwattr $C$DW$21, DW_AT_TI_symbol_name("_GetTotalScore")
     115                      .dwattr $C$DW$21, DW_AT_type(*$C$DW$T$12)
     116                      .dwattr $C$DW$21, DW_AT_declaration
     117                      .dwattr $C$DW$21, DW_AT_external
     118              $C$DW$22        .dwtag  DW_TAG_formal_parameter
     119                      .dwattr $C$DW$22, DW_AT_type(*$C$DW$T$191)
     120                      .dwendtag $C$DW$21
     121              
     122              
     123              $C$DW$23        .dwtag  DW_TAG_subprogram, DW_AT_name("GetRealTimeGuardTh")
     124                      .dwattr $C$DW$23, DW_AT_TI_symbol_name("_GetRealTimeGuardTh")
     125                      .dwattr $C$DW$23, DW_AT_declaration
     126                      .dwattr $C$DW$23, DW_AT_external
     127              $C$DW$24        .dwtag  DW_TAG_formal_parameter
     128                      .dwattr $C$DW$24, DW_AT_type(*$C$DW$T$21)
     129              $C$DW$25        .dwtag  DW_TAG_formal_parameter
     130                      .dwattr $C$DW$25, DW_AT_type(*$C$DW$T$176)
     131                      .dwendtag $C$DW$23
     132              
     133              
     134              $C$DW$26        .dwtag  DW_TAG_subprogram, DW_AT_name("GetRealTGuard")
     135                      .dwattr $C$DW$26, DW_AT_TI_symbol_name("_GetRealTGuard")
     136                      .dwattr $C$DW$26, DW_AT_declaration
     137                      .dwattr $C$DW$26, DW_AT_external
     138              $C$DW$27        .dwtag  DW_TAG_formal_parameter
     139                      .dwattr $C$DW$27, DW_AT_type(*$C$DW$T$21)
     140              $C$DW$28        .dwtag  DW_TAG_formal_parameter
     141                      .dwattr $C$DW$28, DW_AT_type(*$C$DW$T$176)
     142                      .dwendtag $C$DW$26
     143              
     144              
     145              $C$DW$29        .dwtag  DW_TAG_subprogram, DW_AT_name("SetRealTimeGuardTh")
     146                      .dwattr $C$DW$29, DW_AT_TI_symbol_name("_SetRealTimeGuardTh")
     147                      .dwattr $C$DW$29, DW_AT_declaration
     148                      .dwattr $C$DW$29, DW_AT_external
     149              $C$DW$30        .dwtag  DW_TAG_formal_parameter
     150                      .dwattr $C$DW$30, DW_AT_type(*$C$DW$T$8)
     151              $C$DW$31        .dwtag  DW_TAG_formal_parameter
     152                      .dwattr $C$DW$31, DW_AT_type(*$C$DW$T$176)
     153                      .dwendtag $C$DW$29
     154              
     155              
     156              $C$DW$32        .dwtag  DW_TAG_subprogram, DW_AT_name("SetRealTGuard")
     157                      .dwattr $C$DW$32, DW_AT_TI_symbol_name("_SetRealTGuard")
     158                      .dwattr $C$DW$32, DW_AT_declaration
     159                      .dwattr $C$DW$32, DW_AT_external
     160              $C$DW$33        .dwtag  DW_TAG_formal_parameter
     161                      .dwattr $C$DW$33, DW_AT_type(*$C$DW$T$8)
     162              $C$DW$34        .dwtag  DW_TAG_formal_parameter
     163                      .dwattr $C$DW$34, DW_AT_type(*$C$DW$T$176)
     164                      .dwendtag $C$DW$32
TMS320C55x Assembler PC v4.4.1 Wed Sep 13 16:33:16 2017

Tools Copyright (c) 1996-2012 Texas Instruments Incorporated
C:\Users\a0221074\AppData\Local\Temp\2199210                         PAGE    4

     165              
     166              
     167              $C$DW$35        .dwtag  DW_TAG_subprogram, DW_AT_name("GetNumNbests")
     168                      .dwattr $C$DW$35, DW_AT_TI_symbol_name("_GetNumNbests")
     169                      .dwattr $C$DW$35, DW_AT_type(*$C$DW$T$20)
     170                      .dwattr $C$DW$35, DW_AT_declaration
     171                      .dwattr $C$DW$35, DW_AT_external
     172              $C$DW$36        .dwtag  DW_TAG_formal_parameter
     173                      .dwattr $C$DW$36, DW_AT_type(*$C$DW$T$191)
     174                      .dwendtag $C$DW$35
     175              
     176              
     177              $C$DW$37        .dwtag  DW_TAG_subprogram, DW_AT_name("GetAnswerCount")
     178                      .dwattr $C$DW$37, DW_AT_TI_symbol_name("_GetAnswerCount")
     179                      .dwattr $C$DW$37, DW_AT_type(*$C$DW$T$20)
     180                      .dwattr $C$DW$37, DW_AT_declaration
     181                      .dwattr $C$DW$37, DW_AT_external
     182              $C$DW$38        .dwtag  DW_TAG_formal_parameter
     183                      .dwattr $C$DW$38, DW_AT_type(*$C$DW$T$191)
     184              $C$DW$39        .dwtag  DW_TAG_formal_parameter
     185                      .dwattr $C$DW$39, DW_AT_type(*$C$DW$T$8)
     186                      .dwendtag $C$DW$37
     187              
     188              
     189              $C$DW$40        .dwtag  DW_TAG_subprogram, DW_AT_name("GetAnswerIndex")
     190                      .dwattr $C$DW$40, DW_AT_TI_symbol_name("_GetAnswerIndex")
     191                      .dwattr $C$DW$40, DW_AT_type(*$C$DW$T$89)
     192                      .dwattr $C$DW$40, DW_AT_declaration
     193                      .dwattr $C$DW$40, DW_AT_external
     194              $C$DW$41        .dwtag  DW_TAG_formal_parameter
     195                      .dwattr $C$DW$41, DW_AT_type(*$C$DW$T$191)
     196              $C$DW$42        .dwtag  DW_TAG_formal_parameter
     197                      .dwattr $C$DW$42, DW_AT_type(*$C$DW$T$8)
     198                      .dwendtag $C$DW$40
     199              
     200              
     201              $C$DW$43        .dwtag  DW_TAG_subprogram, DW_AT_name("GetAnswerWord")
     202                      .dwattr $C$DW$43, DW_AT_TI_symbol_name("_GetAnswerWord")
     203                      .dwattr $C$DW$43, DW_AT_type(*$C$DW$T$70)
     204                      .dwattr $C$DW$43, DW_AT_declaration
     205                      .dwattr $C$DW$43, DW_AT_external
     206              $C$DW$44        .dwtag  DW_TAG_formal_parameter
     207                      .dwattr $C$DW$44, DW_AT_type(*$C$DW$T$9)
     208              $C$DW$45        .dwtag  DW_TAG_formal_parameter
     209                      .dwattr $C$DW$45, DW_AT_type(*$C$DW$T$191)
     210              $C$DW$46        .dwtag  DW_TAG_formal_parameter
     211                      .dwattr $C$DW$46, DW_AT_type(*$C$DW$T$8)
     212                      .dwendtag $C$DW$43
     213              
     214              
     215              $C$DW$47        .dwtag  DW_TAG_subprogram, DW_AT_name("GetConfidenceScore")
     216                      .dwattr $C$DW$47, DW_AT_TI_symbol_name("_GetConfidenceScore")
     217                      .dwattr $C$DW$47, DW_AT_type(*$C$DW$T$8)
     218                      .dwattr $C$DW$47, DW_AT_declaration
     219                      .dwattr $C$DW$47, DW_AT_external
TMS320C55x Assembler PC v4.4.1 Wed Sep 13 16:33:16 2017

Tools Copyright (c) 1996-2012 Texas Instruments Incorporated
C:\Users\a0221074\AppData\Local\Temp\2199210                         PAGE    5

     220              $C$DW$48        .dwtag  DW_TAG_formal_parameter
     221                      .dwattr $C$DW$48, DW_AT_type(*$C$DW$T$191)
     222                      .dwendtag $C$DW$47
     223              
     224              
     225              $C$DW$49        .dwtag  DW_TAG_subprogram, DW_AT_name("GetTIesrGaussSel")
     226                      .dwattr $C$DW$49, DW_AT_TI_symbol_name("_GetTIesrGaussSel")
     227                      .dwattr $C$DW$49, DW_AT_declaration
     228                      .dwattr $C$DW$49, DW_AT_external
     229              $C$DW$50        .dwtag  DW_TAG_formal_parameter
     230                      .dwattr $C$DW$50, DW_AT_type(*$C$DW$T$191)
     231              $C$DW$51        .dwtag  DW_TAG_formal_parameter
     232                      .dwattr $C$DW$51, DW_AT_type(*$C$DW$T$22)
     233              $C$DW$52        .dwtag  DW_TAG_formal_parameter
     234                      .dwattr $C$DW$52, DW_AT_type(*$C$DW$T$22)
     235                      .dwendtag $C$DW$49
     236              
     237              
     238              $C$DW$53        .dwtag  DW_TAG_subprogram, DW_AT_name("SetTIesrGaussSel")
     239                      .dwattr $C$DW$53, DW_AT_TI_symbol_name("_SetTIesrGaussSel")
     240                      .dwattr $C$DW$53, DW_AT_declaration
     241                      .dwattr $C$DW$53, DW_AT_external
     242              $C$DW$54        .dwtag  DW_TAG_formal_parameter
     243                      .dwattr $C$DW$54, DW_AT_type(*$C$DW$T$176)
     244              $C$DW$55        .dwtag  DW_TAG_formal_parameter
     245                      .dwattr $C$DW$55, DW_AT_type(*$C$DW$T$20)
     246              $C$DW$56        .dwtag  DW_TAG_formal_parameter
     247                      .dwattr $C$DW$56, DW_AT_type(*$C$DW$T$20)
     248                      .dwendtag $C$DW$53
     249              
     250              
     251              $C$DW$57        .dwtag  DW_TAG_subprogram, DW_AT_name("SetTIesrNBest")
     252                      .dwattr $C$DW$57, DW_AT_TI_symbol_name("_SetTIesrNBest")
     253                      .dwattr $C$DW$57, DW_AT_declaration
     254                      .dwattr $C$DW$57, DW_AT_external
     255              $C$DW$58        .dwtag  DW_TAG_formal_parameter
     256                      .dwattr $C$DW$58, DW_AT_type(*$C$DW$T$176)
     257              $C$DW$59        .dwtag  DW_TAG_formal_parameter
     258                      .dwattr $C$DW$59, DW_AT_type(*$C$DW$T$8)
     259                      .dwendtag $C$DW$57
     260              
     261              
     262              $C$DW$60        .dwtag  DW_TAG_subprogram, DW_AT_name("GetTIesrNBest")
     263                      .dwattr $C$DW$60, DW_AT_TI_symbol_name("_GetTIesrNBest")
     264                      .dwattr $C$DW$60, DW_AT_declaration
     265                      .dwattr $C$DW$60, DW_AT_external
     266              $C$DW$61        .dwtag  DW_TAG_formal_parameter
     267                      .dwattr $C$DW$61, DW_AT_type(*$C$DW$T$176)
     268              $C$DW$62        .dwtag  DW_TAG_formal_parameter
     269                      .dwattr $C$DW$62, DW_AT_type(*$C$DW$T$21)
     270                      .dwendtag $C$DW$60
     271              
     272              
     273              $C$DW$63        .dwtag  DW_TAG_subprogram, DW_AT_name("SetTIesrORM")
     274                      .dwattr $C$DW$63, DW_AT_TI_symbol_name("_SetTIesrORM")
TMS320C55x Assembler PC v4.4.1 Wed Sep 13 16:33:16 2017

Tools Copyright (c) 1996-2012 Texas Instruments Incorporated
C:\Users\a0221074\AppData\Local\Temp\2199210                         PAGE    6

     275                      .dwattr $C$DW$63, DW_AT_declaration
     276                      .dwattr $C$DW$63, DW_AT_external
     277              $C$DW$64        .dwtag  DW_TAG_formal_parameter
     278                      .dwattr $C$DW$64, DW_AT_type(*$C$DW$T$8)
     279              $C$DW$65        .dwtag  DW_TAG_formal_parameter
     280                      .dwattr $C$DW$65, DW_AT_type(*$C$DW$T$8)
     281              $C$DW$66        .dwtag  DW_TAG_formal_parameter
     282                      .dwattr $C$DW$66, DW_AT_type(*$C$DW$T$8)
     283              $C$DW$67        .dwtag  DW_TAG_formal_parameter
     284                      .dwattr $C$DW$67, DW_AT_type(*$C$DW$T$8)
     285              $C$DW$68        .dwtag  DW_TAG_formal_parameter
     286                      .dwattr $C$DW$68, DW_AT_type(*$C$DW$T$8)
     287              $C$DW$69        .dwtag  DW_TAG_formal_parameter
     288                      .dwattr $C$DW$69, DW_AT_type(*$C$DW$T$20)
     289              $C$DW$70        .dwtag  DW_TAG_formal_parameter
     290                      .dwattr $C$DW$70, DW_AT_type(*$C$DW$T$8)
     291              $C$DW$71        .dwtag  DW_TAG_formal_parameter
     292                      .dwattr $C$DW$71, DW_AT_type(*$C$DW$T$8)
     293              $C$DW$72        .dwtag  DW_TAG_formal_parameter
     294                      .dwattr $C$DW$72, DW_AT_type(*$C$DW$T$176)
     295                      .dwendtag $C$DW$63
     296              
     297              
     298              $C$DW$73        .dwtag  DW_TAG_subprogram, DW_AT_name("GetTIesrORM")
     299                      .dwattr $C$DW$73, DW_AT_TI_symbol_name("_GetTIesrORM")
     300                      .dwattr $C$DW$73, DW_AT_declaration
     301                      .dwattr $C$DW$73, DW_AT_external
     302              $C$DW$74        .dwtag  DW_TAG_formal_parameter
     303                      .dwattr $C$DW$74, DW_AT_type(*$C$DW$T$21)
     304              $C$DW$75        .dwtag  DW_TAG_formal_parameter
     305                      .dwattr $C$DW$75, DW_AT_type(*$C$DW$T$21)
     306              $C$DW$76        .dwtag  DW_TAG_formal_parameter
     307                      .dwattr $C$DW$76, DW_AT_type(*$C$DW$T$21)
     308              $C$DW$77        .dwtag  DW_TAG_formal_parameter
     309                      .dwattr $C$DW$77, DW_AT_type(*$C$DW$T$21)
     310              $C$DW$78        .dwtag  DW_TAG_formal_parameter
     311                      .dwattr $C$DW$78, DW_AT_type(*$C$DW$T$21)
     312              $C$DW$79        .dwtag  DW_TAG_formal_parameter
     313                      .dwattr $C$DW$79, DW_AT_type(*$C$DW$T$22)
     314              $C$DW$80        .dwtag  DW_TAG_formal_parameter
     315                      .dwattr $C$DW$80, DW_AT_type(*$C$DW$T$21)
     316              $C$DW$81        .dwtag  DW_TAG_formal_parameter
     317                      .dwattr $C$DW$81, DW_AT_type(*$C$DW$T$21)
     318              $C$DW$82        .dwtag  DW_TAG_formal_parameter
     319                      .dwattr $C$DW$82, DW_AT_type(*$C$DW$T$176)
     320                      .dwendtag $C$DW$73
     321              
     322              
     323              $C$DW$83        .dwtag  DW_TAG_subprogram, DW_AT_name("SetTIesrSS")
     324                      .dwattr $C$DW$83, DW_AT_TI_symbol_name("_SetTIesrSS")
     325                      .dwattr $C$DW$83, DW_AT_declaration
     326                      .dwattr $C$DW$83, DW_AT_external
     327              $C$DW$84        .dwtag  DW_TAG_formal_parameter
     328                      .dwattr $C$DW$84, DW_AT_type(*$C$DW$T$20)
     329              $C$DW$85        .dwtag  DW_TAG_formal_parameter
TMS320C55x Assembler PC v4.4.1 Wed Sep 13 16:33:16 2017

Tools Copyright (c) 1996-2012 Texas Instruments Incorporated
C:\Users\a0221074\AppData\Local\Temp\2199210                         PAGE    7

     330                      .dwattr $C$DW$85, DW_AT_type(*$C$DW$T$8)
     331              $C$DW$86        .dwtag  DW_TAG_formal_parameter
     332                      .dwattr $C$DW$86, DW_AT_type(*$C$DW$T$176)
     333                      .dwendtag $C$DW$83
     334              
     335              
     336              $C$DW$87        .dwtag  DW_TAG_subprogram, DW_AT_name("GetTIesrSS")
     337                      .dwattr $C$DW$87, DW_AT_TI_symbol_name("_GetTIesrSS")
     338                      .dwattr $C$DW$87, DW_AT_declaration
     339                      .dwattr $C$DW$87, DW_AT_external
     340              $C$DW$88        .dwtag  DW_TAG_formal_parameter
     341                      .dwattr $C$DW$88, DW_AT_type(*$C$DW$T$22)
     342              $C$DW$89        .dwtag  DW_TAG_formal_parameter
     343                      .dwattr $C$DW$89, DW_AT_type(*$C$DW$T$21)
     344              $C$DW$90        .dwtag  DW_TAG_formal_parameter
     345                      .dwattr $C$DW$90, DW_AT_type(*$C$DW$T$176)
     346                      .dwendtag $C$DW$87
     347              
     348              
     349              $C$DW$91        .dwtag  DW_TAG_subprogram, DW_AT_name("SetTIesrCM")
     350                      .dwattr $C$DW$91, DW_AT_TI_symbol_name("_SetTIesrCM")
     351                      .dwattr $C$DW$91, DW_AT_declaration
     352                      .dwattr $C$DW$91, DW_AT_external
     353              $C$DW$92        .dwtag  DW_TAG_formal_parameter
     354                      .dwattr $C$DW$92, DW_AT_type(*$C$DW$T$8)
     355              $C$DW$93        .dwtag  DW_TAG_formal_parameter
     356                      .dwattr $C$DW$93, DW_AT_type(*$C$DW$T$8)
     357              $C$DW$94        .dwtag  DW_TAG_formal_parameter
     358                      .dwattr $C$DW$94, DW_AT_type(*$C$DW$T$176)
     359                      .dwendtag $C$DW$91
     360              
     361              
     362              $C$DW$95        .dwtag  DW_TAG_subprogram, DW_AT_name("GetTIesrCM")
     363                      .dwattr $C$DW$95, DW_AT_TI_symbol_name("_GetTIesrCM")
     364                      .dwattr $C$DW$95, DW_AT_declaration
     365                      .dwattr $C$DW$95, DW_AT_external
     366              $C$DW$96        .dwtag  DW_TAG_formal_parameter
     367                      .dwattr $C$DW$96, DW_AT_type(*$C$DW$T$21)
     368              $C$DW$97        .dwtag  DW_TAG_formal_parameter
     369                      .dwattr $C$DW$97, DW_AT_type(*$C$DW$T$21)
     370              $C$DW$98        .dwtag  DW_TAG_formal_parameter
     371                      .dwattr $C$DW$98, DW_AT_type(*$C$DW$T$176)
     372                      .dwendtag $C$DW$95
     373              
     374              
     375              $C$DW$99        .dwtag  DW_TAG_subprogram, DW_AT_name("GetCycleCount")
     376                      .dwattr $C$DW$99, DW_AT_TI_symbol_name("_GetCycleCount")
     377                      .dwattr $C$DW$99, DW_AT_type(*$C$DW$T$20)
     378                      .dwattr $C$DW$99, DW_AT_declaration
     379                      .dwattr $C$DW$99, DW_AT_external
     380              $C$DW$100       .dwtag  DW_TAG_formal_parameter
     381                      .dwattr $C$DW$100, DW_AT_type(*$C$DW$T$191)
     382                      .dwendtag $C$DW$99
     383              
     384              
TMS320C55x Assembler PC v4.4.1 Wed Sep 13 16:33:16 2017

Tools Copyright (c) 1996-2012 Texas Instruments Incorporated
C:\Users\a0221074\AppData\Local\Temp\2199210                         PAGE    8

     385              $C$DW$101       .dwtag  DW_TAG_subprogram, DW_AT_name("GetTIesrPrune")
     386                      .dwattr $C$DW$101, DW_AT_TI_symbol_name("_GetTIesrPrune")
     387                      .dwattr $C$DW$101, DW_AT_declaration
     388                      .dwattr $C$DW$101, DW_AT_external
     389              $C$DW$102       .dwtag  DW_TAG_formal_parameter
     390                      .dwattr $C$DW$102, DW_AT_type(*$C$DW$T$191)
     391              $C$DW$103       .dwtag  DW_TAG_formal_parameter
     392                      .dwattr $C$DW$103, DW_AT_type(*$C$DW$T$21)
     393                      .dwendtag $C$DW$101
     394              
     395              
     396              $C$DW$104       .dwtag  DW_TAG_subprogram, DW_AT_name("GetTIesrTransiWeight")
     397                      .dwattr $C$DW$104, DW_AT_TI_symbol_name("_GetTIesrTransiWeight")
     398                      .dwattr $C$DW$104, DW_AT_declaration
     399                      .dwattr $C$DW$104, DW_AT_external
     400              $C$DW$105       .dwtag  DW_TAG_formal_parameter
     401                      .dwattr $C$DW$105, DW_AT_type(*$C$DW$T$191)
     402              $C$DW$106       .dwtag  DW_TAG_formal_parameter
     403                      .dwattr $C$DW$106, DW_AT_type(*$C$DW$T$21)
     404                      .dwendtag $C$DW$104
     405              
     406              
     407              $C$DW$107       .dwtag  DW_TAG_subprogram, DW_AT_name("GetVolumeStatus")
     408                      .dwattr $C$DW$107, DW_AT_TI_symbol_name("_GetVolumeStatus")
     409                      .dwattr $C$DW$107, DW_AT_type(*$C$DW$T$8)
     410                      .dwattr $C$DW$107, DW_AT_declaration
     411                      .dwattr $C$DW$107, DW_AT_external
     412              $C$DW$108       .dwtag  DW_TAG_formal_parameter
     413                      .dwattr $C$DW$108, DW_AT_type(*$C$DW$T$191)
     414                      .dwendtag $C$DW$107
     415              
     416              
     417              $C$DW$109       .dwtag  DW_TAG_subprogram, DW_AT_name("SetTIesrPrune")
     418                      .dwattr $C$DW$109, DW_AT_TI_symbol_name("_SetTIesrPrune")
     419                      .dwattr $C$DW$109, DW_AT_declaration
     420                      .dwattr $C$DW$109, DW_AT_external
     421              $C$DW$110       .dwtag  DW_TAG_formal_parameter
     422                      .dwattr $C$DW$110, DW_AT_type(*$C$DW$T$176)
     423              $C$DW$111       .dwtag  DW_TAG_formal_parameter
     424                      .dwattr $C$DW$111, DW_AT_type(*$C$DW$T$8)
     425                      .dwendtag $C$DW$109
     426              
     427              
     428              $C$DW$112       .dwtag  DW_TAG_subprogram, DW_AT_name("SetTIesrTransiWeight")
     429                      .dwattr $C$DW$112, DW_AT_TI_symbol_name("_SetTIesrTransiWeight")
     430                      .dwattr $C$DW$112, DW_AT_declaration
     431                      .dwattr $C$DW$112, DW_AT_external
     432              $C$DW$113       .dwtag  DW_TAG_formal_parameter
     433                      .dwattr $C$DW$113, DW_AT_type(*$C$DW$T$176)
     434              $C$DW$114       .dwtag  DW_TAG_formal_parameter
     435                      .dwattr $C$DW$114, DW_AT_type(*$C$DW$T$8)
     436                      .dwendtag $C$DW$112
     437              
     438              
     439              $C$DW$115       .dwtag  DW_TAG_subprogram, DW_AT_name("GetTIesrSAD")
TMS320C55x Assembler PC v4.4.1 Wed Sep 13 16:33:16 2017

Tools Copyright (c) 1996-2012 Texas Instruments Incorporated
C:\Users\a0221074\AppData\Local\Temp\2199210                         PAGE    9

     440                      .dwattr $C$DW$115, DW_AT_TI_symbol_name("_GetTIesrSAD")
     441                      .dwattr $C$DW$115, DW_AT_declaration
     442                      .dwattr $C$DW$115, DW_AT_external
     443              $C$DW$116       .dwtag  DW_TAG_formal_parameter
     444                      .dwattr $C$DW$116, DW_AT_type(*$C$DW$T$191)
     445              $C$DW$117       .dwtag  DW_TAG_formal_parameter
     446                      .dwattr $C$DW$117, DW_AT_type(*$C$DW$T$21)
     447              $C$DW$118       .dwtag  DW_TAG_formal_parameter
     448                      .dwattr $C$DW$118, DW_AT_type(*$C$DW$T$21)
     449              $C$DW$119       .dwtag  DW_TAG_formal_parameter
     450                      .dwattr $C$DW$119, DW_AT_type(*$C$DW$T$21)
     451              $C$DW$120       .dwtag  DW_TAG_formal_parameter
     452                      .dwattr $C$DW$120, DW_AT_type(*$C$DW$T$21)
     453              $C$DW$121       .dwtag  DW_TAG_formal_parameter
     454                      .dwattr $C$DW$121, DW_AT_type(*$C$DW$T$21)
     455                      .dwendtag $C$DW$115
     456              
     457              
     458              $C$DW$122       .dwtag  DW_TAG_subprogram, DW_AT_name("SetTIesrSAD")
     459                      .dwattr $C$DW$122, DW_AT_TI_symbol_name("_SetTIesrSAD")
     460                      .dwattr $C$DW$122, DW_AT_declaration
     461                      .dwattr $C$DW$122, DW_AT_external
     462              $C$DW$123       .dwtag  DW_TAG_formal_parameter
     463                      .dwattr $C$DW$123, DW_AT_type(*$C$DW$T$176)
     464              $C$DW$124       .dwtag  DW_TAG_formal_parameter
     465                      .dwattr $C$DW$124, DW_AT_type(*$C$DW$T$8)
     466              $C$DW$125       .dwtag  DW_TAG_formal_parameter
     467                      .dwattr $C$DW$125, DW_AT_type(*$C$DW$T$8)
     468              $C$DW$126       .dwtag  DW_TAG_formal_parameter
     469                      .dwattr $C$DW$126, DW_AT_type(*$C$DW$T$8)
     470              $C$DW$127       .dwtag  DW_TAG_formal_parameter
     471                      .dwattr $C$DW$127, DW_AT_type(*$C$DW$T$8)
     472              $C$DW$128       .dwtag  DW_TAG_formal_parameter
     473                      .dwattr $C$DW$128, DW_AT_type(*$C$DW$T$8)
     474                      .dwendtag $C$DW$122
     475              
     476              
     477              $C$DW$129       .dwtag  DW_TAG_subprogram, DW_AT_name("GetTIesrJAC")
     478                      .dwattr $C$DW$129, DW_AT_TI_symbol_name("_GetTIesrJAC")
     479                      .dwattr $C$DW$129, DW_AT_declaration
     480                      .dwattr $C$DW$129, DW_AT_external
     481              $C$DW$130       .dwtag  DW_TAG_formal_parameter
     482                      .dwattr $C$DW$130, DW_AT_type(*$C$DW$T$191)
     483              $C$DW$131       .dwtag  DW_TAG_formal_parameter
     484                      .dwattr $C$DW$131, DW_AT_type(*$C$DW$T$21)
     485              $C$DW$132       .dwtag  DW_TAG_formal_parameter
     486                      .dwattr $C$DW$132, DW_AT_type(*$C$DW$T$21)
     487              $C$DW$133       .dwtag  DW_TAG_formal_parameter
     488                      .dwattr $C$DW$133, DW_AT_type(*$C$DW$T$21)
     489              $C$DW$134       .dwtag  DW_TAG_formal_parameter
     490                      .dwattr $C$DW$134, DW_AT_type(*$C$DW$T$21)
     491              $C$DW$135       .dwtag  DW_TAG_formal_parameter
     492                      .dwattr $C$DW$135, DW_AT_type(*$C$DW$T$21)
     493              $C$DW$136       .dwtag  DW_TAG_formal_parameter
     494                      .dwattr $C$DW$136, DW_AT_type(*$C$DW$T$21)
TMS320C55x Assembler PC v4.4.1 Wed Sep 13 16:33:16 2017

Tools Copyright (c) 1996-2012 Texas Instruments Incorporated
C:\Users\a0221074\AppData\Local\Temp\2199210                         PAGE   10

     495              $C$DW$137       .dwtag  DW_TAG_formal_parameter
     496                      .dwattr $C$DW$137, DW_AT_type(*$C$DW$T$21)
     497                      .dwendtag $C$DW$129
     498              
     499              
     500              $C$DW$138       .dwtag  DW_TAG_subprogram, DW_AT_name("SetTIesrJAC")
     501                      .dwattr $C$DW$138, DW_AT_TI_symbol_name("_SetTIesrJAC")
     502                      .dwattr $C$DW$138, DW_AT_declaration
     503                      .dwattr $C$DW$138, DW_AT_external
     504              $C$DW$139       .dwtag  DW_TAG_formal_parameter
     505                      .dwattr $C$DW$139, DW_AT_type(*$C$DW$T$176)
     506              $C$DW$140       .dwtag  DW_TAG_formal_parameter
     507                      .dwattr $C$DW$140, DW_AT_type(*$C$DW$T$8)
     508              $C$DW$141       .dwtag  DW_TAG_formal_parameter
     509                      .dwattr $C$DW$141, DW_AT_type(*$C$DW$T$8)
     510              $C$DW$142       .dwtag  DW_TAG_formal_parameter
     511                      .dwattr $C$DW$142, DW_AT_type(*$C$DW$T$8)
     512              $C$DW$143       .dwtag  DW_TAG_formal_parameter
     513                      .dwattr $C$DW$143, DW_AT_type(*$C$DW$T$8)
     514              $C$DW$144       .dwtag  DW_TAG_formal_parameter
     515                      .dwattr $C$DW$144, DW_AT_type(*$C$DW$T$8)
     516              $C$DW$145       .dwtag  DW_TAG_formal_parameter
     517                      .dwattr $C$DW$145, DW_AT_type(*$C$DW$T$8)
     518              $C$DW$146       .dwtag  DW_TAG_formal_parameter
     519                      .dwattr $C$DW$146, DW_AT_type(*$C$DW$T$8)
     520                      .dwendtag $C$DW$138
     521              
     522              
     523              $C$DW$147       .dwtag  DW_TAG_subprogram, DW_AT_name("GetTIesrSBC")
     524                      .dwattr $C$DW$147, DW_AT_TI_symbol_name("_GetTIesrSBC")
     525                      .dwattr $C$DW$147, DW_AT_declaration
     526                      .dwattr $C$DW$147, DW_AT_external
     527              $C$DW$148       .dwtag  DW_TAG_formal_parameter
     528                      .dwattr $C$DW$148, DW_AT_type(*$C$DW$T$191)
     529              $C$DW$149       .dwtag  DW_TAG_formal_parameter
     530                      .dwattr $C$DW$149, DW_AT_type(*$C$DW$T$21)
     531                      .dwendtag $C$DW$147
     532              
     533              
     534              $C$DW$150       .dwtag  DW_TAG_subprogram, DW_AT_name("SetTIesrSBC")
     535                      .dwattr $C$DW$150, DW_AT_TI_symbol_name("_SetTIesrSBC")
     536                      .dwattr $C$DW$150, DW_AT_declaration
     537                      .dwattr $C$DW$150, DW_AT_external
     538              $C$DW$151       .dwtag  DW_TAG_formal_parameter
     539                      .dwattr $C$DW$151, DW_AT_type(*$C$DW$T$176)
     540              $C$DW$152       .dwtag  DW_TAG_formal_parameter
     541                      .dwattr $C$DW$152, DW_AT_type(*$C$DW$T$8)
     542                      .dwendtag $C$DW$150
     543              
     544              
     545              $C$DW$153       .dwtag  DW_TAG_subprogram, DW_AT_name("OpenSearchEngine")
     546                      .dwattr $C$DW$153, DW_AT_TI_symbol_name("_OpenSearchEngine")
     547                      .dwattr $C$DW$153, DW_AT_type(*$C$DW$T$50)
     548                      .dwattr $C$DW$153, DW_AT_declaration
     549                      .dwattr $C$DW$153, DW_AT_external
TMS320C55x Assembler PC v4.4.1 Wed Sep 13 16:33:16 2017

Tools Copyright (c) 1996-2012 Texas Instruments Incorporated
C:\Users\a0221074\AppData\Local\Temp\2199210                         PAGE   11

     550              $C$DW$154       .dwtag  DW_TAG_formal_parameter
     551                      .dwattr $C$DW$154, DW_AT_type(*$C$DW$T$176)
     552                      .dwendtag $C$DW$153
     553              
     554              
     555              $C$DW$155       .dwtag  DW_TAG_subprogram, DW_AT_name("SetTIesrVolRange")
     556                      .dwattr $C$DW$155, DW_AT_TI_symbol_name("_SetTIesrVolRange")
     557                      .dwattr $C$DW$155, DW_AT_declaration
     558                      .dwattr $C$DW$155, DW_AT_external
     559              $C$DW$156       .dwtag  DW_TAG_formal_parameter
     560                      .dwattr $C$DW$156, DW_AT_type(*$C$DW$T$176)
     561              $C$DW$157       .dwtag  DW_TAG_formal_parameter
     562                      .dwattr $C$DW$157, DW_AT_type(*$C$DW$T$9)
     563              $C$DW$158       .dwtag  DW_TAG_formal_parameter
     564                      .dwattr $C$DW$158, DW_AT_type(*$C$DW$T$9)
     565                      .dwendtag $C$DW$155
     566              
     567              
     568              $C$DW$159       .dwtag  DW_TAG_subprogram, DW_AT_name("GetTIesrVolRange")
     569                      .dwattr $C$DW$159, DW_AT_TI_symbol_name("_GetTIesrVolRange")
     570                      .dwattr $C$DW$159, DW_AT_declaration
     571                      .dwattr $C$DW$159, DW_AT_external
     572              $C$DW$160       .dwtag  DW_TAG_formal_parameter
     573                      .dwattr $C$DW$160, DW_AT_type(*$C$DW$T$176)
     574              $C$DW$161       .dwtag  DW_TAG_formal_parameter
     575                      .dwattr $C$DW$161, DW_AT_type(*$C$DW$T$35)
     576              $C$DW$162       .dwtag  DW_TAG_formal_parameter
     577                      .dwattr $C$DW$162, DW_AT_type(*$C$DW$T$35)
     578                      .dwendtag $C$DW$159
     579              
     580              
     581              $C$DW$163       .dwtag  DW_TAG_subprogram, DW_AT_name("SpeechDetected")
     582                      .dwattr $C$DW$163, DW_AT_TI_symbol_name("_SpeechDetected")
     583                      .dwattr $C$DW$163, DW_AT_type(*$C$DW$T$8)
     584                      .dwattr $C$DW$163, DW_AT_declaration
     585                      .dwattr $C$DW$163, DW_AT_external
     586              $C$DW$164       .dwtag  DW_TAG_formal_parameter
     587                      .dwattr $C$DW$164, DW_AT_type(*$C$DW$T$176)
     588                      .dwendtag $C$DW$163
     589              
     590              
     591              $C$DW$165       .dwtag  DW_TAG_subprogram, DW_AT_name("SpeechEnded")
     592                      .dwattr $C$DW$165, DW_AT_TI_symbol_name("_SpeechEnded")
     593                      .dwattr $C$DW$165, DW_AT_type(*$C$DW$T$8)
     594                      .dwattr $C$DW$165, DW_AT_declaration
     595                      .dwattr $C$DW$165, DW_AT_external
     596              $C$DW$166       .dwtag  DW_TAG_formal_parameter
     597                      .dwattr $C$DW$166, DW_AT_type(*$C$DW$T$176)
     598                      .dwendtag $C$DW$165
     599              
     600              
     601              $C$DW$167       .dwtag  DW_TAG_subprogram, DW_AT_name("SADState")
     602                      .dwattr $C$DW$167, DW_AT_TI_symbol_name("_SADState")
     603                      .dwattr $C$DW$167, DW_AT_type(*$C$DW$T$8)
     604                      .dwattr $C$DW$167, DW_AT_declaration
TMS320C55x Assembler PC v4.4.1 Wed Sep 13 16:33:16 2017

Tools Copyright (c) 1996-2012 Texas Instruments Incorporated
C:\Users\a0221074\AppData\Local\Temp\2199210                         PAGE   12

     605                      .dwattr $C$DW$167, DW_AT_external
     606              $C$DW$168       .dwtag  DW_TAG_formal_parameter
     607                      .dwattr $C$DW$168, DW_AT_type(*$C$DW$T$176)
     608                      .dwendtag $C$DW$167
     609              
     610              
     611              $C$DW$169       .dwtag  DW_TAG_subprogram, DW_AT_name("JAC_load")
     612                      .dwattr $C$DW$169, DW_AT_TI_symbol_name("_JAC_load")
     613                      .dwattr $C$DW$169, DW_AT_type(*$C$DW$T$68)
     614                      .dwattr $C$DW$169, DW_AT_declaration
     615                      .dwattr $C$DW$169, DW_AT_external
     616              $C$DW$170       .dwtag  DW_TAG_formal_parameter
     617                      .dwattr $C$DW$170, DW_AT_type(*$C$DW$T$70)
     618              $C$DW$171       .dwtag  DW_TAG_formal_parameter
     619                      .dwattr $C$DW$171, DW_AT_type(*$C$DW$T$176)
     620              $C$DW$172       .dwtag  DW_TAG_formal_parameter
     621                      .dwattr $C$DW$172, DW_AT_type(*$C$DW$T$70)
     622              $C$DW$173       .dwtag  DW_TAG_formal_parameter
     623                      .dwattr $C$DW$173, DW_AT_type(*$C$DW$T$70)
     624                      .dwendtag $C$DW$169
     625              
     626              
     627              $C$DW$174       .dwtag  DW_TAG_subprogram, DW_AT_name("JAC_save")
     628                      .dwattr $C$DW$174, DW_AT_TI_symbol_name("_JAC_save")
     629                      .dwattr $C$DW$174, DW_AT_type(*$C$DW$T$68)
     630                      .dwattr $C$DW$174, DW_AT_declaration
     631                      .dwattr $C$DW$174, DW_AT_external
     632              $C$DW$175       .dwtag  DW_TAG_formal_parameter
     633                      .dwattr $C$DW$175, DW_AT_type(*$C$DW$T$70)
     634              $C$DW$176       .dwtag  DW_TAG_formal_parameter
     635                      .dwattr $C$DW$176, DW_AT_type(*$C$DW$T$176)
     636                      .dwendtag $C$DW$174
     637              
     638              
     639              $C$DW$177       .dwtag  DW_TAG_subprogram, DW_AT_name("JAC_clear")
     640                      .dwattr $C$DW$177, DW_AT_TI_symbol_name("_JAC_clear")
     641                      .dwattr $C$DW$177, DW_AT_type(*$C$DW$T$68)
     642                      .dwattr $C$DW$177, DW_AT_declaration
     643                      .dwattr $C$DW$177, DW_AT_external
     644              $C$DW$178       .dwtag  DW_TAG_formal_parameter
     645                      .dwattr $C$DW$178, DW_AT_type(*$C$DW$T$176)
     646              $C$DW$179       .dwtag  DW_TAG_formal_parameter
     647                      .dwattr $C$DW$179, DW_AT_type(*$C$DW$T$70)
     648              $C$DW$180       .dwtag  DW_TAG_formal_parameter
     649                      .dwattr $C$DW$180, DW_AT_type(*$C$DW$T$70)
     650                      .dwendtag $C$DW$177
     651              
     652              
     653              $C$DW$181       .dwtag  DW_TAG_subprogram, DW_AT_name("JAC_update")
     654                      .dwattr $C$DW$181, DW_AT_TI_symbol_name("_JAC_update")
     655                      .dwattr $C$DW$181, DW_AT_type(*$C$DW$T$68)
     656                      .dwattr $C$DW$181, DW_AT_declaration
     657                      .dwattr $C$DW$181, DW_AT_external
     658              $C$DW$182       .dwtag  DW_TAG_formal_parameter
     659                      .dwattr $C$DW$182, DW_AT_type(*$C$DW$T$176)
TMS320C55x Assembler PC v4.4.1 Wed Sep 13 16:33:16 2017

Tools Copyright (c) 1996-2012 Texas Instruments Incorporated
C:\Users\a0221074\AppData\Local\Temp\2199210                         PAGE   13

     660                      .dwendtag $C$DW$181
     661              
     662              
     663              $C$DW$183       .dwtag  DW_TAG_subprogram, DW_AT_name("GetTIesrJacRate")
     664                      .dwattr $C$DW$183, DW_AT_TI_symbol_name("_GetTIesrJacRate")
     665                      .dwattr $C$DW$183, DW_AT_declaration
     666                      .dwattr $C$DW$183, DW_AT_external
     667              $C$DW$184       .dwtag  DW_TAG_formal_parameter
     668                      .dwattr $C$DW$184, DW_AT_type(*$C$DW$T$176)
     669              $C$DW$185       .dwtag  DW_TAG_formal_parameter
     670                      .dwattr $C$DW$185, DW_AT_type(*$C$DW$T$21)
     671                      .dwendtag $C$DW$183
     672              
     673              
     674              $C$DW$186       .dwtag  DW_TAG_subprogram, DW_AT_name("SetTIesrJacRate")
     675                      .dwattr $C$DW$186, DW_AT_TI_symbol_name("_SetTIesrJacRate")
     676                      .dwattr $C$DW$186, DW_AT_declaration
     677                      .dwattr $C$DW$186, DW_AT_external
     678              $C$DW$187       .dwtag  DW_TAG_formal_parameter
     679                      .dwattr $C$DW$187, DW_AT_type(*$C$DW$T$176)
     680              $C$DW$188       .dwtag  DW_TAG_formal_parameter
     681                      .dwattr $C$DW$188, DW_AT_type(*$C$DW$T$8)
     682                      .dwendtag $C$DW$186
     683              
     684              ;       C:\ti\ccsv7\tools\compiler\c5500_4.4.1\bin\acp55.exe -@C:\\Users\\a0221074\\AppData\\Local\\Temp\\219
     685 000000               .sect   ".text:_TIesrEngineOpen"
     686                      .clink
     687                      .global _TIesrEngineOpen
     688              
     689              $C$DW$189       .dwtag  DW_TAG_subprogram, DW_AT_name("TIesrEngineOpen")
     690                      .dwattr $C$DW$189, DW_AT_low_pc(_TIesrEngineOpen)
     691                      .dwattr $C$DW$189, DW_AT_high_pc(0x00)
     692                      .dwattr $C$DW$189, DW_AT_TI_symbol_name("_TIesrEngineOpen")
     693                      .dwattr $C$DW$189, DW_AT_external
     694                      .dwattr $C$DW$189, DW_AT_TI_begin_file("C:/Users/a0221074/Desktop/C5000/IBM_Watson_TIdesign_workarea/
     695                      .dwattr $C$DW$189, DW_AT_TI_begin_line(0x59)
     696                      .dwattr $C$DW$189, DW_AT_TI_begin_column(0x06)
     697                      .dwattr $C$DW$189, DW_AT_TI_max_frame_size(0x04)
     698                      .dwpsn  file "C:/Users/a0221074/Desktop/C5000/IBM_Watson_TIdesign_workarea/CSL_bitbucket/c55_csl/c55x
     699              
     700                      .dwfde $C$DW$CIE, _TIesrEngineOpen
     701              $C$DW$190       .dwtag  DW_TAG_formal_parameter, DW_AT_name("tiesr")
     702                      .dwattr $C$DW$190, DW_AT_TI_symbol_name("_tiesr")
     703                      .dwattr $C$DW$190, DW_AT_type(*$C$DW$T$186)
     704                      .dwattr $C$DW$190, DW_AT_location[DW_OP_reg17]
     705              ;*******************************************************************************
     706              ;* FUNCTION NAME: TIesrEngineOpen                                              *
     707              ;*                                                                             *
     708              ;*   Function Uses Regs : AC0,AC0,AR0,XAR0,AR3,XAR3,SP,M40,SATA,SATD,RDM,FRCT, *
     709              ;*                        SMUL                                                 *
     710              ;*   Stack Frame        : Compact (No Frame Pointer, w/ debug)                 *
     711              ;*   Total Frame Size   : 4 words                                              *
     712              ;*                        (2 return address/alignment)                         *
     713              ;*                        (2 local values)                                     *
     714              ;*   Min System Stack   : 1 word                                               *
TMS320C55x Assembler PC v4.4.1 Wed Sep 13 16:33:16 2017

Tools Copyright (c) 1996-2012 Texas Instruments Incorporated
C:\Users\a0221074\AppData\Local\Temp\2199210                         PAGE   14

     715              ;*******************************************************************************
     716 000000       _TIesrEngineOpen:
     717                      .dwcfi  cfa_offset, 1
     718                      .dwcfi  save_reg_to_mem, 91, -1
     719 000000 4EFD          AADD #-3, SP
     720                      .dwcfi  cfa_offset, 4
     721              $C$DW$191       .dwtag  DW_TAG_variable, DW_AT_name("tiesr")
     722                      .dwattr $C$DW$191, DW_AT_TI_symbol_name("_tiesr")
     723                      .dwattr $C$DW$191, DW_AT_type(*$C$DW$T$186)
     724                      .dwattr $C$DW$191, DW_AT_location[DW_OP_bregx 0x24 0]
     725 000002 EB00          MOV XAR0, dbl(*SP(#0))
         000004 85   
     726                      .dwpsn  file "C:/Users/a0221074/Desktop/C5000/IBM_Watson_TIdesign_workarea/CSL_bitbucket/c55_csl/c55x
     727 000005 ED00          MOV dbl(*SP(#0)), XAR3
         000007 BF   
     728 000008 7A00          MOV #(_OpenASR >> 16) << #16, AC0 ; |91| 
         00000a 000A%
     729 00000c 7E00          OR #(_OpenASR & 0xffff), AC0, AC0 ; |91| 
         00000e 0000%
     730 000010 EB61          MOV AC0, dbl(*AR3) ; |91| 
         000012 08   
     731                      .dwpsn  file "C:/Users/a0221074/Desktop/C5000/IBM_Watson_TIdesign_workarea/CSL_bitbucket/c55_csl/c55x
     732 000013 ED00          MOV dbl(*SP(#0)), XAR3
         000015 BF   
     733 000016 7A00          MOV #(_CloseASR >> 16) << #16, AC0 ; |92| 
         000018 000A%
     734 00001a 7E00          OR #(_CloseASR & 0xffff), AC0, AC0 ; |92| 
         00001c 0000%
     735 00001e EB75          MOV AC0, dbl(*AR3(short(#2))) ; |92| 
         000020 08   
     736                      .dwpsn  file "C:/Users/a0221074/Desktop/C5000/IBM_Watson_TIdesign_workarea/CSL_bitbucket/c55_csl/c55x
     737 000021 ED00          MOV dbl(*SP(#0)), XAR3
         000023 BF   
     738 000024 7A00          MOV #(_OpenSearchEngine >> 16) << #16, AC0 ; |93| 
         000026 000A%
     739 000028 7E00          OR #(_OpenSearchEngine & 0xffff), AC0, AC0 ; |93| 
         00002a 0000%
     740 00002c EB79          MOV AC0, dbl(*AR3(short(#4))) ; |93| 
         00002e 08   
     741                      .dwpsn  file "C:/Users/a0221074/Desktop/C5000/IBM_Watson_TIdesign_workarea/CSL_bitbucket/c55_csl/c55x
     742 00002f ED00          MOV dbl(*SP(#0)), XAR3
         000031 BF   
     743 000032 7A00          MOV #(_CallSearchEngine >> 16) << #16, AC0 ; |94| 
         000034 000A%
     744 000036 7E00          OR #(_CallSearchEngine & 0xffff), AC0, AC0 ; |94| 
         000038 0000%
     745 00003a EB7D          MOV AC0, dbl(*AR3(short(#6))) ; |94| 
         00003c 08   
     746                      .dwpsn  file "C:/Users/a0221074/Desktop/C5000/IBM_Watson_TIdesign_workarea/CSL_bitbucket/c55_csl/c55x
     747 00003d ED00          MOV dbl(*SP(#0)), XAR3
         00003f BF   
     748 000040 7A00          MOV #(_CloseSearchEngine >> 16) << #16, AC0 ; |95| 
         000042 000A%
     749 000044 7E00          OR #(_CloseSearchEngine & 0xffff), AC0, AC0 ; |95| 
         000046 0000%
TMS320C55x Assembler PC v4.4.1 Wed Sep 13 16:33:16 2017

Tools Copyright (c) 1996-2012 Texas Instruments Incorporated
C:\Users\a0221074\AppData\Local\Temp\2199210                         PAGE   15

     750 000048 EB6D          MOV AC0, dbl(*AR3(#8)) ; |95| 
         00004a 0800 
         00004c 08   
     751                      .dwpsn  file "C:/Users/a0221074/Desktop/C5000/IBM_Watson_TIdesign_workarea/CSL_bitbucket/c55_csl/c55x
     752 00004d ED00          MOV dbl(*SP(#0)), XAR3
         00004f BF   
     753 000050 7A00          MOV #(_SpeechDetected >> 16) << #16, AC0 ; |96| 
         000052 000A%
     754 000054 7E00          OR #(_SpeechDetected & 0xffff), AC0, AC0 ; |96| 
         000056 0000%
     755 000058 EB6D          MOV AC0, dbl(*AR3(#10)) ; |96| 
         00005a 0800 
         00005c 0A   
     756                      .dwpsn  file "C:/Users/a0221074/Desktop/C5000/IBM_Watson_TIdesign_workarea/CSL_bitbucket/c55_csl/c55x
     757 00005d ED00          MOV dbl(*SP(#0)), XAR3
         00005f BF   
     758 000060 7A00          MOV #(_SpeechEnded >> 16) << #16, AC0 ; |97| 
         000062 000A%
     759 000064 7E00          OR #(_SpeechEnded & 0xffff), AC0, AC0 ; |97| 
         000066 0000%
     760 000068 EB6D          MOV AC0, dbl(*AR3(#12)) ; |97| 
         00006a 0800 
         00006c 0C   
     761                      .dwpsn  file "C:/Users/a0221074/Desktop/C5000/IBM_Watson_TIdesign_workarea/CSL_bitbucket/c55_csl/c55x
     762 00006d ED00          MOV dbl(*SP(#0)), XAR3
         00006f BF   
     763 000070 7A00          MOV #(_SADState >> 16) << #16, AC0 ; |98| 
         000072 000A%
     764 000074 7E00          OR #(_SADState & 0xffff), AC0, AC0 ; |98| 
         000076 0000%
     765 000078 EB6D          MOV AC0, dbl(*AR3(#14)) ; |98| 
         00007a 0800 
         00007c 0E   
     766                      .dwpsn  file "C:/Users/a0221074/Desktop/C5000/IBM_Watson_TIdesign_workarea/CSL_bitbucket/c55_csl/c55x
     767 00007d ED00          MOV dbl(*SP(#0)), XAR3
         00007f BF   
     768 000080 7A00          MOV #(_JAC_load >> 16) << #16, AC0 ; |101| 
         000082 000A%
     769 000084 7E00          OR #(_JAC_load & 0xffff), AC0, AC0 ; |101| 
         000086 0000%
     770 000088 EB6D          MOV AC0, dbl(*AR3(#16)) ; |101| 
         00008a 0800 
         00008c 10   
     771                      .dwpsn  file "C:/Users/a0221074/Desktop/C5000/IBM_Watson_TIdesign_workarea/CSL_bitbucket/c55_csl/c55x
     772 00008d ED00          MOV dbl(*SP(#0)), XAR3
         00008f BF   
     773 000090 7A00          MOV #(_JAC_save >> 16) << #16, AC0 ; |102| 
         000092 000A%
     774 000094 7E00          OR #(_JAC_save & 0xffff), AC0, AC0 ; |102| 
         000096 0000%
     775 000098 EB6D          MOV AC0, dbl(*AR3(#18)) ; |102| 
         00009a 0800 
         00009c 12   
     776                      .dwpsn  file "C:/Users/a0221074/Desktop/C5000/IBM_Watson_TIdesign_workarea/CSL_bitbucket/c55_csl/c55x
     777 00009d ED00          MOV dbl(*SP(#0)), XAR3
TMS320C55x Assembler PC v4.4.1 Wed Sep 13 16:33:16 2017

Tools Copyright (c) 1996-2012 Texas Instruments Incorporated
C:\Users\a0221074\AppData\Local\Temp\2199210                         PAGE   16

         00009f BF   
     778 0000a0 7A00          MOV #(_JAC_clear >> 16) << #16, AC0 ; |103| 
         0000a2 000A%
     779 0000a4 7E00          OR #(_JAC_clear & 0xffff), AC0, AC0 ; |103| 
         0000a6 0000%
     780 0000a8 EB6D          MOV AC0, dbl(*AR3(#20)) ; |103| 
         0000aa 0800 
         0000ac 14   
     781                      .dwpsn  file "C:/Users/a0221074/Desktop/C5000/IBM_Watson_TIdesign_workarea/CSL_bitbucket/c55_csl/c55x
     782 0000ad ED00          MOV dbl(*SP(#0)), XAR3
         0000af BF   
     783 0000b0 7A00          MOV #(_JAC_update >> 16) << #16, AC0 ; |104| 
         0000b2 000A%
     784 0000b4 7E00          OR #(_JAC_update & 0xffff), AC0, AC0 ; |104| 
         0000b6 0000%
     785 0000b8 EB6D          MOV AC0, dbl(*AR3(#22)) ; |104| 
         0000ba 0800 
         0000bc 16   
     786                      .dwpsn  file "C:/Users/a0221074/Desktop/C5000/IBM_Watson_TIdesign_workarea/CSL_bitbucket/c55_csl/c55x
     787 0000bd ED00          MOV dbl(*SP(#0)), XAR3
         0000bf BF   
     788 0000c0 7A00          MOV #(_GetFrameCount >> 16) << #16, AC0 ; |106| 
         0000c2 000A%
     789 0000c4 7E00          OR #(_GetFrameCount & 0xffff), AC0, AC0 ; |106| 
         0000c6 0000%
     790 0000c8 EB6D          MOV AC0, dbl(*AR3(#24)) ; |106| 
         0000ca 0800 
         0000cc 18   
     791                      .dwpsn  file "C:/Users/a0221074/Desktop/C5000/IBM_Watson_TIdesign_workarea/CSL_bitbucket/c55_csl/c55x
     792 0000cd ED00          MOV dbl(*SP(#0)), XAR3
         0000cf BF   
     793 0000d0 7A00          MOV #(_GetTotalScore >> 16) << #16, AC0 ; |107| 
         0000d2 000A%
     794 0000d4 7E00          OR #(_GetTotalScore & 0xffff), AC0, AC0 ; |107| 
         0000d6 0000%
     795 0000d8 EB6D          MOV AC0, dbl(*AR3(#26)) ; |107| 
         0000da 0800 
         0000dc 1A   
     796                      .dwpsn  file "C:/Users/a0221074/Desktop/C5000/IBM_Watson_TIdesign_workarea/CSL_bitbucket/c55_csl/c55x
     797 0000dd ED00          MOV dbl(*SP(#0)), XAR3
         0000df BF   
     798 0000e0 7A00          MOV #(_GetCycleCount >> 16) << #16, AC0 ; |109| 
         0000e2 000A%
     799 0000e4 7E00          OR #(_GetCycleCount & 0xffff), AC0, AC0 ; |109| 
         0000e6 0000%
     800 0000e8 EB6D          MOV AC0, dbl(*AR3(#28)) ; |109| 
         0000ea 0800 
         0000ec 1C   
     801                      .dwpsn  file "C:/Users/a0221074/Desktop/C5000/IBM_Watson_TIdesign_workarea/CSL_bitbucket/c55_csl/c55x
     802 0000ed ED00          MOV dbl(*SP(#0)), XAR3
         0000ef BF   
     803 0000f0 7A00          MOV #(_GetAnswerIndex >> 16) << #16, AC0 ; |110| 
         0000f2 000A%
     804 0000f4 7E00          OR #(_GetAnswerIndex & 0xffff), AC0, AC0 ; |110| 
         0000f6 0000%
TMS320C55x Assembler PC v4.4.1 Wed Sep 13 16:33:16 2017

Tools Copyright (c) 1996-2012 Texas Instruments Incorporated
C:\Users\a0221074\AppData\Local\Temp\2199210                         PAGE   17

     805 0000f8 EB6D          MOV AC0, dbl(*AR3(#30)) ; |110| 
         0000fa 0800 
         0000fc 1E   
     806                      .dwpsn  file "C:/Users/a0221074/Desktop/C5000/IBM_Watson_TIdesign_workarea/CSL_bitbucket/c55_csl/c55x
     807 0000fd ED00          MOV dbl(*SP(#0)), XAR3
         0000ff BF   
     808 000100 7A00          MOV #(_GetAnswerWord >> 16) << #16, AC0 ; |111| 
         000102 000A%
     809 000104 7E00          OR #(_GetAnswerWord & 0xffff), AC0, AC0 ; |111| 
         000106 0000%
     810 000108 EB6D          MOV AC0, dbl(*AR3(#32)) ; |111| 
         00010a 0800 
         00010c 20   
     811                      .dwpsn  file "C:/Users/a0221074/Desktop/C5000/IBM_Watson_TIdesign_workarea/CSL_bitbucket/c55_csl/c55x
     812 00010d ED00          MOV dbl(*SP(#0)), XAR3
         00010f BF   
     813 000110 7A00          MOV #(_GetAnswerCount >> 16) << #16, AC0 ; |112| 
         000112 000A%
     814 000114 7E00          OR #(_GetAnswerCount & 0xffff), AC0, AC0 ; |112| 
         000116 0000%
     815 000118 EB6D          MOV AC0, dbl(*AR3(#34)) ; |112| 
         00011a 0800 
         00011c 22   
     816                      .dwpsn  file "C:/Users/a0221074/Desktop/C5000/IBM_Watson_TIdesign_workarea/CSL_bitbucket/c55_csl/c55x
     817 00011d ED00          MOV dbl(*SP(#0)), XAR3
         00011f BF   
     818 000120 7A00          MOV #(_GetVolumeStatus >> 16) << #16, AC0 ; |113| 
         000122 000A%
     819 000124 7E00          OR #(_GetVolumeStatus & 0xffff), AC0, AC0 ; |113| 
         000126 0000%
     820 000128 EB6D          MOV AC0, dbl(*AR3(#68)) ; |113| 
         00012a 0800 
         00012c 44   
     821                      .dwpsn  file "C:/Users/a0221074/Desktop/C5000/IBM_Watson_TIdesign_workarea/CSL_bitbucket/c55_csl/c55x
     822 00012d ED00          MOV dbl(*SP(#0)), XAR3
         00012f BF   
     823 000130 7A00          MOV #(_GetSearchMemorySize >> 16) << #16, AC0 ; |114| 
         000132 000A%
     824 000134 7E00          OR #(_GetSearchMemorySize & 0xffff), AC0, AC0 ; |114| 
         000136 0000%
     825 000138 EB6D          MOV AC0, dbl(*AR3(#70)) ; |114| 
         00013a 0800 
         00013c 46   
     826                      .dwpsn  file "C:/Users/a0221074/Desktop/C5000/IBM_Watson_TIdesign_workarea/CSL_bitbucket/c55_csl/c55x
     827 00013d ED00          MOV dbl(*SP(#0)), XAR3
         00013f BF   
     828 000140 7A00          MOV #(_GetMaxFrames >> 16) << #16, AC0 ; |115| 
         000142 000A%
     829 000144 7E00          OR #(_GetMaxFrames & 0xffff), AC0, AC0 ; |115| 
         000146 0000%
     830 000148 EB6D          MOV AC0, dbl(*AR3(#72)) ; |115| 
         00014a 0800 
         00014c 48   
     831                      .dwpsn  file "C:/Users/a0221074/Desktop/C5000/IBM_Watson_TIdesign_workarea/CSL_bitbucket/c55_csl/c55x
     832 00014d ED00          MOV dbl(*SP(#0)), XAR3
TMS320C55x Assembler PC v4.4.1 Wed Sep 13 16:33:16 2017

Tools Copyright (c) 1996-2012 Texas Instruments Incorporated
C:\Users\a0221074\AppData\Local\Temp\2199210                         PAGE   18

         00014f BF   
     833 000150 7A00          MOV #(_GetConfidenceScore >> 16) << #16, AC0 ; |116| 
         000152 000A%
     834 000154 7E00          OR #(_GetConfidenceScore & 0xffff), AC0, AC0 ; |116| 
         000156 0000%
     835 000158 EB6D          MOV AC0, dbl(*AR3(#42)) ; |116| 
         00015a 0800 
         00015c 2A   
     836                      .dwpsn  file "C:/Users/a0221074/Desktop/C5000/IBM_Watson_TIdesign_workarea/CSL_bitbucket/c55_csl/c55x
     837 00015d ED00          MOV dbl(*SP(#0)), XAR3
         00015f BF   
     838 000160 7A00          MOV #(_SetTIesrCM >> 16) << #16, AC0 ; |117| 
         000162 000A%
     839 000164 7E00          OR #(_SetTIesrCM & 0xffff), AC0, AC0 ; |117| 
         000166 0000%
     840 000168 EB6D          MOV AC0, dbl(*AR3(#44)) ; |117| 
         00016a 0800 
         00016c 2C   
     841                      .dwpsn  file "C:/Users/a0221074/Desktop/C5000/IBM_Watson_TIdesign_workarea/CSL_bitbucket/c55_csl/c55x
     842 00016d ED00          MOV dbl(*SP(#0)), XAR3
         00016f BF   
     843 000170 7A00          MOV #(_GetTIesrCM >> 16) << #16, AC0 ; |118| 
         000172 000A%
     844 000174 7E00          OR #(_GetTIesrCM & 0xffff), AC0, AC0 ; |118| 
         000176 0000%
     845 000178 EB6D          MOV AC0, dbl(*AR3(#46)) ; |118| 
         00017a 0800 
         00017c 2E   
     846                      .dwpsn  file "C:/Users/a0221074/Desktop/C5000/IBM_Watson_TIdesign_workarea/CSL_bitbucket/c55_csl/c55x
     847 00017d ED00          MOV dbl(*SP(#0)), XAR3
         00017f BF   
     848 000180 7A00          MOV #(_GetRealTimeGuardTh >> 16) << #16, AC0 ; |120| 
         000182 000A%
     849 000184 7E00          OR #(_GetRealTimeGuardTh & 0xffff), AC0, AC0 ; |120| 
         000186 0000%
     850 000188 EB6D          MOV AC0, dbl(*AR3(#60)) ; |120| 
         00018a 0800 
         00018c 3C   
     851                      .dwpsn  file "C:/Users/a0221074/Desktop/C5000/IBM_Watson_TIdesign_workarea/CSL_bitbucket/c55_csl/c55x
     852 00018d ED00          MOV dbl(*SP(#0)), XAR3
         00018f BF   
     853 000190 7A00          MOV #(_GetRealTGuard >> 16) << #16, AC0 ; |121| 
         000192 000A%
     854 000194 7E00          OR #(_GetRealTGuard & 0xffff), AC0, AC0 ; |121| 
         000196 0000%
     855 000198 EB6D          MOV AC0, dbl(*AR3(#62)) ; |121| 
         00019a 0800 
         00019c 3E   
     856                      .dwpsn  file "C:/Users/a0221074/Desktop/C5000/IBM_Watson_TIdesign_workarea/CSL_bitbucket/c55_csl/c55x
     857 00019d ED00          MOV dbl(*SP(#0)), XAR3
         00019f BF   
     858 0001a0 7A00          MOV #(_SetRealTimeGuardTh >> 16) << #16, AC0 ; |122| 
         0001a2 000A%
     859 0001a4 7E00          OR #(_SetRealTimeGuardTh & 0xffff), AC0, AC0 ; |122| 
         0001a6 0000%
TMS320C55x Assembler PC v4.4.1 Wed Sep 13 16:33:16 2017

Tools Copyright (c) 1996-2012 Texas Instruments Incorporated
C:\Users\a0221074\AppData\Local\Temp\2199210                         PAGE   19

     860 0001a8 EB6D          MOV AC0, dbl(*AR3(#64)) ; |122| 
         0001aa 0800 
         0001ac 40   
     861                      .dwpsn  file "C:/Users/a0221074/Desktop/C5000/IBM_Watson_TIdesign_workarea/CSL_bitbucket/c55_csl/c55x
     862 0001ad ED00          MOV dbl(*SP(#0)), XAR3
         0001af BF   
     863 0001b0 7A00          MOV #(_SetRealTGuard >> 16) << #16, AC0 ; |123| 
         0001b2 000A%
     864 0001b4 7E00          OR #(_SetRealTGuard & 0xffff), AC0, AC0 ; |123| 
         0001b6 0000%
     865 0001b8 EB6D          MOV AC0, dbl(*AR3(#66)) ; |123| 
         0001ba 0800 
         0001bc 42   
     866                      .dwpsn  file "C:/Users/a0221074/Desktop/C5000/IBM_Watson_TIdesign_workarea/CSL_bitbucket/c55_csl/c55x
     867 0001bd ED00          MOV dbl(*SP(#0)), XAR3
         0001bf BF   
     868 0001c0 7A00          MOV #(_SetTIesrGaussSel >> 16) << #16, AC0 ; |126| 
         0001c2 000A%
     869 0001c4 7E00          OR #(_SetTIesrGaussSel & 0xffff), AC0, AC0 ; |126| 
         0001c6 0000%
     870 0001c8 EB6D          MOV AC0, dbl(*AR3(#48)) ; |126| 
         0001ca 0800 
         0001cc 30   
     871                      .dwpsn  file "C:/Users/a0221074/Desktop/C5000/IBM_Watson_TIdesign_workarea/CSL_bitbucket/c55_csl/c55x
     872 0001cd ED00          MOV dbl(*SP(#0)), XAR3
         0001cf BF   
     873 0001d0 7A00          MOV #(_GetTIesrGaussSel >> 16) << #16, AC0 ; |127| 
         0001d2 000A%
     874 0001d4 7E00          OR #(_GetTIesrGaussSel & 0xffff), AC0, AC0 ; |127| 
         0001d6 0000%
     875 0001d8 EB6D          MOV AC0, dbl(*AR3(#50)) ; |127| 
         0001da 0800 
         0001dc 32   
     876                      .dwpsn  file "C:/Users/a0221074/Desktop/C5000/IBM_Watson_TIdesign_workarea/CSL_bitbucket/c55_csl/c55x
     877 0001dd ED00          MOV dbl(*SP(#0)), XAR3
         0001df BF   
     878 0001e0 7A00          MOV #(_SetTIesrORM >> 16) << #16, AC0 ; |129| 
         0001e2 000A%
     879 0001e4 7E00          OR #(_SetTIesrORM & 0xffff), AC0, AC0 ; |129| 
         0001e6 0000%
     880 0001e8 EB6D          MOV AC0, dbl(*AR3(#52)) ; |129| 
         0001ea 0800 
         0001ec 34   
     881                      .dwpsn  file "C:/Users/a0221074/Desktop/C5000/IBM_Watson_TIdesign_workarea/CSL_bitbucket/c55_csl/c55x
     882 0001ed ED00          MOV dbl(*SP(#0)), XAR3
         0001ef BF   
     883 0001f0 7A00          MOV #(_GetTIesrORM >> 16) << #16, AC0 ; |130| 
         0001f2 000A%
     884 0001f4 7E00          OR #(_GetTIesrORM & 0xffff), AC0, AC0 ; |130| 
         0001f6 0000%
     885 0001f8 EB6D          MOV AC0, dbl(*AR3(#54)) ; |130| 
         0001fa 0800 
         0001fc 36   
     886                      .dwpsn  file "C:/Users/a0221074/Desktop/C5000/IBM_Watson_TIdesign_workarea/CSL_bitbucket/c55_csl/c55x
     887 0001fd ED00          MOV dbl(*SP(#0)), XAR3
TMS320C55x Assembler PC v4.4.1 Wed Sep 13 16:33:16 2017

Tools Copyright (c) 1996-2012 Texas Instruments Incorporated
C:\Users\a0221074\AppData\Local\Temp\2199210                         PAGE   20

         0001ff BF   
     888 000200 7A00          MOV #(_SetTIesrSS >> 16) << #16, AC0 ; |132| 
         000202 000A%
     889 000204 7E00          OR #(_SetTIesrSS & 0xffff), AC0, AC0 ; |132| 
         000206 0000%
     890 000208 EB6D          MOV AC0, dbl(*AR3(#56)) ; |132| 
         00020a 0800 
         00020c 38   
     891                      .dwpsn  file "C:/Users/a0221074/Desktop/C5000/IBM_Watson_TIdesign_workarea/CSL_bitbucket/c55_csl/c55x
     892 00020d ED00          MOV dbl(*SP(#0)), XAR3
         00020f BF   
     893 000210 7A00          MOV #(_GetTIesrSS >> 16) << #16, AC0 ; |133| 
         000212 000A%
     894 000214 7E00          OR #(_GetTIesrSS & 0xffff), AC0, AC0 ; |133| 
         000216 0000%
     895 000218 EB6D          MOV AC0, dbl(*AR3(#58)) ; |133| 
         00021a 0800 
         00021c 3A   
     896                      .dwpsn  file "C:/Users/a0221074/Desktop/C5000/IBM_Watson_TIdesign_workarea/CSL_bitbucket/c55_csl/c55x
     897 00021d ED00          MOV dbl(*SP(#0)), XAR3
         00021f BF   
     898 000220 7A00          MOV #(_SetTIesrPrune >> 16) << #16, AC0 ; |135| 
         000222 000A%
     899 000224 7E00          OR #(_SetTIesrPrune & 0xffff), AC0, AC0 ; |135| 
         000226 0000%
     900 000228 EB6D          MOV AC0, dbl(*AR3(#74)) ; |135| 
         00022a 0800 
         00022c 4A   
     901                      .dwpsn  file "C:/Users/a0221074/Desktop/C5000/IBM_Watson_TIdesign_workarea/CSL_bitbucket/c55_csl/c55x
     902 00022d ED00          MOV dbl(*SP(#0)), XAR3
         00022f BF   
     903 000230 7A00          MOV #(_SetTIesrTransiWeight >> 16) << #16, AC0 ; |136| 
         000232 000A%
     904 000234 7E00          OR #(_SetTIesrTransiWeight & 0xffff), AC0, AC0 ; |136| 
         000236 0000%
     905 000238 EB6D          MOV AC0, dbl(*AR3(#76)) ; |136| 
         00023a 0800 
         00023c 4C   
     906                      .dwpsn  file "C:/Users/a0221074/Desktop/C5000/IBM_Watson_TIdesign_workarea/CSL_bitbucket/c55_csl/c55x
     907 00023d ED00          MOV dbl(*SP(#0)), XAR3
         00023f BF   
     908 000240 7A00          MOV #(_SetTIesrSAD >> 16) << #16, AC0 ; |137| 
         000242 000A%
     909 000244 7E00          OR #(_SetTIesrSAD & 0xffff), AC0, AC0 ; |137| 
         000246 0000%
     910 000248 EB6D          MOV AC0, dbl(*AR3(#78)) ; |137| 
         00024a 0800 
         00024c 4E   
     911                      .dwpsn  file "C:/Users/a0221074/Desktop/C5000/IBM_Watson_TIdesign_workarea/CSL_bitbucket/c55_csl/c55x
     912 00024d ED00          MOV dbl(*SP(#0)), XAR3
         00024f BF   
     913 000250 7A00          MOV #(_SetTIesrJacRate >> 16) << #16, AC0 ; |138| 
         000252 000A%
     914 000254 7E00          OR #(_SetTIesrJacRate & 0xffff), AC0, AC0 ; |138| 
         000256 0000%
TMS320C55x Assembler PC v4.4.1 Wed Sep 13 16:33:16 2017

Tools Copyright (c) 1996-2012 Texas Instruments Incorporated
C:\Users\a0221074\AppData\Local\Temp\2199210                         PAGE   21

     915 000258 EB6D          MOV AC0, dbl(*AR3(#80)) ; |138| 
         00025a 0800 
         00025c 50   
     916                      .dwpsn  file "C:/Users/a0221074/Desktop/C5000/IBM_Watson_TIdesign_workarea/CSL_bitbucket/c55_csl/c55x
     917 00025d ED00          MOV dbl(*SP(#0)), XAR3
         00025f BF   
     918 000260 7A00          MOV #(_SetTIesrJAC >> 16) << #16, AC0 ; |139| 
         000262 000A%
     919 000264 7E00          OR #(_SetTIesrJAC & 0xffff), AC0, AC0 ; |139| 
         000266 0000%
     920 000268 EB6D          MOV AC0, dbl(*AR3(#82)) ; |139| 
         00026a 0800 
         00026c 52   
     921                      .dwpsn  file "C:/Users/a0221074/Desktop/C5000/IBM_Watson_TIdesign_workarea/CSL_bitbucket/c55_csl/c55x
     922 00026d ED00          MOV dbl(*SP(#0)), XAR3
         00026f BF   
     923 000270 7A00          MOV #(_SetTIesrSBC >> 16) << #16, AC0 ; |140| 
         000272 000A%
     924 000274 7E00          OR #(_SetTIesrSBC & 0xffff), AC0, AC0 ; |140| 
         000276 0000%
     925 000278 EB6D          MOV AC0, dbl(*AR3(#84)) ; |140| 
         00027a 0800 
         00027c 54   
     926                      .dwpsn  file "C:/Users/a0221074/Desktop/C5000/IBM_Watson_TIdesign_workarea/CSL_bitbucket/c55_csl/c55x
     927 00027d ED00          MOV dbl(*SP(#0)), XAR3
         00027f BF   
     928 000280 7A00          MOV #(_SetTIesrVolRange >> 16) << #16, AC0 ; |142| 
         000282 000A%
     929 000284 7E00          OR #(_SetTIesrVolRange & 0xffff), AC0, AC0 ; |142| 
         000286 0000%
     930 000288 EB6D          MOV AC0, dbl(*AR3(#86)) ; |142| 
         00028a 0800 
         00028c 56   
     931                      .dwpsn  file "C:/Users/a0221074/Desktop/C5000/IBM_Watson_TIdesign_workarea/CSL_bitbucket/c55_csl/c55x
     932 00028d ED00          MOV dbl(*SP(#0)), XAR3
         00028f BF   
     933 000290 7A00          MOV #(_GetTIesrPrune >> 16) << #16, AC0 ; |144| 
         000292 000A%
     934 000294 7E00          OR #(_GetTIesrPrune & 0xffff), AC0, AC0 ; |144| 
         000296 0000%
     935 000298 EB6D          MOV AC0, dbl(*AR3(#88)) ; |144| 
         00029a 0800 
         00029c 58   
     936                      .dwpsn  file "C:/Users/a0221074/Desktop/C5000/IBM_Watson_TIdesign_workarea/CSL_bitbucket/c55_csl/c55x
     937 00029d ED00          MOV dbl(*SP(#0)), XAR3
         00029f BF   
     938 0002a0 7A00          MOV #(_GetTIesrTransiWeight >> 16) << #16, AC0 ; |145| 
         0002a2 000A%
     939 0002a4 7E00          OR #(_GetTIesrTransiWeight & 0xffff), AC0, AC0 ; |145| 
         0002a6 0000%
     940 0002a8 EB6D          MOV AC0, dbl(*AR3(#90)) ; |145| 
         0002aa 0800 
         0002ac 5A   
     941                      .dwpsn  file "C:/Users/a0221074/Desktop/C5000/IBM_Watson_TIdesign_workarea/CSL_bitbucket/c55_csl/c55x
     942 0002ad ED00          MOV dbl(*SP(#0)), XAR3
TMS320C55x Assembler PC v4.4.1 Wed Sep 13 16:33:16 2017

Tools Copyright (c) 1996-2012 Texas Instruments Incorporated
C:\Users\a0221074\AppData\Local\Temp\2199210                         PAGE   22

         0002af BF   
     943 0002b0 7A00          MOV #(_GetTIesrSAD >> 16) << #16, AC0 ; |146| 
         0002b2 000A%
     944 0002b4 7E00          OR #(_GetTIesrSAD & 0xffff), AC0, AC0 ; |146| 
         0002b6 0000%
     945 0002b8 EB6D          MOV AC0, dbl(*AR3(#92)) ; |146| 
         0002ba 0800 
         0002bc 5C   
     946                      .dwpsn  file "C:/Users/a0221074/Desktop/C5000/IBM_Watson_TIdesign_workarea/CSL_bitbucket/c55_csl/c55x
     947 0002bd ED00          MOV dbl(*SP(#0)), XAR3
         0002bf BF   
     948 0002c0 7A00          MOV #(_GetTIesrJacRate >> 16) << #16, AC0 ; |147| 
         0002c2 000A%
     949 0002c4 7E00          OR #(_GetTIesrJacRate & 0xffff), AC0, AC0 ; |147| 
         0002c6 0000%
     950 0002c8 EB6D          MOV AC0, dbl(*AR3(#94)) ; |147| 
         0002ca 0800 
         0002cc 5E   
     951                      .dwpsn  file "C:/Users/a0221074/Desktop/C5000/IBM_Watson_TIdesign_workarea/CSL_bitbucket/c55_csl/c55x
     952 0002cd ED00          MOV dbl(*SP(#0)), XAR3
         0002cf BF   
     953 0002d0 7A00          MOV #(_GetTIesrJAC >> 16) << #16, AC0 ; |148| 
         0002d2 000A%
     954 0002d4 7E00          OR #(_GetTIesrJAC & 0xffff), AC0, AC0 ; |148| 
         0002d6 0000%
     955 0002d8 EB6D          MOV AC0, dbl(*AR3(#96)) ; |148| 
         0002da 0800 
         0002dc 60   
     956                      .dwpsn  file "C:/Users/a0221074/Desktop/C5000/IBM_Watson_TIdesign_workarea/CSL_bitbucket/c55_csl/c55x
     957 0002dd ED00          MOV dbl(*SP(#0)), XAR3
         0002df BF   
     958 0002e0 7A00          MOV #(_GetTIesrSBC >> 16) << #16, AC0 ; |149| 
         0002e2 000A%
     959 0002e4 7E00          OR #(_GetTIesrSBC & 0xffff), AC0, AC0 ; |149| 
         0002e6 0000%
     960 0002e8 EB6D          MOV AC0, dbl(*AR3(#98)) ; |149| 
         0002ea 0800 
         0002ec 62   
     961                      .dwpsn  file "C:/Users/a0221074/Desktop/C5000/IBM_Watson_TIdesign_workarea/CSL_bitbucket/c55_csl/c55x
     962 0002ed ED00          MOV dbl(*SP(#0)), XAR3
         0002ef BF   
     963 0002f0 7A00          MOV #(_GetTIesrVolRange >> 16) << #16, AC0 ; |151| 
         0002f2 000A%
     964 0002f4 7E00          OR #(_GetTIesrVolRange & 0xffff), AC0, AC0 ; |151| 
         0002f6 0000%
     965 0002f8 EB6D          MOV AC0, dbl(*AR3(#100)) ; |151| 
         0002fa 0800 
         0002fc 64   
     966                      .dwpsn  file "C:/Users/a0221074/Desktop/C5000/IBM_Watson_TIdesign_workarea/CSL_bitbucket/c55_csl/c55x
     967 0002fd ED00          MOV dbl(*SP(#0)), XAR3
         0002ff BF   
     968 000300 7A00          MOV #(_GetNumNbests >> 16) << #16, AC0 ; |158| 
         000302 000A%
     969 000304 7E00          OR #(_GetNumNbests & 0xffff), AC0, AC0 ; |158| 
         000306 0000%
TMS320C55x Assembler PC v4.4.1 Wed Sep 13 16:33:16 2017

Tools Copyright (c) 1996-2012 Texas Instruments Incorporated
C:\Users\a0221074\AppData\Local\Temp\2199210                         PAGE   23

     970 000308 EB6D          MOV AC0, dbl(*AR3(#40)) ; |158| 
         00030a 0800 
         00030c 28   
     971                      .dwpsn  file "C:/Users/a0221074/Desktop/C5000/IBM_Watson_TIdesign_workarea/CSL_bitbucket/c55_csl/c55x
     972 00030d ED00          MOV dbl(*SP(#0)), XAR3
         00030f BF   
     973 000310 7A00          MOV #(_SetTIesrNBest >> 16) << #16, AC0 ; |159| 
         000312 000A%
     974 000314 7E00          OR #(_SetTIesrNBest & 0xffff), AC0, AC0 ; |159| 
         000316 0000%
     975 000318 EB6D          MOV AC0, dbl(*AR3(#36)) ; |159| 
         00031a 0800 
         00031c 24   
     976                      .dwpsn  file "C:/Users/a0221074/Desktop/C5000/IBM_Watson_TIdesign_workarea/CSL_bitbucket/c55_csl/c55x
     977 00031d ED00          MOV dbl(*SP(#0)), XAR3
         00031f BF   
     978 000320 7A00          MOV #(_GetTIesrNBest >> 16) << #16, AC0 ; |160| 
         000322 000A%
     979 000324 7E00          OR #(_GetTIesrNBest & 0xffff), AC0, AC0 ; |160| 
         000326 0000%
     980 000328 EB6D          MOV AC0, dbl(*AR3(#38)) ; |160| 
         00032a 0800 
         00032c 26   
     981                      .dwpsn  file "C:/Users/a0221074/Desktop/C5000/IBM_Watson_TIdesign_workarea/CSL_bitbucket/c55_csl/c55x
     982                      .dwpsn  file "C:/Users/a0221074/Desktop/C5000/IBM_Watson_TIdesign_workarea/CSL_bitbucket/c55_csl/c55x
     983 00032d 4E03          AADD #3, SP
     984                      .dwcfi  cfa_offset, 1
     985              $C$DW$192       .dwtag  DW_TAG_TI_branch
     986                      .dwattr $C$DW$192, DW_AT_low_pc(0x00)
     987                      .dwattr $C$DW$192, DW_AT_TI_return
     988 00032f 4804          RET
     989                                                      ; return occurs
     990                      .dwattr $C$DW$189, DW_AT_TI_end_file("C:/Users/a0221074/Desktop/C5000/IBM_Watson_TIdesign_workarea/CS
     991                      .dwattr $C$DW$189, DW_AT_TI_end_line(0xa7)
     992                      .dwattr $C$DW$189, DW_AT_TI_end_column(0x01)
     993                      .dwendentry
     994                      .dwendtag $C$DW$189
     995              
     996 000000               .sect   ".text:_TIesrEngineClose"
     997                      .clink
     998                      .global _TIesrEngineClose
     999              
    1000              $C$DW$193       .dwtag  DW_TAG_subprogram, DW_AT_name("TIesrEngineClose")
    1001                      .dwattr $C$DW$193, DW_AT_low_pc(_TIesrEngineClose)
    1002                      .dwattr $C$DW$193, DW_AT_high_pc(0x00)
    1003                      .dwattr $C$DW$193, DW_AT_TI_symbol_name("_TIesrEngineClose")
    1004                      .dwattr $C$DW$193, DW_AT_external
    1005                      .dwattr $C$DW$193, DW_AT_TI_begin_file("C:/Users/a0221074/Desktop/C5000/IBM_Watson_TIdesign_workarea/
    1006                      .dwattr $C$DW$193, DW_AT_TI_begin_line(0xb1)
    1007                      .dwattr $C$DW$193, DW_AT_TI_begin_column(0x06)
    1008                      .dwattr $C$DW$193, DW_AT_TI_max_frame_size(0x04)
    1009                      .dwpsn  file "C:/Users/a0221074/Desktop/C5000/IBM_Watson_TIdesign_workarea/CSL_bitbucket/c55_csl/c55x
    1010              
    1011                      .dwfde $C$DW$CIE, _TIesrEngineClose
    1012              $C$DW$194       .dwtag  DW_TAG_formal_parameter, DW_AT_name("s")
TMS320C55x Assembler PC v4.4.1 Wed Sep 13 16:33:16 2017

Tools Copyright (c) 1996-2012 Texas Instruments Incorporated
C:\Users\a0221074\AppData\Local\Temp\2199210                         PAGE   24

    1013                      .dwattr $C$DW$194, DW_AT_TI_symbol_name("_s")
    1014                      .dwattr $C$DW$194, DW_AT_type(*$C$DW$T$186)
    1015                      .dwattr $C$DW$194, DW_AT_location[DW_OP_reg17]
    1016              ;*******************************************************************************
    1017              ;* FUNCTION NAME: TIesrEngineClose                                             *
    1018              ;*                                                                             *
    1019              ;*   Function Uses Regs : AR0,XAR0,SP,M40,SATA,SATD,RDM,FRCT,SMUL              *
    1020              ;*   Stack Frame        : Compact (No Frame Pointer, w/ debug)                 *
    1021              ;*   Total Frame Size   : 4 words                                              *
    1022              ;*                        (2 return address/alignment)                         *
    1023              ;*                        (2 local values)                                     *
    1024              ;*   Min System Stack   : 1 word                                               *
    1025              ;*******************************************************************************
    1026 000000       _TIesrEngineClose:
    1027                      .dwcfi  cfa_offset, 1
    1028                      .dwcfi  save_reg_to_mem, 91, -1
    1029 000000 4EFD          AADD #-3, SP
    1030                      .dwcfi  cfa_offset, 4
    1031              $C$DW$195       .dwtag  DW_TAG_variable, DW_AT_name("s")
    1032                      .dwattr $C$DW$195, DW_AT_TI_symbol_name("_s")
    1033                      .dwattr $C$DW$195, DW_AT_type(*$C$DW$T$186)
    1034                      .dwattr $C$DW$195, DW_AT_location[DW_OP_bregx 0x24 0]
    1035 000002 EB00          MOV XAR0, dbl(*SP(#0))
         000004 85   
    1036                      .dwpsn  file "C:/Users/a0221074/Desktop/C5000/IBM_Watson_TIdesign_workarea/CSL_bitbucket/c55_csl/c55x
    1037                      .dwpsn  file "C:/Users/a0221074/Desktop/C5000/IBM_Watson_TIdesign_workarea/CSL_bitbucket/c55_csl/c55x
    1038 000005 4E03          AADD #3, SP
    1039                      .dwcfi  cfa_offset, 1
    1040              $C$DW$196       .dwtag  DW_TAG_TI_branch
    1041                      .dwattr $C$DW$196, DW_AT_low_pc(0x00)
    1042                      .dwattr $C$DW$196, DW_AT_TI_return
    1043 000007 4804          RET
    1044                                                      ; return occurs
    1045                      .dwattr $C$DW$193, DW_AT_TI_end_file("C:/Users/a0221074/Desktop/C5000/IBM_Watson_TIdesign_workarea/CS
    1046                      .dwattr $C$DW$193, DW_AT_TI_end_line(0xb5)
    1047                      .dwattr $C$DW$193, DW_AT_TI_end_column(0x01)
    1048                      .dwendentry
    1049                      .dwendtag $C$DW$193
    1050              
    1051              ;******************************************************************************
    1052              ;* UNDEFINED EXTERNAL REFERENCES                                              *
    1053              ;******************************************************************************
    1054                      .global _OpenASR
    1055                      .global _CloseASR
    1056                      .global _CallSearchEngine
    1057                      .global _CloseSearchEngine
    1058                      .global _GetSearchMemorySize
    1059                      .global _GetMaxFrames
    1060                      .global _GetFrameCount
    1061                      .global _GetTotalScore
    1062                      .global _GetRealTimeGuardTh
    1063                      .global _GetRealTGuard
    1064                      .global _SetRealTimeGuardTh
    1065                      .global _SetRealTGuard
    1066                      .global _GetNumNbests
TMS320C55x Assembler PC v4.4.1 Wed Sep 13 16:33:16 2017

Tools Copyright (c) 1996-2012 Texas Instruments Incorporated
C:\Users\a0221074\AppData\Local\Temp\2199210                         PAGE   25

    1067                      .global _GetAnswerCount
    1068                      .global _GetAnswerIndex
    1069                      .global _GetAnswerWord
    1070                      .global _GetConfidenceScore
    1071                      .global _GetTIesrGaussSel
    1072                      .global _SetTIesrGaussSel
    1073                      .global _SetTIesrNBest
    1074                      .global _GetTIesrNBest
    1075                      .global _SetTIesrORM
    1076                      .global _GetTIesrORM
    1077                      .global _SetTIesrSS
    1078                      .global _GetTIesrSS
    1079                      .global _SetTIesrCM
    1080                      .global _GetTIesrCM
    1081                      .global _GetCycleCount
    1082                      .global _GetTIesrPrune
    1083                      .global _GetTIesrTransiWeight
    1084                      .global _GetVolumeStatus
    1085                      .global _SetTIesrPrune
    1086                      .global _SetTIesrTransiWeight
    1087                      .global _GetTIesrSAD
    1088                      .global _SetTIesrSAD
    1089                      .global _GetTIesrJAC
    1090                      .global _SetTIesrJAC
    1091                      .global _GetTIesrSBC
    1092                      .global _SetTIesrSBC
    1093                      .global _OpenSearchEngine
    1094                      .global _SetTIesrVolRange
    1095                      .global _GetTIesrVolRange
    1096                      .global _SpeechDetected
    1097                      .global _SpeechEnded
    1098                      .global _SADState
    1099                      .global _JAC_load
    1100                      .global _JAC_save
    1101                      .global _JAC_clear
    1102                      .global _JAC_update
    1103                      .global _GetTIesrJacRate
    1104                      .global _SetTIesrJacRate
    1105              
    1106              ;*******************************************************************************
    1107              ;* TYPE INFORMATION                                                            *
    1108              ;*******************************************************************************
    1109              
    1110              $C$DW$T$49      .dwtag  DW_TAG_enumeration_type
    1111                      .dwattr $C$DW$T$49, DW_AT_byte_size(0x01)
    1112              $C$DW$197       .dwtag  DW_TAG_enumerator, DW_AT_name("eTIesrEngineSuccess"), DW_AT_const_value(0x64)
    1113              $C$DW$198       .dwtag  DW_TAG_enumerator, DW_AT_name("eTIesrEngineEvalCellOverflow"), DW_AT_const_value(0x65
    1114              $C$DW$199       .dwtag  DW_TAG_enumerator, DW_AT_name("eTIesrEngineBeamCellOverflow"), DW_AT_const_value(0x66
    1115              $C$DW$200       .dwtag  DW_TAG_enumerator, DW_AT_name("eTIesrEngineTimeCellOverflow"), DW_AT_const_value(0x67
    1116              $C$DW$201       .dwtag  DW_TAG_enumerator, DW_AT_name("eTIesrEngineSearchSpace"), DW_AT_const_value(0xc8)
    1117              $C$DW$202       .dwtag  DW_TAG_enumerator, DW_AT_name("eTIesrEngineSearchMemoryLimit"), DW_AT_const_value(0xc
    1118              $C$DW$203       .dwtag  DW_TAG_enumerator, DW_AT_name("eTIesrEngineSearchMemorySize"), DW_AT_const_value(0xca
    1119              $C$DW$204       .dwtag  DW_TAG_enumerator, DW_AT_name("eTIesrEngineVQHMMMemorySize"), DW_AT_const_value(0xcb)
    1120              $C$DW$205       .dwtag  DW_TAG_enumerator, DW_AT_name("eTIesrEngineVQHMMGarbage"), DW_AT_const_value(0xcc)
    1121              $C$DW$206       .dwtag  DW_TAG_enumerator, DW_AT_name("eTIesrEngineVQHMMSave"), DW_AT_const_value(0xcd)
TMS320C55x Assembler PC v4.4.1 Wed Sep 13 16:33:16 2017

Tools Copyright (c) 1996-2012 Texas Instruments Incorporated
C:\Users\a0221074\AppData\Local\Temp\2199210                         PAGE   26

    1122              $C$DW$207       .dwtag  DW_TAG_enumerator, DW_AT_name("eTIesrEngineVQHMMLoad"), DW_AT_const_value(0xce)
    1123              $C$DW$208       .dwtag  DW_TAG_enumerator, DW_AT_name("eTIesrEngineCompFail"), DW_AT_const_value(0xcf)
    1124              $C$DW$209       .dwtag  DW_TAG_enumerator, DW_AT_name("eTIesrEngineFeatureMemoryOut"), DW_AT_const_value(0x12
    1125              $C$DW$210       .dwtag  DW_TAG_enumerator, DW_AT_name("eTIesrEngineSegmentMemoryOut"), DW_AT_const_value(0x12
    1126              $C$DW$211       .dwtag  DW_TAG_enumerator, DW_AT_name("eTIesrEngineMuSpaceMemoryOut"), DW_AT_const_value(0x12
    1127              $C$DW$212       .dwtag  DW_TAG_enumerator, DW_AT_name("eTIesrEngineFeatureFrameOut"), DW_AT_const_value(0x12f
    1128              $C$DW$213       .dwtag  DW_TAG_enumerator, DW_AT_name("eTIesrEngineAnswerMemoryOut"), DW_AT_const_value(0x130
    1129              $C$DW$214       .dwtag  DW_TAG_enumerator, DW_AT_name("eTIesrEngineTimeOut"), DW_AT_const_value(0x131)
    1130              $C$DW$215       .dwtag  DW_TAG_enumerator, DW_AT_name("eTIesrEngineNBestMem"), DW_AT_const_value(0x132)
    1131              $C$DW$216       .dwtag  DW_TAG_enumerator, DW_AT_name("eTIesrEngineModelLoadFail"), DW_AT_const_value(0x190)
    1132              $C$DW$217       .dwtag  DW_TAG_enumerator, DW_AT_name("eTIesrEngineAlignmentFail"), DW_AT_const_value(0x191)
    1133              $C$DW$218       .dwtag  DW_TAG_enumerator, DW_AT_name("eTIesrEngineMemorySizeFail"), DW_AT_const_value(0x192)
    1134              $C$DW$219       .dwtag  DW_TAG_enumerator, DW_AT_name("eTIesrEngineFailedJAC"), DW_AT_const_value(0x1a9)
    1135              $C$DW$220       .dwtag  DW_TAG_enumerator, DW_AT_name("eTIesrEngineFeatureDimensionFail"), DW_AT_const_value(
    1136              $C$DW$221       .dwtag  DW_TAG_enumerator, DW_AT_name("eTIesrEngineSegmentSizeCheckFail"), DW_AT_const_value(
    1137              $C$DW$222       .dwtag  DW_TAG_enumerator, DW_AT_name("eTIesrEngineModelFileFail"), DW_AT_const_value(0x1c4)
    1138              $C$DW$223       .dwtag  DW_TAG_enumerator, DW_AT_name("eTIesrEngineSaveFail"), DW_AT_const_value(0x1c5)
    1139              $C$DW$224       .dwtag  DW_TAG_enumerator, DW_AT_name("eTIesrEngineEnrollLoadFail"), DW_AT_const_value(0x1c6)
    1140              $C$DW$225       .dwtag  DW_TAG_enumerator, DW_AT_name("eTIesrEngineBackgoundCreationFail"), DW_AT_const_value
    1141              $C$DW$226       .dwtag  DW_TAG_enumerator, DW_AT_name("eTIesrEngineStateMemoryOut"), DW_AT_const_value(0x1f4)
    1142              $C$DW$227       .dwtag  DW_TAG_enumerator, DW_AT_name("eTIesrEngineSearchMemoryOut"), DW_AT_const_value(0x1f5
    1143              $C$DW$228       .dwtag  DW_TAG_enumerator, DW_AT_name("eTIesrEngineModelMemorySize"), DW_AT_const_value(0x258
    1144              $C$DW$229       .dwtag  DW_TAG_enumerator, DW_AT_name("eTIesrEngineFeatureMemorySize"), DW_AT_const_value(0x2
    1145              $C$DW$230       .dwtag  DW_TAG_enumerator, DW_AT_name("eTIesrEngineNetworkMemorySize"), DW_AT_const_value(0x2
    1146              $C$DW$231       .dwtag  DW_TAG_enumerator, DW_AT_name("eTIesrEngineModelSize"), DW_AT_const_value(0x25b)
    1147              $C$DW$232       .dwtag  DW_TAG_enumerator, DW_AT_name("eTIesrEngineBackTrackMemorySize"), DW_AT_const_value(0
    1148              $C$DW$233       .dwtag  DW_TAG_enumerator, DW_AT_name("eTIesrEngineCMMemorySize"), DW_AT_const_value(0x25d)
    1149              $C$DW$234       .dwtag  DW_TAG_enumerator, DW_AT_name("eTIesrEngineVALTreeMemorySize"), DW_AT_const_value(0x2
    1150              $C$DW$235       .dwtag  DW_TAG_enumerator, DW_AT_name("eTIesrEngineSym2PosMapSize"), DW_AT_const_value(0x25f)
    1151              $C$DW$236       .dwtag  DW_TAG_enumerator, DW_AT_name("eTIesrEngineShortUtterance"), DW_AT_const_value(0x2bc)
    1152              $C$DW$237       .dwtag  DW_TAG_enumerator, DW_AT_name("eTIesrTTSLoadHMM2Phone"), DW_AT_const_value(0x320)
    1153              $C$DW$238       .dwtag  DW_TAG_enumerator, DW_AT_name("eTIesrTTSNoSilencePhone"), DW_AT_const_value(0x321)
    1154              $C$DW$239       .dwtag  DW_TAG_enumerator, DW_AT_name("eTIesrTTSLoadPhone2Voicing"), DW_AT_const_value(0x322)
    1155              $C$DW$240       .dwtag  DW_TAG_enumerator, DW_AT_name("eTIesrTTSLoadPhoneDuration"), DW_AT_const_value(0x323)
    1156              $C$DW$241       .dwtag  DW_TAG_enumerator, DW_AT_name("eTIesrTTSPhoneMismatch"), DW_AT_const_value(0x324)
    1157              $C$DW$242       .dwtag  DW_TAG_enumerator, DW_AT_name("eTIesrTTSPhoneMissWord"), DW_AT_const_value(0x325)
    1158              $C$DW$243       .dwtag  DW_TAG_enumerator, DW_AT_name("eTIesrTTSPhoneDuration"), DW_AT_const_value(0x326)
    1159              $C$DW$244       .dwtag  DW_TAG_enumerator, DW_AT_name("eTIesrTTSPhoneWord"), DW_AT_const_value(0x327)
    1160              $C$DW$245       .dwtag  DW_TAG_enumerator, DW_AT_name("eTIesrTTSSaveTTSMean"), DW_AT_const_value(0x328)
    1161              $C$DW$246       .dwtag  DW_TAG_enumerator, DW_AT_name("eTIesrTTSSaveVoicing"), DW_AT_const_value(0x329)
    1162              $C$DW$247       .dwtag  DW_TAG_enumerator, DW_AT_name("eTIesrTTSSaveDuration"), DW_AT_const_value(0x32a)
    1163              $C$DW$248       .dwtag  DW_TAG_enumerator, DW_AT_name("eTIesrTTSTTS"), DW_AT_const_value(0x32b)
    1164              $C$DW$249       .dwtag  DW_TAG_enumerator, DW_AT_name("eTIesrTTSPhoneList"), DW_AT_const_value(0x32c)
    1165              $C$DW$250       .dwtag  DW_TAG_enumerator, DW_AT_name("eTIesrTTSNumPhones"), DW_AT_const_value(0x32d)
    1166              $C$DW$251       .dwtag  DW_TAG_enumerator, DW_AT_name("eTIesrTTSNumWords"), DW_AT_const_value(0x32e)
    1167              $C$DW$252       .dwtag  DW_TAG_enumerator, DW_AT_name("eTIesrTTSOutputFile"), DW_AT_const_value(0x32f)
    1168              $C$DW$253       .dwtag  DW_TAG_enumerator, DW_AT_name("eTIesrTTSInputMFCC"), DW_AT_const_value(0x330)
    1169              $C$DW$254       .dwtag  DW_TAG_enumerator, DW_AT_name("eTIesrTTSInputDuration"), DW_AT_const_value(0x331)
    1170              $C$DW$255       .dwtag  DW_TAG_enumerator, DW_AT_name("eTIesrTTSInputVoicing"), DW_AT_const_value(0x332)
    1171              $C$DW$256       .dwtag  DW_TAG_enumerator, DW_AT_name("eTIesrTTSNotFound"), DW_AT_const_value(0x333)
    1172              $C$DW$257       .dwtag  DW_TAG_enumerator, DW_AT_name("eTIesrTTSOutputMeanSize"), DW_AT_const_value(0x334)
    1173              $C$DW$258       .dwtag  DW_TAG_enumerator, DW_AT_name("eTIesrTTSOutput"), DW_AT_const_value(0x335)
    1174                      .dwendtag $C$DW$T$49
    1175              
    1176              $C$DW$T$50      .dwtag  DW_TAG_typedef, DW_AT_name("TIesrEngineStatusType")
TMS320C55x Assembler PC v4.4.1 Wed Sep 13 16:33:16 2017

Tools Copyright (c) 1996-2012 Texas Instruments Incorporated
C:\Users\a0221074\AppData\Local\Temp\2199210                         PAGE   27

    1177                      .dwattr $C$DW$T$50, DW_AT_type(*$C$DW$T$49)
    1178                      .dwattr $C$DW$T$50, DW_AT_language(DW_LANG_C)
    1179              
    1180              $C$DW$T$55      .dwtag  DW_TAG_subroutine_type
    1181                      .dwattr $C$DW$T$55, DW_AT_type(*$C$DW$T$50)
    1182                      .dwattr $C$DW$T$55, DW_AT_language(DW_LANG_C)
    1183              $C$DW$259       .dwtag  DW_TAG_formal_parameter
    1184                      .dwattr $C$DW$259, DW_AT_type(*$C$DW$T$52)
    1185              $C$DW$260       .dwtag  DW_TAG_formal_parameter
    1186                      .dwattr $C$DW$260, DW_AT_type(*$C$DW$T$10)
    1187              $C$DW$261       .dwtag  DW_TAG_formal_parameter
    1188                      .dwattr $C$DW$261, DW_AT_type(*$C$DW$T$54)
    1189                      .dwendtag $C$DW$T$55
    1190              
    1191              $C$DW$T$56      .dwtag  DW_TAG_pointer_type
    1192                      .dwattr $C$DW$T$56, DW_AT_type(*$C$DW$T$55)
    1193                      .dwattr $C$DW$T$56, DW_AT_address_class(0x20)
    1194              
    1195              $C$DW$T$59      .dwtag  DW_TAG_subroutine_type
    1196                      .dwattr $C$DW$T$59, DW_AT_type(*$C$DW$T$50)
    1197                      .dwattr $C$DW$T$59, DW_AT_language(DW_LANG_C)
    1198              $C$DW$262       .dwtag  DW_TAG_formal_parameter
    1199                      .dwattr $C$DW$262, DW_AT_type(*$C$DW$T$54)
    1200                      .dwendtag $C$DW$T$59
    1201              
    1202              $C$DW$T$60      .dwtag  DW_TAG_pointer_type
    1203                      .dwattr $C$DW$T$60, DW_AT_type(*$C$DW$T$59)
    1204                      .dwattr $C$DW$T$60, DW_AT_address_class(0x20)
    1205              
    1206              $C$DW$T$61      .dwtag  DW_TAG_subroutine_type
    1207                      .dwattr $C$DW$T$61, DW_AT_type(*$C$DW$T$50)
    1208                      .dwattr $C$DW$T$61, DW_AT_language(DW_LANG_C)
    1209              $C$DW$263       .dwtag  DW_TAG_formal_parameter
    1210                      .dwattr $C$DW$263, DW_AT_type(*$C$DW$T$21)
    1211              $C$DW$264       .dwtag  DW_TAG_formal_parameter
    1212                      .dwattr $C$DW$264, DW_AT_type(*$C$DW$T$54)
    1213              $C$DW$265       .dwtag  DW_TAG_formal_parameter
    1214                      .dwattr $C$DW$265, DW_AT_type(*$C$DW$T$11)
    1215              $C$DW$266       .dwtag  DW_TAG_formal_parameter
    1216                      .dwattr $C$DW$266, DW_AT_type(*$C$DW$T$8)
    1217                      .dwendtag $C$DW$T$61
    1218              
    1219              $C$DW$T$62      .dwtag  DW_TAG_pointer_type
    1220                      .dwattr $C$DW$T$62, DW_AT_type(*$C$DW$T$61)
    1221                      .dwattr $C$DW$T$62, DW_AT_address_class(0x20)
    1222              
    1223              $C$DW$T$63      .dwtag  DW_TAG_subroutine_type
    1224                      .dwattr $C$DW$T$63, DW_AT_type(*$C$DW$T$50)
    1225                      .dwattr $C$DW$T$63, DW_AT_language(DW_LANG_C)
    1226              $C$DW$267       .dwtag  DW_TAG_formal_parameter
    1227                      .dwattr $C$DW$267, DW_AT_type(*$C$DW$T$50)
    1228              $C$DW$268       .dwtag  DW_TAG_formal_parameter
    1229                      .dwattr $C$DW$268, DW_AT_type(*$C$DW$T$54)
    1230                      .dwendtag $C$DW$T$63
    1231              
TMS320C55x Assembler PC v4.4.1 Wed Sep 13 16:33:16 2017

Tools Copyright (c) 1996-2012 Texas Instruments Incorporated
C:\Users\a0221074\AppData\Local\Temp\2199210                         PAGE   28

    1232              $C$DW$T$64      .dwtag  DW_TAG_pointer_type
    1233                      .dwattr $C$DW$T$64, DW_AT_type(*$C$DW$T$63)
    1234                      .dwattr $C$DW$T$64, DW_AT_address_class(0x20)
    1235              
    1236              $C$DW$T$67      .dwtag  DW_TAG_enumeration_type
    1237                      .dwattr $C$DW$T$67, DW_AT_byte_size(0x01)
    1238              $C$DW$269       .dwtag  DW_TAG_enumerator, DW_AT_name("eTIesrEngineJACSuccess"), DW_AT_const_value(0x00)
    1239              $C$DW$270       .dwtag  DW_TAG_enumerator, DW_AT_name("eTIesrEngineJACMemoryFail"), DW_AT_const_value(0x01)
    1240              $C$DW$271       .dwtag  DW_TAG_enumerator, DW_AT_name("eTIesrEngineJACLoadFail"), DW_AT_const_value(0x02)
    1241              $C$DW$272       .dwtag  DW_TAG_enumerator, DW_AT_name("eTIesrEngineJACReset"), DW_AT_const_value(0x03)
    1242              $C$DW$273       .dwtag  DW_TAG_enumerator, DW_AT_name("eTIesrEngineJACSaveFail"), DW_AT_const_value(0x04)
    1243              $C$DW$274       .dwtag  DW_TAG_enumerator, DW_AT_name("eTIesrEngineJACSBCInitFail"), DW_AT_const_value(0x05)
    1244              $C$DW$275       .dwtag  DW_TAG_enumerator, DW_AT_name("eTIesrEngineJACSBCLoadFail"), DW_AT_const_value(0x06)
    1245              $C$DW$276       .dwtag  DW_TAG_enumerator, DW_AT_name("eTIesrEngineJACSVAFail"), DW_AT_const_value(0x07)
    1246              $C$DW$277       .dwtag  DW_TAG_enumerator, DW_AT_name("eTIesrEngineJACFail"), DW_AT_const_value(0x08)
    1247              $C$DW$278       .dwtag  DW_TAG_enumerator, DW_AT_name("eTIesrEngineJACNoAlignment"), DW_AT_const_value(0x09)
    1248              $C$DW$279       .dwtag  DW_TAG_enumerator, DW_AT_name("eTIesrEngineJACRJLoadFail"), DW_AT_const_value(0x0a)
    1249                      .dwendtag $C$DW$T$67
    1250              
    1251              $C$DW$T$68      .dwtag  DW_TAG_typedef, DW_AT_name("TIesrEngineJACStatusType")
    1252                      .dwattr $C$DW$T$68, DW_AT_type(*$C$DW$T$67)
    1253                      .dwattr $C$DW$T$68, DW_AT_language(DW_LANG_C)
    1254              
    1255              $C$DW$T$71      .dwtag  DW_TAG_subroutine_type
    1256                      .dwattr $C$DW$T$71, DW_AT_type(*$C$DW$T$68)
    1257                      .dwattr $C$DW$T$71, DW_AT_language(DW_LANG_C)
    1258              $C$DW$280       .dwtag  DW_TAG_formal_parameter
    1259                      .dwattr $C$DW$280, DW_AT_type(*$C$DW$T$70)
    1260              $C$DW$281       .dwtag  DW_TAG_formal_parameter
    1261                      .dwattr $C$DW$281, DW_AT_type(*$C$DW$T$54)
    1262              $C$DW$282       .dwtag  DW_TAG_formal_parameter
    1263                      .dwattr $C$DW$282, DW_AT_type(*$C$DW$T$70)
    1264              $C$DW$283       .dwtag  DW_TAG_formal_parameter
    1265                      .dwattr $C$DW$283, DW_AT_type(*$C$DW$T$70)
    1266                      .dwendtag $C$DW$T$71
    1267              
    1268              $C$DW$T$72      .dwtag  DW_TAG_pointer_type
    1269                      .dwattr $C$DW$T$72, DW_AT_type(*$C$DW$T$71)
    1270                      .dwattr $C$DW$T$72, DW_AT_address_class(0x20)
    1271              
    1272              $C$DW$T$73      .dwtag  DW_TAG_subroutine_type
    1273                      .dwattr $C$DW$T$73, DW_AT_type(*$C$DW$T$68)
    1274                      .dwattr $C$DW$T$73, DW_AT_language(DW_LANG_C)
    1275              $C$DW$284       .dwtag  DW_TAG_formal_parameter
    1276                      .dwattr $C$DW$284, DW_AT_type(*$C$DW$T$70)
    1277              $C$DW$285       .dwtag  DW_TAG_formal_parameter
    1278                      .dwattr $C$DW$285, DW_AT_type(*$C$DW$T$54)
    1279                      .dwendtag $C$DW$T$73
    1280              
    1281              $C$DW$T$74      .dwtag  DW_TAG_pointer_type
    1282                      .dwattr $C$DW$T$74, DW_AT_type(*$C$DW$T$73)
    1283                      .dwattr $C$DW$T$74, DW_AT_address_class(0x20)
    1284              
    1285              $C$DW$T$75      .dwtag  DW_TAG_subroutine_type
    1286                      .dwattr $C$DW$T$75, DW_AT_type(*$C$DW$T$68)
TMS320C55x Assembler PC v4.4.1 Wed Sep 13 16:33:16 2017

Tools Copyright (c) 1996-2012 Texas Instruments Incorporated
C:\Users\a0221074\AppData\Local\Temp\2199210                         PAGE   29

    1287                      .dwattr $C$DW$T$75, DW_AT_language(DW_LANG_C)
    1288              $C$DW$286       .dwtag  DW_TAG_formal_parameter
    1289                      .dwattr $C$DW$286, DW_AT_type(*$C$DW$T$54)
    1290              $C$DW$287       .dwtag  DW_TAG_formal_parameter
    1291                      .dwattr $C$DW$287, DW_AT_type(*$C$DW$T$70)
    1292              $C$DW$288       .dwtag  DW_TAG_formal_parameter
    1293                      .dwattr $C$DW$288, DW_AT_type(*$C$DW$T$70)
    1294                      .dwendtag $C$DW$T$75
    1295              
    1296              $C$DW$T$76      .dwtag  DW_TAG_pointer_type
    1297                      .dwattr $C$DW$T$76, DW_AT_type(*$C$DW$T$75)
    1298                      .dwattr $C$DW$T$76, DW_AT_address_class(0x20)
    1299              
    1300              $C$DW$T$77      .dwtag  DW_TAG_subroutine_type
    1301                      .dwattr $C$DW$T$77, DW_AT_type(*$C$DW$T$68)
    1302                      .dwattr $C$DW$T$77, DW_AT_language(DW_LANG_C)
    1303              $C$DW$289       .dwtag  DW_TAG_formal_parameter
    1304                      .dwattr $C$DW$289, DW_AT_type(*$C$DW$T$54)
    1305                      .dwendtag $C$DW$T$77
    1306              
    1307              $C$DW$T$78      .dwtag  DW_TAG_pointer_type
    1308                      .dwattr $C$DW$T$78, DW_AT_type(*$C$DW$T$77)
    1309                      .dwattr $C$DW$T$78, DW_AT_address_class(0x20)
    1310              
    1311              $C$DW$T$19      .dwtag  DW_TAG_structure_type
    1312                      .dwattr $C$DW$T$19, DW_AT_byte_size(0x03)
    1313              $C$DW$290       .dwtag  DW_TAG_member
    1314                      .dwattr $C$DW$290, DW_AT_type(*$C$DW$T$8)
    1315                      .dwattr $C$DW$290, DW_AT_name("num")
    1316                      .dwattr $C$DW$290, DW_AT_TI_symbol_name("_num")
    1317                      .dwattr $C$DW$290, DW_AT_data_member_location[DW_OP_plus_uconst 0x0]
    1318                      .dwattr $C$DW$290, DW_AT_accessibility(DW_ACCESS_public)
    1319              $C$DW$291       .dwtag  DW_TAG_member
    1320                      .dwattr $C$DW$291, DW_AT_type(*$C$DW$T$8)
    1321                      .dwattr $C$DW$291, DW_AT_name("x1")
    1322                      .dwattr $C$DW$291, DW_AT_TI_symbol_name("_x1")
    1323                      .dwattr $C$DW$291, DW_AT_data_member_location[DW_OP_plus_uconst 0x1]
    1324                      .dwattr $C$DW$291, DW_AT_accessibility(DW_ACCESS_public)
    1325              $C$DW$292       .dwtag  DW_TAG_member
    1326                      .dwattr $C$DW$292, DW_AT_type(*$C$DW$T$8)
    1327                      .dwattr $C$DW$292, DW_AT_name("x2")
    1328                      .dwattr $C$DW$292, DW_AT_TI_symbol_name("_x2")
    1329                      .dwattr $C$DW$292, DW_AT_data_member_location[DW_OP_plus_uconst 0x2]
    1330                      .dwattr $C$DW$292, DW_AT_accessibility(DW_ACCESS_public)
    1331                      .dwendtag $C$DW$T$19
    1332              
    1333              $C$DW$T$142     .dwtag  DW_TAG_typedef, DW_AT_name("mel_filter_type")
    1334                      .dwattr $C$DW$T$142, DW_AT_type(*$C$DW$T$19)
    1335                      .dwattr $C$DW$T$142, DW_AT_language(DW_LANG_C)
    1336              $C$DW$293       .dwtag  DW_TAG_TI_far_type
    1337                      .dwattr $C$DW$293, DW_AT_type(*$C$DW$T$142)
    1338              $C$DW$T$143     .dwtag  DW_TAG_const_type
    1339                      .dwattr $C$DW$T$143, DW_AT_type(*$C$DW$293)
    1340              $C$DW$T$144     .dwtag  DW_TAG_pointer_type
    1341                      .dwattr $C$DW$T$144, DW_AT_type(*$C$DW$T$143)
TMS320C55x Assembler PC v4.4.1 Wed Sep 13 16:33:16 2017

Tools Copyright (c) 1996-2012 Texas Instruments Incorporated
C:\Users\a0221074\AppData\Local\Temp\2199210                         PAGE   30

    1342                      .dwattr $C$DW$T$144, DW_AT_address_class(0x17)
    1343              
    1344              $C$DW$T$23      .dwtag  DW_TAG_structure_type
    1345                      .dwattr $C$DW$T$23, DW_AT_byte_size(0x18)
    1346              $C$DW$294       .dwtag  DW_TAG_member
    1347                      .dwattr $C$DW$294, DW_AT_type(*$C$DW$T$20)
    1348                      .dwattr $C$DW$294, DW_AT_name("max_mem_usage")
    1349                      .dwattr $C$DW$294, DW_AT_TI_symbol_name("_max_mem_usage")
    1350                      .dwattr $C$DW$294, DW_AT_data_member_location[DW_OP_plus_uconst 0x0]
    1351                      .dwattr $C$DW$294, DW_AT_accessibility(DW_ACCESS_public)
    1352              $C$DW$295       .dwtag  DW_TAG_member
    1353                      .dwattr $C$DW$295, DW_AT_type(*$C$DW$T$20)
    1354                      .dwattr $C$DW$295, DW_AT_name("n_terminals")
    1355                      .dwattr $C$DW$295, DW_AT_TI_symbol_name("_n_terminals")
    1356                      .dwattr $C$DW$295, DW_AT_data_member_location[DW_OP_plus_uconst 0x1]
    1357                      .dwattr $C$DW$295, DW_AT_accessibility(DW_ACCESS_public)
    1358              $C$DW$296       .dwtag  DW_TAG_member
    1359                      .dwattr $C$DW$296, DW_AT_type(*$C$DW$T$20)
    1360                      .dwattr $C$DW$296, DW_AT_name("n_monophones")
    1361                      .dwattr $C$DW$296, DW_AT_TI_symbol_name("_n_monophones")
    1362                      .dwattr $C$DW$296, DW_AT_data_member_location[DW_OP_plus_uconst 0x2]
    1363                      .dwattr $C$DW$296, DW_AT_accessibility(DW_ACCESS_public)
    1364              $C$DW$297       .dwtag  DW_TAG_member
    1365                      .dwattr $C$DW$297, DW_AT_type(*$C$DW$T$21)
    1366                      .dwattr $C$DW$297, DW_AT_name("hlrTreeBase")
    1367                      .dwattr $C$DW$297, DW_AT_TI_symbol_name("_hlrTreeBase")
    1368                      .dwattr $C$DW$297, DW_AT_data_member_location[DW_OP_plus_uconst 0x4]
    1369                      .dwattr $C$DW$297, DW_AT_accessibility(DW_ACCESS_public)
    1370              $C$DW$298       .dwtag  DW_TAG_member
    1371                      .dwattr $C$DW$298, DW_AT_type(*$C$DW$T$22)
    1372                      .dwattr $C$DW$298, DW_AT_name("hlrTerminal")
    1373                      .dwattr $C$DW$298, DW_AT_TI_symbol_name("_hlrTerminal")
    1374                      .dwattr $C$DW$298, DW_AT_data_member_location[DW_OP_plus_uconst 0x6]
    1375                      .dwattr $C$DW$298, DW_AT_accessibility(DW_ACCESS_public)
    1376              $C$DW$299       .dwtag  DW_TAG_member
    1377                      .dwattr $C$DW$299, DW_AT_type(*$C$DW$T$21)
    1378                      .dwattr $C$DW$299, DW_AT_name("pHMM2phone")
    1379                      .dwattr $C$DW$299, DW_AT_TI_symbol_name("_pHMM2phone")
    1380                      .dwattr $C$DW$299, DW_AT_data_member_location[DW_OP_plus_uconst 0x8]
    1381                      .dwattr $C$DW$299, DW_AT_accessibility(DW_ACCESS_public)
    1382              $C$DW$300       .dwtag  DW_TAG_member
    1383                      .dwattr $C$DW$300, DW_AT_type(*$C$DW$T$22)
    1384                      .dwattr $C$DW$300, DW_AT_name("hlrTransformIndex")
    1385                      .dwattr $C$DW$300, DW_AT_TI_symbol_name("_hlrTransformIndex")
    1386                      .dwattr $C$DW$300, DW_AT_data_member_location[DW_OP_plus_uconst 0xa]
    1387                      .dwattr $C$DW$300, DW_AT_accessibility(DW_ACCESS_public)
    1388              $C$DW$301       .dwtag  DW_TAG_member
    1389                      .dwattr $C$DW$301, DW_AT_type(*$C$DW$T$20)
    1390                      .dwattr $C$DW$301, DW_AT_name("hlr_TRANSFORM_SIZE")
    1391                      .dwattr $C$DW$301, DW_AT_TI_symbol_name("_hlr_TRANSFORM_SIZE")
    1392                      .dwattr $C$DW$301, DW_AT_data_member_location[DW_OP_plus_uconst 0xc]
    1393                      .dwattr $C$DW$301, DW_AT_accessibility(DW_ACCESS_public)
    1394              $C$DW$302       .dwtag  DW_TAG_member
    1395                      .dwattr $C$DW$302, DW_AT_type(*$C$DW$T$21)
    1396                      .dwattr $C$DW$302, DW_AT_name("hlrTransforms")
TMS320C55x Assembler PC v4.4.1 Wed Sep 13 16:33:16 2017

Tools Copyright (c) 1996-2012 Texas Instruments Incorporated
C:\Users\a0221074\AppData\Local\Temp\2199210                         PAGE   31

    1397                      .dwattr $C$DW$302, DW_AT_TI_symbol_name("_hlrTransforms")
    1398                      .dwattr $C$DW$302, DW_AT_data_member_location[DW_OP_plus_uconst 0xe]
    1399                      .dwattr $C$DW$302, DW_AT_accessibility(DW_ACCESS_public)
    1400              $C$DW$303       .dwtag  DW_TAG_member
    1401                      .dwattr $C$DW$303, DW_AT_type(*$C$DW$T$21)
    1402                      .dwattr $C$DW$303, DW_AT_name("pSegStat_dif1")
    1403                      .dwattr $C$DW$303, DW_AT_TI_symbol_name("_pSegStat_dif1")
    1404                      .dwattr $C$DW$303, DW_AT_data_member_location[DW_OP_plus_uconst 0x10]
    1405                      .dwattr $C$DW$303, DW_AT_accessibility(DW_ACCESS_public)
    1406              $C$DW$304       .dwtag  DW_TAG_member
    1407                      .dwattr $C$DW$304, DW_AT_type(*$C$DW$T$21)
    1408                      .dwattr $C$DW$304, DW_AT_name("pSegStat_dif2")
    1409                      .dwattr $C$DW$304, DW_AT_TI_symbol_name("_pSegStat_dif2")
    1410                      .dwattr $C$DW$304, DW_AT_data_member_location[DW_OP_plus_uconst 0x12]
    1411                      .dwattr $C$DW$304, DW_AT_accessibility(DW_ACCESS_public)
    1412              $C$DW$305       .dwtag  DW_TAG_member
    1413                      .dwattr $C$DW$305, DW_AT_type(*$C$DW$T$21)
    1414                      .dwattr $C$DW$305, DW_AT_name("pEnhanced")
    1415                      .dwattr $C$DW$305, DW_AT_TI_symbol_name("_pEnhanced")
    1416                      .dwattr $C$DW$305, DW_AT_data_member_location[DW_OP_plus_uconst 0x14]
    1417                      .dwattr $C$DW$305, DW_AT_accessibility(DW_ACCESS_public)
    1418              $C$DW$306       .dwtag  DW_TAG_member
    1419                      .dwattr $C$DW$306, DW_AT_type(*$C$DW$T$21)
    1420                      .dwattr $C$DW$306, DW_AT_name("bk_node_cnt")
    1421                      .dwattr $C$DW$306, DW_AT_TI_symbol_name("_bk_node_cnt")
    1422                      .dwattr $C$DW$306, DW_AT_data_member_location[DW_OP_plus_uconst 0x16]
    1423                      .dwattr $C$DW$306, DW_AT_accessibility(DW_ACCESS_public)
    1424                      .dwendtag $C$DW$T$23
    1425              
    1426              $C$DW$T$148     .dwtag  DW_TAG_typedef, DW_AT_name("FeaHLRAccType")
    1427                      .dwattr $C$DW$T$148, DW_AT_type(*$C$DW$T$23)
    1428                      .dwattr $C$DW$T$148, DW_AT_language(DW_LANG_C)
    1429              $C$DW$T$149     .dwtag  DW_TAG_pointer_type
    1430                      .dwattr $C$DW$T$149, DW_AT_type(*$C$DW$T$148)
    1431                      .dwattr $C$DW$T$149, DW_AT_address_class(0x17)
    1432              
    1433              $C$DW$T$24      .dwtag  DW_TAG_structure_type
    1434                      .dwattr $C$DW$T$24, DW_AT_byte_size(0x03)
    1435              $C$DW$307       .dwtag  DW_TAG_member
    1436                      .dwattr $C$DW$307, DW_AT_type(*$C$DW$T$9)
    1437                      .dwattr $C$DW$307, DW_AT_name("sym_code")
    1438                      .dwattr $C$DW$307, DW_AT_TI_symbol_name("_sym_code")
    1439                      .dwattr $C$DW$307, DW_AT_data_member_location[DW_OP_plus_uconst 0x0]
    1440                      .dwattr $C$DW$307, DW_AT_accessibility(DW_ACCESS_public)
    1441              $C$DW$308       .dwtag  DW_TAG_member
    1442                      .dwattr $C$DW$308, DW_AT_type(*$C$DW$T$9)
    1443                      .dwattr $C$DW$308, DW_AT_name("start_cell")
    1444                      .dwattr $C$DW$308, DW_AT_TI_symbol_name("_start_cell")
    1445                      .dwattr $C$DW$308, DW_AT_data_member_location[DW_OP_plus_uconst 0x1]
    1446                      .dwattr $C$DW$308, DW_AT_accessibility(DW_ACCESS_public)
    1447              $C$DW$309       .dwtag  DW_TAG_member
    1448                      .dwattr $C$DW$309, DW_AT_type(*$C$DW$T$9)
    1449                      .dwattr $C$DW$309, DW_AT_name("depth")
    1450                      .dwattr $C$DW$309, DW_AT_TI_symbol_name("_depth")
    1451                      .dwattr $C$DW$309, DW_AT_data_member_location[DW_OP_plus_uconst 0x2]
TMS320C55x Assembler PC v4.4.1 Wed Sep 13 16:33:16 2017

Tools Copyright (c) 1996-2012 Texas Instruments Incorporated
C:\Users\a0221074\AppData\Local\Temp\2199210                         PAGE   32

    1452                      .dwattr $C$DW$309, DW_AT_accessibility(DW_ACCESS_public)
    1453                      .dwendtag $C$DW$T$24
    1454              
    1455              $C$DW$T$151     .dwtag  DW_TAG_typedef, DW_AT_name("SymCell")
    1456                      .dwattr $C$DW$T$151, DW_AT_type(*$C$DW$T$24)
    1457                      .dwattr $C$DW$T$151, DW_AT_language(DW_LANG_C)
    1458              $C$DW$T$152     .dwtag  DW_TAG_pointer_type
    1459                      .dwattr $C$DW$T$152, DW_AT_type(*$C$DW$T$151)
    1460                      .dwattr $C$DW$T$152, DW_AT_address_class(0x17)
    1461              
    1462              $C$DW$T$25      .dwtag  DW_TAG_structure_type
    1463                      .dwattr $C$DW$T$25, DW_AT_byte_size(0x03)
    1464              $C$DW$310       .dwtag  DW_TAG_member
    1465                      .dwattr $C$DW$310, DW_AT_type(*$C$DW$T$8)
    1466                      .dwattr $C$DW$310, DW_AT_name("scr")
    1467                      .dwattr $C$DW$310, DW_AT_TI_symbol_name("_scr")
    1468                      .dwattr $C$DW$310, DW_AT_data_member_location[DW_OP_plus_uconst 0x0]
    1469                      .dwattr $C$DW$310, DW_AT_accessibility(DW_ACCESS_public)
    1470              $C$DW$311       .dwtag  DW_TAG_member
    1471                      .dwattr $C$DW$311, DW_AT_type(*$C$DW$T$9)
    1472                      .dwattr $C$DW$311, DW_AT_name("sym")
    1473                      .dwattr $C$DW$311, DW_AT_TI_symbol_name("_sym")
    1474                      .dwattr $C$DW$311, DW_AT_data_member_location[DW_OP_plus_uconst 0x1]
    1475                      .dwattr $C$DW$311, DW_AT_accessibility(DW_ACCESS_public)
    1476              $C$DW$312       .dwtag  DW_TAG_member
    1477                      .dwattr $C$DW$312, DW_AT_type(*$C$DW$T$9)
    1478                      .dwattr $C$DW$312, DW_AT_name("frm")
    1479                      .dwattr $C$DW$312, DW_AT_TI_symbol_name("_frm")
    1480                      .dwattr $C$DW$312, DW_AT_data_member_location[DW_OP_plus_uconst 0x2]
    1481                      .dwattr $C$DW$312, DW_AT_accessibility(DW_ACCESS_public)
    1482                      .dwendtag $C$DW$T$25
    1483              
    1484              $C$DW$T$153     .dwtag  DW_TAG_typedef, DW_AT_name("StateCell")
    1485                      .dwattr $C$DW$T$153, DW_AT_type(*$C$DW$T$25)
    1486                      .dwattr $C$DW$T$153, DW_AT_language(DW_LANG_C)
    1487              $C$DW$T$154     .dwtag  DW_TAG_pointer_type
    1488                      .dwattr $C$DW$T$154, DW_AT_type(*$C$DW$T$153)
    1489                      .dwattr $C$DW$T$154, DW_AT_address_class(0x17)
    1490              
    1491              $C$DW$T$26      .dwtag  DW_TAG_structure_type
    1492                      .dwattr $C$DW$T$26, DW_AT_byte_size(0x02)
    1493              $C$DW$313       .dwtag  DW_TAG_member
    1494                      .dwattr $C$DW$313, DW_AT_type(*$C$DW$T$9)
    1495                      .dwattr $C$DW$313, DW_AT_name("frm")
    1496                      .dwattr $C$DW$313, DW_AT_TI_symbol_name("_frm")
    1497                      .dwattr $C$DW$313, DW_AT_data_member_location[DW_OP_plus_uconst 0x0]
    1498                      .dwattr $C$DW$313, DW_AT_accessibility(DW_ACCESS_public)
    1499              $C$DW$314       .dwtag  DW_TAG_member
    1500                      .dwattr $C$DW$314, DW_AT_type(*$C$DW$T$9)
    1501                      .dwattr $C$DW$314, DW_AT_name("beam_idx")
    1502                      .dwattr $C$DW$314, DW_AT_TI_symbol_name("_beam_idx")
    1503                      .dwattr $C$DW$314, DW_AT_data_member_location[DW_OP_plus_uconst 0x1]
    1504                      .dwattr $C$DW$314, DW_AT_accessibility(DW_ACCESS_public)
    1505                      .dwendtag $C$DW$T$26
    1506              
TMS320C55x Assembler PC v4.4.1 Wed Sep 13 16:33:16 2017

Tools Copyright (c) 1996-2012 Texas Instruments Incorporated
C:\Users\a0221074\AppData\Local\Temp\2199210                         PAGE   33

    1507              $C$DW$T$157     .dwtag  DW_TAG_typedef, DW_AT_name("TimeType")
    1508                      .dwattr $C$DW$T$157, DW_AT_type(*$C$DW$T$26)
    1509                      .dwattr $C$DW$T$157, DW_AT_language(DW_LANG_C)
    1510              $C$DW$T$158     .dwtag  DW_TAG_pointer_type
    1511                      .dwattr $C$DW$T$158, DW_AT_type(*$C$DW$T$157)
    1512                      .dwattr $C$DW$T$158, DW_AT_address_class(0x17)
    1513              
    1514              $C$DW$T$28      .dwtag  DW_TAG_structure_type
    1515                      .dwattr $C$DW$T$28, DW_AT_byte_size(0x08)
    1516              $C$DW$315       .dwtag  DW_TAG_member
    1517                      .dwattr $C$DW$315, DW_AT_type(*$C$DW$T$9)
    1518                      .dwattr $C$DW$315, DW_AT_name("n_hmm")
    1519                      .dwattr $C$DW$315, DW_AT_TI_symbol_name("_n_hmm")
    1520                      .dwattr $C$DW$315, DW_AT_data_member_location[DW_OP_plus_uconst 0x0]
    1521                      .dwattr $C$DW$315, DW_AT_accessibility(DW_ACCESS_public)
    1522              $C$DW$316       .dwtag  DW_TAG_member
    1523                      .dwattr $C$DW$316, DW_AT_type(*$C$DW$T$9)
    1524                      .dwattr $C$DW$316, DW_AT_name("n_sym")
    1525                      .dwattr $C$DW$316, DW_AT_TI_symbol_name("_n_sym")
    1526                      .dwattr $C$DW$316, DW_AT_data_member_location[DW_OP_plus_uconst 0x1]
    1527                      .dwattr $C$DW$316, DW_AT_accessibility(DW_ACCESS_public)
    1528              $C$DW$317       .dwtag  DW_TAG_member
    1529                      .dwattr $C$DW$317, DW_AT_type(*$C$DW$T$9)
    1530                      .dwattr $C$DW$317, DW_AT_name("n_word")
    1531                      .dwattr $C$DW$317, DW_AT_TI_symbol_name("_n_word")
    1532                      .dwattr $C$DW$317, DW_AT_data_member_location[DW_OP_plus_uconst 0x2]
    1533                      .dwattr $C$DW$317, DW_AT_accessibility(DW_ACCESS_public)
    1534              $C$DW$318       .dwtag  DW_TAG_member
    1535                      .dwattr $C$DW$318, DW_AT_type(*$C$DW$T$9)
    1536                      .dwattr $C$DW$318, DW_AT_name("n_set")
    1537                      .dwattr $C$DW$318, DW_AT_TI_symbol_name("_n_set")
    1538                      .dwattr $C$DW$318, DW_AT_data_member_location[DW_OP_plus_uconst 0x3]
    1539                      .dwattr $C$DW$318, DW_AT_accessibility(DW_ACCESS_public)
    1540              $C$DW$319       .dwtag  DW_TAG_member
    1541                      .dwattr $C$DW$319, DW_AT_type(*$C$DW$T$9)
    1542                      .dwattr $C$DW$319, DW_AT_name("n_hmm_set")
    1543                      .dwattr $C$DW$319, DW_AT_TI_symbol_name("_n_hmm_set")
    1544                      .dwattr $C$DW$319, DW_AT_data_member_location[DW_OP_plus_uconst 0x4]
    1545                      .dwattr $C$DW$319, DW_AT_accessibility(DW_ACCESS_public)
    1546              $C$DW$320       .dwtag  DW_TAG_member
    1547                      .dwattr $C$DW$320, DW_AT_type(*$C$DW$T$9)
    1548                      .dwattr $C$DW$320, DW_AT_name("start")
    1549                      .dwattr $C$DW$320, DW_AT_TI_symbol_name("_start")
    1550                      .dwattr $C$DW$320, DW_AT_data_member_location[DW_OP_plus_uconst 0x5]
    1551                      .dwattr $C$DW$320, DW_AT_accessibility(DW_ACCESS_public)
    1552              $C$DW$321       .dwtag  DW_TAG_member
    1553                      .dwattr $C$DW$321, DW_AT_type(*$C$DW$T$9)
    1554                      .dwattr $C$DW$321, DW_AT_name("stop")
    1555                      .dwattr $C$DW$321, DW_AT_TI_symbol_name("_stop")
    1556                      .dwattr $C$DW$321, DW_AT_data_member_location[DW_OP_plus_uconst 0x6]
    1557                      .dwattr $C$DW$321, DW_AT_accessibility(DW_ACCESS_public)
    1558              $C$DW$322       .dwtag  DW_TAG_member
    1559                      .dwattr $C$DW$322, DW_AT_type(*$C$DW$T$27)
    1560                      .dwattr $C$DW$322, DW_AT_name("symlist")
    1561                      .dwattr $C$DW$322, DW_AT_TI_symbol_name("_symlist")
TMS320C55x Assembler PC v4.4.1 Wed Sep 13 16:33:16 2017

Tools Copyright (c) 1996-2012 Texas Instruments Incorporated
C:\Users\a0221074\AppData\Local\Temp\2199210                         PAGE   34

    1562                      .dwattr $C$DW$322, DW_AT_data_member_location[DW_OP_plus_uconst 0x7]
    1563                      .dwattr $C$DW$322, DW_AT_accessibility(DW_ACCESS_public)
    1564                      .dwendtag $C$DW$T$28
    1565              
    1566              $C$DW$T$159     .dwtag  DW_TAG_typedef, DW_AT_name("TransType")
    1567                      .dwattr $C$DW$T$159, DW_AT_type(*$C$DW$T$28)
    1568                      .dwattr $C$DW$T$159, DW_AT_language(DW_LANG_C)
    1569              $C$DW$T$160     .dwtag  DW_TAG_pointer_type
    1570                      .dwattr $C$DW$T$160, DW_AT_type(*$C$DW$T$159)
    1571                      .dwattr $C$DW$T$160, DW_AT_address_class(0x17)
    1572              
    1573              $C$DW$T$29      .dwtag  DW_TAG_structure_type
    1574                      .dwattr $C$DW$T$29, DW_AT_byte_size(0x02)
    1575              $C$DW$323       .dwtag  DW_TAG_member
    1576                      .dwattr $C$DW$323, DW_AT_type(*$C$DW$T$9)
    1577                      .dwattr $C$DW$323, DW_AT_name("high_pos")
    1578                      .dwattr $C$DW$323, DW_AT_TI_symbol_name("_high_pos")
    1579                      .dwattr $C$DW$323, DW_AT_data_member_location[DW_OP_plus_uconst 0x0]
    1580                      .dwattr $C$DW$323, DW_AT_accessibility(DW_ACCESS_public)
    1581              $C$DW$324       .dwtag  DW_TAG_member
    1582                      .dwattr $C$DW$324, DW_AT_type(*$C$DW$T$9)
    1583                      .dwattr $C$DW$324, DW_AT_name("cur_pos")
    1584                      .dwattr $C$DW$324, DW_AT_TI_symbol_name("_cur_pos")
    1585                      .dwattr $C$DW$324, DW_AT_data_member_location[DW_OP_plus_uconst 0x1]
    1586                      .dwattr $C$DW$324, DW_AT_accessibility(DW_ACCESS_public)
    1587                      .dwendtag $C$DW$T$29
    1588              
    1589              $C$DW$T$30      .dwtag  DW_TAG_typedef, DW_AT_name("PosType")
    1590                      .dwattr $C$DW$T$30, DW_AT_type(*$C$DW$T$29)
    1591                      .dwattr $C$DW$T$30, DW_AT_language(DW_LANG_C)
    1592              
    1593              $C$DW$T$31      .dwtag  DW_TAG_array_type
    1594                      .dwattr $C$DW$T$31, DW_AT_type(*$C$DW$T$30)
    1595                      .dwattr $C$DW$T$31, DW_AT_language(DW_LANG_C)
    1596                      .dwattr $C$DW$T$31, DW_AT_byte_size(0x04)
    1597              $C$DW$325       .dwtag  DW_TAG_subrange_type
    1598                      .dwattr $C$DW$325, DW_AT_upper_bound(0x01)
    1599                      .dwendtag $C$DW$T$31
    1600              
    1601              
    1602              $C$DW$T$32      .dwtag  DW_TAG_structure_type
    1603                      .dwattr $C$DW$T$32, DW_AT_byte_size(0x0a)
    1604              $C$DW$326       .dwtag  DW_TAG_member
    1605                      .dwattr $C$DW$326, DW_AT_type(*$C$DW$T$30)
    1606                      .dwattr $C$DW$326, DW_AT_name("state")
    1607                      .dwattr $C$DW$326, DW_AT_TI_symbol_name("_state")
    1608                      .dwattr $C$DW$326, DW_AT_data_member_location[DW_OP_plus_uconst 0x0]
    1609                      .dwattr $C$DW$326, DW_AT_accessibility(DW_ACCESS_public)
    1610              $C$DW$327       .dwtag  DW_TAG_member
    1611                      .dwattr $C$DW$327, DW_AT_type(*$C$DW$T$31)
    1612                      .dwattr $C$DW$327, DW_AT_name("sym")
    1613                      .dwattr $C$DW$327, DW_AT_TI_symbol_name("_sym")
    1614                      .dwattr $C$DW$327, DW_AT_data_member_location[DW_OP_plus_uconst 0x2]
    1615                      .dwattr $C$DW$327, DW_AT_accessibility(DW_ACCESS_public)
    1616              $C$DW$328       .dwtag  DW_TAG_member
TMS320C55x Assembler PC v4.4.1 Wed Sep 13 16:33:16 2017

Tools Copyright (c) 1996-2012 Texas Instruments Incorporated
C:\Users\a0221074\AppData\Local\Temp\2199210                         PAGE   35

    1617                      .dwattr $C$DW$328, DW_AT_type(*$C$DW$T$30)
    1618                      .dwattr $C$DW$328, DW_AT_name("beam")
    1619                      .dwattr $C$DW$328, DW_AT_TI_symbol_name("_beam")
    1620                      .dwattr $C$DW$328, DW_AT_data_member_location[DW_OP_plus_uconst 0x6]
    1621                      .dwattr $C$DW$328, DW_AT_accessibility(DW_ACCESS_public)
    1622              $C$DW$329       .dwtag  DW_TAG_member
    1623                      .dwattr $C$DW$329, DW_AT_type(*$C$DW$T$30)
    1624                      .dwattr $C$DW$329, DW_AT_name("time")
    1625                      .dwattr $C$DW$329, DW_AT_TI_symbol_name("_time")
    1626                      .dwattr $C$DW$329, DW_AT_data_member_location[DW_OP_plus_uconst 0x8]
    1627                      .dwattr $C$DW$329, DW_AT_accessibility(DW_ACCESS_public)
    1628                      .dwendtag $C$DW$T$32
    1629              
    1630              $C$DW$T$163     .dwtag  DW_TAG_typedef, DW_AT_name("EvalStat")
    1631                      .dwattr $C$DW$T$163, DW_AT_type(*$C$DW$T$32)
    1632                      .dwattr $C$DW$T$163, DW_AT_language(DW_LANG_C)
    1633              
    1634              $C$DW$T$34      .dwtag  DW_TAG_structure_type
    1635                      .dwattr $C$DW$T$34, DW_AT_byte_size(0x03)
    1636              $C$DW$330       .dwtag  DW_TAG_member
    1637                      .dwattr $C$DW$330, DW_AT_type(*$C$DW$T$33)
    1638                      .dwattr $C$DW$330, DW_AT_name("cur_sym")
    1639                      .dwattr $C$DW$330, DW_AT_TI_symbol_name("_cur_sym")
    1640                      .dwattr $C$DW$330, DW_AT_data_member_location[DW_OP_plus_uconst 0x0]
    1641                      .dwattr $C$DW$330, DW_AT_accessibility(DW_ACCESS_public)
    1642              $C$DW$331       .dwtag  DW_TAG_member
    1643                      .dwattr $C$DW$331, DW_AT_type(*$C$DW$T$9)
    1644                      .dwattr $C$DW$331, DW_AT_name("cur_state")
    1645                      .dwattr $C$DW$331, DW_AT_TI_symbol_name("_cur_state")
    1646                      .dwattr $C$DW$331, DW_AT_data_member_location[DW_OP_plus_uconst 0x2]
    1647                      .dwattr $C$DW$331, DW_AT_accessibility(DW_ACCESS_public)
    1648                      .dwendtag $C$DW$T$34
    1649              
    1650              $C$DW$T$164     .dwtag  DW_TAG_typedef, DW_AT_name("EvalIdx")
    1651                      .dwattr $C$DW$T$164, DW_AT_type(*$C$DW$T$34)
    1652                      .dwattr $C$DW$T$164, DW_AT_language(DW_LANG_C)
    1653              
    1654              $C$DW$T$165     .dwtag  DW_TAG_array_type
    1655                      .dwattr $C$DW$T$165, DW_AT_type(*$C$DW$T$164)
    1656                      .dwattr $C$DW$T$165, DW_AT_language(DW_LANG_C)
    1657                      .dwattr $C$DW$T$165, DW_AT_byte_size(0x06)
    1658              $C$DW$332       .dwtag  DW_TAG_subrange_type
    1659                      .dwattr $C$DW$332, DW_AT_upper_bound(0x01)
    1660                      .dwendtag $C$DW$T$165
    1661              
    1662              
    1663              $C$DW$T$36      .dwtag  DW_TAG_structure_type
    1664                      .dwattr $C$DW$T$36, DW_AT_byte_size(0x06)
    1665              $C$DW$333       .dwtag  DW_TAG_member
    1666                      .dwattr $C$DW$333, DW_AT_type(*$C$DW$T$9)
    1667                      .dwattr $C$DW$333, DW_AT_name("max_nbr_syms")
    1668                      .dwattr $C$DW$333, DW_AT_TI_symbol_name("_max_nbr_syms")
    1669                      .dwattr $C$DW$333, DW_AT_data_member_location[DW_OP_plus_uconst 0x0]
    1670                      .dwattr $C$DW$333, DW_AT_accessibility(DW_ACCESS_public)
    1671              $C$DW$334       .dwtag  DW_TAG_member
TMS320C55x Assembler PC v4.4.1 Wed Sep 13 16:33:16 2017

Tools Copyright (c) 1996-2012 Texas Instruments Incorporated
C:\Users\a0221074\AppData\Local\Temp\2199210                         PAGE   36

    1672                      .dwattr $C$DW$334, DW_AT_type(*$C$DW$T$8)
    1673                      .dwattr $C$DW$334, DW_AT_name("nbr_syms")
    1674                      .dwattr $C$DW$334, DW_AT_TI_symbol_name("_nbr_syms")
    1675                      .dwattr $C$DW$334, DW_AT_data_member_location[DW_OP_plus_uconst 0x1]
    1676                      .dwattr $C$DW$334, DW_AT_accessibility(DW_ACCESS_public)
    1677              $C$DW$335       .dwtag  DW_TAG_member
    1678                      .dwattr $C$DW$335, DW_AT_type(*$C$DW$T$21)
    1679                      .dwattr $C$DW$335, DW_AT_name("sym2pos")
    1680                      .dwattr $C$DW$335, DW_AT_TI_symbol_name("_sym2pos")
    1681                      .dwattr $C$DW$335, DW_AT_data_member_location[DW_OP_plus_uconst 0x2]
    1682                      .dwattr $C$DW$335, DW_AT_accessibility(DW_ACCESS_public)
    1683              $C$DW$336       .dwtag  DW_TAG_member
    1684                      .dwattr $C$DW$336, DW_AT_type(*$C$DW$T$35)
    1685                      .dwattr $C$DW$336, DW_AT_name("syms")
    1686                      .dwattr $C$DW$336, DW_AT_TI_symbol_name("_syms")
    1687                      .dwattr $C$DW$336, DW_AT_data_member_location[DW_OP_plus_uconst 0x4]
    1688                      .dwattr $C$DW$336, DW_AT_accessibility(DW_ACCESS_public)
    1689                      .dwendtag $C$DW$T$36
    1690              
    1691              $C$DW$T$166     .dwtag  DW_TAG_typedef, DW_AT_name("Sym2PosType")
    1692                      .dwattr $C$DW$T$166, DW_AT_type(*$C$DW$T$36)
    1693                      .dwattr $C$DW$T$166, DW_AT_language(DW_LANG_C)
    1694              
    1695              $C$DW$T$38      .dwtag  DW_TAG_structure_type
    1696                      .dwattr $C$DW$T$38, DW_AT_byte_size(0x16)
    1697              $C$DW$337       .dwtag  DW_TAG_member
    1698                      .dwattr $C$DW$337, DW_AT_type(*$C$DW$T$8)
    1699                      .dwattr $C$DW$337, DW_AT_name("scr")
    1700                      .dwattr $C$DW$337, DW_AT_TI_symbol_name("_scr")
    1701                      .dwattr $C$DW$337, DW_AT_data_member_location[DW_OP_plus_uconst 0x0]
    1702                      .dwattr $C$DW$337, DW_AT_accessibility(DW_ACCESS_public)
    1703              $C$DW$338       .dwtag  DW_TAG_member
    1704                      .dwattr $C$DW$338, DW_AT_type(*$C$DW$T$8)
    1705                      .dwattr $C$DW$338, DW_AT_name("n_ans")
    1706                      .dwattr $C$DW$338, DW_AT_TI_symbol_name("_n_ans")
    1707                      .dwattr $C$DW$338, DW_AT_data_member_location[DW_OP_plus_uconst 0x1]
    1708                      .dwattr $C$DW$338, DW_AT_accessibility(DW_ACCESS_public)
    1709              $C$DW$339       .dwtag  DW_TAG_member
    1710                      .dwattr $C$DW$339, DW_AT_type(*$C$DW$T$37)
    1711                      .dwattr $C$DW$339, DW_AT_name("answers")
    1712                      .dwattr $C$DW$339, DW_AT_TI_symbol_name("_answers")
    1713                      .dwattr $C$DW$339, DW_AT_data_member_location[DW_OP_plus_uconst 0x2]
    1714                      .dwattr $C$DW$339, DW_AT_accessibility(DW_ACCESS_public)
    1715                      .dwendtag $C$DW$T$38
    1716              
    1717              $C$DW$T$40      .dwtag  DW_TAG_typedef, DW_AT_name("NB_element")
    1718                      .dwattr $C$DW$T$40, DW_AT_type(*$C$DW$T$38)
    1719                      .dwattr $C$DW$T$40, DW_AT_language(DW_LANG_C)
    1720              
    1721              $C$DW$T$41      .dwtag  DW_TAG_array_type
    1722                      .dwattr $C$DW$T$41, DW_AT_type(*$C$DW$T$40)
    1723                      .dwattr $C$DW$T$41, DW_AT_language(DW_LANG_C)
    1724                      .dwattr $C$DW$T$41, DW_AT_byte_size(0x294)
    1725              $C$DW$340       .dwtag  DW_TAG_subrange_type
    1726                      .dwattr $C$DW$340, DW_AT_upper_bound(0x1d)
TMS320C55x Assembler PC v4.4.1 Wed Sep 13 16:33:16 2017

Tools Copyright (c) 1996-2012 Texas Instruments Incorporated
C:\Users\a0221074\AppData\Local\Temp\2199210                         PAGE   37

    1727                      .dwendtag $C$DW$T$41
    1728              
    1729              
    1730              $C$DW$T$42      .dwtag  DW_TAG_structure_type
    1731                      .dwattr $C$DW$T$42, DW_AT_byte_size(0x2b3)
    1732              $C$DW$341       .dwtag  DW_TAG_member
    1733                      .dwattr $C$DW$341, DW_AT_type(*$C$DW$T$8)
    1734                      .dwattr $C$DW$341, DW_AT_name("n_bests")
    1735                      .dwattr $C$DW$341, DW_AT_TI_symbol_name("_n_bests")
    1736                      .dwattr $C$DW$341, DW_AT_data_member_location[DW_OP_plus_uconst 0x0]
    1737                      .dwattr $C$DW$341, DW_AT_accessibility(DW_ACCESS_public)
    1738              $C$DW$342       .dwtag  DW_TAG_member
    1739                      .dwattr $C$DW$342, DW_AT_type(*$C$DW$T$39)
    1740                      .dwattr $C$DW$342, DW_AT_name("best_idx")
    1741                      .dwattr $C$DW$342, DW_AT_TI_symbol_name("_best_idx")
    1742                      .dwattr $C$DW$342, DW_AT_data_member_location[DW_OP_plus_uconst 0x1]
    1743                      .dwattr $C$DW$342, DW_AT_accessibility(DW_ACCESS_public)
    1744              $C$DW$343       .dwtag  DW_TAG_member
    1745                      .dwattr $C$DW$343, DW_AT_type(*$C$DW$T$41)
    1746                      .dwattr $C$DW$343, DW_AT_name("elem")
    1747                      .dwattr $C$DW$343, DW_AT_TI_symbol_name("_elem")
    1748                      .dwattr $C$DW$343, DW_AT_data_member_location[DW_OP_plus_uconst 0x1f]
    1749                      .dwattr $C$DW$343, DW_AT_accessibility(DW_ACCESS_public)
    1750                      .dwendtag $C$DW$T$42
    1751              
    1752              $C$DW$T$167     .dwtag  DW_TAG_typedef, DW_AT_name("NB_words")
    1753                      .dwattr $C$DW$T$167, DW_AT_type(*$C$DW$T$42)
    1754                      .dwattr $C$DW$T$167, DW_AT_language(DW_LANG_C)
    1755              
    1756              $C$DW$T$43      .dwtag  DW_TAG_structure_type
    1757                      .dwattr $C$DW$T$43, DW_AT_byte_size(0x14)
    1758              $C$DW$344       .dwtag  DW_TAG_member
    1759                      .dwattr $C$DW$344, DW_AT_type(*$C$DW$T$20)
    1760                      .dwattr $C$DW$344, DW_AT_name("alpha_p")
    1761                      .dwattr $C$DW$344, DW_AT_TI_symbol_name("_alpha_p")
    1762                      .dwattr $C$DW$344, DW_AT_data_member_location[DW_OP_plus_uconst 0x0]
    1763                      .dwattr $C$DW$344, DW_AT_accessibility(DW_ACCESS_public)
    1764              $C$DW$345       .dwtag  DW_TAG_member
    1765                      .dwattr $C$DW$345, DW_AT_type(*$C$DW$T$20)
    1766                      .dwattr $C$DW$345, DW_AT_name("sAlpha")
    1767                      .dwattr $C$DW$345, DW_AT_TI_symbol_name("_sAlpha")
    1768                      .dwattr $C$DW$345, DW_AT_data_member_location[DW_OP_plus_uconst 0x1]
    1769                      .dwattr $C$DW$345, DW_AT_accessibility(DW_ACCESS_public)
    1770              $C$DW$346       .dwtag  DW_TAG_member
    1771                      .dwattr $C$DW$346, DW_AT_type(*$C$DW$T$8)
    1772                      .dwattr $C$DW$346, DW_AT_name("sBeta")
    1773                      .dwattr $C$DW$346, DW_AT_TI_symbol_name("_sBeta")
    1774                      .dwattr $C$DW$346, DW_AT_data_member_location[DW_OP_plus_uconst 0x2]
    1775                      .dwattr $C$DW$346, DW_AT_accessibility(DW_ACCESS_public)
    1776              $C$DW$347       .dwtag  DW_TAG_member
    1777                      .dwattr $C$DW$347, DW_AT_type(*$C$DW$T$8)
    1778                      .dwattr $C$DW$347, DW_AT_name("lambdaLTEhigherE")
    1779                      .dwattr $C$DW$347, DW_AT_TI_symbol_name("_lambdaLTEhigherE")
    1780                      .dwattr $C$DW$347, DW_AT_data_member_location[DW_OP_plus_uconst 0x3]
    1781                      .dwattr $C$DW$347, DW_AT_accessibility(DW_ACCESS_public)
TMS320C55x Assembler PC v4.4.1 Wed Sep 13 16:33:16 2017

Tools Copyright (c) 1996-2012 Texas Instruments Incorporated
C:\Users\a0221074\AppData\Local\Temp\2199210                         PAGE   38

    1782              $C$DW$348       .dwtag  DW_TAG_member
    1783                      .dwattr $C$DW$348, DW_AT_type(*$C$DW$T$8)
    1784                      .dwattr $C$DW$348, DW_AT_name("frm_count")
    1785                      .dwattr $C$DW$348, DW_AT_TI_symbol_name("_frm_count")
    1786                      .dwattr $C$DW$348, DW_AT_data_member_location[DW_OP_plus_uconst 0x4]
    1787                      .dwattr $C$DW$348, DW_AT_accessibility(DW_ACCESS_public)
    1788              $C$DW$349       .dwtag  DW_TAG_member
    1789                      .dwattr $C$DW$349, DW_AT_type(*$C$DW$T$20)
    1790                      .dwattr $C$DW$349, DW_AT_name("prob_sp")
    1791                      .dwattr $C$DW$349, DW_AT_TI_symbol_name("_prob_sp")
    1792                      .dwattr $C$DW$349, DW_AT_data_member_location[DW_OP_plus_uconst 0x5]
    1793                      .dwattr $C$DW$349, DW_AT_accessibility(DW_ACCESS_public)
    1794              $C$DW$350       .dwtag  DW_TAG_member
    1795                      .dwattr $C$DW$350, DW_AT_type(*$C$DW$T$21)
    1796                      .dwattr $C$DW$350, DW_AT_name("s_noise_floor")
    1797                      .dwattr $C$DW$350, DW_AT_TI_symbol_name("_s_noise_floor")
    1798                      .dwattr $C$DW$350, DW_AT_data_member_location[DW_OP_plus_uconst 0x6]
    1799                      .dwattr $C$DW$350, DW_AT_accessibility(DW_ACCESS_public)
    1800              $C$DW$351       .dwtag  DW_TAG_member
    1801                      .dwattr $C$DW$351, DW_AT_type(*$C$DW$T$21)
    1802                      .dwattr $C$DW$351, DW_AT_name("snr")
    1803                      .dwattr $C$DW$351, DW_AT_TI_symbol_name("_snr")
    1804                      .dwattr $C$DW$351, DW_AT_data_member_location[DW_OP_plus_uconst 0x8]
    1805                      .dwattr $C$DW$351, DW_AT_accessibility(DW_ACCESS_public)
    1806              $C$DW$352       .dwtag  DW_TAG_member
    1807                      .dwattr $C$DW$352, DW_AT_type(*$C$DW$T$21)
    1808                      .dwattr $C$DW$352, DW_AT_name("ps_long_term_noise")
    1809                      .dwattr $C$DW$352, DW_AT_TI_symbol_name("_ps_long_term_noise")
    1810                      .dwattr $C$DW$352, DW_AT_data_member_location[DW_OP_plus_uconst 0xa]
    1811                      .dwattr $C$DW$352, DW_AT_accessibility(DW_ACCESS_public)
    1812              $C$DW$353       .dwtag  DW_TAG_member
    1813                      .dwattr $C$DW$353, DW_AT_type(*$C$DW$T$8)
    1814                      .dwattr $C$DW$353, DW_AT_name("frmEn")
    1815                      .dwattr $C$DW$353, DW_AT_TI_symbol_name("_frmEn")
    1816                      .dwattr $C$DW$353, DW_AT_data_member_location[DW_OP_plus_uconst 0xc]
    1817                      .dwattr $C$DW$353, DW_AT_accessibility(DW_ACCESS_public)
    1818              $C$DW$354       .dwtag  DW_TAG_member
    1819                      .dwattr $C$DW$354, DW_AT_type(*$C$DW$T$8)
    1820                      .dwattr $C$DW$354, DW_AT_name("meanEn")
    1821                      .dwattr $C$DW$354, DW_AT_TI_symbol_name("_meanEn")
    1822                      .dwattr $C$DW$354, DW_AT_data_member_location[DW_OP_plus_uconst 0xd]
    1823                      .dwattr $C$DW$354, DW_AT_accessibility(DW_ACCESS_public)
    1824              $C$DW$355       .dwtag  DW_TAG_member
    1825                      .dwattr $C$DW$355, DW_AT_type(*$C$DW$T$8)
    1826                      .dwattr $C$DW$355, DW_AT_name("prevMeanEn")
    1827                      .dwattr $C$DW$355, DW_AT_TI_symbol_name("_prevMeanEn")
    1828                      .dwattr $C$DW$355, DW_AT_data_member_location[DW_OP_plus_uconst 0xe]
    1829                      .dwattr $C$DW$355, DW_AT_accessibility(DW_ACCESS_public)
    1830              $C$DW$356       .dwtag  DW_TAG_member
    1831                      .dwattr $C$DW$356, DW_AT_type(*$C$DW$T$8)
    1832                      .dwattr $C$DW$356, DW_AT_name("noiselvl")
    1833                      .dwattr $C$DW$356, DW_AT_TI_symbol_name("_noiselvl")
    1834                      .dwattr $C$DW$356, DW_AT_data_member_location[DW_OP_plus_uconst 0xf]
    1835                      .dwattr $C$DW$356, DW_AT_accessibility(DW_ACCESS_public)
    1836              $C$DW$357       .dwtag  DW_TAG_member
TMS320C55x Assembler PC v4.4.1 Wed Sep 13 16:33:16 2017

Tools Copyright (c) 1996-2012 Texas Instruments Incorporated
C:\Users\a0221074\AppData\Local\Temp\2199210                         PAGE   39

    1837                      .dwattr $C$DW$357, DW_AT_type(*$C$DW$T$8)
    1838                      .dwattr $C$DW$357, DW_AT_name("lambdaLTE")
    1839                      .dwattr $C$DW$357, DW_AT_TI_symbol_name("_lambdaLTE")
    1840                      .dwattr $C$DW$357, DW_AT_data_member_location[DW_OP_plus_uconst 0x10]
    1841                      .dwattr $C$DW$357, DW_AT_accessibility(DW_ACCESS_public)
    1842              $C$DW$358       .dwtag  DW_TAG_member
    1843                      .dwattr $C$DW$358, DW_AT_type(*$C$DW$T$8)
    1844                      .dwattr $C$DW$358, DW_AT_name("nbSpeechFrame")
    1845                      .dwattr $C$DW$358, DW_AT_TI_symbol_name("_nbSpeechFrame")
    1846                      .dwattr $C$DW$358, DW_AT_data_member_location[DW_OP_plus_uconst 0x11]
    1847                      .dwattr $C$DW$358, DW_AT_accessibility(DW_ACCESS_public)
    1848              $C$DW$359       .dwtag  DW_TAG_member
    1849                      .dwattr $C$DW$359, DW_AT_type(*$C$DW$T$8)
    1850                      .dwattr $C$DW$359, DW_AT_name("hangOver")
    1851                      .dwattr $C$DW$359, DW_AT_TI_symbol_name("_hangOver")
    1852                      .dwattr $C$DW$359, DW_AT_data_member_location[DW_OP_plus_uconst 0x12]
    1853                      .dwattr $C$DW$359, DW_AT_accessibility(DW_ACCESS_public)
    1854                      .dwendtag $C$DW$T$43
    1855              
    1856              $C$DW$T$170     .dwtag  DW_TAG_typedef, DW_AT_name("NssType")
    1857                      .dwattr $C$DW$T$170, DW_AT_type(*$C$DW$T$43)
    1858                      .dwattr $C$DW$T$170, DW_AT_language(DW_LANG_C)
    1859              $C$DW$T$171     .dwtag  DW_TAG_pointer_type
    1860                      .dwattr $C$DW$T$171, DW_AT_type(*$C$DW$T$170)
    1861                      .dwattr $C$DW$T$171, DW_AT_address_class(0x17)
    1862              
    1863              $C$DW$T$44      .dwtag  DW_TAG_structure_type
    1864                      .dwattr $C$DW$T$44, DW_AT_byte_size(0x03)
    1865              $C$DW$360       .dwtag  DW_TAG_member
    1866                      .dwattr $C$DW$360, DW_AT_type(*$C$DW$T$8)
    1867                      .dwattr $C$DW$360, DW_AT_name("mean")
    1868                      .dwattr $C$DW$360, DW_AT_TI_symbol_name("_mean")
    1869                      .dwattr $C$DW$360, DW_AT_data_member_location[DW_OP_plus_uconst 0x0]
    1870                      .dwattr $C$DW$360, DW_AT_accessibility(DW_ACCESS_public)
    1871              $C$DW$361       .dwtag  DW_TAG_member
    1872                      .dwattr $C$DW$361, DW_AT_type(*$C$DW$T$8)
    1873                      .dwattr $C$DW$361, DW_AT_name("inv")
    1874                      .dwattr $C$DW$361, DW_AT_TI_symbol_name("_inv")
    1875                      .dwattr $C$DW$361, DW_AT_data_member_location[DW_OP_plus_uconst 0x1]
    1876                      .dwattr $C$DW$361, DW_AT_accessibility(DW_ACCESS_public)
    1877              $C$DW$362       .dwtag  DW_TAG_member
    1878                      .dwattr $C$DW$362, DW_AT_type(*$C$DW$T$8)
    1879                      .dwattr $C$DW$362, DW_AT_name("gconst")
    1880                      .dwattr $C$DW$362, DW_AT_TI_symbol_name("_gconst")
    1881                      .dwattr $C$DW$362, DW_AT_data_member_location[DW_OP_plus_uconst 0x2]
    1882                      .dwattr $C$DW$362, DW_AT_accessibility(DW_ACCESS_public)
    1883                      .dwendtag $C$DW$T$44
    1884              
    1885              $C$DW$T$46      .dwtag  DW_TAG_typedef, DW_AT_name("CM_hypo")
    1886                      .dwattr $C$DW$T$46, DW_AT_type(*$C$DW$T$44)
    1887                      .dwattr $C$DW$T$46, DW_AT_language(DW_LANG_C)
    1888              
    1889              $C$DW$T$48      .dwtag  DW_TAG_structure_type
    1890                      .dwattr $C$DW$T$48, DW_AT_byte_size(0x544)
    1891              $C$DW$363       .dwtag  DW_TAG_member
TMS320C55x Assembler PC v4.4.1 Wed Sep 13 16:33:16 2017

Tools Copyright (c) 1996-2012 Texas Instruments Incorporated
C:\Users\a0221074\AppData\Local\Temp\2199210                         PAGE   40

    1892                      .dwattr $C$DW$363, DW_AT_type(*$C$DW$T$45)
    1893                      .dwattr $C$DW$363, DW_AT_name("base_mem")
    1894                      .dwattr $C$DW$363, DW_AT_TI_symbol_name("_base_mem")
    1895                      .dwattr $C$DW$363, DW_AT_data_member_location[DW_OP_plus_uconst 0x0]
    1896                      .dwattr $C$DW$363, DW_AT_accessibility(DW_ACCESS_public)
    1897              $C$DW$364       .dwtag  DW_TAG_member
    1898                      .dwattr $C$DW$364, DW_AT_type(*$C$DW$T$20)
    1899                      .dwattr $C$DW$364, DW_AT_name("mem_count")
    1900                      .dwattr $C$DW$364, DW_AT_TI_symbol_name("_mem_count")
    1901                      .dwattr $C$DW$364, DW_AT_data_member_location[DW_OP_plus_uconst 0x514]
    1902                      .dwattr $C$DW$364, DW_AT_accessibility(DW_ACCESS_public)
    1903              $C$DW$365       .dwtag  DW_TAG_member
    1904                      .dwattr $C$DW$365, DW_AT_type(*$C$DW$T$22)
    1905                      .dwattr $C$DW$365, DW_AT_name("answers")
    1906                      .dwattr $C$DW$365, DW_AT_TI_symbol_name("_answers")
    1907                      .dwattr $C$DW$365, DW_AT_data_member_location[DW_OP_plus_uconst 0x516]
    1908                      .dwattr $C$DW$365, DW_AT_accessibility(DW_ACCESS_public)
    1909              $C$DW$366       .dwtag  DW_TAG_member
    1910                      .dwattr $C$DW$366, DW_AT_type(*$C$DW$T$22)
    1911                      .dwattr $C$DW$366, DW_AT_name("uStp")
    1912                      .dwattr $C$DW$366, DW_AT_TI_symbol_name("_uStp")
    1913                      .dwattr $C$DW$366, DW_AT_data_member_location[DW_OP_plus_uconst 0x518]
    1914                      .dwattr $C$DW$366, DW_AT_accessibility(DW_ACCESS_public)
    1915              $C$DW$367       .dwtag  DW_TAG_member
    1916                      .dwattr $C$DW$367, DW_AT_type(*$C$DW$T$20)
    1917                      .dwattr $C$DW$367, DW_AT_name("nWords")
    1918                      .dwattr $C$DW$367, DW_AT_TI_symbol_name("_nWords")
    1919                      .dwattr $C$DW$367, DW_AT_data_member_location[DW_OP_plus_uconst 0x51a]
    1920                      .dwattr $C$DW$367, DW_AT_accessibility(DW_ACCESS_public)
    1921              $C$DW$368       .dwtag  DW_TAG_member
    1922                      .dwattr $C$DW$368, DW_AT_type(*$C$DW$T$8)
    1923                      .dwattr $C$DW$368, DW_AT_name("nS")
    1924                      .dwattr $C$DW$368, DW_AT_TI_symbol_name("_nS")
    1925                      .dwattr $C$DW$368, DW_AT_data_member_location[DW_OP_plus_uconst 0x51b]
    1926                      .dwattr $C$DW$368, DW_AT_accessibility(DW_ACCESS_public)
    1927              $C$DW$369       .dwtag  DW_TAG_member
    1928                      .dwattr $C$DW$369, DW_AT_type(*$C$DW$T$21)
    1929                      .dwattr $C$DW$369, DW_AT_name("cm_scr")
    1930                      .dwattr $C$DW$369, DW_AT_TI_symbol_name("_cm_scr")
    1931                      .dwattr $C$DW$369, DW_AT_data_member_location[DW_OP_plus_uconst 0x51c]
    1932                      .dwattr $C$DW$369, DW_AT_accessibility(DW_ACCESS_public)
    1933              $C$DW$370       .dwtag  DW_TAG_member
    1934                      .dwattr $C$DW$370, DW_AT_type(*$C$DW$T$8)
    1935                      .dwattr $C$DW$370, DW_AT_name("bNeedUpdate")
    1936                      .dwattr $C$DW$370, DW_AT_TI_symbol_name("_bNeedUpdate")
    1937                      .dwattr $C$DW$370, DW_AT_data_member_location[DW_OP_plus_uconst 0x51e]
    1938                      .dwattr $C$DW$370, DW_AT_accessibility(DW_ACCESS_public)
    1939              $C$DW$371       .dwtag  DW_TAG_member
    1940                      .dwattr $C$DW$371, DW_AT_type(*$C$DW$T$21)
    1941                      .dwattr $C$DW$371, DW_AT_name("cm_anti_scr")
    1942                      .dwattr $C$DW$371, DW_AT_TI_symbol_name("_cm_anti_scr")
    1943                      .dwattr $C$DW$371, DW_AT_data_member_location[DW_OP_plus_uconst 0x520]
    1944                      .dwattr $C$DW$371, DW_AT_accessibility(DW_ACCESS_public)
    1945              $C$DW$372       .dwtag  DW_TAG_member
    1946                      .dwattr $C$DW$372, DW_AT_type(*$C$DW$T$12)
TMS320C55x Assembler PC v4.4.1 Wed Sep 13 16:33:16 2017

Tools Copyright (c) 1996-2012 Texas Instruments Incorporated
C:\Users\a0221074\AppData\Local\Temp\2199210                         PAGE   41

    1947                      .dwattr $C$DW$372, DW_AT_name("cm_fg_scr")
    1948                      .dwattr $C$DW$372, DW_AT_TI_symbol_name("_cm_fg_scr")
    1949                      .dwattr $C$DW$372, DW_AT_data_member_location[DW_OP_plus_uconst 0x522]
    1950                      .dwattr $C$DW$372, DW_AT_accessibility(DW_ACCESS_public)
    1951              $C$DW$373       .dwtag  DW_TAG_member
    1952                      .dwattr $C$DW$373, DW_AT_type(*$C$DW$T$12)
    1953                      .dwattr $C$DW$373, DW_AT_name("cm_bk_scr")
    1954                      .dwattr $C$DW$373, DW_AT_TI_symbol_name("_cm_bk_scr")
    1955                      .dwattr $C$DW$373, DW_AT_data_member_location[DW_OP_plus_uconst 0x524]
    1956                      .dwattr $C$DW$373, DW_AT_accessibility(DW_ACCESS_public)
    1957              $C$DW$374       .dwtag  DW_TAG_member
    1958                      .dwattr $C$DW$374, DW_AT_type(*$C$DW$T$8)
    1959                      .dwattr $C$DW$374, DW_AT_name("th_nbest")
    1960                      .dwattr $C$DW$374, DW_AT_TI_symbol_name("_th_nbest")
    1961                      .dwattr $C$DW$374, DW_AT_data_member_location[DW_OP_plus_uconst 0x526]
    1962                      .dwattr $C$DW$374, DW_AT_accessibility(DW_ACCESS_public)
    1963              $C$DW$375       .dwtag  DW_TAG_member
    1964                      .dwattr $C$DW$375, DW_AT_type(*$C$DW$T$8)
    1965                      .dwattr $C$DW$375, DW_AT_name("nSpeech")
    1966                      .dwattr $C$DW$375, DW_AT_TI_symbol_name("_nSpeech")
    1967                      .dwattr $C$DW$375, DW_AT_data_member_location[DW_OP_plus_uconst 0x527]
    1968                      .dwattr $C$DW$375, DW_AT_accessibility(DW_ACCESS_public)
    1969              $C$DW$376       .dwtag  DW_TAG_member
    1970                      .dwattr $C$DW$376, DW_AT_type(*$C$DW$T$8)
    1971                      .dwattr $C$DW$376, DW_AT_name("nNoise")
    1972                      .dwattr $C$DW$376, DW_AT_TI_symbol_name("_nNoise")
    1973                      .dwattr $C$DW$376, DW_AT_data_member_location[DW_OP_plus_uconst 0x528]
    1974                      .dwattr $C$DW$376, DW_AT_accessibility(DW_ACCESS_public)
    1975              $C$DW$377       .dwtag  DW_TAG_member
    1976                      .dwattr $C$DW$377, DW_AT_type(*$C$DW$T$12)
    1977                      .dwattr $C$DW$377, DW_AT_name("speech_power")
    1978                      .dwattr $C$DW$377, DW_AT_TI_symbol_name("_speech_power")
    1979                      .dwattr $C$DW$377, DW_AT_data_member_location[DW_OP_plus_uconst 0x52a]
    1980                      .dwattr $C$DW$377, DW_AT_accessibility(DW_ACCESS_public)
    1981              $C$DW$378       .dwtag  DW_TAG_member
    1982                      .dwattr $C$DW$378, DW_AT_type(*$C$DW$T$12)
    1983                      .dwattr $C$DW$378, DW_AT_name("noise_power")
    1984                      .dwattr $C$DW$378, DW_AT_TI_symbol_name("_noise_power")
    1985                      .dwattr $C$DW$378, DW_AT_data_member_location[DW_OP_plus_uconst 0x52c]
    1986                      .dwattr $C$DW$378, DW_AT_accessibility(DW_ACCESS_public)
    1987              $C$DW$379       .dwtag  DW_TAG_member
    1988                      .dwattr $C$DW$379, DW_AT_type(*$C$DW$T$12)
    1989                      .dwattr $C$DW$379, DW_AT_name("noise_power_sqr")
    1990                      .dwattr $C$DW$379, DW_AT_TI_symbol_name("_noise_power_sqr")
    1991                      .dwattr $C$DW$379, DW_AT_data_member_location[DW_OP_plus_uconst 0x52e]
    1992                      .dwattr $C$DW$379, DW_AT_accessibility(DW_ACCESS_public)
    1993              $C$DW$380       .dwtag  DW_TAG_member
    1994                      .dwattr $C$DW$380, DW_AT_type(*$C$DW$T$8)
    1995                      .dwattr $C$DW$380, DW_AT_name("NSNR")
    1996                      .dwattr $C$DW$380, DW_AT_TI_symbol_name("_NSNR")
    1997                      .dwattr $C$DW$380, DW_AT_data_member_location[DW_OP_plus_uconst 0x530]
    1998                      .dwattr $C$DW$380, DW_AT_accessibility(DW_ACCESS_public)
    1999              $C$DW$381       .dwtag  DW_TAG_member
    2000                      .dwattr $C$DW$381, DW_AT_type(*$C$DW$T$46)
    2001                      .dwattr $C$DW$381, DW_AT_name("H0")
TMS320C55x Assembler PC v4.4.1 Wed Sep 13 16:33:16 2017

Tools Copyright (c) 1996-2012 Texas Instruments Incorporated
C:\Users\a0221074\AppData\Local\Temp\2199210                         PAGE   42

    2002                      .dwattr $C$DW$381, DW_AT_TI_symbol_name("_H0")
    2003                      .dwattr $C$DW$381, DW_AT_data_member_location[DW_OP_plus_uconst 0x531]
    2004                      .dwattr $C$DW$381, DW_AT_accessibility(DW_ACCESS_public)
    2005              $C$DW$382       .dwtag  DW_TAG_member
    2006                      .dwattr $C$DW$382, DW_AT_type(*$C$DW$T$46)
    2007                      .dwattr $C$DW$382, DW_AT_name("H1")
    2008                      .dwattr $C$DW$382, DW_AT_TI_symbol_name("_H1")
    2009                      .dwattr $C$DW$382, DW_AT_data_member_location[DW_OP_plus_uconst 0x534]
    2010                      .dwattr $C$DW$382, DW_AT_accessibility(DW_ACCESS_public)
    2011              $C$DW$383       .dwtag  DW_TAG_member
    2012                      .dwattr $C$DW$383, DW_AT_type(*$C$DW$T$21)
    2013                      .dwattr $C$DW$383, DW_AT_name("lgBeta")
    2014                      .dwattr $C$DW$383, DW_AT_TI_symbol_name("_lgBeta")
    2015                      .dwattr $C$DW$383, DW_AT_data_member_location[DW_OP_plus_uconst 0x538]
    2016                      .dwattr $C$DW$383, DW_AT_accessibility(DW_ACCESS_public)
    2017              $C$DW$384       .dwtag  DW_TAG_member
    2018                      .dwattr $C$DW$384, DW_AT_type(*$C$DW$T$47)
    2019                      .dwattr $C$DW$384, DW_AT_name("acc_dif2_beta")
    2020                      .dwattr $C$DW$384, DW_AT_TI_symbol_name("_acc_dif2_beta")
    2021                      .dwattr $C$DW$384, DW_AT_data_member_location[DW_OP_plus_uconst 0x53a]
    2022                      .dwattr $C$DW$384, DW_AT_accessibility(DW_ACCESS_public)
    2023              $C$DW$385       .dwtag  DW_TAG_member
    2024                      .dwattr $C$DW$385, DW_AT_type(*$C$DW$T$8)
    2025                      .dwattr $C$DW$385, DW_AT_name("bCalced")
    2026                      .dwattr $C$DW$385, DW_AT_TI_symbol_name("_bCalced")
    2027                      .dwattr $C$DW$385, DW_AT_data_member_location[DW_OP_plus_uconst 0x53c]
    2028                      .dwattr $C$DW$385, DW_AT_accessibility(DW_ACCESS_public)
    2029              $C$DW$386       .dwtag  DW_TAG_member
    2030                      .dwattr $C$DW$386, DW_AT_type(*$C$DW$T$21)
    2031                      .dwattr $C$DW$386, DW_AT_name("sCH")
    2032                      .dwattr $C$DW$386, DW_AT_TI_symbol_name("_sCH")
    2033                      .dwattr $C$DW$386, DW_AT_data_member_location[DW_OP_plus_uconst 0x53e]
    2034                      .dwattr $C$DW$386, DW_AT_accessibility(DW_ACCESS_public)
    2035              $C$DW$387       .dwtag  DW_TAG_member
    2036                      .dwattr $C$DW$387, DW_AT_type(*$C$DW$T$47)
    2037                      .dwattr $C$DW$387, DW_AT_name("lAccum")
    2038                      .dwattr $C$DW$387, DW_AT_TI_symbol_name("_lAccum")
    2039                      .dwattr $C$DW$387, DW_AT_data_member_location[DW_OP_plus_uconst 0x540]
    2040                      .dwattr $C$DW$387, DW_AT_accessibility(DW_ACCESS_public)
    2041              $C$DW$388       .dwtag  DW_TAG_member
    2042                      .dwattr $C$DW$388, DW_AT_type(*$C$DW$T$8)
    2043                      .dwattr $C$DW$388, DW_AT_name("adp_th")
    2044                      .dwattr $C$DW$388, DW_AT_TI_symbol_name("_adp_th")
    2045                      .dwattr $C$DW$388, DW_AT_data_member_location[DW_OP_plus_uconst 0x542]
    2046                      .dwattr $C$DW$388, DW_AT_accessibility(DW_ACCESS_public)
    2047                      .dwendtag $C$DW$T$48
    2048              
    2049              $C$DW$T$172     .dwtag  DW_TAG_typedef, DW_AT_name("ConfType")
    2050                      .dwattr $C$DW$T$172, DW_AT_type(*$C$DW$T$48)
    2051                      .dwattr $C$DW$T$172, DW_AT_language(DW_LANG_C)
    2052              $C$DW$T$173     .dwtag  DW_TAG_pointer_type
    2053                      .dwattr $C$DW$T$173, DW_AT_type(*$C$DW$T$172)
    2054                      .dwattr $C$DW$T$173, DW_AT_address_class(0x17)
    2055              
    2056              $C$DW$T$134     .dwtag  DW_TAG_structure_type
TMS320C55x Assembler PC v4.4.1 Wed Sep 13 16:33:16 2017

Tools Copyright (c) 1996-2012 Texas Instruments Incorporated
C:\Users\a0221074\AppData\Local\Temp\2199210                         PAGE   43

    2057                      .dwattr $C$DW$T$134, DW_AT_name("TIesrEngineSIRECO")
    2058                      .dwattr $C$DW$T$134, DW_AT_byte_size(0x66)
    2059              $C$DW$389       .dwtag  DW_TAG_member
    2060                      .dwattr $C$DW$389, DW_AT_type(*$C$DW$T$56)
    2061                      .dwattr $C$DW$389, DW_AT_name("OpenASR")
    2062                      .dwattr $C$DW$389, DW_AT_TI_symbol_name("_OpenASR")
    2063                      .dwattr $C$DW$389, DW_AT_data_member_location[DW_OP_plus_uconst 0x0]
    2064                      .dwattr $C$DW$389, DW_AT_accessibility(DW_ACCESS_public)
    2065              $C$DW$390       .dwtag  DW_TAG_member
    2066                      .dwattr $C$DW$390, DW_AT_type(*$C$DW$T$58)
    2067                      .dwattr $C$DW$390, DW_AT_name("CloseASR")
    2068                      .dwattr $C$DW$390, DW_AT_TI_symbol_name("_CloseASR")
    2069                      .dwattr $C$DW$390, DW_AT_data_member_location[DW_OP_plus_uconst 0x2]
    2070                      .dwattr $C$DW$390, DW_AT_accessibility(DW_ACCESS_public)
    2071              $C$DW$391       .dwtag  DW_TAG_member
    2072                      .dwattr $C$DW$391, DW_AT_type(*$C$DW$T$60)
    2073                      .dwattr $C$DW$391, DW_AT_name("OpenSearchEngine")
    2074                      .dwattr $C$DW$391, DW_AT_TI_symbol_name("_OpenSearchEngine")
    2075                      .dwattr $C$DW$391, DW_AT_data_member_location[DW_OP_plus_uconst 0x4]
    2076                      .dwattr $C$DW$391, DW_AT_accessibility(DW_ACCESS_public)
    2077              $C$DW$392       .dwtag  DW_TAG_member
    2078                      .dwattr $C$DW$392, DW_AT_type(*$C$DW$T$62)
    2079                      .dwattr $C$DW$392, DW_AT_name("CallSearchEngine")
    2080                      .dwattr $C$DW$392, DW_AT_TI_symbol_name("_CallSearchEngine")
    2081                      .dwattr $C$DW$392, DW_AT_data_member_location[DW_OP_plus_uconst 0x6]
    2082                      .dwattr $C$DW$392, DW_AT_accessibility(DW_ACCESS_public)
    2083              $C$DW$393       .dwtag  DW_TAG_member
    2084                      .dwattr $C$DW$393, DW_AT_type(*$C$DW$T$64)
    2085                      .dwattr $C$DW$393, DW_AT_name("CloseSearchEngine")
    2086                      .dwattr $C$DW$393, DW_AT_TI_symbol_name("_CloseSearchEngine")
    2087                      .dwattr $C$DW$393, DW_AT_data_member_location[DW_OP_plus_uconst 0x8]
    2088                      .dwattr $C$DW$393, DW_AT_accessibility(DW_ACCESS_public)
    2089              $C$DW$394       .dwtag  DW_TAG_member
    2090                      .dwattr $C$DW$394, DW_AT_type(*$C$DW$T$66)
    2091                      .dwattr $C$DW$394, DW_AT_name("SpeechDetected")
    2092                      .dwattr $C$DW$394, DW_AT_TI_symbol_name("_SpeechDetected")
    2093                      .dwattr $C$DW$394, DW_AT_data_member_location[DW_OP_plus_uconst 0xa]
    2094                      .dwattr $C$DW$394, DW_AT_accessibility(DW_ACCESS_public)
    2095              $C$DW$395       .dwtag  DW_TAG_member
    2096                      .dwattr $C$DW$395, DW_AT_type(*$C$DW$T$66)
    2097                      .dwattr $C$DW$395, DW_AT_name("SpeechEnded")
    2098                      .dwattr $C$DW$395, DW_AT_TI_symbol_name("_SpeechEnded")
    2099                      .dwattr $C$DW$395, DW_AT_data_member_location[DW_OP_plus_uconst 0xc]
    2100                      .dwattr $C$DW$395, DW_AT_accessibility(DW_ACCESS_public)
    2101              $C$DW$396       .dwtag  DW_TAG_member
    2102                      .dwattr $C$DW$396, DW_AT_type(*$C$DW$T$66)
    2103                      .dwattr $C$DW$396, DW_AT_name("SADState")
    2104                      .dwattr $C$DW$396, DW_AT_TI_symbol_name("_SADState")
    2105                      .dwattr $C$DW$396, DW_AT_data_member_location[DW_OP_plus_uconst 0xe]
    2106                      .dwattr $C$DW$396, DW_AT_accessibility(DW_ACCESS_public)
    2107              $C$DW$397       .dwtag  DW_TAG_member
    2108                      .dwattr $C$DW$397, DW_AT_type(*$C$DW$T$72)
    2109                      .dwattr $C$DW$397, DW_AT_name("JAC_load")
    2110                      .dwattr $C$DW$397, DW_AT_TI_symbol_name("_JAC_load")
    2111                      .dwattr $C$DW$397, DW_AT_data_member_location[DW_OP_plus_uconst 0x10]
TMS320C55x Assembler PC v4.4.1 Wed Sep 13 16:33:16 2017

Tools Copyright (c) 1996-2012 Texas Instruments Incorporated
C:\Users\a0221074\AppData\Local\Temp\2199210                         PAGE   44

    2112                      .dwattr $C$DW$397, DW_AT_accessibility(DW_ACCESS_public)
    2113              $C$DW$398       .dwtag  DW_TAG_member
    2114                      .dwattr $C$DW$398, DW_AT_type(*$C$DW$T$74)
    2115                      .dwattr $C$DW$398, DW_AT_name("JAC_save")
    2116                      .dwattr $C$DW$398, DW_AT_TI_symbol_name("_JAC_save")
    2117                      .dwattr $C$DW$398, DW_AT_data_member_location[DW_OP_plus_uconst 0x12]
    2118                      .dwattr $C$DW$398, DW_AT_accessibility(DW_ACCESS_public)
    2119              $C$DW$399       .dwtag  DW_TAG_member
    2120                      .dwattr $C$DW$399, DW_AT_type(*$C$DW$T$76)
    2121                      .dwattr $C$DW$399, DW_AT_name("JAC_clear")
    2122                      .dwattr $C$DW$399, DW_AT_TI_symbol_name("_JAC_clear")
    2123                      .dwattr $C$DW$399, DW_AT_data_member_location[DW_OP_plus_uconst 0x14]
    2124                      .dwattr $C$DW$399, DW_AT_accessibility(DW_ACCESS_public)
    2125              $C$DW$400       .dwtag  DW_TAG_member
    2126                      .dwattr $C$DW$400, DW_AT_type(*$C$DW$T$78)
    2127                      .dwattr $C$DW$400, DW_AT_name("JAC_update")
    2128                      .dwattr $C$DW$400, DW_AT_TI_symbol_name("_JAC_update")
    2129                      .dwattr $C$DW$400, DW_AT_data_member_location[DW_OP_plus_uconst 0x16]
    2130                      .dwattr $C$DW$400, DW_AT_accessibility(DW_ACCESS_public)
    2131              $C$DW$401       .dwtag  DW_TAG_member
    2132                      .dwattr $C$DW$401, DW_AT_type(*$C$DW$T$83)
    2133                      .dwattr $C$DW$401, DW_AT_name("GetFrameCount")
    2134                      .dwattr $C$DW$401, DW_AT_TI_symbol_name("_GetFrameCount")
    2135                      .dwattr $C$DW$401, DW_AT_data_member_location[DW_OP_plus_uconst 0x18]
    2136                      .dwattr $C$DW$401, DW_AT_accessibility(DW_ACCESS_public)
    2137              $C$DW$402       .dwtag  DW_TAG_member
    2138                      .dwattr $C$DW$402, DW_AT_type(*$C$DW$T$85)
    2139                      .dwattr $C$DW$402, DW_AT_name("GetTotalScore")
    2140                      .dwattr $C$DW$402, DW_AT_TI_symbol_name("_GetTotalScore")
    2141                      .dwattr $C$DW$402, DW_AT_data_member_location[DW_OP_plus_uconst 0x1a]
    2142                      .dwattr $C$DW$402, DW_AT_accessibility(DW_ACCESS_public)
    2143              $C$DW$403       .dwtag  DW_TAG_member
    2144                      .dwattr $C$DW$403, DW_AT_type(*$C$DW$T$87)
    2145                      .dwattr $C$DW$403, DW_AT_name("GetCycleCount")
    2146                      .dwattr $C$DW$403, DW_AT_TI_symbol_name("_GetCycleCount")
    2147                      .dwattr $C$DW$403, DW_AT_data_member_location[DW_OP_plus_uconst 0x1c]
    2148                      .dwattr $C$DW$403, DW_AT_accessibility(DW_ACCESS_public)
    2149              $C$DW$404       .dwtag  DW_TAG_member
    2150                      .dwattr $C$DW$404, DW_AT_type(*$C$DW$T$91)
    2151                      .dwattr $C$DW$404, DW_AT_name("GetAnswerIndex")
    2152                      .dwattr $C$DW$404, DW_AT_TI_symbol_name("_GetAnswerIndex")
    2153                      .dwattr $C$DW$404, DW_AT_data_member_location[DW_OP_plus_uconst 0x1e]
    2154                      .dwattr $C$DW$404, DW_AT_accessibility(DW_ACCESS_public)
    2155              $C$DW$405       .dwtag  DW_TAG_member
    2156                      .dwattr $C$DW$405, DW_AT_type(*$C$DW$T$93)
    2157                      .dwattr $C$DW$405, DW_AT_name("GetAnswerWord")
    2158                      .dwattr $C$DW$405, DW_AT_TI_symbol_name("_GetAnswerWord")
    2159                      .dwattr $C$DW$405, DW_AT_data_member_location[DW_OP_plus_uconst 0x20]
    2160                      .dwattr $C$DW$405, DW_AT_accessibility(DW_ACCESS_public)
    2161              $C$DW$406       .dwtag  DW_TAG_member
    2162                      .dwattr $C$DW$406, DW_AT_type(*$C$DW$T$95)
    2163                      .dwattr $C$DW$406, DW_AT_name("GetAnswerCount")
    2164                      .dwattr $C$DW$406, DW_AT_TI_symbol_name("_GetAnswerCount")
    2165                      .dwattr $C$DW$406, DW_AT_data_member_location[DW_OP_plus_uconst 0x22]
    2166                      .dwattr $C$DW$406, DW_AT_accessibility(DW_ACCESS_public)
TMS320C55x Assembler PC v4.4.1 Wed Sep 13 16:33:16 2017

Tools Copyright (c) 1996-2012 Texas Instruments Incorporated
C:\Users\a0221074\AppData\Local\Temp\2199210                         PAGE   45

    2167              $C$DW$407       .dwtag  DW_TAG_member
    2168                      .dwattr $C$DW$407, DW_AT_type(*$C$DW$T$97)
    2169                      .dwattr $C$DW$407, DW_AT_name("SetTIesrNBest")
    2170                      .dwattr $C$DW$407, DW_AT_TI_symbol_name("_SetTIesrNBest")
    2171                      .dwattr $C$DW$407, DW_AT_data_member_location[DW_OP_plus_uconst 0x24]
    2172                      .dwattr $C$DW$407, DW_AT_accessibility(DW_ACCESS_public)
    2173              $C$DW$408       .dwtag  DW_TAG_member
    2174                      .dwattr $C$DW$408, DW_AT_type(*$C$DW$T$99)
    2175                      .dwattr $C$DW$408, DW_AT_name("GetTIesrNBest")
    2176                      .dwattr $C$DW$408, DW_AT_TI_symbol_name("_GetTIesrNBest")
    2177                      .dwattr $C$DW$408, DW_AT_data_member_location[DW_OP_plus_uconst 0x26]
    2178                      .dwattr $C$DW$408, DW_AT_accessibility(DW_ACCESS_public)
    2179              $C$DW$409       .dwtag  DW_TAG_member
    2180                      .dwattr $C$DW$409, DW_AT_type(*$C$DW$T$87)
    2181                      .dwattr $C$DW$409, DW_AT_name("GetNumNbests")
    2182                      .dwattr $C$DW$409, DW_AT_TI_symbol_name("_GetNumNbests")
    2183                      .dwattr $C$DW$409, DW_AT_data_member_location[DW_OP_plus_uconst 0x28]
    2184                      .dwattr $C$DW$409, DW_AT_accessibility(DW_ACCESS_public)
    2185              $C$DW$410       .dwtag  DW_TAG_member
    2186                      .dwattr $C$DW$410, DW_AT_type(*$C$DW$T$83)
    2187                      .dwattr $C$DW$410, DW_AT_name("GetConfidenceScore")
    2188                      .dwattr $C$DW$410, DW_AT_TI_symbol_name("_GetConfidenceScore")
    2189                      .dwattr $C$DW$410, DW_AT_data_member_location[DW_OP_plus_uconst 0x2a]
    2190                      .dwattr $C$DW$410, DW_AT_accessibility(DW_ACCESS_public)
    2191              $C$DW$411       .dwtag  DW_TAG_member
    2192                      .dwattr $C$DW$411, DW_AT_type(*$C$DW$T$101)
    2193                      .dwattr $C$DW$411, DW_AT_name("SetTIesrConfidenceAdaptation")
    2194                      .dwattr $C$DW$411, DW_AT_TI_symbol_name("_SetTIesrConfidenceAdaptation")
    2195                      .dwattr $C$DW$411, DW_AT_data_member_location[DW_OP_plus_uconst 0x2c]
    2196                      .dwattr $C$DW$411, DW_AT_accessibility(DW_ACCESS_public)
    2197              $C$DW$412       .dwtag  DW_TAG_member
    2198                      .dwattr $C$DW$412, DW_AT_type(*$C$DW$T$103)
    2199                      .dwattr $C$DW$412, DW_AT_name("GetTIesrConfidenceAdaptation")
    2200                      .dwattr $C$DW$412, DW_AT_TI_symbol_name("_GetTIesrConfidenceAdaptation")
    2201                      .dwattr $C$DW$412, DW_AT_data_member_location[DW_OP_plus_uconst 0x2e]
    2202                      .dwattr $C$DW$412, DW_AT_accessibility(DW_ACCESS_public)
    2203              $C$DW$413       .dwtag  DW_TAG_member
    2204                      .dwattr $C$DW$413, DW_AT_type(*$C$DW$T$105)
    2205                      .dwattr $C$DW$413, DW_AT_name("SetTIesrGaussSelection")
    2206                      .dwattr $C$DW$413, DW_AT_TI_symbol_name("_SetTIesrGaussSelection")
    2207                      .dwattr $C$DW$413, DW_AT_data_member_location[DW_OP_plus_uconst 0x30]
    2208                      .dwattr $C$DW$413, DW_AT_accessibility(DW_ACCESS_public)
    2209              $C$DW$414       .dwtag  DW_TAG_member
    2210                      .dwattr $C$DW$414, DW_AT_type(*$C$DW$T$107)
    2211                      .dwattr $C$DW$414, DW_AT_name("GetTIesrGaussSelection")
    2212                      .dwattr $C$DW$414, DW_AT_TI_symbol_name("_GetTIesrGaussSelection")
    2213                      .dwattr $C$DW$414, DW_AT_data_member_location[DW_OP_plus_uconst 0x32]
    2214                      .dwattr $C$DW$414, DW_AT_accessibility(DW_ACCESS_public)
    2215              $C$DW$415       .dwtag  DW_TAG_member
    2216                      .dwattr $C$DW$415, DW_AT_type(*$C$DW$T$109)
    2217                      .dwattr $C$DW$415, DW_AT_name("SetTIesrOnlineReferenceModel")
    2218                      .dwattr $C$DW$415, DW_AT_TI_symbol_name("_SetTIesrOnlineReferenceModel")
    2219                      .dwattr $C$DW$415, DW_AT_data_member_location[DW_OP_plus_uconst 0x34]
    2220                      .dwattr $C$DW$415, DW_AT_accessibility(DW_ACCESS_public)
    2221              $C$DW$416       .dwtag  DW_TAG_member
TMS320C55x Assembler PC v4.4.1 Wed Sep 13 16:33:16 2017

Tools Copyright (c) 1996-2012 Texas Instruments Incorporated
C:\Users\a0221074\AppData\Local\Temp\2199210                         PAGE   46

    2222                      .dwattr $C$DW$416, DW_AT_type(*$C$DW$T$111)
    2223                      .dwattr $C$DW$416, DW_AT_name("GetTIesrOnlineReferenceModel")
    2224                      .dwattr $C$DW$416, DW_AT_TI_symbol_name("_GetTIesrOnlineReferenceModel")
    2225                      .dwattr $C$DW$416, DW_AT_data_member_location[DW_OP_plus_uconst 0x36]
    2226                      .dwattr $C$DW$416, DW_AT_accessibility(DW_ACCESS_public)
    2227              $C$DW$417       .dwtag  DW_TAG_member
    2228                      .dwattr $C$DW$417, DW_AT_type(*$C$DW$T$113)
    2229                      .dwattr $C$DW$417, DW_AT_name("SetTIesrNoiseSubtraction")
    2230                      .dwattr $C$DW$417, DW_AT_TI_symbol_name("_SetTIesrNoiseSubtraction")
    2231                      .dwattr $C$DW$417, DW_AT_data_member_location[DW_OP_plus_uconst 0x38]
    2232                      .dwattr $C$DW$417, DW_AT_accessibility(DW_ACCESS_public)
    2233              $C$DW$418       .dwtag  DW_TAG_member
    2234                      .dwattr $C$DW$418, DW_AT_type(*$C$DW$T$115)
    2235                      .dwattr $C$DW$418, DW_AT_name("GetTIesrNoiseSubtraction")
    2236                      .dwattr $C$DW$418, DW_AT_TI_symbol_name("_GetTIesrNoiseSubtraction")
    2237                      .dwattr $C$DW$418, DW_AT_data_member_location[DW_OP_plus_uconst 0x3a]
    2238                      .dwattr $C$DW$418, DW_AT_accessibility(DW_ACCESS_public)
    2239              $C$DW$419       .dwtag  DW_TAG_member
    2240                      .dwattr $C$DW$419, DW_AT_type(*$C$DW$T$117)
    2241                      .dwattr $C$DW$419, DW_AT_name("getRealTimeGuardTh")
    2242                      .dwattr $C$DW$419, DW_AT_TI_symbol_name("_getRealTimeGuardTh")
    2243                      .dwattr $C$DW$419, DW_AT_data_member_location[DW_OP_plus_uconst 0x3c]
    2244                      .dwattr $C$DW$419, DW_AT_accessibility(DW_ACCESS_public)
    2245              $C$DW$420       .dwtag  DW_TAG_member
    2246                      .dwattr $C$DW$420, DW_AT_type(*$C$DW$T$117)
    2247                      .dwattr $C$DW$420, DW_AT_name("getGetRealTGuard")
    2248                      .dwattr $C$DW$420, DW_AT_TI_symbol_name("_getGetRealTGuard")
    2249                      .dwattr $C$DW$420, DW_AT_data_member_location[DW_OP_plus_uconst 0x3e]
    2250                      .dwattr $C$DW$420, DW_AT_accessibility(DW_ACCESS_public)
    2251              $C$DW$421       .dwtag  DW_TAG_member
    2252                      .dwattr $C$DW$421, DW_AT_type(*$C$DW$T$119)
    2253                      .dwattr $C$DW$421, DW_AT_name("setRealTimeGuardTh")
    2254                      .dwattr $C$DW$421, DW_AT_TI_symbol_name("_setRealTimeGuardTh")
    2255                      .dwattr $C$DW$421, DW_AT_data_member_location[DW_OP_plus_uconst 0x40]
    2256                      .dwattr $C$DW$421, DW_AT_accessibility(DW_ACCESS_public)
    2257              $C$DW$422       .dwtag  DW_TAG_member
    2258                      .dwattr $C$DW$422, DW_AT_type(*$C$DW$T$119)
    2259                      .dwattr $C$DW$422, DW_AT_name("setGetRealTGuard")
    2260                      .dwattr $C$DW$422, DW_AT_TI_symbol_name("_setGetRealTGuard")
    2261                      .dwattr $C$DW$422, DW_AT_data_member_location[DW_OP_plus_uconst 0x42]
    2262                      .dwattr $C$DW$422, DW_AT_accessibility(DW_ACCESS_public)
    2263              $C$DW$423       .dwtag  DW_TAG_member
    2264                      .dwattr $C$DW$423, DW_AT_type(*$C$DW$T$83)
    2265                      .dwattr $C$DW$423, DW_AT_name("GetVolumeStatus")
    2266                      .dwattr $C$DW$423, DW_AT_TI_symbol_name("_GetVolumeStatus")
    2267                      .dwattr $C$DW$423, DW_AT_data_member_location[DW_OP_plus_uconst 0x44]
    2268                      .dwattr $C$DW$423, DW_AT_accessibility(DW_ACCESS_public)
    2269              $C$DW$424       .dwtag  DW_TAG_member
    2270                      .dwattr $C$DW$424, DW_AT_type(*$C$DW$T$121)
    2271                      .dwattr $C$DW$424, DW_AT_name("GetSearchMemorySize")
    2272                      .dwattr $C$DW$424, DW_AT_TI_symbol_name("_GetSearchMemorySize")
    2273                      .dwattr $C$DW$424, DW_AT_data_member_location[DW_OP_plus_uconst 0x46]
    2274                      .dwattr $C$DW$424, DW_AT_accessibility(DW_ACCESS_public)
    2275              $C$DW$425       .dwtag  DW_TAG_member
    2276                      .dwattr $C$DW$425, DW_AT_type(*$C$DW$T$121)
TMS320C55x Assembler PC v4.4.1 Wed Sep 13 16:33:16 2017

Tools Copyright (c) 1996-2012 Texas Instruments Incorporated
C:\Users\a0221074\AppData\Local\Temp\2199210                         PAGE   47

    2277                      .dwattr $C$DW$425, DW_AT_name("GetMaxFrames")
    2278                      .dwattr $C$DW$425, DW_AT_TI_symbol_name("_GetMaxFrames")
    2279                      .dwattr $C$DW$425, DW_AT_data_member_location[DW_OP_plus_uconst 0x48]
    2280                      .dwattr $C$DW$425, DW_AT_accessibility(DW_ACCESS_public)
    2281              $C$DW$426       .dwtag  DW_TAG_member
    2282                      .dwattr $C$DW$426, DW_AT_type(*$C$DW$T$97)
    2283                      .dwattr $C$DW$426, DW_AT_name("SetTIesrPrune")
    2284                      .dwattr $C$DW$426, DW_AT_TI_symbol_name("_SetTIesrPrune")
    2285                      .dwattr $C$DW$426, DW_AT_data_member_location[DW_OP_plus_uconst 0x4a]
    2286                      .dwattr $C$DW$426, DW_AT_accessibility(DW_ACCESS_public)
    2287              $C$DW$427       .dwtag  DW_TAG_member
    2288                      .dwattr $C$DW$427, DW_AT_type(*$C$DW$T$97)
    2289                      .dwattr $C$DW$427, DW_AT_name("SetTIesrTransiWeight")
    2290                      .dwattr $C$DW$427, DW_AT_TI_symbol_name("_SetTIesrTransiWeight")
    2291                      .dwattr $C$DW$427, DW_AT_data_member_location[DW_OP_plus_uconst 0x4c]
    2292                      .dwattr $C$DW$427, DW_AT_accessibility(DW_ACCESS_public)
    2293              $C$DW$428       .dwtag  DW_TAG_member
    2294                      .dwattr $C$DW$428, DW_AT_type(*$C$DW$T$123)
    2295                      .dwattr $C$DW$428, DW_AT_name("SetTIesrSAD")
    2296                      .dwattr $C$DW$428, DW_AT_TI_symbol_name("_SetTIesrSAD")
    2297                      .dwattr $C$DW$428, DW_AT_data_member_location[DW_OP_plus_uconst 0x4e]
    2298                      .dwattr $C$DW$428, DW_AT_accessibility(DW_ACCESS_public)
    2299              $C$DW$429       .dwtag  DW_TAG_member
    2300                      .dwattr $C$DW$429, DW_AT_type(*$C$DW$T$97)
    2301                      .dwattr $C$DW$429, DW_AT_name("SetTIesrJacRate")
    2302                      .dwattr $C$DW$429, DW_AT_TI_symbol_name("_SetTIesrJacRate")
    2303                      .dwattr $C$DW$429, DW_AT_data_member_location[DW_OP_plus_uconst 0x50]
    2304                      .dwattr $C$DW$429, DW_AT_accessibility(DW_ACCESS_public)
    2305              $C$DW$430       .dwtag  DW_TAG_member
    2306                      .dwattr $C$DW$430, DW_AT_type(*$C$DW$T$125)
    2307                      .dwattr $C$DW$430, DW_AT_name("SetTIesrJAC")
    2308                      .dwattr $C$DW$430, DW_AT_TI_symbol_name("_SetTIesrJAC")
    2309                      .dwattr $C$DW$430, DW_AT_data_member_location[DW_OP_plus_uconst 0x52]
    2310                      .dwattr $C$DW$430, DW_AT_accessibility(DW_ACCESS_public)
    2311              $C$DW$431       .dwtag  DW_TAG_member
    2312                      .dwattr $C$DW$431, DW_AT_type(*$C$DW$T$97)
    2313                      .dwattr $C$DW$431, DW_AT_name("SetTIesrSBC")
    2314                      .dwattr $C$DW$431, DW_AT_TI_symbol_name("_SetTIesrSBC")
    2315                      .dwattr $C$DW$431, DW_AT_data_member_location[DW_OP_plus_uconst 0x54]
    2316                      .dwattr $C$DW$431, DW_AT_accessibility(DW_ACCESS_public)
    2317              $C$DW$432       .dwtag  DW_TAG_member
    2318                      .dwattr $C$DW$432, DW_AT_type(*$C$DW$T$105)
    2319                      .dwattr $C$DW$432, DW_AT_name("SetTIesrVolRange")
    2320                      .dwattr $C$DW$432, DW_AT_TI_symbol_name("_SetTIesrVolRange")
    2321                      .dwattr $C$DW$432, DW_AT_data_member_location[DW_OP_plus_uconst 0x56]
    2322                      .dwattr $C$DW$432, DW_AT_accessibility(DW_ACCESS_public)
    2323              $C$DW$433       .dwtag  DW_TAG_member
    2324                      .dwattr $C$DW$433, DW_AT_type(*$C$DW$T$127)
    2325                      .dwattr $C$DW$433, DW_AT_name("GetTIesrPrune")
    2326                      .dwattr $C$DW$433, DW_AT_TI_symbol_name("_GetTIesrPrune")
    2327                      .dwattr $C$DW$433, DW_AT_data_member_location[DW_OP_plus_uconst 0x58]
    2328                      .dwattr $C$DW$433, DW_AT_accessibility(DW_ACCESS_public)
    2329              $C$DW$434       .dwtag  DW_TAG_member
    2330                      .dwattr $C$DW$434, DW_AT_type(*$C$DW$T$127)
    2331                      .dwattr $C$DW$434, DW_AT_name("GetTIesrTransiWeight")
TMS320C55x Assembler PC v4.4.1 Wed Sep 13 16:33:16 2017

Tools Copyright (c) 1996-2012 Texas Instruments Incorporated
C:\Users\a0221074\AppData\Local\Temp\2199210                         PAGE   48

    2332                      .dwattr $C$DW$434, DW_AT_TI_symbol_name("_GetTIesrTransiWeight")
    2333                      .dwattr $C$DW$434, DW_AT_data_member_location[DW_OP_plus_uconst 0x5a]
    2334                      .dwattr $C$DW$434, DW_AT_accessibility(DW_ACCESS_public)
    2335              $C$DW$435       .dwtag  DW_TAG_member
    2336                      .dwattr $C$DW$435, DW_AT_type(*$C$DW$T$129)
    2337                      .dwattr $C$DW$435, DW_AT_name("GetTIesrSAD")
    2338                      .dwattr $C$DW$435, DW_AT_TI_symbol_name("_GetTIesrSAD")
    2339                      .dwattr $C$DW$435, DW_AT_data_member_location[DW_OP_plus_uconst 0x5c]
    2340                      .dwattr $C$DW$435, DW_AT_accessibility(DW_ACCESS_public)
    2341              $C$DW$436       .dwtag  DW_TAG_member
    2342                      .dwattr $C$DW$436, DW_AT_type(*$C$DW$T$99)
    2343                      .dwattr $C$DW$436, DW_AT_name("GetTIesrJacRate")
    2344                      .dwattr $C$DW$436, DW_AT_TI_symbol_name("_GetTIesrJacRate")
    2345                      .dwattr $C$DW$436, DW_AT_data_member_location[DW_OP_plus_uconst 0x5e]
    2346                      .dwattr $C$DW$436, DW_AT_accessibility(DW_ACCESS_public)
    2347              $C$DW$437       .dwtag  DW_TAG_member
    2348                      .dwattr $C$DW$437, DW_AT_type(*$C$DW$T$131)
    2349                      .dwattr $C$DW$437, DW_AT_name("GetTIesrJAC")
    2350                      .dwattr $C$DW$437, DW_AT_TI_symbol_name("_GetTIesrJAC")
    2351                      .dwattr $C$DW$437, DW_AT_data_member_location[DW_OP_plus_uconst 0x60]
    2352                      .dwattr $C$DW$437, DW_AT_accessibility(DW_ACCESS_public)
    2353              $C$DW$438       .dwtag  DW_TAG_member
    2354                      .dwattr $C$DW$438, DW_AT_type(*$C$DW$T$127)
    2355                      .dwattr $C$DW$438, DW_AT_name("GetTIesrSBC")
    2356                      .dwattr $C$DW$438, DW_AT_TI_symbol_name("_GetTIesrSBC")
    2357                      .dwattr $C$DW$438, DW_AT_data_member_location[DW_OP_plus_uconst 0x62]
    2358                      .dwattr $C$DW$438, DW_AT_accessibility(DW_ACCESS_public)
    2359              $C$DW$439       .dwtag  DW_TAG_member
    2360                      .dwattr $C$DW$439, DW_AT_type(*$C$DW$T$133)
    2361                      .dwattr $C$DW$439, DW_AT_name("GetTIesrVolRange")
    2362                      .dwattr $C$DW$439, DW_AT_TI_symbol_name("_GetTIesrVolRange")
    2363                      .dwattr $C$DW$439, DW_AT_data_member_location[DW_OP_plus_uconst 0x64]
    2364                      .dwattr $C$DW$439, DW_AT_accessibility(DW_ACCESS_public)
    2365                      .dwendtag $C$DW$T$134
    2366              
    2367              $C$DW$T$185     .dwtag  DW_TAG_typedef, DW_AT_name("TIesrEngineSIRECOType")
    2368                      .dwattr $C$DW$T$185, DW_AT_type(*$C$DW$T$134)
    2369                      .dwattr $C$DW$T$185, DW_AT_language(DW_LANG_C)
    2370              $C$DW$T$186     .dwtag  DW_TAG_pointer_type
    2371                      .dwattr $C$DW$T$186, DW_AT_type(*$C$DW$T$185)
    2372                      .dwattr $C$DW$T$186, DW_AT_address_class(0x17)
    2373              
    2374              $C$DW$T$57      .dwtag  DW_TAG_subroutine_type
    2375                      .dwattr $C$DW$T$57, DW_AT_language(DW_LANG_C)
    2376              $C$DW$440       .dwtag  DW_TAG_formal_parameter
    2377                      .dwattr $C$DW$440, DW_AT_type(*$C$DW$T$54)
    2378                      .dwendtag $C$DW$T$57
    2379              
    2380              $C$DW$T$58      .dwtag  DW_TAG_pointer_type
    2381                      .dwattr $C$DW$T$58, DW_AT_type(*$C$DW$T$57)
    2382                      .dwattr $C$DW$T$58, DW_AT_address_class(0x20)
    2383              
    2384              $C$DW$T$96      .dwtag  DW_TAG_subroutine_type
    2385                      .dwattr $C$DW$T$96, DW_AT_language(DW_LANG_C)
    2386              $C$DW$441       .dwtag  DW_TAG_formal_parameter
TMS320C55x Assembler PC v4.4.1 Wed Sep 13 16:33:16 2017

Tools Copyright (c) 1996-2012 Texas Instruments Incorporated
C:\Users\a0221074\AppData\Local\Temp\2199210                         PAGE   49

    2387                      .dwattr $C$DW$441, DW_AT_type(*$C$DW$T$54)
    2388              $C$DW$442       .dwtag  DW_TAG_formal_parameter
    2389                      .dwattr $C$DW$442, DW_AT_type(*$C$DW$T$8)
    2390                      .dwendtag $C$DW$T$96
    2391              
    2392              $C$DW$T$97      .dwtag  DW_TAG_pointer_type
    2393                      .dwattr $C$DW$T$97, DW_AT_type(*$C$DW$T$96)
    2394                      .dwattr $C$DW$T$97, DW_AT_address_class(0x20)
    2395              
    2396              $C$DW$T$98      .dwtag  DW_TAG_subroutine_type
    2397                      .dwattr $C$DW$T$98, DW_AT_language(DW_LANG_C)
    2398              $C$DW$443       .dwtag  DW_TAG_formal_parameter
    2399                      .dwattr $C$DW$443, DW_AT_type(*$C$DW$T$54)
    2400              $C$DW$444       .dwtag  DW_TAG_formal_parameter
    2401                      .dwattr $C$DW$444, DW_AT_type(*$C$DW$T$21)
    2402                      .dwendtag $C$DW$T$98
    2403              
    2404              $C$DW$T$99      .dwtag  DW_TAG_pointer_type
    2405                      .dwattr $C$DW$T$99, DW_AT_type(*$C$DW$T$98)
    2406                      .dwattr $C$DW$T$99, DW_AT_address_class(0x20)
    2407              
    2408              $C$DW$T$100     .dwtag  DW_TAG_subroutine_type
    2409                      .dwattr $C$DW$T$100, DW_AT_language(DW_LANG_C)
    2410              $C$DW$445       .dwtag  DW_TAG_formal_parameter
    2411                      .dwattr $C$DW$445, DW_AT_type(*$C$DW$T$8)
    2412              $C$DW$446       .dwtag  DW_TAG_formal_parameter
    2413                      .dwattr $C$DW$446, DW_AT_type(*$C$DW$T$8)
    2414              $C$DW$447       .dwtag  DW_TAG_formal_parameter
    2415                      .dwattr $C$DW$447, DW_AT_type(*$C$DW$T$54)
    2416                      .dwendtag $C$DW$T$100
    2417              
    2418              $C$DW$T$101     .dwtag  DW_TAG_pointer_type
    2419                      .dwattr $C$DW$T$101, DW_AT_type(*$C$DW$T$100)
    2420                      .dwattr $C$DW$T$101, DW_AT_address_class(0x20)
    2421              
    2422              $C$DW$T$102     .dwtag  DW_TAG_subroutine_type
    2423                      .dwattr $C$DW$T$102, DW_AT_language(DW_LANG_C)
    2424              $C$DW$448       .dwtag  DW_TAG_formal_parameter
    2425                      .dwattr $C$DW$448, DW_AT_type(*$C$DW$T$21)
    2426              $C$DW$449       .dwtag  DW_TAG_formal_parameter
    2427                      .dwattr $C$DW$449, DW_AT_type(*$C$DW$T$21)
    2428              $C$DW$450       .dwtag  DW_TAG_formal_parameter
    2429                      .dwattr $C$DW$450, DW_AT_type(*$C$DW$T$54)
    2430                      .dwendtag $C$DW$T$102
    2431              
    2432              $C$DW$T$103     .dwtag  DW_TAG_pointer_type
    2433                      .dwattr $C$DW$T$103, DW_AT_type(*$C$DW$T$102)
    2434                      .dwattr $C$DW$T$103, DW_AT_address_class(0x20)
    2435              
    2436              $C$DW$T$104     .dwtag  DW_TAG_subroutine_type
    2437                      .dwattr $C$DW$T$104, DW_AT_language(DW_LANG_C)
    2438              $C$DW$451       .dwtag  DW_TAG_formal_parameter
    2439                      .dwattr $C$DW$451, DW_AT_type(*$C$DW$T$54)
    2440              $C$DW$452       .dwtag  DW_TAG_formal_parameter
    2441                      .dwattr $C$DW$452, DW_AT_type(*$C$DW$T$9)
TMS320C55x Assembler PC v4.4.1 Wed Sep 13 16:33:16 2017

Tools Copyright (c) 1996-2012 Texas Instruments Incorporated
C:\Users\a0221074\AppData\Local\Temp\2199210                         PAGE   50

    2442              $C$DW$453       .dwtag  DW_TAG_formal_parameter
    2443                      .dwattr $C$DW$453, DW_AT_type(*$C$DW$T$9)
    2444                      .dwendtag $C$DW$T$104
    2445              
    2446              $C$DW$T$105     .dwtag  DW_TAG_pointer_type
    2447                      .dwattr $C$DW$T$105, DW_AT_type(*$C$DW$T$104)
    2448                      .dwattr $C$DW$T$105, DW_AT_address_class(0x20)
    2449              
    2450              $C$DW$T$106     .dwtag  DW_TAG_subroutine_type
    2451                      .dwattr $C$DW$T$106, DW_AT_language(DW_LANG_C)
    2452              $C$DW$454       .dwtag  DW_TAG_formal_parameter
    2453                      .dwattr $C$DW$454, DW_AT_type(*$C$DW$T$81)
    2454              $C$DW$455       .dwtag  DW_TAG_formal_parameter
    2455                      .dwattr $C$DW$455, DW_AT_type(*$C$DW$T$35)
    2456              $C$DW$456       .dwtag  DW_TAG_formal_parameter
    2457                      .dwattr $C$DW$456, DW_AT_type(*$C$DW$T$35)
    2458                      .dwendtag $C$DW$T$106
    2459              
    2460              $C$DW$T$107     .dwtag  DW_TAG_pointer_type
    2461                      .dwattr $C$DW$T$107, DW_AT_type(*$C$DW$T$106)
    2462                      .dwattr $C$DW$T$107, DW_AT_address_class(0x20)
    2463              
    2464              $C$DW$T$108     .dwtag  DW_TAG_subroutine_type
    2465                      .dwattr $C$DW$T$108, DW_AT_language(DW_LANG_C)
    2466              $C$DW$457       .dwtag  DW_TAG_formal_parameter
    2467                      .dwattr $C$DW$457, DW_AT_type(*$C$DW$T$8)
    2468              $C$DW$458       .dwtag  DW_TAG_formal_parameter
    2469                      .dwattr $C$DW$458, DW_AT_type(*$C$DW$T$8)
    2470              $C$DW$459       .dwtag  DW_TAG_formal_parameter
    2471                      .dwattr $C$DW$459, DW_AT_type(*$C$DW$T$8)
    2472              $C$DW$460       .dwtag  DW_TAG_formal_parameter
    2473                      .dwattr $C$DW$460, DW_AT_type(*$C$DW$T$8)
    2474              $C$DW$461       .dwtag  DW_TAG_formal_parameter
    2475                      .dwattr $C$DW$461, DW_AT_type(*$C$DW$T$8)
    2476              $C$DW$462       .dwtag  DW_TAG_formal_parameter
    2477                      .dwattr $C$DW$462, DW_AT_type(*$C$DW$T$9)
    2478              $C$DW$463       .dwtag  DW_TAG_formal_parameter
    2479                      .dwattr $C$DW$463, DW_AT_type(*$C$DW$T$8)
    2480              $C$DW$464       .dwtag  DW_TAG_formal_parameter
    2481                      .dwattr $C$DW$464, DW_AT_type(*$C$DW$T$8)
    2482              $C$DW$465       .dwtag  DW_TAG_formal_parameter
    2483                      .dwattr $C$DW$465, DW_AT_type(*$C$DW$T$54)
    2484                      .dwendtag $C$DW$T$108
    2485              
    2486              $C$DW$T$109     .dwtag  DW_TAG_pointer_type
    2487                      .dwattr $C$DW$T$109, DW_AT_type(*$C$DW$T$108)
    2488                      .dwattr $C$DW$T$109, DW_AT_address_class(0x20)
    2489              
    2490              $C$DW$T$110     .dwtag  DW_TAG_subroutine_type
    2491                      .dwattr $C$DW$T$110, DW_AT_language(DW_LANG_C)
    2492              $C$DW$466       .dwtag  DW_TAG_formal_parameter
    2493                      .dwattr $C$DW$466, DW_AT_type(*$C$DW$T$21)
    2494              $C$DW$467       .dwtag  DW_TAG_formal_parameter
    2495                      .dwattr $C$DW$467, DW_AT_type(*$C$DW$T$21)
    2496              $C$DW$468       .dwtag  DW_TAG_formal_parameter
TMS320C55x Assembler PC v4.4.1 Wed Sep 13 16:33:16 2017

Tools Copyright (c) 1996-2012 Texas Instruments Incorporated
C:\Users\a0221074\AppData\Local\Temp\2199210                         PAGE   51

    2497                      .dwattr $C$DW$468, DW_AT_type(*$C$DW$T$21)
    2498              $C$DW$469       .dwtag  DW_TAG_formal_parameter
    2499                      .dwattr $C$DW$469, DW_AT_type(*$C$DW$T$21)
    2500              $C$DW$470       .dwtag  DW_TAG_formal_parameter
    2501                      .dwattr $C$DW$470, DW_AT_type(*$C$DW$T$21)
    2502              $C$DW$471       .dwtag  DW_TAG_formal_parameter
    2503                      .dwattr $C$DW$471, DW_AT_type(*$C$DW$T$35)
    2504              $C$DW$472       .dwtag  DW_TAG_formal_parameter
    2505                      .dwattr $C$DW$472, DW_AT_type(*$C$DW$T$21)
    2506              $C$DW$473       .dwtag  DW_TAG_formal_parameter
    2507                      .dwattr $C$DW$473, DW_AT_type(*$C$DW$T$21)
    2508              $C$DW$474       .dwtag  DW_TAG_formal_parameter
    2509                      .dwattr $C$DW$474, DW_AT_type(*$C$DW$T$54)
    2510                      .dwendtag $C$DW$T$110
    2511              
    2512              $C$DW$T$111     .dwtag  DW_TAG_pointer_type
    2513                      .dwattr $C$DW$T$111, DW_AT_type(*$C$DW$T$110)
    2514                      .dwattr $C$DW$T$111, DW_AT_address_class(0x20)
    2515              
    2516              $C$DW$T$112     .dwtag  DW_TAG_subroutine_type
    2517                      .dwattr $C$DW$T$112, DW_AT_language(DW_LANG_C)
    2518              $C$DW$475       .dwtag  DW_TAG_formal_parameter
    2519                      .dwattr $C$DW$475, DW_AT_type(*$C$DW$T$9)
    2520              $C$DW$476       .dwtag  DW_TAG_formal_parameter
    2521                      .dwattr $C$DW$476, DW_AT_type(*$C$DW$T$8)
    2522              $C$DW$477       .dwtag  DW_TAG_formal_parameter
    2523                      .dwattr $C$DW$477, DW_AT_type(*$C$DW$T$54)
    2524                      .dwendtag $C$DW$T$112
    2525              
    2526              $C$DW$T$113     .dwtag  DW_TAG_pointer_type
    2527                      .dwattr $C$DW$T$113, DW_AT_type(*$C$DW$T$112)
    2528                      .dwattr $C$DW$T$113, DW_AT_address_class(0x20)
    2529              
    2530              $C$DW$T$114     .dwtag  DW_TAG_subroutine_type
    2531                      .dwattr $C$DW$T$114, DW_AT_language(DW_LANG_C)
    2532              $C$DW$478       .dwtag  DW_TAG_formal_parameter
    2533                      .dwattr $C$DW$478, DW_AT_type(*$C$DW$T$35)
    2534              $C$DW$479       .dwtag  DW_TAG_formal_parameter
    2535                      .dwattr $C$DW$479, DW_AT_type(*$C$DW$T$21)
    2536              $C$DW$480       .dwtag  DW_TAG_formal_parameter
    2537                      .dwattr $C$DW$480, DW_AT_type(*$C$DW$T$54)
    2538                      .dwendtag $C$DW$T$114
    2539              
    2540              $C$DW$T$115     .dwtag  DW_TAG_pointer_type
    2541                      .dwattr $C$DW$T$115, DW_AT_type(*$C$DW$T$114)
    2542                      .dwattr $C$DW$T$115, DW_AT_address_class(0x20)
    2543              
    2544              $C$DW$T$116     .dwtag  DW_TAG_subroutine_type
    2545                      .dwattr $C$DW$T$116, DW_AT_language(DW_LANG_C)
    2546              $C$DW$481       .dwtag  DW_TAG_formal_parameter
    2547                      .dwattr $C$DW$481, DW_AT_type(*$C$DW$T$21)
    2548              $C$DW$482       .dwtag  DW_TAG_formal_parameter
    2549                      .dwattr $C$DW$482, DW_AT_type(*$C$DW$T$54)
    2550                      .dwendtag $C$DW$T$116
    2551              
TMS320C55x Assembler PC v4.4.1 Wed Sep 13 16:33:16 2017

Tools Copyright (c) 1996-2012 Texas Instruments Incorporated
C:\Users\a0221074\AppData\Local\Temp\2199210                         PAGE   52

    2552              $C$DW$T$117     .dwtag  DW_TAG_pointer_type
    2553                      .dwattr $C$DW$T$117, DW_AT_type(*$C$DW$T$116)
    2554                      .dwattr $C$DW$T$117, DW_AT_address_class(0x20)
    2555              
    2556              $C$DW$T$118     .dwtag  DW_TAG_subroutine_type
    2557                      .dwattr $C$DW$T$118, DW_AT_language(DW_LANG_C)
    2558              $C$DW$483       .dwtag  DW_TAG_formal_parameter
    2559                      .dwattr $C$DW$483, DW_AT_type(*$C$DW$T$8)
    2560              $C$DW$484       .dwtag  DW_TAG_formal_parameter
    2561                      .dwattr $C$DW$484, DW_AT_type(*$C$DW$T$54)
    2562                      .dwendtag $C$DW$T$118
    2563              
    2564              $C$DW$T$119     .dwtag  DW_TAG_pointer_type
    2565                      .dwattr $C$DW$T$119, DW_AT_type(*$C$DW$T$118)
    2566                      .dwattr $C$DW$T$119, DW_AT_address_class(0x20)
    2567              
    2568              $C$DW$T$122     .dwtag  DW_TAG_subroutine_type
    2569                      .dwattr $C$DW$T$122, DW_AT_language(DW_LANG_C)
    2570              $C$DW$485       .dwtag  DW_TAG_formal_parameter
    2571                      .dwattr $C$DW$485, DW_AT_type(*$C$DW$T$54)
    2572              $C$DW$486       .dwtag  DW_TAG_formal_parameter
    2573                      .dwattr $C$DW$486, DW_AT_type(*$C$DW$T$8)
    2574              $C$DW$487       .dwtag  DW_TAG_formal_parameter
    2575                      .dwattr $C$DW$487, DW_AT_type(*$C$DW$T$8)
    2576              $C$DW$488       .dwtag  DW_TAG_formal_parameter
    2577                      .dwattr $C$DW$488, DW_AT_type(*$C$DW$T$8)
    2578              $C$DW$489       .dwtag  DW_TAG_formal_parameter
    2579                      .dwattr $C$DW$489, DW_AT_type(*$C$DW$T$8)
    2580              $C$DW$490       .dwtag  DW_TAG_formal_parameter
    2581                      .dwattr $C$DW$490, DW_AT_type(*$C$DW$T$8)
    2582                      .dwendtag $C$DW$T$122
    2583              
    2584              $C$DW$T$123     .dwtag  DW_TAG_pointer_type
    2585                      .dwattr $C$DW$T$123, DW_AT_type(*$C$DW$T$122)
    2586                      .dwattr $C$DW$T$123, DW_AT_address_class(0x20)
    2587              
    2588              $C$DW$T$124     .dwtag  DW_TAG_subroutine_type
    2589                      .dwattr $C$DW$T$124, DW_AT_language(DW_LANG_C)
    2590              $C$DW$491       .dwtag  DW_TAG_formal_parameter
    2591                      .dwattr $C$DW$491, DW_AT_type(*$C$DW$T$54)
    2592              $C$DW$492       .dwtag  DW_TAG_formal_parameter
    2593                      .dwattr $C$DW$492, DW_AT_type(*$C$DW$T$8)
    2594              $C$DW$493       .dwtag  DW_TAG_formal_parameter
    2595                      .dwattr $C$DW$493, DW_AT_type(*$C$DW$T$8)
    2596              $C$DW$494       .dwtag  DW_TAG_formal_parameter
    2597                      .dwattr $C$DW$494, DW_AT_type(*$C$DW$T$8)
    2598              $C$DW$495       .dwtag  DW_TAG_formal_parameter
    2599                      .dwattr $C$DW$495, DW_AT_type(*$C$DW$T$8)
    2600              $C$DW$496       .dwtag  DW_TAG_formal_parameter
    2601                      .dwattr $C$DW$496, DW_AT_type(*$C$DW$T$8)
    2602              $C$DW$497       .dwtag  DW_TAG_formal_parameter
    2603                      .dwattr $C$DW$497, DW_AT_type(*$C$DW$T$8)
    2604              $C$DW$498       .dwtag  DW_TAG_formal_parameter
    2605                      .dwattr $C$DW$498, DW_AT_type(*$C$DW$T$8)
    2606                      .dwendtag $C$DW$T$124
TMS320C55x Assembler PC v4.4.1 Wed Sep 13 16:33:16 2017

Tools Copyright (c) 1996-2012 Texas Instruments Incorporated
C:\Users\a0221074\AppData\Local\Temp\2199210                         PAGE   53

    2607              
    2608              $C$DW$T$125     .dwtag  DW_TAG_pointer_type
    2609                      .dwattr $C$DW$T$125, DW_AT_type(*$C$DW$T$124)
    2610                      .dwattr $C$DW$T$125, DW_AT_address_class(0x20)
    2611              
    2612              $C$DW$T$126     .dwtag  DW_TAG_subroutine_type
    2613                      .dwattr $C$DW$T$126, DW_AT_language(DW_LANG_C)
    2614              $C$DW$499       .dwtag  DW_TAG_formal_parameter
    2615                      .dwattr $C$DW$499, DW_AT_type(*$C$DW$T$81)
    2616              $C$DW$500       .dwtag  DW_TAG_formal_parameter
    2617                      .dwattr $C$DW$500, DW_AT_type(*$C$DW$T$21)
    2618                      .dwendtag $C$DW$T$126
    2619              
    2620              $C$DW$T$127     .dwtag  DW_TAG_pointer_type
    2621                      .dwattr $C$DW$T$127, DW_AT_type(*$C$DW$T$126)
    2622                      .dwattr $C$DW$T$127, DW_AT_address_class(0x20)
    2623              
    2624              $C$DW$T$128     .dwtag  DW_TAG_subroutine_type
    2625                      .dwattr $C$DW$T$128, DW_AT_language(DW_LANG_C)
    2626              $C$DW$501       .dwtag  DW_TAG_formal_parameter
    2627                      .dwattr $C$DW$501, DW_AT_type(*$C$DW$T$81)
    2628              $C$DW$502       .dwtag  DW_TAG_formal_parameter
    2629                      .dwattr $C$DW$502, DW_AT_type(*$C$DW$T$21)
    2630              $C$DW$503       .dwtag  DW_TAG_formal_parameter
    2631                      .dwattr $C$DW$503, DW_AT_type(*$C$DW$T$21)
    2632              $C$DW$504       .dwtag  DW_TAG_formal_parameter
    2633                      .dwattr $C$DW$504, DW_AT_type(*$C$DW$T$21)
    2634              $C$DW$505       .dwtag  DW_TAG_formal_parameter
    2635                      .dwattr $C$DW$505, DW_AT_type(*$C$DW$T$21)
    2636              $C$DW$506       .dwtag  DW_TAG_formal_parameter
    2637                      .dwattr $C$DW$506, DW_AT_type(*$C$DW$T$21)
    2638                      .dwendtag $C$DW$T$128
    2639              
    2640              $C$DW$T$129     .dwtag  DW_TAG_pointer_type
    2641                      .dwattr $C$DW$T$129, DW_AT_type(*$C$DW$T$128)
    2642                      .dwattr $C$DW$T$129, DW_AT_address_class(0x20)
    2643              
    2644              $C$DW$T$130     .dwtag  DW_TAG_subroutine_type
    2645                      .dwattr $C$DW$T$130, DW_AT_language(DW_LANG_C)
    2646              $C$DW$507       .dwtag  DW_TAG_formal_parameter
    2647                      .dwattr $C$DW$507, DW_AT_type(*$C$DW$T$81)
    2648              $C$DW$508       .dwtag  DW_TAG_formal_parameter
    2649                      .dwattr $C$DW$508, DW_AT_type(*$C$DW$T$21)
    2650              $C$DW$509       .dwtag  DW_TAG_formal_parameter
    2651                      .dwattr $C$DW$509, DW_AT_type(*$C$DW$T$21)
    2652              $C$DW$510       .dwtag  DW_TAG_formal_parameter
    2653                      .dwattr $C$DW$510, DW_AT_type(*$C$DW$T$21)
    2654              $C$DW$511       .dwtag  DW_TAG_formal_parameter
    2655                      .dwattr $C$DW$511, DW_AT_type(*$C$DW$T$21)
    2656              $C$DW$512       .dwtag  DW_TAG_formal_parameter
    2657                      .dwattr $C$DW$512, DW_AT_type(*$C$DW$T$21)
    2658              $C$DW$513       .dwtag  DW_TAG_formal_parameter
    2659                      .dwattr $C$DW$513, DW_AT_type(*$C$DW$T$21)
    2660              $C$DW$514       .dwtag  DW_TAG_formal_parameter
    2661                      .dwattr $C$DW$514, DW_AT_type(*$C$DW$T$21)
TMS320C55x Assembler PC v4.4.1 Wed Sep 13 16:33:16 2017

Tools Copyright (c) 1996-2012 Texas Instruments Incorporated
C:\Users\a0221074\AppData\Local\Temp\2199210                         PAGE   54

    2662                      .dwendtag $C$DW$T$130
    2663              
    2664              $C$DW$T$131     .dwtag  DW_TAG_pointer_type
    2665                      .dwattr $C$DW$T$131, DW_AT_type(*$C$DW$T$130)
    2666                      .dwattr $C$DW$T$131, DW_AT_address_class(0x20)
    2667              
    2668              $C$DW$T$132     .dwtag  DW_TAG_subroutine_type
    2669                      .dwattr $C$DW$T$132, DW_AT_language(DW_LANG_C)
    2670              $C$DW$515       .dwtag  DW_TAG_formal_parameter
    2671                      .dwattr $C$DW$515, DW_AT_type(*$C$DW$T$54)
    2672              $C$DW$516       .dwtag  DW_TAG_formal_parameter
    2673                      .dwattr $C$DW$516, DW_AT_type(*$C$DW$T$35)
    2674              $C$DW$517       .dwtag  DW_TAG_formal_parameter
    2675                      .dwattr $C$DW$517, DW_AT_type(*$C$DW$T$35)
    2676                      .dwendtag $C$DW$T$132
    2677              
    2678              $C$DW$T$133     .dwtag  DW_TAG_pointer_type
    2679                      .dwattr $C$DW$T$133, DW_AT_type(*$C$DW$T$132)
    2680                      .dwattr $C$DW$T$133, DW_AT_address_class(0x20)
    2681              $C$DW$T$4       .dwtag  DW_TAG_base_type
    2682                      .dwattr $C$DW$T$4, DW_AT_encoding(DW_ATE_boolean)
    2683                      .dwattr $C$DW$T$4, DW_AT_name("bool")
    2684                      .dwattr $C$DW$T$4, DW_AT_byte_size(0x01)
    2685              $C$DW$T$5       .dwtag  DW_TAG_base_type
    2686                      .dwattr $C$DW$T$5, DW_AT_encoding(DW_ATE_signed_char)
    2687                      .dwattr $C$DW$T$5, DW_AT_name("signed char")
    2688                      .dwattr $C$DW$T$5, DW_AT_byte_size(0x01)
    2689              $C$DW$T$6       .dwtag  DW_TAG_base_type
    2690                      .dwattr $C$DW$T$6, DW_AT_encoding(DW_ATE_unsigned_char)
    2691                      .dwattr $C$DW$T$6, DW_AT_name("unsigned char")
    2692                      .dwattr $C$DW$T$6, DW_AT_byte_size(0x01)
    2693              $C$DW$T$7       .dwtag  DW_TAG_base_type
    2694                      .dwattr $C$DW$T$7, DW_AT_encoding(DW_ATE_signed_char)
    2695                      .dwattr $C$DW$T$7, DW_AT_name("wchar_t")
    2696                      .dwattr $C$DW$T$7, DW_AT_byte_size(0x01)
    2697              $C$DW$T$8       .dwtag  DW_TAG_base_type
    2698                      .dwattr $C$DW$T$8, DW_AT_encoding(DW_ATE_signed)
    2699                      .dwattr $C$DW$T$8, DW_AT_name("short")
    2700                      .dwattr $C$DW$T$8, DW_AT_byte_size(0x01)
    2701              $C$DW$T$21      .dwtag  DW_TAG_pointer_type
    2702                      .dwattr $C$DW$T$21, DW_AT_type(*$C$DW$T$8)
    2703                      .dwattr $C$DW$T$21, DW_AT_address_class(0x17)
    2704              
    2705              $C$DW$T$39      .dwtag  DW_TAG_array_type
    2706                      .dwattr $C$DW$T$39, DW_AT_type(*$C$DW$T$8)
    2707                      .dwattr $C$DW$T$39, DW_AT_language(DW_LANG_C)
    2708                      .dwattr $C$DW$T$39, DW_AT_byte_size(0x1e)
    2709              $C$DW$518       .dwtag  DW_TAG_subrange_type
    2710                      .dwattr $C$DW$518, DW_AT_upper_bound(0x1d)
    2711                      .dwendtag $C$DW$T$39
    2712              
    2713              
    2714              $C$DW$T$45      .dwtag  DW_TAG_array_type
    2715                      .dwattr $C$DW$T$45, DW_AT_type(*$C$DW$T$8)
    2716                      .dwattr $C$DW$T$45, DW_AT_language(DW_LANG_C)
TMS320C55x Assembler PC v4.4.1 Wed Sep 13 16:33:16 2017

Tools Copyright (c) 1996-2012 Texas Instruments Incorporated
C:\Users\a0221074\AppData\Local\Temp\2199210                         PAGE   55

    2717                      .dwattr $C$DW$T$45, DW_AT_byte_size(0x514)
    2718              $C$DW$519       .dwtag  DW_TAG_subrange_type
    2719                      .dwattr $C$DW$519, DW_AT_upper_bound(0x513)
    2720                      .dwendtag $C$DW$T$45
    2721              
    2722              
    2723              $C$DW$T$65      .dwtag  DW_TAG_subroutine_type
    2724                      .dwattr $C$DW$T$65, DW_AT_type(*$C$DW$T$8)
    2725                      .dwattr $C$DW$T$65, DW_AT_language(DW_LANG_C)
    2726              $C$DW$520       .dwtag  DW_TAG_formal_parameter
    2727                      .dwattr $C$DW$520, DW_AT_type(*$C$DW$T$54)
    2728                      .dwendtag $C$DW$T$65
    2729              
    2730              $C$DW$T$66      .dwtag  DW_TAG_pointer_type
    2731                      .dwattr $C$DW$T$66, DW_AT_type(*$C$DW$T$65)
    2732                      .dwattr $C$DW$T$66, DW_AT_address_class(0x20)
    2733              
    2734              $C$DW$T$82      .dwtag  DW_TAG_subroutine_type
    2735                      .dwattr $C$DW$T$82, DW_AT_type(*$C$DW$T$8)
    2736                      .dwattr $C$DW$T$82, DW_AT_language(DW_LANG_C)
    2737              $C$DW$521       .dwtag  DW_TAG_formal_parameter
    2738                      .dwattr $C$DW$521, DW_AT_type(*$C$DW$T$81)
    2739                      .dwendtag $C$DW$T$82
    2740              
    2741              $C$DW$T$83      .dwtag  DW_TAG_pointer_type
    2742                      .dwattr $C$DW$T$83, DW_AT_type(*$C$DW$T$82)
    2743                      .dwattr $C$DW$T$83, DW_AT_address_class(0x20)
    2744              
    2745              $C$DW$T$136     .dwtag  DW_TAG_array_type
    2746                      .dwattr $C$DW$T$136, DW_AT_type(*$C$DW$T$8)
    2747                      .dwattr $C$DW$T$136, DW_AT_language(DW_LANG_C)
    2748                      .dwattr $C$DW$T$136, DW_AT_byte_size(0x100)
    2749              $C$DW$522       .dwtag  DW_TAG_subrange_type
    2750                      .dwattr $C$DW$522, DW_AT_upper_bound(0xff)
    2751                      .dwendtag $C$DW$T$136
    2752              
    2753              
    2754              $C$DW$T$137     .dwtag  DW_TAG_array_type
    2755                      .dwattr $C$DW$T$137, DW_AT_type(*$C$DW$T$8)
    2756                      .dwattr $C$DW$T$137, DW_AT_language(DW_LANG_C)
    2757                      .dwattr $C$DW$T$137, DW_AT_byte_size(0x10)
    2758              $C$DW$523       .dwtag  DW_TAG_subrange_type
    2759                      .dwattr $C$DW$523, DW_AT_upper_bound(0x0f)
    2760                      .dwendtag $C$DW$T$137
    2761              
    2762              
    2763              $C$DW$T$138     .dwtag  DW_TAG_array_type
    2764                      .dwattr $C$DW$T$138, DW_AT_type(*$C$DW$T$8)
    2765                      .dwattr $C$DW$T$138, DW_AT_language(DW_LANG_C)
    2766                      .dwattr $C$DW$T$138, DW_AT_byte_size(0xe0)
    2767              $C$DW$524       .dwtag  DW_TAG_subrange_type
    2768                      .dwattr $C$DW$524, DW_AT_upper_bound(0x0d)
    2769              $C$DW$525       .dwtag  DW_TAG_subrange_type
    2770                      .dwattr $C$DW$525, DW_AT_upper_bound(0x0f)
    2771                      .dwendtag $C$DW$T$138
TMS320C55x Assembler PC v4.4.1 Wed Sep 13 16:33:16 2017

Tools Copyright (c) 1996-2012 Texas Instruments Incorporated
C:\Users\a0221074\AppData\Local\Temp\2199210                         PAGE   56

    2772              
    2773              $C$DW$526       .dwtag  DW_TAG_TI_far_type
    2774                      .dwattr $C$DW$526, DW_AT_type(*$C$DW$T$8)
    2775              $C$DW$T$139     .dwtag  DW_TAG_const_type
    2776                      .dwattr $C$DW$T$139, DW_AT_type(*$C$DW$526)
    2777              $C$DW$T$140     .dwtag  DW_TAG_pointer_type
    2778                      .dwattr $C$DW$T$140, DW_AT_type(*$C$DW$T$139)
    2779                      .dwattr $C$DW$T$140, DW_AT_address_class(0x17)
    2780              
    2781              $C$DW$T$141     .dwtag  DW_TAG_array_type
    2782                      .dwattr $C$DW$T$141, DW_AT_type(*$C$DW$T$140)
    2783                      .dwattr $C$DW$T$141, DW_AT_language(DW_LANG_C)
    2784                      .dwattr $C$DW$T$141, DW_AT_byte_size(0x20)
    2785              $C$DW$527       .dwtag  DW_TAG_subrange_type
    2786                      .dwattr $C$DW$527, DW_AT_upper_bound(0x0f)
    2787                      .dwendtag $C$DW$T$141
    2788              
    2789              
    2790              $C$DW$T$145     .dwtag  DW_TAG_array_type
    2791                      .dwattr $C$DW$T$145, DW_AT_type(*$C$DW$T$8)
    2792                      .dwattr $C$DW$T$145, DW_AT_language(DW_LANG_C)
    2793                      .dwattr $C$DW$T$145, DW_AT_byte_size(0x80)
    2794              $C$DW$528       .dwtag  DW_TAG_subrange_type
    2795                      .dwattr $C$DW$528, DW_AT_upper_bound(0x7f)
    2796                      .dwendtag $C$DW$T$145
    2797              
    2798              
    2799              $C$DW$T$146     .dwtag  DW_TAG_array_type
    2800                      .dwattr $C$DW$T$146, DW_AT_type(*$C$DW$T$8)
    2801                      .dwattr $C$DW$T$146, DW_AT_language(DW_LANG_C)
    2802                      .dwattr $C$DW$T$146, DW_AT_byte_size(0x1a)
    2803              $C$DW$529       .dwtag  DW_TAG_subrange_type
    2804                      .dwattr $C$DW$529, DW_AT_upper_bound(0x19)
    2805                      .dwendtag $C$DW$T$146
    2806              
    2807              
    2808              $C$DW$T$162     .dwtag  DW_TAG_array_type
    2809                      .dwattr $C$DW$T$162, DW_AT_type(*$C$DW$T$8)
    2810                      .dwattr $C$DW$T$162, DW_AT_language(DW_LANG_C)
    2811                      .dwattr $C$DW$T$162, DW_AT_byte_size(0x20)
    2812              $C$DW$530       .dwtag  DW_TAG_subrange_type
    2813                      .dwattr $C$DW$530, DW_AT_upper_bound(0x1f)
    2814                      .dwendtag $C$DW$T$162
    2815              
    2816              
    2817              $C$DW$T$168     .dwtag  DW_TAG_array_type
    2818                      .dwattr $C$DW$T$168, DW_AT_type(*$C$DW$T$8)
    2819                      .dwattr $C$DW$T$168, DW_AT_language(DW_LANG_C)
    2820                      .dwattr $C$DW$T$168, DW_AT_byte_size(0x14)
    2821              $C$DW$531       .dwtag  DW_TAG_subrange_type
    2822                      .dwattr $C$DW$531, DW_AT_upper_bound(0x13)
    2823                      .dwendtag $C$DW$T$168
    2824              
    2825              $C$DW$T$9       .dwtag  DW_TAG_base_type
    2826                      .dwattr $C$DW$T$9, DW_AT_encoding(DW_ATE_unsigned)
TMS320C55x Assembler PC v4.4.1 Wed Sep 13 16:33:16 2017

Tools Copyright (c) 1996-2012 Texas Instruments Incorporated
C:\Users\a0221074\AppData\Local\Temp\2199210                         PAGE   57

    2827                      .dwattr $C$DW$T$9, DW_AT_name("unsigned short")
    2828                      .dwattr $C$DW$T$9, DW_AT_byte_size(0x01)
    2829              
    2830              $C$DW$T$27      .dwtag  DW_TAG_array_type
    2831                      .dwattr $C$DW$T$27, DW_AT_type(*$C$DW$T$9)
    2832                      .dwattr $C$DW$T$27, DW_AT_language(DW_LANG_C)
    2833                      .dwattr $C$DW$T$27, DW_AT_byte_size(0x01)
    2834              $C$DW$532       .dwtag  DW_TAG_subrange_type
    2835                      .dwattr $C$DW$532, DW_AT_upper_bound(0x00)
    2836                      .dwendtag $C$DW$T$27
    2837              
    2838              
    2839              $C$DW$T$33      .dwtag  DW_TAG_array_type
    2840                      .dwattr $C$DW$T$33, DW_AT_type(*$C$DW$T$9)
    2841                      .dwattr $C$DW$T$33, DW_AT_language(DW_LANG_C)
    2842                      .dwattr $C$DW$T$33, DW_AT_byte_size(0x02)
    2843              $C$DW$533       .dwtag  DW_TAG_subrange_type
    2844                      .dwattr $C$DW$533, DW_AT_upper_bound(0x01)
    2845                      .dwendtag $C$DW$T$33
    2846              
    2847              $C$DW$T$35      .dwtag  DW_TAG_pointer_type
    2848                      .dwattr $C$DW$T$35, DW_AT_type(*$C$DW$T$9)
    2849                      .dwattr $C$DW$T$35, DW_AT_address_class(0x17)
    2850              
    2851              $C$DW$T$86      .dwtag  DW_TAG_subroutine_type
    2852                      .dwattr $C$DW$T$86, DW_AT_type(*$C$DW$T$9)
    2853                      .dwattr $C$DW$T$86, DW_AT_language(DW_LANG_C)
    2854              $C$DW$534       .dwtag  DW_TAG_formal_parameter
    2855                      .dwattr $C$DW$534, DW_AT_type(*$C$DW$T$81)
    2856                      .dwendtag $C$DW$T$86
    2857              
    2858              $C$DW$T$87      .dwtag  DW_TAG_pointer_type
    2859                      .dwattr $C$DW$T$87, DW_AT_type(*$C$DW$T$86)
    2860                      .dwattr $C$DW$T$87, DW_AT_address_class(0x20)
    2861              $C$DW$535       .dwtag  DW_TAG_TI_far_type
    2862                      .dwattr $C$DW$535, DW_AT_type(*$C$DW$T$9)
    2863              $C$DW$T$88      .dwtag  DW_TAG_const_type
    2864                      .dwattr $C$DW$T$88, DW_AT_type(*$C$DW$535)
    2865              $C$DW$T$89      .dwtag  DW_TAG_pointer_type
    2866                      .dwattr $C$DW$T$89, DW_AT_type(*$C$DW$T$88)
    2867                      .dwattr $C$DW$T$89, DW_AT_address_class(0x17)
    2868              
    2869              $C$DW$T$90      .dwtag  DW_TAG_subroutine_type
    2870                      .dwattr $C$DW$T$90, DW_AT_type(*$C$DW$T$89)
    2871                      .dwattr $C$DW$T$90, DW_AT_language(DW_LANG_C)
    2872              $C$DW$536       .dwtag  DW_TAG_formal_parameter
    2873                      .dwattr $C$DW$536, DW_AT_type(*$C$DW$T$81)
    2874              $C$DW$537       .dwtag  DW_TAG_formal_parameter
    2875                      .dwattr $C$DW$537, DW_AT_type(*$C$DW$T$8)
    2876                      .dwendtag $C$DW$T$90
    2877              
    2878              $C$DW$T$91      .dwtag  DW_TAG_pointer_type
    2879                      .dwattr $C$DW$T$91, DW_AT_type(*$C$DW$T$90)
    2880                      .dwattr $C$DW$T$91, DW_AT_address_class(0x20)
    2881              
TMS320C55x Assembler PC v4.4.1 Wed Sep 13 16:33:16 2017

Tools Copyright (c) 1996-2012 Texas Instruments Incorporated
C:\Users\a0221074\AppData\Local\Temp\2199210                         PAGE   58

    2882              $C$DW$T$94      .dwtag  DW_TAG_subroutine_type
    2883                      .dwattr $C$DW$T$94, DW_AT_type(*$C$DW$T$9)
    2884                      .dwattr $C$DW$T$94, DW_AT_language(DW_LANG_C)
    2885              $C$DW$538       .dwtag  DW_TAG_formal_parameter
    2886                      .dwattr $C$DW$538, DW_AT_type(*$C$DW$T$81)
    2887              $C$DW$539       .dwtag  DW_TAG_formal_parameter
    2888                      .dwattr $C$DW$539, DW_AT_type(*$C$DW$T$8)
    2889                      .dwendtag $C$DW$T$94
    2890              
    2891              $C$DW$T$95      .dwtag  DW_TAG_pointer_type
    2892                      .dwattr $C$DW$T$95, DW_AT_type(*$C$DW$T$94)
    2893                      .dwattr $C$DW$T$95, DW_AT_address_class(0x20)
    2894              
    2895              $C$DW$T$120     .dwtag  DW_TAG_subroutine_type
    2896                      .dwattr $C$DW$T$120, DW_AT_type(*$C$DW$T$9)
    2897                      .dwattr $C$DW$T$120, DW_AT_language(DW_LANG_C)
    2898              $C$DW$540       .dwtag  DW_TAG_formal_parameter
    2899                      .dwattr $C$DW$540, DW_AT_type(*$C$DW$T$54)
    2900                      .dwendtag $C$DW$T$120
    2901              
    2902              $C$DW$T$121     .dwtag  DW_TAG_pointer_type
    2903                      .dwattr $C$DW$T$121, DW_AT_type(*$C$DW$T$120)
    2904                      .dwattr $C$DW$T$121, DW_AT_address_class(0x20)
    2905              $C$DW$T$20      .dwtag  DW_TAG_typedef, DW_AT_name("ushort")
    2906                      .dwattr $C$DW$T$20, DW_AT_type(*$C$DW$T$9)
    2907                      .dwattr $C$DW$T$20, DW_AT_language(DW_LANG_C)
    2908              $C$DW$T$22      .dwtag  DW_TAG_pointer_type
    2909                      .dwattr $C$DW$T$22, DW_AT_type(*$C$DW$T$20)
    2910                      .dwattr $C$DW$T$22, DW_AT_address_class(0x17)
    2911              
    2912              $C$DW$T$37      .dwtag  DW_TAG_array_type
    2913                      .dwattr $C$DW$T$37, DW_AT_type(*$C$DW$T$20)
    2914                      .dwattr $C$DW$T$37, DW_AT_language(DW_LANG_C)
    2915                      .dwattr $C$DW$T$37, DW_AT_byte_size(0x14)
    2916              $C$DW$541       .dwtag  DW_TAG_subrange_type
    2917                      .dwattr $C$DW$541, DW_AT_upper_bound(0x13)
    2918                      .dwendtag $C$DW$T$37
    2919              
    2920              
    2921              $C$DW$T$169     .dwtag  DW_TAG_array_type
    2922                      .dwattr $C$DW$T$169, DW_AT_type(*$C$DW$T$20)
    2923                      .dwattr $C$DW$T$169, DW_AT_language(DW_LANG_C)
    2924                      .dwattr $C$DW$T$169, DW_AT_byte_size(0x02)
    2925              $C$DW$542       .dwtag  DW_TAG_subrange_type
    2926                      .dwattr $C$DW$542, DW_AT_upper_bound(0x01)
    2927                      .dwendtag $C$DW$T$169
    2928              
    2929              $C$DW$T$10      .dwtag  DW_TAG_base_type
    2930                      .dwattr $C$DW$T$10, DW_AT_encoding(DW_ATE_signed)
    2931                      .dwattr $C$DW$T$10, DW_AT_name("int")
    2932                      .dwattr $C$DW$T$10, DW_AT_byte_size(0x01)
    2933              $C$DW$T$11      .dwtag  DW_TAG_base_type
    2934                      .dwattr $C$DW$T$11, DW_AT_encoding(DW_ATE_unsigned)
    2935                      .dwattr $C$DW$T$11, DW_AT_name("unsigned int")
    2936                      .dwattr $C$DW$T$11, DW_AT_byte_size(0x01)
TMS320C55x Assembler PC v4.4.1 Wed Sep 13 16:33:16 2017

Tools Copyright (c) 1996-2012 Texas Instruments Incorporated
C:\Users\a0221074\AppData\Local\Temp\2199210                         PAGE   59

    2937              $C$DW$T$12      .dwtag  DW_TAG_base_type
    2938                      .dwattr $C$DW$T$12, DW_AT_encoding(DW_ATE_signed)
    2939                      .dwattr $C$DW$T$12, DW_AT_name("long")
    2940                      .dwattr $C$DW$T$12, DW_AT_byte_size(0x02)
    2941              $C$DW$T$47      .dwtag  DW_TAG_pointer_type
    2942                      .dwattr $C$DW$T$47, DW_AT_type(*$C$DW$T$12)
    2943                      .dwattr $C$DW$T$47, DW_AT_address_class(0x17)
    2944              
    2945              $C$DW$T$84      .dwtag  DW_TAG_subroutine_type
    2946                      .dwattr $C$DW$T$84, DW_AT_type(*$C$DW$T$12)
    2947                      .dwattr $C$DW$T$84, DW_AT_language(DW_LANG_C)
    2948              $C$DW$543       .dwtag  DW_TAG_formal_parameter
    2949                      .dwattr $C$DW$543, DW_AT_type(*$C$DW$T$81)
    2950                      .dwendtag $C$DW$T$84
    2951              
    2952              $C$DW$T$85      .dwtag  DW_TAG_pointer_type
    2953                      .dwattr $C$DW$T$85, DW_AT_type(*$C$DW$T$84)
    2954                      .dwattr $C$DW$T$85, DW_AT_address_class(0x20)
    2955              
    2956              $C$DW$T$147     .dwtag  DW_TAG_array_type
    2957                      .dwattr $C$DW$T$147, DW_AT_type(*$C$DW$T$12)
    2958                      .dwattr $C$DW$T$147, DW_AT_language(DW_LANG_C)
    2959                      .dwattr $C$DW$T$147, DW_AT_byte_size(0xd0)
    2960              $C$DW$544       .dwtag  DW_TAG_subrange_type
    2961                      .dwattr $C$DW$544, DW_AT_upper_bound(0x67)
    2962                      .dwendtag $C$DW$T$147
    2963              
    2964              
    2965              $C$DW$T$150     .dwtag  DW_TAG_array_type
    2966                      .dwattr $C$DW$T$150, DW_AT_type(*$C$DW$T$12)
    2967                      .dwattr $C$DW$T$150, DW_AT_language(DW_LANG_C)
    2968                      .dwattr $C$DW$T$150, DW_AT_byte_size(0x20)
    2969              $C$DW$545       .dwtag  DW_TAG_subrange_type
    2970                      .dwattr $C$DW$545, DW_AT_upper_bound(0x0f)
    2971                      .dwendtag $C$DW$T$150
    2972              
    2973              $C$DW$T$13      .dwtag  DW_TAG_base_type
    2974                      .dwattr $C$DW$T$13, DW_AT_encoding(DW_ATE_unsigned)
    2975                      .dwattr $C$DW$T$13, DW_AT_name("unsigned long")
    2976                      .dwattr $C$DW$T$13, DW_AT_byte_size(0x02)
    2977              $C$DW$T$14      .dwtag  DW_TAG_base_type
    2978                      .dwattr $C$DW$T$14, DW_AT_encoding(DW_ATE_signed)
    2979                      .dwattr $C$DW$T$14, DW_AT_name("long long")
    2980                      .dwattr $C$DW$T$14, DW_AT_byte_size(0x04)
    2981                      .dwattr $C$DW$T$14, DW_AT_bit_size(0x28)
    2982                      .dwattr $C$DW$T$14, DW_AT_bit_offset(0x18)
    2983              $C$DW$T$15      .dwtag  DW_TAG_base_type
    2984                      .dwattr $C$DW$T$15, DW_AT_encoding(DW_ATE_unsigned)
    2985                      .dwattr $C$DW$T$15, DW_AT_name("unsigned long long")
    2986                      .dwattr $C$DW$T$15, DW_AT_byte_size(0x04)
    2987                      .dwattr $C$DW$T$15, DW_AT_bit_size(0x28)
    2988                      .dwattr $C$DW$T$15, DW_AT_bit_offset(0x18)
    2989              $C$DW$T$16      .dwtag  DW_TAG_base_type
    2990                      .dwattr $C$DW$T$16, DW_AT_encoding(DW_ATE_float)
    2991                      .dwattr $C$DW$T$16, DW_AT_name("float")
TMS320C55x Assembler PC v4.4.1 Wed Sep 13 16:33:16 2017

Tools Copyright (c) 1996-2012 Texas Instruments Incorporated
C:\Users\a0221074\AppData\Local\Temp\2199210                         PAGE   60

    2992                      .dwattr $C$DW$T$16, DW_AT_byte_size(0x02)
    2993              $C$DW$T$17      .dwtag  DW_TAG_base_type
    2994                      .dwattr $C$DW$T$17, DW_AT_encoding(DW_ATE_float)
    2995                      .dwattr $C$DW$T$17, DW_AT_name("double")
    2996                      .dwattr $C$DW$T$17, DW_AT_byte_size(0x02)
    2997              $C$DW$T$18      .dwtag  DW_TAG_base_type
    2998                      .dwattr $C$DW$T$18, DW_AT_encoding(DW_ATE_float)
    2999                      .dwattr $C$DW$T$18, DW_AT_name("long double")
    3000                      .dwattr $C$DW$T$18, DW_AT_byte_size(0x02)
    3001              $C$DW$T$51      .dwtag  DW_TAG_base_type
    3002                      .dwattr $C$DW$T$51, DW_AT_encoding(DW_ATE_signed_char)
    3003                      .dwattr $C$DW$T$51, DW_AT_name("signed char")
    3004                      .dwattr $C$DW$T$51, DW_AT_byte_size(0x01)
    3005              $C$DW$T$52      .dwtag  DW_TAG_pointer_type
    3006                      .dwattr $C$DW$T$52, DW_AT_type(*$C$DW$T$51)
    3007                      .dwattr $C$DW$T$52, DW_AT_address_class(0x17)
    3008              $C$DW$T$161     .dwtag  DW_TAG_pointer_type
    3009                      .dwattr $C$DW$T$161, DW_AT_type(*$C$DW$T$52)
    3010                      .dwattr $C$DW$T$161, DW_AT_address_class(0x17)
    3011              $C$DW$546       .dwtag  DW_TAG_TI_far_type
    3012                      .dwattr $C$DW$546, DW_AT_type(*$C$DW$T$51)
    3013              $C$DW$T$69      .dwtag  DW_TAG_const_type
    3014                      .dwattr $C$DW$T$69, DW_AT_type(*$C$DW$546)
    3015              $C$DW$T$70      .dwtag  DW_TAG_pointer_type
    3016                      .dwattr $C$DW$T$70, DW_AT_type(*$C$DW$T$69)
    3017                      .dwattr $C$DW$T$70, DW_AT_address_class(0x17)
    3018              
    3019              $C$DW$T$92      .dwtag  DW_TAG_subroutine_type
    3020                      .dwattr $C$DW$T$92, DW_AT_type(*$C$DW$T$70)
    3021                      .dwattr $C$DW$T$92, DW_AT_language(DW_LANG_C)
    3022              $C$DW$547       .dwtag  DW_TAG_formal_parameter
    3023                      .dwattr $C$DW$547, DW_AT_type(*$C$DW$T$9)
    3024              $C$DW$548       .dwtag  DW_TAG_formal_parameter
    3025                      .dwattr $C$DW$548, DW_AT_type(*$C$DW$T$81)
    3026              $C$DW$549       .dwtag  DW_TAG_formal_parameter
    3027                      .dwattr $C$DW$549, DW_AT_type(*$C$DW$T$8)
    3028                      .dwendtag $C$DW$T$92
    3029              
    3030              $C$DW$T$93      .dwtag  DW_TAG_pointer_type
    3031                      .dwattr $C$DW$T$93, DW_AT_type(*$C$DW$T$92)
    3032                      .dwattr $C$DW$T$93, DW_AT_address_class(0x20)
    3033              
    3034              $C$DW$T$135     .dwtag  DW_TAG_structure_type
    3035                      .dwattr $C$DW$T$135, DW_AT_name("ele")
    3036                      .dwattr $C$DW$T$135, DW_AT_byte_size(0x03)
    3037              $C$DW$550       .dwtag  DW_TAG_member
    3038                      .dwattr $C$DW$550, DW_AT_type(*$C$DW$T$9)
    3039                      .dwattr $C$DW$550, DW_AT_name("sym")
    3040                      .dwattr $C$DW$550, DW_AT_TI_symbol_name("_sym")
    3041                      .dwattr $C$DW$550, DW_AT_data_member_location[DW_OP_plus_uconst 0x0]
    3042                      .dwattr $C$DW$550, DW_AT_accessibility(DW_ACCESS_public)
    3043              $C$DW$551       .dwtag  DW_TAG_member
    3044                      .dwattr $C$DW$551, DW_AT_type(*$C$DW$T$9)
    3045                      .dwattr $C$DW$551, DW_AT_name("idx_flag")
    3046                      .dwattr $C$DW$551, DW_AT_TI_symbol_name("_idx_flag")
TMS320C55x Assembler PC v4.4.1 Wed Sep 13 16:33:16 2017

Tools Copyright (c) 1996-2012 Texas Instruments Incorporated
C:\Users\a0221074\AppData\Local\Temp\2199210                         PAGE   61

    3047                      .dwattr $C$DW$551, DW_AT_data_member_location[DW_OP_plus_uconst 0x1]
    3048                      .dwattr $C$DW$551, DW_AT_accessibility(DW_ACCESS_public)
    3049              $C$DW$552       .dwtag  DW_TAG_member
    3050                      .dwattr $C$DW$552, DW_AT_type(*$C$DW$T$9)
    3051                      .dwattr $C$DW$552, DW_AT_name("next")
    3052                      .dwattr $C$DW$552, DW_AT_TI_symbol_name("_next")
    3053                      .dwattr $C$DW$552, DW_AT_data_member_location[DW_OP_plus_uconst 0x2]
    3054                      .dwattr $C$DW$552, DW_AT_accessibility(DW_ACCESS_public)
    3055                      .dwendtag $C$DW$T$135
    3056              
    3057              $C$DW$T$155     .dwtag  DW_TAG_typedef, DW_AT_name("BeamType")
    3058                      .dwattr $C$DW$T$155, DW_AT_type(*$C$DW$T$135)
    3059                      .dwattr $C$DW$T$155, DW_AT_language(DW_LANG_C)
    3060              $C$DW$T$156     .dwtag  DW_TAG_pointer_type
    3061                      .dwattr $C$DW$T$156, DW_AT_type(*$C$DW$T$155)
    3062                      .dwattr $C$DW$T$156, DW_AT_address_class(0x17)
    3063              
    3064              $C$DW$T$174     .dwtag  DW_TAG_structure_type
    3065                      .dwattr $C$DW$T$174, DW_AT_name("gmhmm_type")
    3066                      .dwattr $C$DW$T$174, DW_AT_byte_size(0x7fe)
    3067              $C$DW$553       .dwtag  DW_TAG_member
    3068                      .dwattr $C$DW$553, DW_AT_type(*$C$DW$T$20)
    3069                      .dwattr $C$DW$553, DW_AT_name("avedepth")
    3070                      .dwattr $C$DW$553, DW_AT_TI_symbol_name("_avedepth")
    3071                      .dwattr $C$DW$553, DW_AT_data_member_location[DW_OP_plus_uconst 0x0]
    3072                      .dwattr $C$DW$553, DW_AT_accessibility(DW_ACCESS_public)
    3073              $C$DW$554       .dwtag  DW_TAG_member
    3074                      .dwattr $C$DW$554, DW_AT_type(*$C$DW$T$20)
    3075                      .dwattr $C$DW$554, DW_AT_name("bestdepth")
    3076                      .dwattr $C$DW$554, DW_AT_TI_symbol_name("_bestdepth")
    3077                      .dwattr $C$DW$554, DW_AT_data_member_location[DW_OP_plus_uconst 0x1]
    3078                      .dwattr $C$DW$554, DW_AT_accessibility(DW_ACCESS_public)
    3079              $C$DW$555       .dwtag  DW_TAG_member
    3080                      .dwattr $C$DW$555, DW_AT_type(*$C$DW$T$20)
    3081                      .dwattr $C$DW$555, DW_AT_name("index_mean")
    3082                      .dwattr $C$DW$555, DW_AT_TI_symbol_name("_index_mean")
    3083                      .dwattr $C$DW$555, DW_AT_data_member_location[DW_OP_plus_uconst 0x2]
    3084                      .dwattr $C$DW$555, DW_AT_accessibility(DW_ACCESS_public)
    3085              $C$DW$556       .dwtag  DW_TAG_member
    3086                      .dwattr $C$DW$556, DW_AT_type(*$C$DW$T$20)
    3087                      .dwattr $C$DW$556, DW_AT_name("signal_cnt")
    3088                      .dwattr $C$DW$556, DW_AT_TI_symbol_name("_signal_cnt")
    3089                      .dwattr $C$DW$556, DW_AT_data_member_location[DW_OP_plus_uconst 0x3]
    3090                      .dwattr $C$DW$556, DW_AT_accessibility(DW_ACCESS_public)
    3091              $C$DW$557       .dwtag  DW_TAG_member
    3092                      .dwattr $C$DW$557, DW_AT_type(*$C$DW$T$8)
    3093                      .dwattr $C$DW$557, DW_AT_name("buf_idx")
    3094                      .dwattr $C$DW$557, DW_AT_TI_symbol_name("_buf_idx")
    3095                      .dwattr $C$DW$557, DW_AT_data_member_location[DW_OP_plus_uconst 0x4]
    3096                      .dwattr $C$DW$557, DW_AT_accessibility(DW_ACCESS_public)
    3097              $C$DW$558       .dwtag  DW_TAG_member
    3098                      .dwattr $C$DW$558, DW_AT_type(*$C$DW$T$20)
    3099                      .dwattr $C$DW$558, DW_AT_name("speech_detected")
    3100                      .dwattr $C$DW$558, DW_AT_TI_symbol_name("_speech_detected")
    3101                      .dwattr $C$DW$558, DW_AT_data_member_location[DW_OP_plus_uconst 0x5]
TMS320C55x Assembler PC v4.4.1 Wed Sep 13 16:33:16 2017

Tools Copyright (c) 1996-2012 Texas Instruments Incorporated
C:\Users\a0221074\AppData\Local\Temp\2199210                         PAGE   62

    3102                      .dwattr $C$DW$558, DW_AT_accessibility(DW_ACCESS_public)
    3103              $C$DW$559       .dwtag  DW_TAG_member
    3104                      .dwattr $C$DW$559, DW_AT_type(*$C$DW$T$20)
    3105                      .dwattr $C$DW$559, DW_AT_name("mfcc_cnt")
    3106                      .dwattr $C$DW$559, DW_AT_TI_symbol_name("_mfcc_cnt")
    3107                      .dwattr $C$DW$559, DW_AT_data_member_location[DW_OP_plus_uconst 0x6]
    3108                      .dwattr $C$DW$559, DW_AT_accessibility(DW_ACCESS_public)
    3109              $C$DW$560       .dwtag  DW_TAG_member
    3110                      .dwattr $C$DW$560, DW_AT_type(*$C$DW$T$20)
    3111                      .dwattr $C$DW$560, DW_AT_name("nbr_cpy")
    3112                      .dwattr $C$DW$560, DW_AT_TI_symbol_name("_nbr_cpy")
    3113                      .dwattr $C$DW$560, DW_AT_data_member_location[DW_OP_plus_uconst 0x7]
    3114                      .dwattr $C$DW$560, DW_AT_accessibility(DW_ACCESS_public)
    3115              $C$DW$561       .dwtag  DW_TAG_member
    3116                      .dwattr $C$DW$561, DW_AT_type(*$C$DW$T$8)
    3117                      .dwattr $C$DW$561, DW_AT_name("last_sig")
    3118                      .dwattr $C$DW$561, DW_AT_TI_symbol_name("_last_sig")
    3119                      .dwattr $C$DW$561, DW_AT_data_member_location[DW_OP_plus_uconst 0x8]
    3120                      .dwattr $C$DW$561, DW_AT_accessibility(DW_ACCESS_public)
    3121              $C$DW$562       .dwtag  DW_TAG_member
    3122                      .dwattr $C$DW$562, DW_AT_type(*$C$DW$T$136)
    3123                      .dwattr $C$DW$562, DW_AT_name("sample_signal")
    3124                      .dwattr $C$DW$562, DW_AT_TI_symbol_name("_sample_signal")
    3125                      .dwattr $C$DW$562, DW_AT_data_member_location[DW_OP_plus_uconst 0x9]
    3126                      .dwattr $C$DW$562, DW_AT_accessibility(DW_ACCESS_public)
    3127              $C$DW$563       .dwtag  DW_TAG_member
    3128                      .dwattr $C$DW$563, DW_AT_type(*$C$DW$T$8)
    3129                      .dwattr $C$DW$563, DW_AT_name("amplitude_max")
    3130                      .dwattr $C$DW$563, DW_AT_TI_symbol_name("_amplitude_max")
    3131                      .dwattr $C$DW$563, DW_AT_data_member_location[DW_OP_plus_uconst 0x109]
    3132                      .dwattr $C$DW$563, DW_AT_accessibility(DW_ACCESS_public)
    3133              $C$DW$564       .dwtag  DW_TAG_member
    3134                      .dwattr $C$DW$564, DW_AT_type(*$C$DW$T$8)
    3135                      .dwattr $C$DW$564, DW_AT_name("amplitude_min")
    3136                      .dwattr $C$DW$564, DW_AT_TI_symbol_name("_amplitude_min")
    3137                      .dwattr $C$DW$564, DW_AT_data_member_location[DW_OP_plus_uconst 0x10a]
    3138                      .dwattr $C$DW$564, DW_AT_accessibility(DW_ACCESS_public)
    3139              $C$DW$565       .dwtag  DW_TAG_member
    3140                      .dwattr $C$DW$565, DW_AT_type(*$C$DW$T$8)
    3141                      .dwattr $C$DW$565, DW_AT_name("pred_first_frame")
    3142                      .dwattr $C$DW$565, DW_AT_TI_symbol_name("_pred_first_frame")
    3143                      .dwattr $C$DW$565, DW_AT_data_member_location[DW_OP_plus_uconst 0x10b]
    3144                      .dwattr $C$DW$565, DW_AT_accessibility(DW_ACCESS_public)
    3145              $C$DW$566       .dwtag  DW_TAG_member
    3146                      .dwattr $C$DW$566, DW_AT_type(*$C$DW$T$8)
    3147                      .dwattr $C$DW$566, DW_AT_name("frm_cnt")
    3148                      .dwattr $C$DW$566, DW_AT_TI_symbol_name("_frm_cnt")
    3149                      .dwattr $C$DW$566, DW_AT_data_member_location[DW_OP_plus_uconst 0x10c]
    3150                      .dwattr $C$DW$566, DW_AT_accessibility(DW_ACCESS_public)
    3151              $C$DW$567       .dwtag  DW_TAG_member
    3152                      .dwattr $C$DW$567, DW_AT_type(*$C$DW$T$8)
    3153                      .dwattr $C$DW$567, DW_AT_name("beam_count")
    3154                      .dwattr $C$DW$567, DW_AT_TI_symbol_name("_beam_count")
    3155                      .dwattr $C$DW$567, DW_AT_data_member_location[DW_OP_plus_uconst 0x10d]
    3156                      .dwattr $C$DW$567, DW_AT_accessibility(DW_ACCESS_public)
TMS320C55x Assembler PC v4.4.1 Wed Sep 13 16:33:16 2017

Tools Copyright (c) 1996-2012 Texas Instruments Incorporated
C:\Users\a0221074\AppData\Local\Temp\2199210                         PAGE   63

    3157              $C$DW$568       .dwtag  DW_TAG_member
    3158                      .dwattr $C$DW$568, DW_AT_type(*$C$DW$T$8)
    3159                      .dwattr $C$DW$568, DW_AT_name("active_beam_cells")
    3160                      .dwattr $C$DW$568, DW_AT_TI_symbol_name("_active_beam_cells")
    3161                      .dwattr $C$DW$568, DW_AT_data_member_location[DW_OP_plus_uconst 0x10e]
    3162                      .dwattr $C$DW$568, DW_AT_accessibility(DW_ACCESS_public)
    3163              $C$DW$569       .dwtag  DW_TAG_member
    3164                      .dwattr $C$DW$569, DW_AT_type(*$C$DW$T$8)
    3165                      .dwattr $C$DW$569, DW_AT_name("active_time_cells")
    3166                      .dwattr $C$DW$569, DW_AT_TI_symbol_name("_active_time_cells")
    3167                      .dwattr $C$DW$569, DW_AT_data_member_location[DW_OP_plus_uconst 0x10f]
    3168                      .dwattr $C$DW$569, DW_AT_accessibility(DW_ACCESS_public)
    3169              $C$DW$570       .dwtag  DW_TAG_member
    3170                      .dwattr $C$DW$570, DW_AT_type(*$C$DW$T$9)
    3171                      .dwattr $C$DW$570, DW_AT_name("ending_sym_count")
    3172                      .dwattr $C$DW$570, DW_AT_TI_symbol_name("_ending_sym_count")
    3173                      .dwattr $C$DW$570, DW_AT_data_member_location[DW_OP_plus_uconst 0x110]
    3174                      .dwattr $C$DW$570, DW_AT_accessibility(DW_ACCESS_public)
    3175              $C$DW$571       .dwtag  DW_TAG_member
    3176                      .dwattr $C$DW$571, DW_AT_type(*$C$DW$T$8)
    3177                      .dwattr $C$DW$571, DW_AT_name("comp_type")
    3178                      .dwattr $C$DW$571, DW_AT_TI_symbol_name("_comp_type")
    3179                      .dwattr $C$DW$571, DW_AT_data_member_location[DW_OP_plus_uconst 0x111]
    3180                      .dwattr $C$DW$571, DW_AT_accessibility(DW_ACCESS_public)
    3181              $C$DW$572       .dwtag  DW_TAG_member
    3182                      .dwattr $C$DW$572, DW_AT_type(*$C$DW$T$9)
    3183                      .dwattr $C$DW$572, DW_AT_name("low_vol_limit")
    3184                      .dwattr $C$DW$572, DW_AT_TI_symbol_name("_low_vol_limit")
    3185                      .dwattr $C$DW$572, DW_AT_data_member_location[DW_OP_plus_uconst 0x112]
    3186                      .dwattr $C$DW$572, DW_AT_accessibility(DW_ACCESS_public)
    3187              $C$DW$573       .dwtag  DW_TAG_member
    3188                      .dwattr $C$DW$573, DW_AT_type(*$C$DW$T$9)
    3189                      .dwattr $C$DW$573, DW_AT_name("high_vol_limit")
    3190                      .dwattr $C$DW$573, DW_AT_TI_symbol_name("_high_vol_limit")
    3191                      .dwattr $C$DW$573, DW_AT_data_member_location[DW_OP_plus_uconst 0x113]
    3192                      .dwattr $C$DW$573, DW_AT_accessibility(DW_ACCESS_public)
    3193              $C$DW$574       .dwtag  DW_TAG_member
    3194                      .dwattr $C$DW$574, DW_AT_type(*$C$DW$T$8)
    3195                      .dwattr $C$DW$574, DW_AT_name("vol")
    3196                      .dwattr $C$DW$574, DW_AT_TI_symbol_name("_vol")
    3197                      .dwattr $C$DW$574, DW_AT_data_member_location[DW_OP_plus_uconst 0x114]
    3198                      .dwattr $C$DW$574, DW_AT_accessibility(DW_ACCESS_public)
    3199              $C$DW$575       .dwtag  DW_TAG_member
    3200                      .dwattr $C$DW$575, DW_AT_type(*$C$DW$T$20)
    3201                      .dwattr $C$DW$575, DW_AT_name("n_mfcc")
    3202                      .dwattr $C$DW$575, DW_AT_TI_symbol_name("_n_mfcc")
    3203                      .dwattr $C$DW$575, DW_AT_data_member_location[DW_OP_plus_uconst 0x115]
    3204                      .dwattr $C$DW$575, DW_AT_accessibility(DW_ACCESS_public)
    3205              $C$DW$576       .dwtag  DW_TAG_member
    3206                      .dwattr $C$DW$576, DW_AT_type(*$C$DW$T$8)
    3207                      .dwattr $C$DW$576, DW_AT_name("nbr_dim")
