TMS320C55x Assembler PC v4.4.1 Wed Sep 13 16:33:23 2017

Tools Copyright (c) 1996-2012 Texas Instruments Incorporated
C:\Users\a0221074\AppData\Local\Temp\1618010                         PAGE    1

    6992              ; Temporary Registers Used: None
       1              ;*******************************************************************************
       2              ;* TMS320C55x C/C++ Codegen                                          PC v4.4.1 *
       3              ;* Date/Time created: Wed Sep 13 16:33:19 2017                                 *
       4              ;*******************************************************************************
       5                      .compiler_opts --hll_source=on --mem_model:code=flat --mem_model:data=huge --object_format=coff --sil
       6                      .mmregs
       7                      .cpl_on
       8                      .arms_on
       9                      .c54cm_off
      10                      .asg AR6, FP
      11                      .asg XAR6, XFP
      12                      .asg DPH, MDP
      13                      .model call=c55_std
      14                      .model mem=huge
      15                      .noremark 5002  ; code respects overwrite rules
      16              ;*******************************************************************************
      17              ;* GLOBAL FILE PARAMETERS                                                      *
      18              ;*                                                                             *
      19              ;*   Architecture       : TMS320C55x                                           *
      20              ;*   Optimizing for     : Speed                                                *
      21              ;*   Memory             : Huge Model (23-Bit Data Pointers)                    *
      22              ;*   Calls              : Normal Library ASM calls                             *
      23              ;*   Debug Info         : Standard TI Debug Information                        *
      24              ;*******************************************************************************
      25              
      26              $C$DW$CU        .dwtag  DW_TAG_compile_unit
      27                      .dwattr $C$DW$CU, DW_AT_name("C:/Users/a0221074/Desktop/C5000/IBM_Watson_TIdesign_workarea/CSL_bitbuc
      28                      .dwattr $C$DW$CU, DW_AT_producer("TMS320C55x C/C++ Codegen PC v4.4.1 Copyright (c) 1996-2012 Texas In
      29                      .dwattr $C$DW$CU, DW_AT_TI_version(0x01)
      30                      .dwattr $C$DW$CU, DW_AT_comp_dir("C:\Users\a0221074\Desktop\C5000\IBM_Watson_TIdesign_workarea\CSL_bi
      31              
      32              $C$DW$1 .dwtag  DW_TAG_subprogram, DW_AT_name("search_a_frame")
      33                      .dwattr $C$DW$1, DW_AT_TI_symbol_name("_search_a_frame")
      34                      .dwattr $C$DW$1, DW_AT_type(*$C$DW$T$8)
      35                      .dwattr $C$DW$1, DW_AT_declaration
      36                      .dwattr $C$DW$1, DW_AT_external
      37              $C$DW$2 .dwtag  DW_TAG_formal_parameter
      38                      .dwattr $C$DW$2, DW_AT_type(*$C$DW$T$21)
      39              $C$DW$3 .dwtag  DW_TAG_formal_parameter
      40                      .dwattr $C$DW$3, DW_AT_type(*$C$DW$T$8)
      41              $C$DW$4 .dwtag  DW_TAG_formal_parameter
      42                      .dwattr $C$DW$4, DW_AT_type(*$C$DW$T$9)
      43              $C$DW$5 .dwtag  DW_TAG_formal_parameter
      44                      .dwattr $C$DW$5, DW_AT_type(*$C$DW$T$98)
      45                      .dwendtag $C$DW$1
      46              
      47              
      48              $C$DW$6 .dwtag  DW_TAG_subprogram, DW_AT_name("back_trace_beam")
      49                      .dwattr $C$DW$6, DW_AT_TI_symbol_name("_back_trace_beam")
      50                      .dwattr $C$DW$6, DW_AT_type(*$C$DW$T$96)
      51                      .dwattr $C$DW$6, DW_AT_declaration
      52                      .dwattr $C$DW$6, DW_AT_external
      53              $C$DW$7 .dwtag  DW_TAG_formal_parameter
      54                      .dwattr $C$DW$7, DW_AT_type(*$C$DW$T$8)
TMS320C55x Assembler PC v4.4.1 Wed Sep 13 16:33:23 2017

Tools Copyright (c) 1996-2012 Texas Instruments Incorporated
C:\Users\a0221074\AppData\Local\Temp\1618010                         PAGE    2

      55              $C$DW$8 .dwtag  DW_TAG_formal_parameter
      56                      .dwattr $C$DW$8, DW_AT_type(*$C$DW$T$8)
      57              $C$DW$9 .dwtag  DW_TAG_formal_parameter
      58                      .dwattr $C$DW$9, DW_AT_type(*$C$DW$T$22)
      59              $C$DW$10        .dwtag  DW_TAG_formal_parameter
      60                      .dwattr $C$DW$10, DW_AT_type(*$C$DW$T$22)
      61              $C$DW$11        .dwtag  DW_TAG_formal_parameter
      62                      .dwattr $C$DW$11, DW_AT_type(*$C$DW$T$22)
      63              $C$DW$12        .dwtag  DW_TAG_formal_parameter
      64                      .dwattr $C$DW$12, DW_AT_type(*$C$DW$T$22)
      65              $C$DW$13        .dwtag  DW_TAG_formal_parameter
      66                      .dwattr $C$DW$13, DW_AT_type(*$C$DW$T$22)
      67              $C$DW$14        .dwtag  DW_TAG_formal_parameter
      68                      .dwattr $C$DW$14, DW_AT_type(*$C$DW$T$98)
      69                      .dwendtag $C$DW$6
      70              
      71              
      72              $C$DW$15        .dwtag  DW_TAG_subprogram, DW_AT_name("EM_alpha_t")
      73                      .dwattr $C$DW$15, DW_AT_TI_symbol_name("_EM_alpha_t")
      74                      .dwattr $C$DW$15, DW_AT_type(*$C$DW$T$21)
      75                      .dwattr $C$DW$15, DW_AT_declaration
      76                      .dwattr $C$DW$15, DW_AT_external
      77              $C$DW$16        .dwtag  DW_TAG_formal_parameter
      78                      .dwattr $C$DW$16, DW_AT_type(*$C$DW$T$21)
      79              $C$DW$17        .dwtag  DW_TAG_formal_parameter
      80                      .dwattr $C$DW$17, DW_AT_type(*$C$DW$T$21)
      81              $C$DW$18        .dwtag  DW_TAG_formal_parameter
      82                      .dwattr $C$DW$18, DW_AT_type(*$C$DW$T$20)
      83              $C$DW$19        .dwtag  DW_TAG_formal_parameter
      84                      .dwattr $C$DW$19, DW_AT_type(*$C$DW$T$20)
      85              $C$DW$20        .dwtag  DW_TAG_formal_parameter
      86                      .dwattr $C$DW$20, DW_AT_type(*$C$DW$T$119)
      87              $C$DW$21        .dwtag  DW_TAG_formal_parameter
      88                      .dwattr $C$DW$21, DW_AT_type(*$C$DW$T$21)
      89              $C$DW$22        .dwtag  DW_TAG_formal_parameter
      90                      .dwattr $C$DW$22, DW_AT_type(*$C$DW$T$98)
      91                      .dwendtag $C$DW$15
      92              
      93              
      94              $C$DW$23        .dwtag  DW_TAG_subprogram, DW_AT_name("EM_beta")
      95                      .dwattr $C$DW$23, DW_AT_TI_symbol_name("_EM_beta")
      96                      .dwattr $C$DW$23, DW_AT_type(*$C$DW$T$12)
      97                      .dwattr $C$DW$23, DW_AT_declaration
      98                      .dwattr $C$DW$23, DW_AT_external
      99              $C$DW$24        .dwtag  DW_TAG_formal_parameter
     100                      .dwattr $C$DW$24, DW_AT_type(*$C$DW$T$21)
     101              $C$DW$25        .dwtag  DW_TAG_formal_parameter
     102                      .dwattr $C$DW$25, DW_AT_type(*$C$DW$T$21)
     103              $C$DW$26        .dwtag  DW_TAG_formal_parameter
     104                      .dwattr $C$DW$26, DW_AT_type(*$C$DW$T$20)
     105              $C$DW$27        .dwtag  DW_TAG_formal_parameter
     106                      .dwattr $C$DW$27, DW_AT_type(*$C$DW$T$119)
     107              $C$DW$28        .dwtag  DW_TAG_formal_parameter
     108                      .dwattr $C$DW$28, DW_AT_type(*$C$DW$T$21)
     109              $C$DW$29        .dwtag  DW_TAG_formal_parameter
TMS320C55x Assembler PC v4.4.1 Wed Sep 13 16:33:23 2017

Tools Copyright (c) 1996-2012 Texas Instruments Incorporated
C:\Users\a0221074\AppData\Local\Temp\1618010                         PAGE    3

     110                      .dwattr $C$DW$29, DW_AT_type(*$C$DW$T$98)
     111                      .dwendtag $C$DW$23
     112              
     113              
     114              $C$DW$30        .dwtag  DW_TAG_subprogram, DW_AT_name("hlr_gauss_obs_score_f")
     115                      .dwattr $C$DW$30, DW_AT_TI_symbol_name("_hlr_gauss_obs_score_f")
     116                      .dwattr $C$DW$30, DW_AT_type(*$C$DW$T$8)
     117                      .dwattr $C$DW$30, DW_AT_declaration
     118                      .dwattr $C$DW$30, DW_AT_external
     119              $C$DW$31        .dwtag  DW_TAG_formal_parameter
     120                      .dwattr $C$DW$31, DW_AT_type(*$C$DW$T$58)
     121              $C$DW$32        .dwtag  DW_TAG_formal_parameter
     122                      .dwattr $C$DW$32, DW_AT_type(*$C$DW$T$10)
     123              $C$DW$33        .dwtag  DW_TAG_formal_parameter
     124                      .dwattr $C$DW$33, DW_AT_type(*$C$DW$T$127)
     125              $C$DW$34        .dwtag  DW_TAG_formal_parameter
     126                      .dwattr $C$DW$34, DW_AT_type(*$C$DW$T$21)
     127              $C$DW$35        .dwtag  DW_TAG_formal_parameter
     128                      .dwattr $C$DW$35, DW_AT_type(*$C$DW$T$57)
     129              $C$DW$36        .dwtag  DW_TAG_formal_parameter
     130                      .dwattr $C$DW$36, DW_AT_type(*$C$DW$T$160)
     131                      .dwendtag $C$DW$30
     132              
     133              
     134              $C$DW$37        .dwtag  DW_TAG_subprogram, DW_AT_name("hlr_expn")
     135                      .dwattr $C$DW$37, DW_AT_TI_symbol_name("_hlr_expn")
     136                      .dwattr $C$DW$37, DW_AT_type(*$C$DW$T$9)
     137                      .dwattr $C$DW$37, DW_AT_declaration
     138                      .dwattr $C$DW$37, DW_AT_external
     139              $C$DW$38        .dwtag  DW_TAG_formal_parameter
     140                      .dwattr $C$DW$38, DW_AT_type(*$C$DW$T$8)
     141              $C$DW$39        .dwtag  DW_TAG_formal_parameter
     142                      .dwattr $C$DW$39, DW_AT_type(*$C$DW$T$8)
     143                      .dwendtag $C$DW$37
     144              
     145              
     146              $C$DW$40        .dwtag  DW_TAG_subprogram, DW_AT_name("q15_x")
     147                      .dwattr $C$DW$40, DW_AT_TI_symbol_name("_q15_x")
     148                      .dwattr $C$DW$40, DW_AT_type(*$C$DW$T$12)
     149                      .dwattr $C$DW$40, DW_AT_declaration
     150                      .dwattr $C$DW$40, DW_AT_external
     151              $C$DW$41        .dwtag  DW_TAG_formal_parameter
     152                      .dwattr $C$DW$41, DW_AT_type(*$C$DW$T$20)
     153              $C$DW$42        .dwtag  DW_TAG_formal_parameter
     154                      .dwattr $C$DW$42, DW_AT_type(*$C$DW$T$12)
     155                      .dwendtag $C$DW$40
     156              
     157              
     158              $C$DW$43        .dwtag  DW_TAG_subprogram, DW_AT_name("div32_32")
     159                      .dwattr $C$DW$43, DW_AT_TI_symbol_name("_div32_32")
     160                      .dwattr $C$DW$43, DW_AT_type(*$C$DW$T$12)
     161                      .dwattr $C$DW$43, DW_AT_declaration
     162                      .dwattr $C$DW$43, DW_AT_external
     163              $C$DW$44        .dwtag  DW_TAG_formal_parameter
     164                      .dwattr $C$DW$44, DW_AT_type(*$C$DW$T$12)
TMS320C55x Assembler PC v4.4.1 Wed Sep 13 16:33:23 2017

Tools Copyright (c) 1996-2012 Texas Instruments Incorporated
C:\Users\a0221074\AppData\Local\Temp\1618010                         PAGE    4

     165              $C$DW$45        .dwtag  DW_TAG_formal_parameter
     166                      .dwattr $C$DW$45, DW_AT_type(*$C$DW$T$12)
     167                      .dwendtag $C$DW$43
     168              
     169              
     170              $C$DW$46        .dwtag  DW_TAG_subprogram, DW_AT_name("cos_transform")
     171                      .dwattr $C$DW$46, DW_AT_TI_symbol_name("_cos_transform")
     172                      .dwattr $C$DW$46, DW_AT_declaration
     173                      .dwattr $C$DW$46, DW_AT_external
     174              $C$DW$47        .dwtag  DW_TAG_formal_parameter
     175                      .dwattr $C$DW$47, DW_AT_type(*$C$DW$T$21)
     176              $C$DW$48        .dwtag  DW_TAG_formal_parameter
     177                      .dwattr $C$DW$48, DW_AT_type(*$C$DW$T$21)
     178              $C$DW$49        .dwtag  DW_TAG_formal_parameter
     179                      .dwattr $C$DW$49, DW_AT_type(*$C$DW$T$58)
     180              $C$DW$50        .dwtag  DW_TAG_formal_parameter
     181                      .dwattr $C$DW$50, DW_AT_type(*$C$DW$T$57)
     182              $C$DW$51        .dwtag  DW_TAG_formal_parameter
     183                      .dwattr $C$DW$51, DW_AT_type(*$C$DW$T$57)
     184              $C$DW$52        .dwtag  DW_TAG_formal_parameter
     185                      .dwattr $C$DW$52, DW_AT_type(*$C$DW$T$128)
     186                      .dwendtag $C$DW$46
     187              
     188              
     189              $C$DW$53        .dwtag  DW_TAG_subprogram, DW_AT_name("vector_unpacking")
     190                      .dwattr $C$DW$53, DW_AT_TI_symbol_name("_vector_unpacking")
     191                      .dwattr $C$DW$53, DW_AT_declaration
     192                      .dwattr $C$DW$53, DW_AT_external
     193              $C$DW$54        .dwtag  DW_TAG_formal_parameter
     194                      .dwattr $C$DW$54, DW_AT_type(*$C$DW$T$132)
     195              $C$DW$55        .dwtag  DW_TAG_formal_parameter
     196                      .dwattr $C$DW$55, DW_AT_type(*$C$DW$T$21)
     197              $C$DW$56        .dwtag  DW_TAG_formal_parameter
     198                      .dwattr $C$DW$56, DW_AT_type(*$C$DW$T$58)
     199              $C$DW$57        .dwtag  DW_TAG_formal_parameter
     200                      .dwattr $C$DW$57, DW_AT_type(*$C$DW$T$8)
     201                      .dwendtag $C$DW$53
     202              
     203              
     204              $C$DW$58        .dwtag  DW_TAG_subprogram, DW_AT_name("log_spectral_compensation")
     205                      .dwattr $C$DW$58, DW_AT_TI_symbol_name("_log_spectral_compensation")
     206                      .dwattr $C$DW$58, DW_AT_declaration
     207                      .dwattr $C$DW$58, DW_AT_external
     208              $C$DW$59        .dwtag  DW_TAG_formal_parameter
     209                      .dwattr $C$DW$59, DW_AT_type(*$C$DW$T$21)
     210              $C$DW$60        .dwtag  DW_TAG_formal_parameter
     211                      .dwattr $C$DW$60, DW_AT_type(*$C$DW$T$21)
     212              $C$DW$61        .dwtag  DW_TAG_formal_parameter
     213                      .dwattr $C$DW$61, DW_AT_type(*$C$DW$T$21)
     214              $C$DW$62        .dwtag  DW_TAG_formal_parameter
     215                      .dwattr $C$DW$62, DW_AT_type(*$C$DW$T$21)
     216              $C$DW$63        .dwtag  DW_TAG_formal_parameter
     217                      .dwattr $C$DW$63, DW_AT_type(*$C$DW$T$58)
     218              $C$DW$64        .dwtag  DW_TAG_formal_parameter
     219                      .dwattr $C$DW$64, DW_AT_type(*$C$DW$T$58)
TMS320C55x Assembler PC v4.4.1 Wed Sep 13 16:33:23 2017

Tools Copyright (c) 1996-2012 Texas Instruments Incorporated
C:\Users\a0221074\AppData\Local\Temp\1618010                         PAGE    5

     220              $C$DW$65        .dwtag  DW_TAG_formal_parameter
     221                      .dwattr $C$DW$65, DW_AT_type(*$C$DW$T$8)
     222              $C$DW$66        .dwtag  DW_TAG_formal_parameter
     223                      .dwattr $C$DW$66, DW_AT_type(*$C$DW$T$21)
     224              $C$DW$67        .dwtag  DW_TAG_formal_parameter
     225                      .dwattr $C$DW$67, DW_AT_type(*$C$DW$T$8)
     226                      .dwendtag $C$DW$58
     227              
     228              
     229              $C$DW$68        .dwtag  DW_TAG_subprogram, DW_AT_name("observation_likelihood")
     230                      .dwattr $C$DW$68, DW_AT_TI_symbol_name("_observation_likelihood")
     231                      .dwattr $C$DW$68, DW_AT_declaration
     232                      .dwattr $C$DW$68, DW_AT_external
     233              $C$DW$69        .dwtag  DW_TAG_formal_parameter
     234                      .dwattr $C$DW$69, DW_AT_type(*$C$DW$T$20)
     235              $C$DW$70        .dwtag  DW_TAG_formal_parameter
     236                      .dwattr $C$DW$70, DW_AT_type(*$C$DW$T$8)
     237              $C$DW$71        .dwtag  DW_TAG_formal_parameter
     238                      .dwattr $C$DW$71, DW_AT_type(*$C$DW$T$119)
     239              $C$DW$72        .dwtag  DW_TAG_formal_parameter
     240                      .dwattr $C$DW$72, DW_AT_type(*$C$DW$T$21)
     241              $C$DW$73        .dwtag  DW_TAG_formal_parameter
     242                      .dwattr $C$DW$73, DW_AT_type(*$C$DW$T$8)
     243              $C$DW$74        .dwtag  DW_TAG_formal_parameter
     244                      .dwattr $C$DW$74, DW_AT_type(*$C$DW$T$98)
     245                      .dwendtag $C$DW$68
     246              
     247              
     248              $C$DW$75        .dwtag  DW_TAG_subprogram, DW_AT_name("cm_load")
     249                      .dwattr $C$DW$75, DW_AT_TI_symbol_name("_cm_load")
     250                      .dwattr $C$DW$75, DW_AT_declaration
     251                      .dwattr $C$DW$75, DW_AT_external
     252              $C$DW$76        .dwtag  DW_TAG_formal_parameter
     253                      .dwattr $C$DW$76, DW_AT_type(*$C$DW$T$98)
     254                      .dwendtag $C$DW$75
     255              
     256              
     257              $C$DW$77        .dwtag  DW_TAG_subprogram, DW_AT_name("cm_save")
     258                      .dwattr $C$DW$77, DW_AT_TI_symbol_name("_cm_save")
     259                      .dwattr $C$DW$77, DW_AT_declaration
     260                      .dwattr $C$DW$77, DW_AT_external
     261              $C$DW$78        .dwtag  DW_TAG_formal_parameter
     262                      .dwattr $C$DW$78, DW_AT_type(*$C$DW$T$121)
     263              $C$DW$79        .dwtag  DW_TAG_formal_parameter
     264                      .dwattr $C$DW$79, DW_AT_type(*$C$DW$T$98)
     265                      .dwendtag $C$DW$77
     266              
     267              
     268              $C$DW$80        .dwtag  DW_TAG_subprogram, DW_AT_name("cm_acc_seg_ratio_to_antimodel")
     269                      .dwattr $C$DW$80, DW_AT_TI_symbol_name("_cm_acc_seg_ratio_to_antimodel")
     270                      .dwattr $C$DW$80, DW_AT_declaration
     271                      .dwattr $C$DW$80, DW_AT_external
     272              $C$DW$81        .dwtag  DW_TAG_formal_parameter
     273                      .dwattr $C$DW$81, DW_AT_type(*$C$DW$T$98)
     274              $C$DW$82        .dwtag  DW_TAG_formal_parameter
TMS320C55x Assembler PC v4.4.1 Wed Sep 13 16:33:23 2017

Tools Copyright (c) 1996-2012 Texas Instruments Incorporated
C:\Users\a0221074\AppData\Local\Temp\1618010                         PAGE    6

     275                      .dwattr $C$DW$82, DW_AT_type(*$C$DW$T$20)
     276              $C$DW$83        .dwtag  DW_TAG_formal_parameter
     277                      .dwattr $C$DW$83, DW_AT_type(*$C$DW$T$8)
     278              $C$DW$84        .dwtag  DW_TAG_formal_parameter
     279                      .dwattr $C$DW$84, DW_AT_type(*$C$DW$T$8)
     280              $C$DW$85        .dwtag  DW_TAG_formal_parameter
     281                      .dwattr $C$DW$85, DW_AT_type(*$C$DW$T$12)
     282                      .dwendtag $C$DW$80
     283              
     284              
     285              $C$DW$86        .dwtag  DW_TAG_subprogram, DW_AT_name("cm_freeze")
     286                      .dwattr $C$DW$86, DW_AT_TI_symbol_name("_cm_freeze")
     287                      .dwattr $C$DW$86, DW_AT_declaration
     288                      .dwattr $C$DW$86, DW_AT_external
     289              $C$DW$87        .dwtag  DW_TAG_formal_parameter
     290                      .dwattr $C$DW$87, DW_AT_type(*$C$DW$T$93)
     291                      .dwendtag $C$DW$86
     292              
     293              
     294              $C$DW$88        .dwtag  DW_TAG_subprogram, DW_AT_name("cm_update_status")
     295                      .dwattr $C$DW$88, DW_AT_TI_symbol_name("_cm_update_status")
     296                      .dwattr $C$DW$88, DW_AT_declaration
     297                      .dwattr $C$DW$88, DW_AT_external
     298              $C$DW$89        .dwtag  DW_TAG_formal_parameter
     299                      .dwattr $C$DW$89, DW_AT_type(*$C$DW$T$98)
     300                      .dwendtag $C$DW$88
     301              
     302              
     303              $C$DW$90        .dwtag  DW_TAG_subprogram, DW_AT_name("cm_backup_adp")
     304                      .dwattr $C$DW$90, DW_AT_TI_symbol_name("_cm_backup_adp")
     305                      .dwattr $C$DW$90, DW_AT_declaration
     306                      .dwattr $C$DW$90, DW_AT_external
     307              $C$DW$91        .dwtag  DW_TAG_formal_parameter
     308                      .dwattr $C$DW$91, DW_AT_type(*$C$DW$T$98)
     309                      .dwendtag $C$DW$90
     310              
     311              
     312              $C$DW$92        .dwtag  DW_TAG_subprogram, DW_AT_name("cm_restore_adp")
     313                      .dwattr $C$DW$92, DW_AT_TI_symbol_name("_cm_restore_adp")
     314                      .dwattr $C$DW$92, DW_AT_declaration
     315                      .dwattr $C$DW$92, DW_AT_external
     316              $C$DW$93        .dwtag  DW_TAG_formal_parameter
     317                      .dwattr $C$DW$93, DW_AT_type(*$C$DW$T$98)
     318                      .dwendtag $C$DW$92
     319              
     320              
     321              $C$DW$94        .dwtag  DW_TAG_subprogram, DW_AT_name("my_fwrite")
     322                      .dwattr $C$DW$94, DW_AT_TI_symbol_name("_my_fwrite")
     323                      .dwattr $C$DW$94, DW_AT_type(*$C$DW$T$189)
     324                      .dwattr $C$DW$94, DW_AT_declaration
     325                      .dwattr $C$DW$94, DW_AT_external
     326              $C$DW$95        .dwtag  DW_TAG_formal_parameter
     327                      .dwattr $C$DW$95, DW_AT_type(*$C$DW$T$3)
     328              $C$DW$96        .dwtag  DW_TAG_formal_parameter
     329                      .dwattr $C$DW$96, DW_AT_type(*$C$DW$T$189)
TMS320C55x Assembler PC v4.4.1 Wed Sep 13 16:33:23 2017

Tools Copyright (c) 1996-2012 Texas Instruments Incorporated
C:\Users\a0221074\AppData\Local\Temp\1618010                         PAGE    7

     330              $C$DW$97        .dwtag  DW_TAG_formal_parameter
     331                      .dwattr $C$DW$97, DW_AT_type(*$C$DW$T$189)
     332              $C$DW$98        .dwtag  DW_TAG_formal_parameter
     333                      .dwattr $C$DW$98, DW_AT_type(*$C$DW$T$121)
     334                      .dwendtag $C$DW$94
     335              
     336              
     337              $C$DW$99        .dwtag  DW_TAG_subprogram, DW_AT_name("my_fopen")
     338                      .dwattr $C$DW$99, DW_AT_TI_symbol_name("_my_fopen")
     339                      .dwattr $C$DW$99, DW_AT_type(*$C$DW$T$121)
     340                      .dwattr $C$DW$99, DW_AT_declaration
     341                      .dwattr $C$DW$99, DW_AT_external
     342              $C$DW$100       .dwtag  DW_TAG_formal_parameter
     343                      .dwattr $C$DW$100, DW_AT_type(*$C$DW$T$110)
     344              $C$DW$101       .dwtag  DW_TAG_formal_parameter
     345                      .dwattr $C$DW$101, DW_AT_type(*$C$DW$T$110)
     346                      .dwendtag $C$DW$99
     347              
     348              
     349              $C$DW$102       .dwtag  DW_TAG_subprogram, DW_AT_name("my_fclose")
     350                      .dwattr $C$DW$102, DW_AT_TI_symbol_name("_my_fclose")
     351                      .dwattr $C$DW$102, DW_AT_type(*$C$DW$T$174)
     352                      .dwattr $C$DW$102, DW_AT_declaration
     353                      .dwattr $C$DW$102, DW_AT_external
     354              $C$DW$103       .dwtag  DW_TAG_formal_parameter
     355                      .dwattr $C$DW$103, DW_AT_type(*$C$DW$T$121)
     356                      .dwendtag $C$DW$102
     357              
     358 000000               .sect   ".const"
     359                      .align  1
     360 000000       _VEC_PER_FRAME_DEFAULT:
     361 000000 0050          .field  80,16                   ; _VEC_PER_FRAME_DEFAULT @ 0
     362              
     363              $C$DW$104       .dwtag  DW_TAG_variable, DW_AT_name("VEC_PER_FRAME_DEFAULT")
     364                      .dwattr $C$DW$104, DW_AT_TI_symbol_name("_VEC_PER_FRAME_DEFAULT")
     365                      .dwattr $C$DW$104, DW_AT_type(*$C$DW$T$57)
     366                      .dwattr $C$DW$104, DW_AT_location[DW_OP_addr _VEC_PER_FRAME_DEFAULT]
     367 000001               .sect   ".const"
     368                      .align  1
     369 000001       _COMPONENT_LIKELIHOOD_DEFAULT:
     370 000001 FD65          .field  -667,16                 ; _COMPONENT_LIKELIHOOD_DEFAULT @ 0
     371              
     372              $C$DW$105       .dwtag  DW_TAG_variable, DW_AT_name("COMPONENT_LIKELIHOOD_DEFAULT")
     373                      .dwattr $C$DW$105, DW_AT_TI_symbol_name("_COMPONENT_LIKELIHOOD_DEFAULT")
     374                      .dwattr $C$DW$105, DW_AT_type(*$C$DW$T$57)
     375                      .dwattr $C$DW$105, DW_AT_location[DW_OP_addr _COMPONENT_LIKELIHOOD_DEFAULT]
     376 000002               .sect   ".const"
     377                      .align  1
     378 000002       _MAX_SEG_SIZE_DEFAULT:
     379 000002 000F          .field  15,16                   ; _MAX_SEG_SIZE_DEFAULT @ 0
     380              
     381              $C$DW$106       .dwtag  DW_TAG_variable, DW_AT_name("MAX_SEG_SIZE_DEFAULT")
     382                      .dwattr $C$DW$106, DW_AT_TI_symbol_name("_MAX_SEG_SIZE_DEFAULT")
     383                      .dwattr $C$DW$106, DW_AT_type(*$C$DW$T$57)
     384                      .dwattr $C$DW$106, DW_AT_location[DW_OP_addr _MAX_SEG_SIZE_DEFAULT]
TMS320C55x Assembler PC v4.4.1 Wed Sep 13 16:33:23 2017

Tools Copyright (c) 1996-2012 Texas Instruments Incorporated
C:\Users\a0221074\AppData\Local\Temp\1618010                         PAGE    8

     385 000003               .sect   ".const"
     386                      .align  1
     387 000003       _SMOOTH_COEF_DEFAULT:
     388 000003 4CCC          .field  19660,16                        ; _SMOOTH_COEF_DEFAULT @ 0
     389              
     390              $C$DW$107       .dwtag  DW_TAG_variable, DW_AT_name("SMOOTH_COEF_DEFAULT")
     391                      .dwattr $C$DW$107, DW_AT_TI_symbol_name("_SMOOTH_COEF_DEFAULT")
     392                      .dwattr $C$DW$107, DW_AT_type(*$C$DW$T$57)
     393                      .dwattr $C$DW$107, DW_AT_location[DW_OP_addr _SMOOTH_COEF_DEFAULT]
     394 000004               .sect   ".const"
     395                      .align  1
     396 000004       _DISCOUNT_FACTOR_DEFAULT:
     397 000004 6666          .field  26214,16                        ; _DISCOUNT_FACTOR_DEFAULT @ 0
     398              
     399              $C$DW$108       .dwtag  DW_TAG_variable, DW_AT_name("DISCOUNT_FACTOR_DEFAULT")
     400                      .dwattr $C$DW$108, DW_AT_TI_symbol_name("_DISCOUNT_FACTOR_DEFAULT")
     401                      .dwattr $C$DW$108, DW_AT_type(*$C$DW$T$57)
     402                      .dwattr $C$DW$108, DW_AT_location[DW_OP_addr _DISCOUNT_FACTOR_DEFAULT]
     403 000005               .sect   ".const"
     404                      .align  1
     405 000005       _DEWEIGHT_FACTOR_DEFAULT:
     406 000005 2666          .field  9830,16                 ; _DEWEIGHT_FACTOR_DEFAULT @ 0
     407              
     408              $C$DW$109       .dwtag  DW_TAG_variable, DW_AT_name("DEWEIGHT_FACTOR_DEFAULT")
     409                      .dwattr $C$DW$109, DW_AT_TI_symbol_name("_DEWEIGHT_FACTOR_DEFAULT")
     410                      .dwattr $C$DW$109, DW_AT_type(*$C$DW$T$57)
     411                      .dwattr $C$DW$109, DW_AT_location[DW_OP_addr _DEWEIGHT_FACTOR_DEFAULT]
     412 000006               .sect   ".const"
     413                      .align  1
     414 000006       _BAYESIAN_WEIGHT_DEFAULT:
     415 000006 0147          .field  327,16                  ; _BAYESIAN_WEIGHT_DEFAULT @ 0
     416              
     417              $C$DW$110       .dwtag  DW_TAG_variable, DW_AT_name("BAYESIAN_WEIGHT_DEFAULT")
     418                      .dwattr $C$DW$110, DW_AT_TI_symbol_name("_BAYESIAN_WEIGHT_DEFAULT")
     419                      .dwattr $C$DW$110, DW_AT_type(*$C$DW$T$57)
     420                      .dwattr $C$DW$110, DW_AT_location[DW_OP_addr _BAYESIAN_WEIGHT_DEFAULT]
     421 000000               .sect   ".const:_pPriorChannelInvvar"
     422                      .clink
     423                      .align  2
     424 000000       _pPriorChannelInvvar:
     425 000000 0000          .field  4179,32                 ; _pPriorChannelInvvar[0] @ 0
         000001 1053 
     426 000002 0000          .field  7023,32                 ; _pPriorChannelInvvar[1] @ 32
         000003 1B6F 
     427 000004 0000          .field  8192,32                 ; _pPriorChannelInvvar[2] @ 64
         000005 2000 
     428 000006 0000          .field  7574,32                 ; _pPriorChannelInvvar[3] @ 96
         000007 1D96 
     429 000008 0000          .field  8192,32                 ; _pPriorChannelInvvar[4] @ 128
         000009 2000 
     430 00000a 0000          .field  8888,32                 ; _pPriorChannelInvvar[5] @ 160
         00000b 22B8 
     431 00000c 0000          .field  10579,32                        ; _pPriorChannelInvvar[6] @ 192
         00000d 2953 
     432 00000e 0000          .field  9678,32                 ; _pPriorChannelInvvar[7] @ 224
TMS320C55x Assembler PC v4.4.1 Wed Sep 13 16:33:23 2017

Tools Copyright (c) 1996-2012 Texas Instruments Incorporated
C:\Users\a0221074\AppData\Local\Temp\1618010                         PAGE    9

         00000f 25CE 
     433 000010 0000          .field  8192,32                 ; _pPriorChannelInvvar[8] @ 256
         000011 2000 
     434 000012 0000          .field  8192,32                 ; _pPriorChannelInvvar[9] @ 288
         000013 2000 
     435 000014 0000          .field  12800,32                        ; _pPriorChannelInvvar[10] @ 320
         000015 3200 
     436 000016 0000          .field  12800,32                        ; _pPriorChannelInvvar[11] @ 352
         000017 3200 
     437 000018 0000          .field  12800,32                        ; _pPriorChannelInvvar[12] @ 384
         000019 3200 
     438 00001a 0000          .field  12800,32                        ; _pPriorChannelInvvar[13] @ 416
         00001b 3200 
     439 00001c 0000          .field  14183,32                        ; _pPriorChannelInvvar[14] @ 448
         00001d 3767 
     440 00001e 0000          .field  14183,32                        ; _pPriorChannelInvvar[15] @ 480
         00001f 3767 
     441 000020 0000          .field  8192,32                 ; _pPriorChannelInvvar[16] @ 512
         000021 2000 
     442 000022 0000          .field  17716,32                        ; _pPriorChannelInvvar[17] @ 544
         000023 4534 
     443 000024 0000          .field  10579,32                        ; _pPriorChannelInvvar[18] @ 576
         000025 2953 
     444 000026 0000          .field  7574,32                 ; _pPriorChannelInvvar[19] @ 608
         000027 1D96 
     445 000028 0000          .field  7574,32                 ; _pPriorChannelInvvar[20] @ 640
         000029 1D96 
     446 00002a 0000          .field  9678,32                 ; _pPriorChannelInvvar[21] @ 672
         00002b 25CE 
     447 00002c 0000          .field  10579,32                        ; _pPriorChannelInvvar[22] @ 704
         00002d 2953 
     448 00002e 0000          .field  9678,32                 ; _pPriorChannelInvvar[23] @ 736
         00002f 25CE 
     449 000030 0000          .field  8192,32                 ; _pPriorChannelInvvar[24] @ 768
         000031 2000 
     450 000032 0008          .field  568890,32                       ; _pPriorChannelInvvar[25] @ 800
         000033 AE3A 
     451              
     452              $C$DW$111       .dwtag  DW_TAG_variable, DW_AT_name("pPriorChannelInvvar")
     453                      .dwattr $C$DW$111, DW_AT_TI_symbol_name("_pPriorChannelInvvar")
     454                      .dwattr $C$DW$111, DW_AT_type(*$C$DW$T$185)
     455                      .dwattr $C$DW$111, DW_AT_location[DW_OP_addr _pPriorChannelInvvar]
     456 000007               .sect   ".const"
     457                      .align  1
     458 000007       _VAR_FORGET_FACTOR_DEFAULT:
     459 000007 0004          .field  4,16                    ; _VAR_FORGET_FACTOR_DEFAULT @ 0
     460              
     461              $C$DW$112       .dwtag  DW_TAG_variable, DW_AT_name("VAR_FORGET_FACTOR_DEFAULT")
     462                      .dwattr $C$DW$112, DW_AT_TI_symbol_name("_VAR_FORGET_FACTOR_DEFAULT")
     463                      .dwattr $C$DW$112, DW_AT_type(*$C$DW$T$57)
     464                      .dwattr $C$DW$112, DW_AT_location[DW_OP_addr _VAR_FORGET_FACTOR_DEFAULT]
     465              ;       C:\ti\ccsv7\tools\compiler\c5500_4.4.1\bin\acp55.exe -@C:\\Users\\a0221074\\AppData\\Local\\Temp\\161
     466 000000               .sect   ".text:_ijac_update_t"
     467                      .clink
     468              
TMS320C55x Assembler PC v4.4.1 Wed Sep 13 16:33:23 2017

Tools Copyright (c) 1996-2012 Texas Instruments Incorporated
C:\Users\a0221074\AppData\Local\Temp\1618010                         PAGE   10

     469              $C$DW$113       .dwtag  DW_TAG_subprogram, DW_AT_name("ijac_update_t")
     470                      .dwattr $C$DW$113, DW_AT_low_pc(_ijac_update_t)
     471                      .dwattr $C$DW$113, DW_AT_high_pc(0x00)
     472                      .dwattr $C$DW$113, DW_AT_TI_symbol_name("_ijac_update_t")
     473                      .dwattr $C$DW$113, DW_AT_TI_begin_file("C:/Users/a0221074/Desktop/C5000/IBM_Watson_TIdesign_workarea/
     474                      .dwattr $C$DW$113, DW_AT_TI_begin_line(0x56)
     475                      .dwattr $C$DW$113, DW_AT_TI_begin_column(0x0d)
     476                      .dwattr $C$DW$113, DW_AT_TI_max_frame_size(0x66)
     477                      .dwpsn  file "C:/Users/a0221074/Desktop/C5000/IBM_Watson_TIdesign_workarea/CSL_bitbucket/c55_csl/c55x
     478              
     479                      .dwfde $C$DW$CIE, _ijac_update_t
     480              $C$DW$114       .dwtag  DW_TAG_formal_parameter, DW_AT_name("jac_hmm")
     481                      .dwattr $C$DW$114, DW_AT_TI_symbol_name("_jac_hmm")
     482                      .dwattr $C$DW$114, DW_AT_type(*$C$DW$T$119)
     483                      .dwattr $C$DW$114, DW_AT_location[DW_OP_reg17]
     484              $C$DW$115       .dwtag  DW_TAG_formal_parameter, DW_AT_name("pdfa")
     485                      .dwattr $C$DW$115, DW_AT_TI_symbol_name("_pdfa")
     486                      .dwattr $C$DW$115, DW_AT_type(*$C$DW$T$21)
     487                      .dwattr $C$DW$115, DW_AT_location[DW_OP_reg19]
     488              $C$DW$116       .dwtag  DW_TAG_formal_parameter, DW_AT_name("ap")
     489                      .dwattr $C$DW$116, DW_AT_TI_symbol_name("_ap")
     490                      .dwattr $C$DW$116, DW_AT_type(*$C$DW$T$58)
     491                      .dwattr $C$DW$116, DW_AT_location[DW_OP_reg21]
     492              $C$DW$117       .dwtag  DW_TAG_formal_parameter, DW_AT_name("bp")
     493                      .dwattr $C$DW$117, DW_AT_TI_symbol_name("_bp")
     494                      .dwattr $C$DW$117, DW_AT_type(*$C$DW$T$58)
     495                      .dwattr $C$DW$117, DW_AT_location[DW_OP_reg23]
     496              $C$DW$118       .dwtag  DW_TAG_formal_parameter, DW_AT_name("vec")
     497                      .dwattr $C$DW$118, DW_AT_TI_symbol_name("_vec")
     498                      .dwattr $C$DW$118, DW_AT_type(*$C$DW$T$58)
     499                      .dwattr $C$DW$118, DW_AT_location[DW_OP_reg25]
     500              $C$DW$119       .dwtag  DW_TAG_formal_parameter, DW_AT_name("log_vec")
     501                      .dwattr $C$DW$119, DW_AT_TI_symbol_name("_log_vec")
     502                      .dwattr $C$DW$119, DW_AT_type(*$C$DW$T$58)
     503                      .dwattr $C$DW$119, DW_AT_location[DW_OP_bregx 0x24 102]
     504              $C$DW$120       .dwtag  DW_TAG_formal_parameter, DW_AT_name("T")
     505                      .dwattr $C$DW$120, DW_AT_TI_symbol_name("_T")
     506                      .dwattr $C$DW$120, DW_AT_type(*$C$DW$T$147)
     507                      .dwattr $C$DW$120, DW_AT_location[DW_OP_reg12]
     508              $C$DW$121       .dwtag  DW_TAG_formal_parameter, DW_AT_name("accum")
     509                      .dwattr $C$DW$121, DW_AT_TI_symbol_name("_accum")
     510                      .dwattr $C$DW$121, DW_AT_type(*$C$DW$T$47)
     511                      .dwattr $C$DW$121, DW_AT_location[DW_OP_bregx 0x24 104]
     512              $C$DW$122       .dwtag  DW_TAG_formal_parameter, DW_AT_name("log_H")
     513                      .dwattr $C$DW$122, DW_AT_TI_symbol_name("_log_H")
     514                      .dwattr $C$DW$122, DW_AT_type(*$C$DW$T$58)
     515                      .dwattr $C$DW$122, DW_AT_location[DW_OP_bregx 0x24 106]
     516              $C$DW$123       .dwtag  DW_TAG_formal_parameter, DW_AT_name("log_N")
     517                      .dwattr $C$DW$123, DW_AT_TI_symbol_name("_log_N")
     518                      .dwattr $C$DW$123, DW_AT_type(*$C$DW$T$58)
     519                      .dwattr $C$DW$123, DW_AT_location[DW_OP_bregx 0x24 108]
     520              $C$DW$124       .dwtag  DW_TAG_formal_parameter, DW_AT_name("n_mfcc")
     521                      .dwattr $C$DW$124, DW_AT_TI_symbol_name("_n_mfcc")
     522                      .dwattr $C$DW$124, DW_AT_type(*$C$DW$T$57)
     523                      .dwattr $C$DW$124, DW_AT_location[DW_OP_reg13]
TMS320C55x Assembler PC v4.4.1 Wed Sep 13 16:33:23 2017

Tools Copyright (c) 1996-2012 Texas Instruments Incorporated
C:\Users\a0221074\AppData\Local\Temp\1618010                         PAGE   11

     524              $C$DW$125       .dwtag  DW_TAG_formal_parameter, DW_AT_name("temp_freq")
     525                      .dwattr $C$DW$125, DW_AT_TI_symbol_name("_temp_freq")
     526                      .dwattr $C$DW$125, DW_AT_type(*$C$DW$T$21)
     527                      .dwattr $C$DW$125, DW_AT_location[DW_OP_bregx 0x24 110]
     528              $C$DW$126       .dwtag  DW_TAG_formal_parameter, DW_AT_name("gv")
     529                      .dwattr $C$DW$126, DW_AT_TI_symbol_name("_gv")
     530                      .dwattr $C$DW$126, DW_AT_type(*$C$DW$T$98)
     531                      .dwattr $C$DW$126, DW_AT_location[DW_OP_bregx 0x24 112]
     532              $C$DW$127       .dwtag  DW_TAG_formal_parameter, DW_AT_name("p_transform")
     533                      .dwattr $C$DW$127, DW_AT_TI_symbol_name("_p_transform")
     534                      .dwattr $C$DW$127, DW_AT_type(*$C$DW$T$21)
     535                      .dwattr $C$DW$127, DW_AT_location[DW_OP_bregx 0x24 114]
     536              $C$DW$128       .dwtag  DW_TAG_formal_parameter, DW_AT_name("s_normalization")
     537                      .dwattr $C$DW$128, DW_AT_TI_symbol_name("_s_normalization")
     538                      .dwattr $C$DW$128, DW_AT_type(*$C$DW$T$8)
     539                      .dwattr $C$DW$128, DW_AT_location[DW_OP_bregx 0x24 116]
     540              ;*******************************************************************************
     541              ;* FUNCTION NAME: ijac_update_t                                                *
     542              ;*                                                                             *
     543              ;*   Function Uses Regs : AC0,AC0,AC1,AC1,T0,T1,AR0,XAR0,AR1,XAR1,AR2,XAR2,AR3,*
     544              ;*                        XAR3,AR4,XAR4,SP,CARRY,TC1,M40,SATA,SATD,RDM,FRCT,   *
     545              ;*                        SMUL                                                 *
     546              ;*   Stack Frame        : Compact (No Frame Pointer, w/ debug)                 *
     547              ;*   Total Frame Size   : 102 words                                            *
     548              ;*                        (2 return address/alignment)                         *
     549              ;*                        (4 function parameters)                              *
     550              ;*                        (96 local values)                                    *
     551              ;*   Min System Stack   : 1 word                                               *
     552              ;*******************************************************************************
     553 000000       _ijac_update_t:
     554                      .dwcfi  cfa_offset, 1
     555                      .dwcfi  save_reg_to_mem, 91, -1
     556 000000 4E9B          AADD #-101, SP
     557                      .dwcfi  cfa_offset, 102
     558              $C$DW$129       .dwtag  DW_TAG_variable, DW_AT_name("jac_hmm")
     559                      .dwattr $C$DW$129, DW_AT_TI_symbol_name("_jac_hmm")
     560                      .dwattr $C$DW$129, DW_AT_type(*$C$DW$T$119)
     561                      .dwattr $C$DW$129, DW_AT_location[DW_OP_bregx 0x24 4]
     562              $C$DW$130       .dwtag  DW_TAG_variable, DW_AT_name("pdfa")
     563                      .dwattr $C$DW$130, DW_AT_TI_symbol_name("_pdfa")
     564                      .dwattr $C$DW$130, DW_AT_type(*$C$DW$T$21)
     565                      .dwattr $C$DW$130, DW_AT_location[DW_OP_bregx 0x24 6]
     566              $C$DW$131       .dwtag  DW_TAG_variable, DW_AT_name("ap")
     567                      .dwattr $C$DW$131, DW_AT_TI_symbol_name("_ap")
     568                      .dwattr $C$DW$131, DW_AT_type(*$C$DW$T$58)
     569                      .dwattr $C$DW$131, DW_AT_location[DW_OP_bregx 0x24 8]
     570              $C$DW$132       .dwtag  DW_TAG_variable, DW_AT_name("bp")
     571                      .dwattr $C$DW$132, DW_AT_TI_symbol_name("_bp")
     572                      .dwattr $C$DW$132, DW_AT_type(*$C$DW$T$58)
     573                      .dwattr $C$DW$132, DW_AT_location[DW_OP_bregx 0x24 10]
     574              $C$DW$133       .dwtag  DW_TAG_variable, DW_AT_name("vec")
     575                      .dwattr $C$DW$133, DW_AT_TI_symbol_name("_vec")
     576                      .dwattr $C$DW$133, DW_AT_type(*$C$DW$T$58)
     577                      .dwattr $C$DW$133, DW_AT_location[DW_OP_bregx 0x24 12]
     578              $C$DW$134       .dwtag  DW_TAG_variable, DW_AT_name("T")
TMS320C55x Assembler PC v4.4.1 Wed Sep 13 16:33:23 2017

Tools Copyright (c) 1996-2012 Texas Instruments Incorporated
C:\Users\a0221074\AppData\Local\Temp\1618010                         PAGE   12

     579                      .dwattr $C$DW$134, DW_AT_TI_symbol_name("_T")
     580                      .dwattr $C$DW$134, DW_AT_type(*$C$DW$T$147)
     581                      .dwattr $C$DW$134, DW_AT_location[DW_OP_bregx 0x24 14]
     582              $C$DW$135       .dwtag  DW_TAG_variable, DW_AT_name("n_mfcc")
     583                      .dwattr $C$DW$135, DW_AT_TI_symbol_name("_n_mfcc")
     584                      .dwattr $C$DW$135, DW_AT_type(*$C$DW$T$57)
     585                      .dwattr $C$DW$135, DW_AT_location[DW_OP_bregx 0x24 15]
     586              $C$DW$136       .dwtag  DW_TAG_variable, DW_AT_name("k")
     587                      .dwattr $C$DW$136, DW_AT_TI_symbol_name("_k")
     588                      .dwattr $C$DW$136, DW_AT_type(*$C$DW$T$8)
     589                      .dwattr $C$DW$136, DW_AT_location[DW_OP_bregx 0x24 16]
     590              $C$DW$137       .dwtag  DW_TAG_variable, DW_AT_name("frame")
     591                      .dwattr $C$DW$137, DW_AT_TI_symbol_name("_frame")
     592                      .dwattr $C$DW$137, DW_AT_type(*$C$DW$T$8)
     593                      .dwattr $C$DW$137, DW_AT_location[DW_OP_bregx 0x24 17]
     594              $C$DW$138       .dwtag  DW_TAG_variable, DW_AT_name("d")
     595                      .dwattr $C$DW$138, DW_AT_TI_symbol_name("_d")
     596                      .dwattr $C$DW$138, DW_AT_type(*$C$DW$T$8)
     597                      .dwattr $C$DW$138, DW_AT_location[DW_OP_bregx 0x24 18]
     598              $C$DW$139       .dwtag  DW_TAG_variable, DW_AT_name("j")
     599                      .dwattr $C$DW$139, DW_AT_TI_symbol_name("_j")
     600                      .dwattr $C$DW$139, DW_AT_type(*$C$DW$T$8)
     601                      .dwattr $C$DW$139, DW_AT_location[DW_OP_bregx 0x24 19]
     602              $C$DW$140       .dwtag  DW_TAG_variable, DW_AT_name("indep_k")
     603                      .dwattr $C$DW$140, DW_AT_TI_symbol_name("_indep_k")
     604                      .dwattr $C$DW$140, DW_AT_type(*$C$DW$T$12)
     605                      .dwattr $C$DW$140, DW_AT_location[DW_OP_bregx 0x24 20]
     606              $C$DW$141       .dwtag  DW_TAG_variable, DW_AT_name("temp")
     607                      .dwattr $C$DW$141, DW_AT_TI_symbol_name("_temp")
     608                      .dwattr $C$DW$141, DW_AT_type(*$C$DW$T$12)
     609                      .dwattr $C$DW$141, DW_AT_location[DW_OP_bregx 0x24 22]
     610              $C$DW$142       .dwtag  DW_TAG_variable, DW_AT_name("accum_d")
     611                      .dwattr $C$DW$142, DW_AT_TI_symbol_name("_accum_d")
     612                      .dwattr $C$DW$142, DW_AT_type(*$C$DW$T$47)
     613                      .dwattr $C$DW$142, DW_AT_location[DW_OP_bregx 0x24 24]
     614              $C$DW$143       .dwtag  DW_TAG_variable, DW_AT_name("pdf_i")
     615                      .dwattr $C$DW$143, DW_AT_TI_symbol_name("_pdf_i")
     616                      .dwattr $C$DW$143, DW_AT_type(*$C$DW$T$8)
     617                      .dwattr $C$DW$143, DW_AT_location[DW_OP_bregx 0x24 26]
     618              $C$DW$144       .dwtag  DW_TAG_variable, DW_AT_name("pdf")
     619                      .dwattr $C$DW$144, DW_AT_TI_symbol_name("_pdf")
     620                      .dwattr $C$DW$144, DW_AT_type(*$C$DW$T$21)
     621                      .dwattr $C$DW$144, DW_AT_location[DW_OP_bregx 0x24 28]
     622              $C$DW$145       .dwtag  DW_TAG_variable, DW_AT_name("pmix")
     623                      .dwattr $C$DW$145, DW_AT_TI_symbol_name("_pmix")
     624                      .dwattr $C$DW$145, DW_AT_type(*$C$DW$T$21)
     625                      .dwattr $C$DW$145, DW_AT_location[DW_OP_bregx 0x24 30]
     626              $C$DW$146       .dwtag  DW_TAG_variable, DW_AT_name("mu")
     627                      .dwattr $C$DW$146, DW_AT_TI_symbol_name("_mu")
     628                      .dwattr $C$DW$146, DW_AT_type(*$C$DW$T$21)
     629                      .dwattr $C$DW$146, DW_AT_location[DW_OP_bregx 0x24 32]
     630              $C$DW$147       .dwtag  DW_TAG_variable, DW_AT_name("org_mu")
     631                      .dwattr $C$DW$147, DW_AT_TI_symbol_name("_org_mu")
     632                      .dwattr $C$DW$147, DW_AT_type(*$C$DW$T$21)
     633                      .dwattr $C$DW$147, DW_AT_location[DW_OP_bregx 0x24 34]
TMS320C55x Assembler PC v4.4.1 Wed Sep 13 16:33:23 2017

Tools Copyright (c) 1996-2012 Texas Instruments Incorporated
C:\Users\a0221074\AppData\Local\Temp\1618010                         PAGE   13

     634              $C$DW$148       .dwtag  DW_TAG_variable, DW_AT_name("s3")
     635                      .dwattr $C$DW$148, DW_AT_TI_symbol_name("_s3")
     636                      .dwattr $C$DW$148, DW_AT_type(*$C$DW$T$8)
     637                      .dwattr $C$DW$148, DW_AT_location[DW_OP_bregx 0x24 36]
     638              $C$DW$149       .dwtag  DW_TAG_variable, DW_AT_name("s2")
     639                      .dwattr $C$DW$149, DW_AT_TI_symbol_name("_s2")
     640                      .dwattr $C$DW$149, DW_AT_type(*$C$DW$T$8)
     641                      .dwattr $C$DW$149, DW_AT_location[DW_OP_bregx 0x24 37]
     642              $C$DW$150       .dwtag  DW_TAG_variable, DW_AT_name("gamma_jk")
     643                      .dwattr $C$DW$150, DW_AT_TI_symbol_name("_gamma_jk")
     644                      .dwattr $C$DW$150, DW_AT_type(*$C$DW$T$20)
     645                      .dwattr $C$DW$150, DW_AT_location[DW_OP_bregx 0x24 38]
     646              $C$DW$151       .dwtag  DW_TAG_variable, DW_AT_name("func_d")
     647                      .dwattr $C$DW$151, DW_AT_TI_symbol_name("_func_d")
     648                      .dwattr $C$DW$151, DW_AT_type(*$C$DW$T$21)
     649                      .dwattr $C$DW$151, DW_AT_location[DW_OP_bregx 0x24 40]
     650              $C$DW$152       .dwtag  DW_TAG_variable, DW_AT_name("Lr")
     651                      .dwattr $C$DW$152, DW_AT_TI_symbol_name("_Lr")
     652                      .dwattr $C$DW$152, DW_AT_type(*$C$DW$T$8)
     653                      .dwattr $C$DW$152, DW_AT_location[DW_OP_bregx 0x24 42]
     654              $C$DW$153       .dwtag  DW_TAG_variable, DW_AT_name("noisy_log")
     655                      .dwattr $C$DW$153, DW_AT_TI_symbol_name("_noisy_log")
     656                      .dwattr $C$DW$153, DW_AT_type(*$C$DW$T$64)
     657                      .dwattr $C$DW$153, DW_AT_location[DW_OP_bregx 0x24 43]
     658              $C$DW$154       .dwtag  DW_TAG_variable, DW_AT_name("pmu")
     659                      .dwattr $C$DW$154, DW_AT_TI_symbol_name("_pmu")
     660                      .dwattr $C$DW$154, DW_AT_type(*$C$DW$T$21)
     661                      .dwattr $C$DW$154, DW_AT_location[DW_OP_bregx 0x24 70]
     662              $C$DW$155       .dwtag  DW_TAG_variable, DW_AT_name("sp_log_ps")
     663                      .dwattr $C$DW$155, DW_AT_TI_symbol_name("_sp_log_ps")
     664                      .dwattr $C$DW$155, DW_AT_type(*$C$DW$T$64)
     665                      .dwattr $C$DW$155, DW_AT_location[DW_OP_bregx 0x24 72]
     666              $C$DW$156       .dwtag  DW_TAG_variable, DW_AT_name("pnoisymu")
     667                      .dwattr $C$DW$156, DW_AT_TI_symbol_name("_pnoisymu")
     668                      .dwattr $C$DW$156, DW_AT_type(*$C$DW$T$21)
     669                      .dwattr $C$DW$156, DW_AT_location[DW_OP_bregx 0x24 98]
     670 000002 C51E          MOV T1, *SP(#15) ; |91| 
     671 000004 C41C          MOV T0, *SP(#14) ; |91| 
     672 000006 EB18          MOV XAR4, dbl(*SP(#12))
         000008 C5   
     673 000009 EB14          MOV XAR3, dbl(*SP(#10))
         00000b B5   
     674 00000c EB10          MOV XAR2, dbl(*SP(#8))
         00000e A5   
     675 00000f EB0C          MOV XAR1, dbl(*SP(#6))
         000011 95   
     676 000012 EB08          MOV XAR0, dbl(*SP(#4))
         000014 85   
     677                      .dwpsn  file "C:/Users/a0221074/Desktop/C5000/IBM_Watson_TIdesign_workarea/CSL_bitbucket/c55_csl/c55x
     678 000015 E622          MOV #0, *SP(#17) ; |92| 
         000017 00   
     679                      .dwpsn  file "C:/Users/a0221074/Desktop/C5000/IBM_Watson_TIdesign_workarea/CSL_bitbucket/c55_csl/c55x
     680 000018 EDE0          MOV dbl(*SP(#112)), XAR3
         00001a BF   
     681 00001b DF6D          MOV uns(*AR3(#279)), AC0 ; |93| 
TMS320C55x Assembler PC v4.4.1 Wed Sep 13 16:33:23 2017

Tools Copyright (c) 1996-2012 Texas Instruments Incorporated
C:\Users\a0221074\AppData\Local\Temp\1618010                         PAGE   14

         00001d 0501 
         00001f 17   
     682 000020 EDD0          MOV dbl(*SP(#104)), XAR3
         000022 BF   
     683 000023 5000          SFTL AC0, #1 ; |93| 
     684 000025 900A          MOV AC0, XAR2
     685              
     686 000027 8E30          MOV XAR3, dbl(*SP(#24))
         000029 BB10 
         00002b B5A1 
     687              ||      AADD XAR2, XAR3 ; |93| 
     688              
     689                      .dwpsn  file "C:/Users/a0221074/Desktop/C5000/IBM_Watson_TIdesign_workarea/CSL_bitbucket/c55_csl/c55x
     690 00002d EDDC          MOV dbl(*SP(#110)), XAR3
         00002f BF   
     691 000030 EB50          MOV XAR3, dbl(*SP(#40))
         000032 B5   
     692                      .dwpsn  file "C:/Users/a0221074/Desktop/C5000/IBM_Watson_TIdesign_workarea/CSL_bitbucket/c55_csl/c55x
     693 000033 E626          MOV #0, *SP(#19) ; |108| 
         000035 00   
     694 000036 0602          B $C$L10  ; |108| 
         000038 57   
     695                                                      ; branch occurs ; |108| 
     696 000039       $C$L1:    
     697 000039       $C$DW$L$_ijac_update_t$2$B:
     698                      .dwpsn  file "C:/Users/a0221074/Desktop/C5000/IBM_Watson_TIdesign_workarea/CSL_bitbucket/c55_csl/c55x
     699 000039 A422          MOV *SP(#17), T0 ; |110| 
     700 00003b 22A9          MOV AR2, AR1
     701 00003d ED14          MOV dbl(*SP(#10)), XAR2
         00003f AF   
     702 000040 ED10          MOV dbl(*SP(#8)), XAR3
         000042 BF   
     703              
     704 000045 2394          MOV AR1, T0 ; |110| 
     705 000043 A04B  ||      MOV *AR2(T0), AC0 ; |110| 
     706              
     707 000047 D66B          ADD *AR3(T0), AC0, AC0 ; |110| 
         000049 00   
     708 00004a A422          MOV *SP(#17), T0 ; |110| 
     709 00004c ED0C          MOV dbl(*SP(#6)), XAR3
         00004e BF   
     710 00004f D76B          SUB *AR3(T0), AC0, AC0 ; |110| 
         000051 00   
     711 000052 D7E8          SUB *SP(#116), AC0, AC0 ; |110| 
         000054 00   
     712 000055 EB28          MOV AC0, dbl(*SP(#20)) ; |110| 
         000057 08   
     713                      .dwpsn  file "C:/Users/a0221074/Desktop/C5000/IBM_Watson_TIdesign_workarea/CSL_bitbucket/c55_csl/c55x
     714 000058 A926          MOV *SP(#19), AR1 ; |111| 
     715 00005a ED08          MOV dbl(*SP(#4)), XAR3
         00005c BF   
     716 00005d 1490          AADD AR1, AR3 ; |111| 
         00005f B0   
     717 000060 A973          MOV *AR3(short(#1)), AR1 ; |111| 
     718 000062 C934          MOV AR1, *SP(#26) ; |111| 
TMS320C55x Assembler PC v4.4.1 Wed Sep 13 16:33:23 2017

Tools Copyright (c) 1996-2012 Texas Instruments Incorporated
C:\Users\a0221074\AppData\Local\Temp\1618010                         PAGE   15

     719                      .dwpsn  file "C:/Users/a0221074/Desktop/C5000/IBM_Watson_TIdesign_workarea/CSL_bitbucket/c55_csl/c55x
     720 000064 EDE0          MOV dbl(*SP(#112)), XAR3
         000066 BF   
     721 000067 2294          MOV AR1, T0
     722 000069 ED6D          MOV dbl(*AR3(#1192)), XAR3
         00006b BF04 
         00006d A8   
     723 00006e DF6B          MOV uns(*AR3(T0)), AC0 ; |112| 
         000070 05   
     724 000071 EDE0          MOV dbl(*SP(#112)), XAR3
         000073 BF   
     725 000074 900A          MOV AC0, XAR2
     726 000076 ED6D          MOV dbl(*AR3(#1194)), XAR3
         000078 BF04 
         00007a AA   
     727              
     728 00007b 8E38          MOV XAR3, dbl(*SP(#28))
         00007d BB10 
         00007f B5A1 
     729              ||      AADD XAR2, XAR3 ; |112| 
     730              
     731                      .dwpsn  file "C:/Users/a0221074/Desktop/C5000/IBM_Watson_TIdesign_workarea/CSL_bitbucket/c55_csl/c55x
     732 000081 E620          MOV #0, *SP(#16) ; |113| 
         000083 00   
     733 000084 ED38          MOV dbl(*SP(#28)), XAR3
         000086 BF   
     734 000087 B463          AMAR *AR3+
     735 000089 EB3C          MOV XAR3, dbl(*SP(#30))
         00008b B5   
     736 00008c ED38          MOV dbl(*SP(#28)), XAR3
         00008e BF   
     737 00008f AA20          MOV *SP(#16), AR2 ; |113| 
     738 000091 A961          MOV *AR3, AR1 ; |113| 
     739 000093 12A8          CMP AR2 >= AR1, TC1 ; |113| 
         000095 90   
     740 000096 6D64          BCC $C$L9,TC1 ; |113| 
         000098 01EB 
     741                                                      ; branchcc occurs ; |113| 
     742 00009a       $C$DW$L$_ijac_update_t$2$E:
     743 00009a       $C$L2:    
     744 00009a       $C$DW$L$_ijac_update_t$3$B:
     745                      .dwpsn  file "C:/Users/a0221074/Desktop/C5000/IBM_Watson_TIdesign_workarea/CSL_bitbucket/c55_csl/c55x
     746 00009a EDE0          MOV dbl(*SP(#112)), XAR2
         00009c AF   
     747 00009d ED3C          MOV dbl(*SP(#30)), XAR3
         00009f BF   
     748 0000a0 A54D          MOV *AR2(#278), T1 ; |117| 
         0000a2 0116 
     749 0000a4 D373          MPYM *AR3(short(#1)), T1, AC0 ; |117| 
         0000a6 05   
     750 0000a7 EDE0          MOV dbl(*SP(#112)), XAR3
         0000a9 BF   
     751 0000aa 2209          MOV AC0, AR1 ; |117| 
     752 0000ac ED6D          MOV dbl(*AR3(#1182)), XAR3
         0000ae BF04 
TMS320C55x Assembler PC v4.4.1 Wed Sep 13 16:33:23 2017

Tools Copyright (c) 1996-2012 Texas Instruments Incorporated
C:\Users\a0221074\AppData\Local\Temp\1618010                         PAGE   16

         0000b0 9E   
     753              
     754 0000b1 8E40          MOV XAR3, dbl(*SP(#32))
         0000b3 BB10 
         0000b5 B590 
     755              ||      AADD AR1, AR3 ; |117| 
     756              
     757                      .dwpsn  file "C:/Users/a0221074/Desktop/C5000/IBM_Watson_TIdesign_workarea/CSL_bitbucket/c55_csl/c55x
     758 0000b7 EDE0          MOV dbl(*SP(#112)), XAR3
         0000b9 BF   
     759 0000ba ED6D          MOV dbl(*AR3(#1182)), XAR3
         0000bc BF04 
         0000be 9E   
     760 0000bf 90B1          MOV XAR3, AC1
     761 0000c1 ED40          MOV dbl(*SP(#32)), XAR3
         0000c3 BF   
     762 0000c4 90B0          MOV XAR3, AC0
     763 0000c6 EDE0          MOV dbl(*SP(#112)), XAR3
         0000c8 BF   
     764 0000c9 ED6D          MOV dbl(*AR3(#1184)), XAR2
         0000cb AF04 
         0000cd A0   
     765 0000ce 2610          SUB AC1, AC0 ; |119| 
     766 0000d0 900B          MOV AC0, XAR3
     767              
     768 0000d2 8E44          MOV XAR2, dbl(*SP(#34))
         0000d4 AB10 
         0000d6 A5B1 
     769              ||      AADD XAR3, XAR2 ; |119| 
     770              
     771                      .dwpsn  file "C:/Users/a0221074/Desktop/C5000/IBM_Watson_TIdesign_workarea/CSL_bitbucket/c55_csl/c55x
     772 0000d8 EDE0          MOV dbl(*SP(#112)), XAR3
         0000da BF   
     773 0000db A434          MOV *SP(#26), T0 ; |120| 
     774 0000dd ED18          MOV dbl(*SP(#12)), XAR0
         0000df 8F   
     775 0000e0 EC20          AMAR *SP(#16), XAR1
         0000e2 9E   
     776 0000e3 AA6D          MOV *AR3(#278), AR2 ; |120| 
         0000e5 0116 
     777              $C$DW$157       .dwtag  DW_TAG_TI_branch
     778                      .dwattr $C$DW$157, DW_AT_low_pc(0x00)
     779                      .dwattr $C$DW$157, DW_AT_name("_hlr_gauss_obs_score_f")
     780                      .dwattr $C$DW$157, DW_AT_TI_call
     781              
     782 0000e7 6C00          CALL #_hlr_gauss_obs_score_f ; |120| 
         0000e9 0000!
     783 0000eb 3D25  ||      MOV #2, T1
     784              
     785                                                      ; call occurs [#_hlr_gauss_obs_score_f] ; |120| 
     786 0000ed 2240          MOV T0, AC0
     787 0000ef ED28          ADD dbl(*SP(#20)), AC0, AC0 ; |120| 
         0000f1 00   
     788 0000f2 EB2C          MOV AC0, dbl(*SP(#22)) ; |120| 
         0000f4 08   
TMS320C55x Assembler PC v4.4.1 Wed Sep 13 16:33:23 2017

Tools Copyright (c) 1996-2012 Texas Instruments Incorporated
C:\Users\a0221074\AppData\Local\Temp\1618010                         PAGE   17

     789                      .dwpsn  file "C:/Users/a0221074/Desktop/C5000/IBM_Watson_TIdesign_workarea/CSL_bitbucket/c55_csl/c55x
     790 0000f5 ED2C          MOV dbl(*SP(#22)), AC0 ; |122| 
         0000f7 08   
     791 0000f8 6230          BCC $C$L3,AC0 <= #0 ; |122| 
     792                                                      ; branchcc occurs ; |122| 
     793 0000fa       $C$DW$L$_ijac_update_t$3$E:
     794 0000fa       $C$DW$L$_ijac_update_t$4$B:
     795              
     796 0000fa 4A2E          B $C$L6   ; |122| 
     797 0000fc 3D00  ||      MOV #0, AC0
     798              
     799                                                      ; branch occurs ; |122| 
     800 0000fe       $C$DW$L$_ijac_update_t$4$E:
     801 0000fe       $C$L3:    
     802 0000fe       $C$DW$L$_ijac_update_t$5$B:
     803 0000fe 7680          MOV #-32768, AC0 ; |122| 
         000100 0008 
     804 000102 ED2C          MOV dbl(*SP(#22)), AC1 ; |122| 
         000104 18   
     805 000105 1208          CMP AC1 <= AC0, TC1 ; |122| 
         000107 10   
     806 000108 61E4          BCC $C$L4,TC1 ; |122| 
     807                                                      ; branchcc occurs ; |122| 
     808 00010a       $C$DW$L$_ijac_update_t$5$E:
     809 00010a       $C$DW$L$_ijac_update_t$6$B:
     810 00010a ED2C          MOV dbl(*SP(#22)), AC0 ; |122| 
         00010c 08   
     811 00010d       $C$DW$L$_ijac_update_t$6$E:
     812 00010d       $C$L4:    
     813 00010d       $C$DW$L$_ijac_update_t$7$B:
     814 00010d 767F          MOV #32767, AC1 ; |122| 
         00010f FF18 
     815 000111 1208          CMP AC0 >= AC1, TC1 ; |122| 
         000113 10   
     816 000114 0464          BCC $C$L5,TC1 ; |122| 
         000116 11   
     817                                                      ; branchcc occurs ; |122| 
     818 000117       $C$DW$L$_ijac_update_t$7$E:
     819 000117       $C$DW$L$_ijac_update_t$8$B:
     820 000117 7680          MOV #-32768, AC0 ; |122| 
         000119 0008 
     821 00011b ED2C          MOV dbl(*SP(#22)), AC1 ; |122| 
         00011d 18   
     822 00011e 1208          CMP AC1 <= AC0, TC1 ; |122| 
         000120 10   
     823 000121 64E4          BCC $C$L6,TC1 ; |122| 
     824                                                      ; branchcc occurs ; |122| 
     825 000123       $C$DW$L$_ijac_update_t$8$E:
     826 000123       $C$DW$L$_ijac_update_t$9$B:
     827 000123 ED2C          MOV dbl(*SP(#22)), AC0 ; |122| 
         000125 08   
     828 000126 4A04          B $C$L6   ; |122| 
     829                                                      ; branch occurs ; |122| 
     830 000128       $C$DW$L$_ijac_update_t$9$E:
     831 000128       $C$L5:    
TMS320C55x Assembler PC v4.4.1 Wed Sep 13 16:33:23 2017

Tools Copyright (c) 1996-2012 Texas Instruments Incorporated
C:\Users\a0221074\AppData\Local\Temp\1618010                         PAGE   18

     832 000128       $C$DW$L$_ijac_update_t$10$B:
     833 000128 767F          MOV #32767, AC0 ; |122| 
         00012a FF08 
     834 00012c       $C$DW$L$_ijac_update_t$10$E:
     835 00012c       $C$L6:    
     836 00012c       $C$DW$L$_ijac_update_t$11$B:
     837 00012c C054          MOV AC0, *SP(#42) ; |122| 
     838                      .dwpsn  file "C:/Users/a0221074/Desktop/C5000/IBM_Watson_TIdesign_workarea/CSL_bitbucket/c55_csl/c55x
     839 00012e EDE0          MOV dbl(*SP(#112)), XAR3
         000130 BF   
     840 000131 220A          MOV AC0, AR2 ; |124| 
     841 000133 A96D          MOV *AR3(#832), AR1 ; |124| 
         000135 0340 
     842 000137 1298          CMP AR2 <= AR1, TC1 ; |124| 
         000139 A0   
     843 00013a 6D64          BCC $C$L8,TC1 ; |124| 
         00013c 012C 
     844                                                      ; branchcc occurs ; |124| 
     845 00013e       $C$DW$L$_ijac_update_t$11$E:
     846 00013e       $C$DW$L$_ijac_update_t$12$B:
     847                      .dwpsn  file "C:/Users/a0221074/Desktop/C5000/IBM_Watson_TIdesign_workarea/CSL_bitbucket/c55_csl/c55x
     848 00013e 3C65          MOV #6, T1
     849              $C$DW$158       .dwtag  DW_TAG_TI_branch
     850                      .dwattr $C$DW$158, DW_AT_low_pc(0x00)
     851                      .dwattr $C$DW$158, DW_AT_name("_hlr_expn")
     852                      .dwattr $C$DW$158, DW_AT_TI_call
     853              
     854 000140 6C00          CALL #_hlr_expn ; |125| 
         000142 0000!
     855 000144 23A4  ||      MOV AR2, T0
     856              
     857                                                      ; call occurs [#_hlr_expn] ; |125| 
     858 000146 C44C          MOV T0, *SP(#38) ; |125| 
     859                      .dwpsn  file "C:/Users/a0221074/Desktop/C5000/IBM_Watson_TIdesign_workarea/CSL_bitbucket/c55_csl/c55x
     860 000148 ED44          MOV dbl(*SP(#34)), XAR3
         00014a BF   
     861 00014b EB8C          MOV XAR3, dbl(*SP(#70))
         00014d B5   
     862                      .dwpsn  file "C:/Users/a0221074/Desktop/C5000/IBM_Watson_TIdesign_workarea/CSL_bitbucket/c55_csl/c55x
     863 00014e ED40          MOV dbl(*SP(#32)), XAR3
         000150 BF   
     864 000151 EBC4          MOV XAR3, dbl(*SP(#98))
         000153 B5   
     865                      .dwpsn  file "C:/Users/a0221074/Desktop/C5000/IBM_Watson_TIdesign_workarea/CSL_bitbucket/c55_csl/c55x
     866 000154 EDE0          MOV dbl(*SP(#112)), XAR2
         000156 AF   
     867 000157 EDE0          MOV dbl(*SP(#112)), XAR3
         000159 BF   
     868 00015a EC90          AMAR *SP(#72), XAR1
         00015c 9E   
     869 00015d A41E          MOV *SP(#15), T0 ; |139| 
     870 00015f ED8C          MOV dbl(*SP(#70)), XAR0
         000161 8F   
     871 000162 B44F          AMAR *+AR2(#1214) ; |139| 
         000164 04BE 
TMS320C55x Assembler PC v4.4.1 Wed Sep 13 16:33:23 2017

Tools Copyright (c) 1996-2012 Texas Instruments Incorporated
C:\Users\a0221074\AppData\Local\Temp\1618010                         PAGE   19

     872 000166 A56D          MOV *AR3(#279), T1 ; |139| 
         000168 0117 
     873 00016a B46F          AMAR *+AR3(#520) ; |139| 
         00016c 0208 
     874              $C$DW$159       .dwtag  DW_TAG_TI_branch
     875                      .dwattr $C$DW$159, DW_AT_low_pc(0x00)
     876                      .dwattr $C$DW$159, DW_AT_name("_cos_transform")
     877                      .dwattr $C$DW$159, DW_AT_TI_call
     878 00016e 6C00          CALL #_cos_transform ; |139| 
         000170 0000!
     879                                                      ; call occurs [#_cos_transform] ; |139| 
     880                      .dwpsn  file "C:/Users/a0221074/Desktop/C5000/IBM_Watson_TIdesign_workarea/CSL_bitbucket/c55_csl/c55x
     881 000172 EDD4          MOV dbl(*SP(#106)), XAR3
         000174 BF   
     882 000175 EB00          MOV XAR3, dbl(*SP(#0))
         000177 B5   
     883 000178 ED50          MOV dbl(*SP(#40)), XAR3
         00017a BF   
     884 00017b EB04          MOV XAR3, dbl(*SP(#2))
         00017d B5   
     885 00017e EDE0          MOV dbl(*SP(#112)), XAR3
         000180 BF   
     886 000181 EC31          AMOV #0, XAR1 ; |140| 
         000183 9E00 
         000185 0000 
     887 000187 EC90          AMAR *SP(#72), XAR0
         000189 8E   
     888 00018a EC56          AMAR *SP(#43), XAR2
         00018c AE   
     889 00018d EDD8          MOV dbl(*SP(#108)), XAR4
         00018f CF   
     890 000190 A56D          MOV *AR3(#279), T1 ; |140| 
         000192 0117 
     891 000194 EC31          AMOV #0, XAR3 ; |140| 
         000196 BE00 
         000198 0000 
     892              $C$DW$160       .dwtag  DW_TAG_TI_branch
     893                      .dwattr $C$DW$160, DW_AT_low_pc(0x00)
     894                      .dwattr $C$DW$160, DW_AT_name("_log_spectral_compensation")
     895                      .dwattr $C$DW$160, DW_AT_TI_call
     896              
     897 00019a 6C00          CALL #_log_spectral_compensation ; |140| 
         00019c 0000!
     898 00019e 3D14  ||      MOV #1, T0
     899              
     900                                                      ; call occurs [#_log_spectral_compensation] ; |140| 
     901                      .dwpsn  file "C:/Users/a0221074/Desktop/C5000/IBM_Watson_TIdesign_workarea/CSL_bitbucket/c55_csl/c55x
     902 0001a0 EDE0          MOV dbl(*SP(#112)), XAR3
         0001a2 BF   
     903 0001a3 E624          MOV #0, *SP(#18) ; |142| 
         0001a5 00   
     904 0001a6 AA24          MOV *SP(#18), AR2 ; |142| 
     905 0001a8 A96D          MOV *AR3(#279), AR1 ; |142| 
         0001aa 0117 
     906 0001ac 12A8          CMPU AR2 >= AR1, TC1 ; |142| 
TMS320C55x Assembler PC v4.4.1 Wed Sep 13 16:33:23 2017

Tools Copyright (c) 1996-2012 Texas Instruments Incorporated
C:\Users\a0221074\AppData\Local\Temp\1618010                         PAGE   20

         0001ae 94   
     907 0001af 6D64          BCC $C$L8,TC1 ; |142| 
         0001b1 00B7 
     908                                                      ; branchcc occurs ; |142| 
     909 0001b3       $C$DW$L$_ijac_update_t$12$E:
     910 0001b3       $C$L7:    
     911 0001b3       $C$DW$L$_ijac_update_t$13$B:
     912                      .dwpsn  file "C:/Users/a0221074/Desktop/C5000/IBM_Watson_TIdesign_workarea/CSL_bitbucket/c55_csl/c55x
     913 0001b3 A424          MOV *SP(#18), T0 ; |143| 
     914 0001b5 ED50          MOV dbl(*SP(#40)), XAR3
         0001b7 BF   
     915 0001b8 B04C          MOV *SP(#38) << #16, AC0
     916 0001ba 1007          SFTL AC0, #0, AC0 ; |143| 
         0001bc 00   
     917 0001bd D36B          MPYM *AR3(T0), AC0, AC0 ; |143| 
         0001bf 00   
     918 0001c0 EB2C          MOV AC0, dbl(*SP(#22)) ; |143| 
         0001c2 08   
     919                      .dwpsn  file "C:/Users/a0221074/Desktop/C5000/IBM_Watson_TIdesign_workarea/CSL_bitbucket/c55_csl/c55x
     920 0001c3 7640          MOV #16384, AC0 ; |144| 
         0001c5 0008 
     921 0001c7 ED2C          ADD dbl(*SP(#22)), AC0, AC0 ; |144| 
         0001c9 00   
     922 0001ca 1005          SFTS AC0, #-15, AC0 ; |144| 
         0001cc 31   
     923 0001cd C048          MOV AC0, *SP(#36) ; |144| 
     924                      .dwpsn  file "C:/Users/a0221074/Desktop/C5000/IBM_Watson_TIdesign_workarea/CSL_bitbucket/c55_csl/c55x
     925 0001cf A424          MOV *SP(#18), T0 ; |145| 
     926 0001d1 EDCC          MOV dbl(*SP(#102)), XAR3
         0001d3 BF   
     927 0001d4 A96B          MOV *AR3(T0), AR1 ; |145| 
     928 0001d6 EC56          AMAR *SP(#43), XAR3
         0001d8 BE   
     929 0001d9 D86B          SUB AR1, *AR3(T0), AR1 ; |145| 
         0001db 99   
     930 0001dc C94A          MOV AR1, *SP(#37) ; |145| 
     931                      .dwpsn  file "C:/Users/a0221074/Desktop/C5000/IBM_Watson_TIdesign_workarea/CSL_bitbucket/c55_csl/c55x
     932 0001de 2295          MOV AR1, T1
     933 0001e0 D348          MPYM *SP(#36), T1, AC0 ; |147| 
         0001e2 05   
     934 0001e3 EB2C          MOV AC0, dbl(*SP(#22)) ; |147| 
         0001e5 08   
     935                      .dwpsn  file "C:/Users/a0221074/Desktop/C5000/IBM_Watson_TIdesign_workarea/CSL_bitbucket/c55_csl/c55x
     936 0001e6 EDD0          MOV dbl(*SP(#104)), XAR3
         0001e8 BF   
     937 0001e9 A024          MOV *SP(#18), AC0 ; |148| 
     938 0001eb 5000          SFTL AC0, #1 ; |148| 
     939 0001ed 900A          MOV AC0, XAR2
     940 0001ef 7608          MOV #2048, AC0 ; |148| 
         0001f1 0008 
     941 0001f3 ED2C          ADD dbl(*SP(#22)), AC0, AC0 ; |148| 
         0001f5 00   
     942              
     943 0001f9 1105          SFTS AC0, #-12, AC0 ; |148| 
         0001fb 34   
TMS320C55x Assembler PC v4.4.1 Wed Sep 13 16:33:23 2017

Tools Copyright (c) 1996-2012 Texas Instruments Incorporated
C:\Users\a0221074\AppData\Local\Temp\1618010                         PAGE   21

     944 0001f6 14A1  ||      AADD XAR2, XAR3 ; |148| 
         0001f8 B0   
     945              
     946 0001fc ED61          ADD dbl(*AR3), AC0, AC0 ; |148| 
         0001fe 00   
     947 0001ff EB61          MOV AC0, dbl(*AR3) ; |148| 
         000201 08   
     948                      .dwpsn  file "C:/Users/a0221074/Desktop/C5000/IBM_Watson_TIdesign_workarea/CSL_bitbucket/c55_csl/c55x
     949 000202 A424          MOV *SP(#18), T0 ; |150| 
     950 000204 ED50          MOV dbl(*SP(#40)), XAR3
         000206 BF   
     951 000207 A56B          MOV *AR3(T0), T1 ; |150| 
     952 000209 D34A          MPYM *SP(#37), T1, AC0 ; |150| 
         00020b 05   
     953 00020c EB2C          MOV AC0, dbl(*SP(#22)) ; |150| 
         00020e 08   
     954                      .dwpsn  file "C:/Users/a0221074/Desktop/C5000/IBM_Watson_TIdesign_workarea/CSL_bitbucket/c55_csl/c55x
     955 00020f 7601          MOV #256, AC0 ; |151| 
         000211 0008 
     956 000213 ED2C          ADD dbl(*SP(#22)), AC0, AC0 ; |151| 
         000215 00   
     957 000216 1005          SFTS AC0, #-9, AC0 ; |151| 
         000218 37   
     958 000219 EB2C          MOV AC0, dbl(*SP(#22)) ; |151| 
         00021b 08   
     959                      .dwpsn  file "C:/Users/a0221074/Desktop/C5000/IBM_Watson_TIdesign_workarea/CSL_bitbucket/c55_csl/c55x
     960 00021c A424          MOV *SP(#18), T0 ; |152| 
     961 00021e ED50          MOV dbl(*SP(#40)), XAR3
         000220 BF   
     962 000221 A06B          MOV *AR3(T0), AC0 ; |152| 
     963 000223 ED2C          SUB dbl(*SP(#22)), AC0, AC0 ; |152| 
         000225 02   
     964 000226 7B00          ADD #32, AC0, AC0 ; |152| 
         000228 2000 
     965 00022a 1005          SFTS AC0, #-6, AC0 ; |152| 
         00022c 3A   
     966 00022d D64A          ADD *SP(#37), AC0, AR1 ; |152| 
         00022f 90   
     967 000230 C94A          MOV AR1, *SP(#37) ; |152| 
     968                      .dwpsn  file "C:/Users/a0221074/Desktop/C5000/IBM_Watson_TIdesign_workarea/CSL_bitbucket/c55_csl/c55x
     969 000232 A548          MOV *SP(#36), T1 ; |153| 
     970 000234 D34A          MPYM *SP(#37), T1, AC0 ; |153| 
         000236 05   
     971 000237 EB2C          MOV AC0, dbl(*SP(#22)) ; |153| 
         000239 08   
     972                      .dwpsn  file "C:/Users/a0221074/Desktop/C5000/IBM_Watson_TIdesign_workarea/CSL_bitbucket/c55_csl/c55x
     973 00023a A024          MOV *SP(#18), AC0 ; |154| 
     974 00023c ED30          MOV dbl(*SP(#24)), XAR3
         00023e BF   
     975 00023f 5000          SFTL AC0, #1 ; |154| 
     976 000241 900A          MOV AC0, XAR2
     977 000243 7602          MOV #512, AC0 ; |154| 
         000245 0008 
     978 000247 ED2C          ADD dbl(*SP(#22)), AC0, AC0 ; |154| 
         000249 00   
TMS320C55x Assembler PC v4.4.1 Wed Sep 13 16:33:23 2017

Tools Copyright (c) 1996-2012 Texas Instruments Incorporated
C:\Users\a0221074\AppData\Local\Temp\1618010                         PAGE   22

     979              
     980 00024d 1105          SFTS AC0, #-10, AC0 ; |154| 
         00024f 36   
     981 00024a 14A1  ||      AADD XAR2, XAR3 ; |154| 
         00024c B0   
     982              
     983 000250 ED61          ADD dbl(*AR3), AC0, AC0 ; |154| 
         000252 00   
     984 000253 EB61          MOV AC0, dbl(*AR3) ; |154| 
         000255 08   
     985                      .dwpsn  file "C:/Users/a0221074/Desktop/C5000/IBM_Watson_TIdesign_workarea/CSL_bitbucket/c55_csl/c55x
     986 000256 EDE0          MOV dbl(*SP(#112)), XAR3
         000258 BF   
     987 000259 F724          ADD #1, *SP(#18) ; |142| 
         00025b 0001 
     988 00025d AA24          MOV *SP(#18), AR2 ; |142| 
     989 00025f A96D          MOV *AR3(#279), AR1 ; |142| 
         000261 0117 
     990 000263 12A4          CMPU AR2 < AR1, TC1 ; |142| 
         000265 94   
     991 000266 6D64          BCC $C$L7,TC1 ; |142| 
         000268 FF49 
     992                                                      ; branchcc occurs ; |142| 
     993 00026a       $C$DW$L$_ijac_update_t$13$E:
     994 00026a       $C$L8:    
     995 00026a       $C$DW$L$_ijac_update_t$14$B:
     996                      .dwpsn  file "C:/Users/a0221074/Desktop/C5000/IBM_Watson_TIdesign_workarea/CSL_bitbucket/c55_csl/c55x
     997 00026a F720          ADD #1, *SP(#16) ; |113| 
         00026c 0001 
     998 00026e ED3C          MOV dbl(*SP(#30)), XAR3
         000270 BF   
     999              
    1000 000271 8E3C          MOV XAR3, dbl(*SP(#30))
         000273 BB14 
         000275 B503 
    1001              ||      AADD #3, AR3 ; |113| 
    1002              
    1003 000277 ED38          MOV dbl(*SP(#28)), XAR3
         000279 BF   
    1004 00027a AA20          MOV *SP(#16), AR2 ; |113| 
    1005 00027c A961          MOV *AR3, AR1 ; |113| 
    1006 00027e 12A4          CMP AR2 < AR1, TC1 ; |113| 
         000280 90   
    1007 000281 6D64          BCC $C$L2,TC1 ; |113| 
         000283 FE15 
    1008                                                      ; branchcc occurs ; |113| 
    1009 000285       $C$DW$L$_ijac_update_t$14$E:
    1010 000285       $C$L9:    
    1011 000285       $C$DW$L$_ijac_update_t$15$B:
    1012                      .dwpsn  file "C:/Users/a0221074/Desktop/C5000/IBM_Watson_TIdesign_workarea/CSL_bitbucket/c55_csl/c55x
    1013 000285 A91C          MOV *SP(#14), AR1 ; |204| 
    1014 000287 D622          ADD *SP(#17), AR1, AR1 ; |204| 
         000289 99   
    1015 00028a C922          MOV AR1, *SP(#17) ; |204| 
    1016                      .dwpsn  file "C:/Users/a0221074/Desktop/C5000/IBM_Watson_TIdesign_workarea/CSL_bitbucket/c55_csl/c55x
TMS320C55x Assembler PC v4.4.1 Wed Sep 13 16:33:23 2017

Tools Copyright (c) 1996-2012 Texas Instruments Incorporated
C:\Users\a0221074\AppData\Local\Temp\1618010                         PAGE   23

    1017 00028c F726          ADD #1, *SP(#19) ; |108| 
         00028e 0001 
    1018 000290       $C$DW$L$_ijac_update_t$15$E:
    1019 000290       $C$L10:    
    1020 000290       $C$DW$L$_ijac_update_t$16$B:
    1021 000290 ED08          MOV dbl(*SP(#4)), XAR3
         000292 BF   
    1022 000293 A461          MOV *AR3, T0 ; |108| 
    1023 000295 EDE0          MOV dbl(*SP(#112)), XAR3
         000297 BF   
    1024 000298 ED6D          MOV dbl(*AR3(#1190)), XAR3
         00029a BF04 
         00029c A6   
    1025 00029d A96B          MOV *AR3(T0), AR1 ; |108| 
    1026              
    1027 0002a1 4319          SUB #1, AR1 ; |108| 
    1028 00029f AA26  ||      MOV *SP(#19), AR2 ; |108| 
    1029              
    1030 0002a3 12A4          CMP AR2 < AR1, TC1 ; |108| 
         0002a5 90   
    1031 0002a6 6D64          BCC $C$L1,TC1 ; |108| 
         0002a8 FD8F 
    1032                                                      ; branchcc occurs ; |108| 
    1033 0002aa       $C$DW$L$_ijac_update_t$16$E:
    1034                      .dwpsn  file "C:/Users/a0221074/Desktop/C5000/IBM_Watson_TIdesign_workarea/CSL_bitbucket/c55_csl/c55x
    1035 0002aa 4E65          AADD #101, SP
    1036                      .dwcfi  cfa_offset, 1
    1037              $C$DW$161       .dwtag  DW_TAG_TI_branch
    1038                      .dwattr $C$DW$161, DW_AT_low_pc(0x00)
    1039                      .dwattr $C$DW$161, DW_AT_TI_return
    1040 0002ac 4804          RET
    1041                                                      ; return occurs
    1042              
    1043              $C$DW$162       .dwtag  DW_TAG_TI_loop
    1044                      .dwattr $C$DW$162, DW_AT_name("C:\\Users\\a0221074\\AppData\\Local\\Temp\\1618010:$C$L10:1:1505334800
    1045                      .dwattr $C$DW$162, DW_AT_TI_begin_file("C:/Users/a0221074/Desktop/C5000/IBM_Watson_TIdesign_workarea/
    1046                      .dwattr $C$DW$162, DW_AT_TI_begin_line(0x6c)
    1047                      .dwattr $C$DW$162, DW_AT_TI_end_line(0xcc)
    1048              $C$DW$163       .dwtag  DW_TAG_TI_loop_range
    1049                      .dwattr $C$DW$163, DW_AT_low_pc($C$DW$L$_ijac_update_t$16$B)
    1050                      .dwattr $C$DW$163, DW_AT_high_pc($C$DW$L$_ijac_update_t$16$E)
    1051              $C$DW$164       .dwtag  DW_TAG_TI_loop_range
    1052                      .dwattr $C$DW$164, DW_AT_low_pc($C$DW$L$_ijac_update_t$2$B)
    1053                      .dwattr $C$DW$164, DW_AT_high_pc($C$DW$L$_ijac_update_t$2$E)
    1054              $C$DW$165       .dwtag  DW_TAG_TI_loop_range
    1055                      .dwattr $C$DW$165, DW_AT_low_pc($C$DW$L$_ijac_update_t$15$B)
    1056                      .dwattr $C$DW$165, DW_AT_high_pc($C$DW$L$_ijac_update_t$15$E)
    1057              
    1058              $C$DW$166       .dwtag  DW_TAG_TI_loop
    1059                      .dwattr $C$DW$166, DW_AT_name("C:\\Users\\a0221074\\AppData\\Local\\Temp\\1618010:$C$L2:2:1505334800"
    1060                      .dwattr $C$DW$166, DW_AT_TI_begin_file("C:/Users/a0221074/Desktop/C5000/IBM_Watson_TIdesign_workarea/
    1061                      .dwattr $C$DW$166, DW_AT_TI_begin_line(0x71)
    1062                      .dwattr $C$DW$166, DW_AT_TI_end_line(0xcb)
    1063              $C$DW$167       .dwtag  DW_TAG_TI_loop_range
    1064                      .dwattr $C$DW$167, DW_AT_low_pc($C$DW$L$_ijac_update_t$3$B)
TMS320C55x Assembler PC v4.4.1 Wed Sep 13 16:33:23 2017

Tools Copyright (c) 1996-2012 Texas Instruments Incorporated
C:\Users\a0221074\AppData\Local\Temp\1618010                         PAGE   24

    1065                      .dwattr $C$DW$167, DW_AT_high_pc($C$DW$L$_ijac_update_t$3$E)
    1066              $C$DW$168       .dwtag  DW_TAG_TI_loop_range
    1067                      .dwattr $C$DW$168, DW_AT_low_pc($C$DW$L$_ijac_update_t$5$B)
    1068                      .dwattr $C$DW$168, DW_AT_high_pc($C$DW$L$_ijac_update_t$5$E)
    1069              $C$DW$169       .dwtag  DW_TAG_TI_loop_range
    1070                      .dwattr $C$DW$169, DW_AT_low_pc($C$DW$L$_ijac_update_t$6$B)
    1071                      .dwattr $C$DW$169, DW_AT_high_pc($C$DW$L$_ijac_update_t$6$E)
    1072              $C$DW$170       .dwtag  DW_TAG_TI_loop_range
    1073                      .dwattr $C$DW$170, DW_AT_low_pc($C$DW$L$_ijac_update_t$7$B)
    1074                      .dwattr $C$DW$170, DW_AT_high_pc($C$DW$L$_ijac_update_t$7$E)
    1075              $C$DW$171       .dwtag  DW_TAG_TI_loop_range
    1076                      .dwattr $C$DW$171, DW_AT_low_pc($C$DW$L$_ijac_update_t$4$B)
    1077                      .dwattr $C$DW$171, DW_AT_high_pc($C$DW$L$_ijac_update_t$4$E)
    1078              $C$DW$172       .dwtag  DW_TAG_TI_loop_range
    1079                      .dwattr $C$DW$172, DW_AT_low_pc($C$DW$L$_ijac_update_t$8$B)
    1080                      .dwattr $C$DW$172, DW_AT_high_pc($C$DW$L$_ijac_update_t$8$E)
    1081              $C$DW$173       .dwtag  DW_TAG_TI_loop_range
    1082                      .dwattr $C$DW$173, DW_AT_low_pc($C$DW$L$_ijac_update_t$9$B)
    1083                      .dwattr $C$DW$173, DW_AT_high_pc($C$DW$L$_ijac_update_t$9$E)
    1084              $C$DW$174       .dwtag  DW_TAG_TI_loop_range
    1085                      .dwattr $C$DW$174, DW_AT_low_pc($C$DW$L$_ijac_update_t$10$B)
    1086                      .dwattr $C$DW$174, DW_AT_high_pc($C$DW$L$_ijac_update_t$10$E)
    1087              $C$DW$175       .dwtag  DW_TAG_TI_loop_range
    1088                      .dwattr $C$DW$175, DW_AT_low_pc($C$DW$L$_ijac_update_t$11$B)
    1089                      .dwattr $C$DW$175, DW_AT_high_pc($C$DW$L$_ijac_update_t$11$E)
    1090              $C$DW$176       .dwtag  DW_TAG_TI_loop_range
    1091                      .dwattr $C$DW$176, DW_AT_low_pc($C$DW$L$_ijac_update_t$12$B)
    1092                      .dwattr $C$DW$176, DW_AT_high_pc($C$DW$L$_ijac_update_t$12$E)
    1093              $C$DW$177       .dwtag  DW_TAG_TI_loop_range
    1094                      .dwattr $C$DW$177, DW_AT_low_pc($C$DW$L$_ijac_update_t$14$B)
    1095                      .dwattr $C$DW$177, DW_AT_high_pc($C$DW$L$_ijac_update_t$14$E)
    1096              
    1097              $C$DW$178       .dwtag  DW_TAG_TI_loop
    1098                      .dwattr $C$DW$178, DW_AT_name("C:\\Users\\a0221074\\AppData\\Local\\Temp\\1618010:$C$L7:3:1505334800"
    1099                      .dwattr $C$DW$178, DW_AT_TI_begin_file("C:/Users/a0221074/Desktop/C5000/IBM_Watson_TIdesign_workarea/
    1100                      .dwattr $C$DW$178, DW_AT_TI_begin_line(0x8e)
    1101                      .dwattr $C$DW$178, DW_AT_TI_end_line(0x9b)
    1102              $C$DW$179       .dwtag  DW_TAG_TI_loop_range
    1103                      .dwattr $C$DW$179, DW_AT_low_pc($C$DW$L$_ijac_update_t$13$B)
    1104                      .dwattr $C$DW$179, DW_AT_high_pc($C$DW$L$_ijac_update_t$13$E)
    1105                      .dwendtag $C$DW$178
    1106              
    1107                      .dwendtag $C$DW$166
    1108              
    1109                      .dwendtag $C$DW$162
    1110              
    1111                      .dwattr $C$DW$113, DW_AT_TI_end_file("C:/Users/a0221074/Desktop/C5000/IBM_Watson_TIdesign_workarea/CS
    1112                      .dwattr $C$DW$113, DW_AT_TI_end_line(0xcf)
    1113                      .dwattr $C$DW$113, DW_AT_TI_end_column(0x01)
    1114                      .dwendentry
    1115                      .dwendtag $C$DW$113
    1116              
    1117 000000               .sect   ".text:_update_statistics"
    1118                      .clink
    1119              
TMS320C55x Assembler PC v4.4.1 Wed Sep 13 16:33:23 2017

Tools Copyright (c) 1996-2012 Texas Instruments Incorporated
C:\Users\a0221074\AppData\Local\Temp\1618010                         PAGE   25

    1120              $C$DW$180       .dwtag  DW_TAG_subprogram, DW_AT_name("update_statistics")
    1121                      .dwattr $C$DW$180, DW_AT_low_pc(_update_statistics)
    1122                      .dwattr $C$DW$180, DW_AT_high_pc(0x00)
    1123                      .dwattr $C$DW$180, DW_AT_TI_symbol_name("_update_statistics")
    1124                      .dwattr $C$DW$180, DW_AT_type(*$C$DW$T$8)
    1125                      .dwattr $C$DW$180, DW_AT_TI_begin_file("C:/Users/a0221074/Desktop/C5000/IBM_Watson_TIdesign_workarea/
    1126                      .dwattr $C$DW$180, DW_AT_TI_begin_line(0x137)
    1127                      .dwattr $C$DW$180, DW_AT_TI_begin_column(0x10)
    1128                      .dwattr $C$DW$180, DW_AT_TI_max_frame_size(0x9c)
    1129                      .dwpsn  file "C:/Users/a0221074/Desktop/C5000/IBM_Watson_TIdesign_workarea/CSL_bitbucket/c55_csl/c55x
    1130              
    1131                      .dwfde $C$DW$CIE, _update_statistics
    1132              $C$DW$181       .dwtag  DW_TAG_formal_parameter, DW_AT_name("hmm_code")
    1133                      .dwattr $C$DW$181, DW_AT_TI_symbol_name("_hmm_code")
    1134                      .dwattr $C$DW$181, DW_AT_type(*$C$DW$T$20)
    1135                      .dwattr $C$DW$181, DW_AT_location[DW_OP_reg12]
    1136              $C$DW$182       .dwtag  DW_TAG_formal_parameter, DW_AT_name("jac_hmm")
    1137                      .dwattr $C$DW$182, DW_AT_TI_symbol_name("_jac_hmm")
    1138                      .dwattr $C$DW$182, DW_AT_type(*$C$DW$T$119)
    1139                      .dwattr $C$DW$182, DW_AT_location[DW_OP_reg17]
    1140              $C$DW$183       .dwtag  DW_TAG_formal_parameter, DW_AT_name("pdfa")
    1141                      .dwattr $C$DW$183, DW_AT_TI_symbol_name("_pdfa")
    1142                      .dwattr $C$DW$183, DW_AT_type(*$C$DW$T$21)
    1143                      .dwattr $C$DW$183, DW_AT_location[DW_OP_reg19]
    1144              $C$DW$184       .dwtag  DW_TAG_formal_parameter, DW_AT_name("bp")
    1145                      .dwattr $C$DW$184, DW_AT_TI_symbol_name("_bp")
    1146                      .dwattr $C$DW$184, DW_AT_type(*$C$DW$T$21)
    1147                      .dwattr $C$DW$184, DW_AT_location[DW_OP_reg21]
    1148              $C$DW$185       .dwtag  DW_TAG_formal_parameter, DW_AT_name("token")
    1149                      .dwattr $C$DW$185, DW_AT_TI_symbol_name("_token")
    1150                      .dwattr $C$DW$185, DW_AT_type(*$C$DW$T$20)
    1151                      .dwattr $C$DW$185, DW_AT_location[DW_OP_reg13]
    1152              $C$DW$186       .dwtag  DW_TAG_formal_parameter, DW_AT_name("T")
    1153                      .dwattr $C$DW$186, DW_AT_TI_symbol_name("_T")
    1154                      .dwattr $C$DW$186, DW_AT_type(*$C$DW$T$10)
    1155                      .dwattr $C$DW$186, DW_AT_location[DW_OP_reg22]
    1156              $C$DW$187       .dwtag  DW_TAG_formal_parameter, DW_AT_name("alpha")
    1157                      .dwattr $C$DW$187, DW_AT_TI_symbol_name("_alpha")
    1158                      .dwattr $C$DW$187, DW_AT_type(*$C$DW$T$21)
    1159                      .dwattr $C$DW$187, DW_AT_location[DW_OP_reg25]
    1160              $C$DW$188       .dwtag  DW_TAG_formal_parameter, DW_AT_name("c_t_beta")
    1161                      .dwattr $C$DW$188, DW_AT_TI_symbol_name("_c_t_beta")
    1162                      .dwattr $C$DW$188, DW_AT_type(*$C$DW$T$21)
    1163                      .dwattr $C$DW$188, DW_AT_location[DW_OP_bregx 0x24 156]
    1164              $C$DW$189       .dwtag  DW_TAG_formal_parameter, DW_AT_name("accum")
    1165                      .dwattr $C$DW$189, DW_AT_TI_symbol_name("_accum")
    1166                      .dwattr $C$DW$189, DW_AT_type(*$C$DW$T$47)
    1167                      .dwattr $C$DW$189, DW_AT_location[DW_OP_bregx 0x24 158]
    1168              $C$DW$190       .dwtag  DW_TAG_formal_parameter, DW_AT_name("log_H")
    1169                      .dwattr $C$DW$190, DW_AT_TI_symbol_name("_log_H")
    1170                      .dwattr $C$DW$190, DW_AT_type(*$C$DW$T$21)
    1171                      .dwattr $C$DW$190, DW_AT_location[DW_OP_bregx 0x24 160]
    1172              $C$DW$191       .dwtag  DW_TAG_formal_parameter, DW_AT_name("log_N")
    1173                      .dwattr $C$DW$191, DW_AT_TI_symbol_name("_log_N")
    1174                      .dwattr $C$DW$191, DW_AT_type(*$C$DW$T$21)
TMS320C55x Assembler PC v4.4.1 Wed Sep 13 16:33:23 2017

Tools Copyright (c) 1996-2012 Texas Instruments Incorporated
C:\Users\a0221074\AppData\Local\Temp\1618010                         PAGE   26

    1175                      .dwattr $C$DW$191, DW_AT_location[DW_OP_bregx 0x24 162]
    1176              $C$DW$192       .dwtag  DW_TAG_formal_parameter, DW_AT_name("n_mfcc")
    1177                      .dwattr $C$DW$192, DW_AT_TI_symbol_name("_n_mfcc")
    1178                      .dwattr $C$DW$192, DW_AT_type(*$C$DW$T$8)
    1179                      .dwattr $C$DW$192, DW_AT_location[DW_OP_bregx 0x24 164]
    1180              $C$DW$193       .dwtag  DW_TAG_formal_parameter, DW_AT_name("gv")
    1181                      .dwattr $C$DW$193, DW_AT_TI_symbol_name("_gv")
    1182                      .dwattr $C$DW$193, DW_AT_type(*$C$DW$T$98)
    1183                      .dwattr $C$DW$193, DW_AT_location[DW_OP_bregx 0x24 166]
    1184              ;*******************************************************************************
    1185              ;* FUNCTION NAME: update_statistics                                            *
    1186              ;*                                                                             *
    1187              ;*   Function Uses Regs : AC0,AC0,T0,T1,AR0,XAR0,AR1,XAR1,AR2,XAR2,AR3,XAR3,   *
    1188              ;*                        AR4,XAR4,FP,XFP,SP,CARRY,TC1,M40,SATA,SATD,RDM,FRCT, *
    1189              ;*                        SMUL                                                 *
    1190              ;*   Save On Entry Regs : FP                                                   *
    1191              ;*   Stack Frame        : Full (Frame Pointer in AR6, w/ debug)                *
    1192              ;*   Total Frame Size   : 156 words                                            *
    1193              ;*                        (2 return address/alignment)                         *
    1194              ;*                        (15 function parameters)                             *
    1195              ;*                        (138 local values)                                   *
    1196              ;*                        (1 register save area)                               *
    1197              ;*   Min System Stack   : 2 words                                              *
    1198              ;*******************************************************************************
    1199 000000       _update_statistics:
    1200                      .dwcfi  cfa_offset, 1
    1201                      .dwcfi  save_reg_to_mem, 91, -1
    1202 000000 50E5          PSHBOTH XFP
    1203                      .dwcfi  cfa_offset, 2
    1204                      .dwcfi  save_reg_to_mem, 32, -2
    1205 000002 F79A          ADD #-154, mmap(SP)
         000004 FF66 
         000006 98   
    1206 000007 EC00          AMAR *SP(#0), XFP
         000009 EE   
    1207                      .dwcfi  cfa_offset, 156
    1208              $C$DW$194       .dwtag  DW_TAG_variable, DW_AT_name("hmm_code")
    1209                      .dwattr $C$DW$194, DW_AT_TI_symbol_name("_hmm_code")
    1210                      .dwattr $C$DW$194, DW_AT_type(*$C$DW$T$20)
    1211                      .dwattr $C$DW$194, DW_AT_location[DW_OP_bregx 0x24 15]
    1212              $C$DW$195       .dwtag  DW_TAG_variable, DW_AT_name("jac_hmm")
    1213                      .dwattr $C$DW$195, DW_AT_TI_symbol_name("_jac_hmm")
    1214                      .dwattr $C$DW$195, DW_AT_type(*$C$DW$T$119)
    1215                      .dwattr $C$DW$195, DW_AT_location[DW_OP_bregx 0x24 16]
    1216              $C$DW$196       .dwtag  DW_TAG_variable, DW_AT_name("pdfa")
    1217                      .dwattr $C$DW$196, DW_AT_TI_symbol_name("_pdfa")
    1218                      .dwattr $C$DW$196, DW_AT_type(*$C$DW$T$21)
    1219                      .dwattr $C$DW$196, DW_AT_location[DW_OP_bregx 0x24 18]
    1220              $C$DW$197       .dwtag  DW_TAG_variable, DW_AT_name("bp")
    1221                      .dwattr $C$DW$197, DW_AT_TI_symbol_name("_bp")
    1222                      .dwattr $C$DW$197, DW_AT_type(*$C$DW$T$21)
    1223                      .dwattr $C$DW$197, DW_AT_location[DW_OP_bregx 0x24 20]
    1224              $C$DW$198       .dwtag  DW_TAG_variable, DW_AT_name("token")
    1225                      .dwattr $C$DW$198, DW_AT_TI_symbol_name("_token")
    1226                      .dwattr $C$DW$198, DW_AT_type(*$C$DW$T$20)
TMS320C55x Assembler PC v4.4.1 Wed Sep 13 16:33:23 2017

Tools Copyright (c) 1996-2012 Texas Instruments Incorporated
C:\Users\a0221074\AppData\Local\Temp\1618010                         PAGE   27

    1227                      .dwattr $C$DW$198, DW_AT_location[DW_OP_bregx 0x24 22]
    1228              $C$DW$199       .dwtag  DW_TAG_variable, DW_AT_name("T")
    1229                      .dwattr $C$DW$199, DW_AT_TI_symbol_name("_T")
    1230                      .dwattr $C$DW$199, DW_AT_type(*$C$DW$T$10)
    1231                      .dwattr $C$DW$199, DW_AT_location[DW_OP_bregx 0x24 23]
    1232              $C$DW$200       .dwtag  DW_TAG_variable, DW_AT_name("alpha")
    1233                      .dwattr $C$DW$200, DW_AT_TI_symbol_name("_alpha")
    1234                      .dwattr $C$DW$200, DW_AT_type(*$C$DW$T$21)
    1235                      .dwattr $C$DW$200, DW_AT_location[DW_OP_bregx 0x24 24]
    1236              $C$DW$201       .dwtag  DW_TAG_variable, DW_AT_name("tmp_freq")
    1237                      .dwattr $C$DW$201, DW_AT_TI_symbol_name("_tmp_freq")
    1238                      .dwattr $C$DW$201, DW_AT_type(*$C$DW$T$64)
    1239                      .dwattr $C$DW$201, DW_AT_location[DW_OP_bregx 0x24 26]
    1240              $C$DW$202       .dwtag  DW_TAG_variable, DW_AT_name("t")
    1241                      .dwattr $C$DW$202, DW_AT_TI_symbol_name("_t")
    1242                      .dwattr $C$DW$202, DW_AT_type(*$C$DW$T$20)
    1243                      .dwattr $C$DW$202, DW_AT_location[DW_OP_bregx 0x24 52]
    1244              $C$DW$203       .dwtag  DW_TAG_variable, DW_AT_name("seg")
    1245                      .dwattr $C$DW$203, DW_AT_TI_symbol_name("_seg")
    1246                      .dwattr $C$DW$203, DW_AT_type(*$C$DW$T$20)
    1247                      .dwattr $C$DW$203, DW_AT_location[DW_OP_bregx 0x24 53]
    1248              $C$DW$204       .dwtag  DW_TAG_variable, DW_AT_name("log_e")
    1249                      .dwattr $C$DW$204, DW_AT_TI_symbol_name("_log_e")
    1250                      .dwattr $C$DW$204, DW_AT_type(*$C$DW$T$64)
    1251                      .dwattr $C$DW$204, DW_AT_location[DW_OP_bregx 0x24 54]
    1252              $C$DW$205       .dwtag  DW_TAG_variable, DW_AT_name("alfa_t")
    1253                      .dwattr $C$DW$205, DW_AT_TI_symbol_name("_alfa_t")
    1254                      .dwattr $C$DW$205, DW_AT_type(*$C$DW$T$21)
    1255                      .dwattr $C$DW$205, DW_AT_location[DW_OP_bregx 0x24 80]
    1256              $C$DW$206       .dwtag  DW_TAG_variable, DW_AT_name("beta_t")
    1257                      .dwattr $C$DW$206, DW_AT_TI_symbol_name("_beta_t")
    1258                      .dwattr $C$DW$206, DW_AT_type(*$C$DW$T$21)
    1259                      .dwattr $C$DW$206, DW_AT_location[DW_OP_bregx 0x24 82]
    1260              $C$DW$207       .dwtag  DW_TAG_variable, DW_AT_name("mfcc_feature")
    1261                      .dwattr $C$DW$207, DW_AT_TI_symbol_name("_mfcc_feature")
    1262                      .dwattr $C$DW$207, DW_AT_type(*$C$DW$T$82)
    1263                      .dwattr $C$DW$207, DW_AT_location[DW_OP_bregx 0x24 84]
    1264              $C$DW$208       .dwtag  DW_TAG_variable, DW_AT_name("feat_size")
    1265                      .dwattr $C$DW$208, DW_AT_TI_symbol_name("_feat_size")
    1266                      .dwattr $C$DW$208, DW_AT_type(*$C$DW$T$20)
    1267                      .dwattr $C$DW$208, DW_AT_location[DW_OP_bregx 0x24 116]
    1268              $C$DW$209       .dwtag  DW_TAG_variable, DW_AT_name("p_fea")
    1269                      .dwattr $C$DW$209, DW_AT_TI_symbol_name("_p_fea")
    1270                      .dwattr $C$DW$209, DW_AT_type(*$C$DW$T$21)
    1271                      .dwattr $C$DW$209, DW_AT_location[DW_OP_bregx 0x24 118]
    1272              $C$DW$210       .dwtag  DW_TAG_variable, DW_AT_name("bSucc")
    1273                      .dwattr $C$DW$210, DW_AT_TI_symbol_name("_bSucc")
    1274                      .dwattr $C$DW$210, DW_AT_type(*$C$DW$T$8)
    1275                      .dwattr $C$DW$210, DW_AT_location[DW_OP_bregx 0x24 120]
    1276              $C$DW$211       .dwtag  DW_TAG_variable, DW_AT_name("sbc_bias")
    1277                      .dwattr $C$DW$211, DW_AT_TI_symbol_name("_sbc_bias")
    1278                      .dwattr $C$DW$211, DW_AT_type(*$C$DW$T$82)
    1279                      .dwattr $C$DW$211, DW_AT_location[DW_OP_bregx 0x24 121]
    1280 00000a EB30          MOV XAR4, dbl(*SP(#24))
         00000c C5   
TMS320C55x Assembler PC v4.4.1 Wed Sep 13 16:33:23 2017

Tools Copyright (c) 1996-2012 Texas Instruments Incorporated
C:\Users\a0221074\AppData\Local\Temp\1618010                         PAGE   28

    1281 00000d CB2E          MOV AR3, *SP(#23) ; |319| 
    1282 00000f C52C          MOV T1, *SP(#22) ; |319| 
    1283 000011 EB28          MOV XAR2, dbl(*SP(#20))
         000013 A5   
    1284 000014 EB24          MOV XAR1, dbl(*SP(#18))
         000016 95   
    1285 000017 EB20          MOV XAR0, dbl(*SP(#16))
         000019 85   
    1286 00001a C41E          MOV T0, *SP(#15) ; |319| 
    1287                      .dwpsn  file "C:/Users/a0221074/Desktop/C5000/IBM_Watson_TIdesign_workarea/CSL_bitbucket/c55_csl/c55x
    1288 00001c A9CD          MOV *FP(#164), AR1 ; |327| 
         00001e 00A4 
    1289 000020 C9E8          MOV AR1, *SP(#116) ; |327| 
    1290                      .dwpsn  file "C:/Users/a0221074/Desktop/C5000/IBM_Watson_TIdesign_workarea/CSL_bitbucket/c55_csl/c55x
    1291 000022 E6F0          MOV #1, *SP(#120) ; |334| 
         000024 01   
    1292                      .dwpsn  file "C:/Users/a0221074/Desktop/C5000/IBM_Watson_TIdesign_workarea/CSL_bitbucket/c55_csl/c55x
    1293 000025 A5E8          MOV *SP(#116), T1 ; |345| 
    1294 000027 D32C          MPYM *SP(#22), T1, AC0 ; |345| 
         000029 05   
    1295 00002a C06A          MOV AC0, *SP(#53) ; |345| 
    1296 00002c E668          MOV #0, *SP(#52) ; |345| 
         00002e 00   
    1297                      .dwpsn  file "C:/Users/a0221074/Desktop/C5000/IBM_Watson_TIdesign_workarea/CSL_bitbucket/c55_csl/c55x
    1298 00002f AA68          MOV *SP(#52), AR2 ; |345| 
    1299 000031 A92E          MOV *SP(#23), AR1 ; |345| 
    1300 000033 12A8          CMPU AR2 >= AR1, TC1 ; |345| 
         000035 94   
    1301 000036 6D64          BCC $C$L12,TC1 ; |345| 
         000038 00E9 
    1302                                                      ; branchcc occurs ; |345| 
    1303 00003a       $C$L11:    
    1304 00003a       $C$DW$L$_update_statistics$2$B:
    1305                      .dwpsn  file "C:/Users/a0221074/Desktop/C5000/IBM_Watson_TIdesign_workarea/CSL_bitbucket/c55_csl/c55x
    1306 00003a 2295          MOV AR1, T1
    1307 00003c 22A4          MOV AR2, T0
    1308 00003e ED24          MOV dbl(*SP(#18)), XAR0
         000040 8F   
    1309 000041 EDCD          MOV dbl(*FP(#156)), XAR3
         000043 BF00 
         000045 9C   
    1310 000046 EDCD          MOV dbl(*FP(#166)), XAR4
         000048 CF00 
         00004a A6   
    1311 00004b ED30          MOV dbl(*SP(#24)), XAR1
         00004d 9F   
    1312 00004e ED20          MOV dbl(*SP(#16)), XAR2
         000050 AF   
    1313              $C$DW$212       .dwtag  DW_TAG_TI_branch
    1314                      .dwattr $C$DW$212, DW_AT_low_pc(0x00)
    1315                      .dwattr $C$DW$212, DW_AT_name("_EM_alpha_t")
    1316                      .dwattr $C$DW$212, DW_AT_TI_call
    1317 000051 6C00          CALL #_EM_alpha_t ; |346| 
         000053 0000!
    1318                                                      ; call occurs [#_EM_alpha_t] ; |346| 
TMS320C55x Assembler PC v4.4.1 Wed Sep 13 16:33:23 2017

Tools Copyright (c) 1996-2012 Texas Instruments Incorporated
C:\Users\a0221074\AppData\Local\Temp\1618010                         PAGE   29

    1319 000055 EBA0          MOV XAR0, dbl(*SP(#80))
         000057 85   
    1320                      .dwpsn  file "C:/Users/a0221074/Desktop/C5000/IBM_Watson_TIdesign_workarea/CSL_bitbucket/c55_csl/c55x
    1321 000058 ED28          MOV dbl(*SP(#20)), XAR3
         00005a BF   
    1322 00005b DF68          MOV uns(*SP(#52)), AC0 ; |347| 
         00005d 05   
    1323 00005e 900A          MOV AC0, XAR2
    1324              
    1325 000060 8EA4          MOV XAR3, dbl(*SP(#82))
         000062 BB10 
         000064 B5A1 
    1326              ||      AADD XAR2, XAR3 ; |347| 
    1327              
    1328                      .dwpsn  file "C:/Users/a0221074/Desktop/C5000/IBM_Watson_TIdesign_workarea/CSL_bitbucket/c55_csl/c55x
    1329 000066 EDCD          MOV dbl(*FP(#166)), XAR3
         000068 BF00 
         00006a A6   
    1330 00006b ED6D          MOV dbl(*AR3(#2002)), XAR0
         00006d 8F07 
         00006f D2   
    1331 000070 DF6A          MOV uns(*SP(#53)), AC0 ; |349| 
         000072 05   
    1332 000073 900B          MOV AC0, XAR3
    1333 000075 14B1          AADD XAR3, XAR0 ; |349| 
         000077 80   
    1334 000078 EDCD          MOV dbl(*FP(#166)), XAR3
         00007a BF00 
         00007c A6   
    1335 00007d ECA8          AMAR *SP(#84), XAR1
         00007f 9E   
    1336 000080 A4CD          MOV *FP(#164), T0 ; |349| 
         000082 00A4 
    1337 000084 ED6D          MOV dbl(*AR3(#1212)), XAR2
         000086 AF04 
         000088 BC   
    1338              $C$DW$213       .dwtag  DW_TAG_TI_branch
    1339                      .dwattr $C$DW$213, DW_AT_low_pc(0x00)
    1340                      .dwattr $C$DW$213, DW_AT_name("_vector_unpacking")
    1341                      .dwattr $C$DW$213, DW_AT_TI_call
    1342 000089 6C00          CALL #_vector_unpacking ; |349| 
         00008b 0000!
    1343                                                      ; call occurs [#_vector_unpacking] ; |349| 
    1344                      .dwpsn  file "C:/Users/a0221074/Desktop/C5000/IBM_Watson_TIdesign_workarea/CSL_bitbucket/c55_csl/c55x
    1345 00008d ECA8          AMAR *SP(#84), XAR3
         00008f BE   
    1346 000090 EBEC          MOV XAR3, dbl(*SP(#118))
         000092 B5   
    1347                      .dwpsn  file "C:/Users/a0221074/Desktop/C5000/IBM_Watson_TIdesign_workarea/CSL_bitbucket/c55_csl/c55x
    1348 000093 EDCD          MOV dbl(*FP(#166)), XAR2
         000095 AF00 
         000097 A6   
    1349 000098 EDCD          MOV dbl(*FP(#166)), XAR3
         00009a BF00 
         00009c A6   
TMS320C55x Assembler PC v4.4.1 Wed Sep 13 16:33:23 2017

Tools Copyright (c) 1996-2012 Texas Instruments Incorporated
C:\Users\a0221074\AppData\Local\Temp\1618010                         PAGE   30

    1350 00009d EC6C          AMAR *SP(#54), XAR1
         00009f 9E   
    1351 0000a0 A4CD          MOV *FP(#164), T0 ; |364| 
         0000a2 00A4 
    1352 0000a4 EDEC          MOV dbl(*SP(#118)), XAR0
         0000a6 8F   
    1353 0000a7 B44F          AMAR *+AR2(#1214) ; |364| 
         0000a9 04BE 
    1354 0000ab A56D          MOV *AR3(#279), T1 ; |364| 
         0000ad 0117 
    1355 0000af B46F          AMAR *+AR3(#520) ; |364| 
         0000b1 0208 
    1356              $C$DW$214       .dwtag  DW_TAG_TI_branch
    1357                      .dwattr $C$DW$214, DW_AT_low_pc(0x00)
    1358                      .dwattr $C$DW$214, DW_AT_name("_cos_transform")
    1359                      .dwattr $C$DW$214, DW_AT_TI_call
    1360 0000b3 6C00          CALL #_cos_transform ; |364| 
         0000b5 0000!
    1361                                                      ; call occurs [#_cos_transform] ; |364| 
    1362                      .dwpsn  file "C:/Users/a0221074/Desktop/C5000/IBM_Watson_TIdesign_workarea/CSL_bitbucket/c55_csl/c55x
    1363 0000b7 EC6C          AMAR *SP(#54), XAR3
         0000b9 BE   
    1364 0000ba EB00          MOV XAR3, dbl(*SP(#0))
         0000bc B5   
    1365 0000bd EDCD          MOV dbl(*FP(#158)), XAR3
         0000bf BF00 
         0000c1 9E   
    1366 0000c2 EB04          MOV XAR3, dbl(*SP(#2))
         0000c4 B5   
    1367 0000c5 EDCD          MOV dbl(*FP(#160)), XAR3
         0000c7 BF00 
         0000c9 A0   
    1368 0000ca EB08          MOV XAR3, dbl(*SP(#4))
         0000cc B5   
    1369 0000cd EDCD          MOV dbl(*FP(#162)), XAR3
         0000cf BF00 
         0000d1 A2   
    1370 0000d2 EB0C          MOV XAR3, dbl(*SP(#6))
         0000d4 B5   
    1371 0000d5 EC34          AMAR *SP(#26), XAR3
         0000d7 BE   
    1372 0000d8 EB10          MOV XAR3, dbl(*SP(#8))
         0000da B5   
    1373 0000db EDCD          MOV dbl(*FP(#166)), XAR3
         0000dd BF00 
         0000df A6   
    1374 0000e0 EB14          MOV XAR3, dbl(*SP(#10))
         0000e2 B5   
    1375 0000e3 DF68          MOV uns(*SP(#52)), AC0 ; |365| 
         0000e5 05   
    1376 0000e6 ECF2          AMAR *SP(#121), XAR3
         0000e8 BE   
    1377 0000e9 EB18          MOV XAR3, dbl(*SP(#12))
         0000eb B5   
    1378 0000ec 900B          MOV AC0, XAR3
TMS320C55x Assembler PC v4.4.1 Wed Sep 13 16:33:23 2017

Tools Copyright (c) 1996-2012 Texas Instruments Incorporated
C:\Users\a0221074\AppData\Local\Temp\1618010                         PAGE   31

    1379 0000ee E61C          MOV #0, *SP(#14) ; |365| 
         0000f0 00   
    1380 0000f1 ED24          MOV dbl(*SP(#18)), XAR1
         0000f3 9F   
    1381 0000f4 EDA0          MOV dbl(*SP(#80)), XAR2
         0000f6 AF   
    1382 0000f7 EDEC          MOV dbl(*SP(#118)), XAR4
         0000f9 CF   
    1383 0000fa A5CD          MOV *FP(#164), T1 ; |365| 
         0000fc 00A4 
    1384 0000fe ED20          MOV dbl(*SP(#16)), XAR0
         000100 8F   
    1385              
    1386                      AADD XAR3, XAR1 ; |365| 
    1387 000101 8A2E  ||      MOV *SP(#23), T0 ; |365| 
         000103 9418 
         000105 B1   
    1388              
    1389 000106 EDA4          MOV dbl(*SP(#82)), XAR3
         000108 BF   
    1390              $C$DW$215       .dwtag  DW_TAG_TI_branch
    1391                      .dwattr $C$DW$215, DW_AT_low_pc(0x00)
    1392                      .dwattr $C$DW$215, DW_AT_name("_ijac_update_t")
    1393                      .dwattr $C$DW$215, DW_AT_TI_call
    1394 000109 6C00          CALL #_ijac_update_t ; |365| 
         00010b 0000+
    1395                                                      ; call occurs [#_ijac_update_t] ; |365| 
    1396                      .dwpsn  file "C:/Users/a0221074/Desktop/C5000/IBM_Watson_TIdesign_workarea/CSL_bitbucket/c55_csl/c55x
    1397 00010d A9E8          MOV *SP(#116), AR1 ; |345| 
    1398 00010f F768          ADD #1, *SP(#52) ; |345| 
         000111 0001 
    1399 000113 D66A          ADD *SP(#53), AR1, AR1 ; |345| 
         000115 99   
    1400 000116 C96A          MOV AR1, *SP(#53) ; |345| 
    1401                      .dwpsn  file "C:/Users/a0221074/Desktop/C5000/IBM_Watson_TIdesign_workarea/CSL_bitbucket/c55_csl/c55x
    1402 000118 A92E          MOV *SP(#23), AR1 ; |345| 
    1403 00011a AA68          MOV *SP(#52), AR2 ; |345| 
    1404 00011c 12A4          CMPU AR2 < AR1, TC1 ; |345| 
         00011e 94   
    1405 00011f 6D64          BCC $C$L11,TC1 ; |345| 
         000121 FF17 
    1406                                                      ; branchcc occurs ; |345| 
    1407 000123       $C$DW$L$_update_statistics$2$E:
    1408 000123       $C$L12:    
    1409                      .dwpsn  file "C:/Users/a0221074/Desktop/C5000/IBM_Watson_TIdesign_workarea/CSL_bitbucket/c55_csl/c55x
    1410 000123 A4F0          MOV *SP(#120), T0 ; |378| 
    1411                      .dwpsn  file "C:/Users/a0221074/Desktop/C5000/IBM_Watson_TIdesign_workarea/CSL_bitbucket/c55_csl/c55x
    1412 000125 F79A          ADD #154, mmap(SP)
         000127 009A 
         000129 98   
    1413                      .dwcfi  cfa_offset, 2
    1414 00012a 50E4          POPBOTH XFP
    1415                      .dwcfi  restore_reg, 32
    1416                      .dwcfi  cfa_offset, 1
    1417              $C$DW$216       .dwtag  DW_TAG_TI_branch
TMS320C55x Assembler PC v4.4.1 Wed Sep 13 16:33:23 2017

Tools Copyright (c) 1996-2012 Texas Instruments Incorporated
C:\Users\a0221074\AppData\Local\Temp\1618010                         PAGE   32

    1418                      .dwattr $C$DW$216, DW_AT_low_pc(0x00)
    1419                      .dwattr $C$DW$216, DW_AT_TI_return
    1420 00012c 4804          RET
    1421                                                      ; return occurs
    1422              
    1423              $C$DW$217       .dwtag  DW_TAG_TI_loop
    1424                      .dwattr $C$DW$217, DW_AT_name("C:\\Users\\a0221074\\AppData\\Local\\Temp\\1618010:$C$L11:1:1505334800
    1425                      .dwattr $C$DW$217, DW_AT_TI_begin_file("C:/Users/a0221074/Desktop/C5000/IBM_Watson_TIdesign_workarea/
    1426                      .dwattr $C$DW$217, DW_AT_TI_begin_line(0x159)
    1427                      .dwattr $C$DW$217, DW_AT_TI_end_line(0x178)
    1428              $C$DW$218       .dwtag  DW_TAG_TI_loop_range
    1429                      .dwattr $C$DW$218, DW_AT_low_pc($C$DW$L$_update_statistics$2$B)
    1430                      .dwattr $C$DW$218, DW_AT_high_pc($C$DW$L$_update_statistics$2$E)
    1431                      .dwendtag $C$DW$217
    1432              
    1433                      .dwattr $C$DW$180, DW_AT_TI_end_file("C:/Users/a0221074/Desktop/C5000/IBM_Watson_TIdesign_workarea/CS
    1434                      .dwattr $C$DW$180, DW_AT_TI_end_line(0x17b)
    1435                      .dwattr $C$DW$180, DW_AT_TI_end_column(0x01)
    1436                      .dwendentry
    1437                      .dwendtag $C$DW$180
    1438              
    1439 000000               .sect   ".text:_JAC_clear"
    1440                      .clink
    1441                      .global _JAC_clear
    1442              
    1443              $C$DW$219       .dwtag  DW_TAG_subprogram, DW_AT_name("JAC_clear")
    1444                      .dwattr $C$DW$219, DW_AT_low_pc(_JAC_clear)
    1445                      .dwattr $C$DW$219, DW_AT_high_pc(0x00)
    1446                      .dwattr $C$DW$219, DW_AT_TI_symbol_name("_JAC_clear")
    1447                      .dwattr $C$DW$219, DW_AT_external
    1448                      .dwattr $C$DW$219, DW_AT_type(*$C$DW$T$108)
    1449                      .dwattr $C$DW$219, DW_AT_TI_begin_file("C:/Users/a0221074/Desktop/C5000/IBM_Watson_TIdesign_workarea/
    1450                      .dwattr $C$DW$219, DW_AT_TI_begin_line(0x18a)
    1451                      .dwattr $C$DW$219, DW_AT_TI_begin_column(0x1a)
    1452                      .dwattr $C$DW$219, DW_AT_TI_max_frame_size(0x08)
    1453                      .dwpsn  file "C:/Users/a0221074/Desktop/C5000/IBM_Watson_TIdesign_workarea/CSL_bitbucket/c55_csl/c55x
    1454              
    1455                      .dwfde $C$DW$CIE, _JAC_clear
    1456              $C$DW$220       .dwtag  DW_TAG_formal_parameter, DW_AT_name("gv")
    1457                      .dwattr $C$DW$220, DW_AT_TI_symbol_name("_gv")
    1458                      .dwattr $C$DW$220, DW_AT_type(*$C$DW$T$98)
    1459                      .dwattr $C$DW$220, DW_AT_location[DW_OP_reg17]
    1460              $C$DW$221       .dwtag  DW_TAG_formal_parameter, DW_AT_name("aModelDir")
    1461                      .dwattr $C$DW$221, DW_AT_TI_symbol_name("_aModelDir")
    1462                      .dwattr $C$DW$221, DW_AT_type(*$C$DW$T$110)
    1463                      .dwattr $C$DW$221, DW_AT_location[DW_OP_reg19]
    1464              $C$DW$222       .dwtag  DW_TAG_formal_parameter, DW_AT_name("aTreeFile")
    1465                      .dwattr $C$DW$222, DW_AT_TI_symbol_name("_aTreeFile")
    1466                      .dwattr $C$DW$222, DW_AT_type(*$C$DW$T$110)
    1467                      .dwattr $C$DW$222, DW_AT_location[DW_OP_reg21]
    1468              ;*******************************************************************************
    1469              ;* FUNCTION NAME: JAC_clear                                                    *
    1470              ;*                                                                             *
    1471              ;*   Function Uses Regs : AC0,AC0,T0,AR0,XAR0,AR1,XAR1,AR2,XAR2,AR3,XAR3,SP,   *
    1472              ;*                        CARRY,TC1,M40,SATA,SATD,RDM,FRCT,SMUL                *
TMS320C55x Assembler PC v4.4.1 Wed Sep 13 16:33:23 2017

Tools Copyright (c) 1996-2012 Texas Instruments Incorporated
C:\Users\a0221074\AppData\Local\Temp\1618010                         PAGE   33

    1473              ;*   Stack Frame        : Compact (No Frame Pointer, w/ debug)                 *
    1474              ;*   Total Frame Size   : 8 words                                              *
    1475              ;*                        (1 return address/alignment)                         *
    1476              ;*                        (7 local values)                                     *
    1477              ;*   Min System Stack   : 1 word                                               *
    1478              ;*******************************************************************************
    1479 000000       _JAC_clear:
    1480                      .dwcfi  cfa_offset, 1
    1481                      .dwcfi  save_reg_to_mem, 91, -1
    1482 000000 4EF9          AADD #-7, SP
    1483                      .dwcfi  cfa_offset, 8
    1484              $C$DW$223       .dwtag  DW_TAG_variable, DW_AT_name("gv")
    1485                      .dwattr $C$DW$223, DW_AT_TI_symbol_name("_gv")
    1486                      .dwattr $C$DW$223, DW_AT_type(*$C$DW$T$98)
    1487                      .dwattr $C$DW$223, DW_AT_location[DW_OP_bregx 0x24 0]
    1488              $C$DW$224       .dwtag  DW_TAG_variable, DW_AT_name("aModelDir")
    1489                      .dwattr $C$DW$224, DW_AT_TI_symbol_name("_aModelDir")
    1490                      .dwattr $C$DW$224, DW_AT_type(*$C$DW$T$110)
    1491                      .dwattr $C$DW$224, DW_AT_location[DW_OP_bregx 0x24 2]
    1492              $C$DW$225       .dwtag  DW_TAG_variable, DW_AT_name("aTreeFile")
    1493                      .dwattr $C$DW$225, DW_AT_TI_symbol_name("_aTreeFile")
    1494                      .dwattr $C$DW$225, DW_AT_type(*$C$DW$T$110)
    1495                      .dwattr $C$DW$225, DW_AT_location[DW_OP_bregx 0x24 4]
    1496              $C$DW$226       .dwtag  DW_TAG_variable, DW_AT_name("d")
    1497                      .dwattr $C$DW$226, DW_AT_TI_symbol_name("_d")
    1498                      .dwattr $C$DW$226, DW_AT_type(*$C$DW$T$10)
    1499                      .dwattr $C$DW$226, DW_AT_location[DW_OP_bregx 0x24 6]
    1500 000002 EB08          MOV XAR2, dbl(*SP(#4))
         000004 A5   
    1501 000005 EB04          MOV XAR1, dbl(*SP(#2))
         000007 95   
    1502 000008 EB00          MOV XAR0, dbl(*SP(#0))
         00000a 85   
    1503                      .dwpsn  file "C:/Users/a0221074/Desktop/C5000/IBM_Watson_TIdesign_workarea/CSL_bitbucket/c55_csl/c55x
    1504 00000b ED00          MOV dbl(*SP(#0)), XAR3
         00000d BF   
    1505 00000e DC6D          BTST #1, *AR3(#273), TC1 ; |462| 
         000010 1001 
         000012 11   
    1506 000013 0474          BCC $C$L16,!TC1 ; |462| 
         000015 68   
    1507                                                      ; branchcc occurs ; |462| 
    1508                      .dwpsn  file "C:/Users/a0221074/Desktop/C5000/IBM_Watson_TIdesign_workarea/CSL_bitbucket/c55_csl/c55x
    1509 000016 E60C          MOV #0, *SP(#6) ; |463| 
         000018 00   
    1510 000019 ED00          MOV dbl(*SP(#0)), XAR3
         00001b BF   
    1511 00001c A96D          MOV *AR3(#279), AR1 ; |463| 
         00001e 0117 
    1512 000020 AA0C          MOV *SP(#6), AR2 ; |463| 
    1513 000022 12A8          CMPU AR2 >= AR1, TC1 ; |463| 
         000024 94   
    1514 000025 0464          BCC $C$L14,TC1 ; |463| 
         000027 1D   
    1515                                                      ; branchcc occurs ; |463| 
TMS320C55x Assembler PC v4.4.1 Wed Sep 13 16:33:23 2017

Tools Copyright (c) 1996-2012 Texas Instruments Incorporated
C:\Users\a0221074\AppData\Local\Temp\1618010                         PAGE   34

    1516 000028       $C$L13:    
    1517 000028       $C$DW$L$_JAC_clear$3$B:
    1518                      .dwpsn  file "C:/Users/a0221074/Desktop/C5000/IBM_Watson_TIdesign_workarea/CSL_bitbucket/c55_csl/c55x
    1519 000028 A90C          MOV *SP(#6), AR1 ; |463| 
    1520 00002a 1490          AADD AR1, AR3 ; |463| 
         00002c B0   
    1521 00002d E66D          MOV #0, *AR3(#840) ; |463| 
         00002f 0003 
         000031 48   
    1522                      .dwpsn  file "C:/Users/a0221074/Desktop/C5000/IBM_Watson_TIdesign_workarea/CSL_bitbucket/c55_csl/c55x
    1523 000032 F70C          ADD #1, *SP(#6) ; |463| 
         000034 0001 
    1524 000036 ED00          MOV dbl(*SP(#0)), XAR3
         000038 BF   
    1525 000039 AA0C          MOV *SP(#6), AR2 ; |463| 
    1526 00003b A96D          MOV *AR3(#279), AR1 ; |463| 
         00003d 0117 
    1527 00003f 12A4          CMPU AR2 < AR1, TC1 ; |463| 
         000041 94   
    1528 000042 0464          BCC $C$L13,TC1 ; |463| 
         000044 E3   
    1529                                                      ; branchcc occurs ; |463| 
    1530 000045       $C$DW$L$_JAC_clear$3$E:
    1531 000045       $C$L14:    
    1532                      .dwpsn  file "C:/Users/a0221074/Desktop/C5000/IBM_Watson_TIdesign_workarea/CSL_bitbucket/c55_csl/c55x
    1533 000045 E60C          MOV #0, *SP(#6) ; |466| 
         000047 00   
    1534 000048 ED00          MOV dbl(*SP(#0)), XAR3
         00004a BF   
    1535 00004b A96D          MOV *AR3(#279), AR1 ; |466| 
         00004d 0117 
    1536              
    1537 000051 5190          SFTL AR1, #1 ; |466| 
    1538 00004f AA0C  ||      MOV *SP(#6), AR2 ; |466| 
    1539              
    1540 000053 12A8          CMPU AR2 >= AR1, TC1 ; |466| 
         000055 94   
    1541 000056 0464          BCC $C$L16,TC1 ; |466| 
         000058 25   
    1542                                                      ; branchcc occurs ; |466| 
    1543 000059       $C$L15:    
    1544 000059       $C$DW$L$_JAC_clear$5$B:
    1545                      .dwpsn  file "C:/Users/a0221074/Desktop/C5000/IBM_Watson_TIdesign_workarea/CSL_bitbucket/c55_csl/c55x
    1546 000059 A00C          MOV *SP(#6), AC0 ; |466| 
    1547 00005b 5000          SFTL AC0, #1 ; |466| 
    1548 00005d 900A          MOV AC0, XAR2
    1549              
    1550 00005f 14A1          AADD XAR2, XAR3 ; |466| 
         000061 B0   
    1551 000062 3D00  ||      MOV #0, AC0 ; |466| 
    1552              
    1553 000064 EB6D          MOV AC0, dbl(*AR3(#892)) ; |466| 
         000066 0803 
         000068 7C   
    1554                      .dwpsn  file "C:/Users/a0221074/Desktop/C5000/IBM_Watson_TIdesign_workarea/CSL_bitbucket/c55_csl/c55x
TMS320C55x Assembler PC v4.4.1 Wed Sep 13 16:33:23 2017

Tools Copyright (c) 1996-2012 Texas Instruments Incorporated
C:\Users\a0221074\AppData\Local\Temp\1618010                         PAGE   35

    1555 000069 F70C          ADD #1, *SP(#6) ; |466| 
         00006b 0001 
    1556 00006d ED00          MOV dbl(*SP(#0)), XAR3
         00006f BF   
    1557 000070 A96D          MOV *AR3(#279), AR1 ; |466| 
         000072 0117 
    1558              
    1559 000076 5190          SFTL AR1, #1 ; |466| 
    1560 000074 AA0C  ||      MOV *SP(#6), AR2 ; |466| 
    1561              
    1562 000078 12A4          CMPU AR2 < AR1, TC1 ; |466| 
         00007a 94   
    1563 00007b 0464          BCC $C$L15,TC1 ; |466| 
         00007d DB   
    1564                                                      ; branchcc occurs ; |466| 
    1565 00007e       $C$DW$L$_JAC_clear$5$E:
    1566 00007e       $C$L16:    
    1567                      .dwpsn  file "C:/Users/a0221074/Desktop/C5000/IBM_Watson_TIdesign_workarea/CSL_bitbucket/c55_csl/c55x
    1568 00007e FB6D          MOV #32768, *AR3(#1100) ; |470| 
         000080 8000 
         000082 044C 
    1569                      .dwpsn  file "C:/Users/a0221074/Desktop/C5000/IBM_Watson_TIdesign_workarea/CSL_bitbucket/c55_csl/c55x
    1570 000084 3C04          MOV #0, T0
    1571                      .dwpsn  file "C:/Users/a0221074/Desktop/C5000/IBM_Watson_TIdesign_workarea/CSL_bitbucket/c55_csl/c55x
    1572 000086 4E07          AADD #7, SP
    1573                      .dwcfi  cfa_offset, 1
    1574              $C$DW$227       .dwtag  DW_TAG_TI_branch
    1575                      .dwattr $C$DW$227, DW_AT_low_pc(0x00)
    1576                      .dwattr $C$DW$227, DW_AT_TI_return
    1577 000088 4804          RET
    1578                                                      ; return occurs
    1579              
    1580              $C$DW$228       .dwtag  DW_TAG_TI_loop
    1581                      .dwattr $C$DW$228, DW_AT_name("C:\\Users\\a0221074\\AppData\\Local\\Temp\\1618010:$C$L15:1:1505334800
    1582                      .dwattr $C$DW$228, DW_AT_TI_begin_file("C:/Users/a0221074/Desktop/C5000/IBM_Watson_TIdesign_workarea/
    1583                      .dwattr $C$DW$228, DW_AT_TI_begin_line(0x1d2)
    1584                      .dwattr $C$DW$228, DW_AT_TI_end_line(0x1d2)
    1585              $C$DW$229       .dwtag  DW_TAG_TI_loop_range
    1586                      .dwattr $C$DW$229, DW_AT_low_pc($C$DW$L$_JAC_clear$5$B)
    1587                      .dwattr $C$DW$229, DW_AT_high_pc($C$DW$L$_JAC_clear$5$E)
    1588                      .dwendtag $C$DW$228
    1589              
    1590              
    1591              $C$DW$230       .dwtag  DW_TAG_TI_loop
    1592                      .dwattr $C$DW$230, DW_AT_name("C:\\Users\\a0221074\\AppData\\Local\\Temp\\1618010:$C$L13:1:1505334800
    1593                      .dwattr $C$DW$230, DW_AT_TI_begin_file("C:/Users/a0221074/Desktop/C5000/IBM_Watson_TIdesign_workarea/
    1594                      .dwattr $C$DW$230, DW_AT_TI_begin_line(0x1cf)
    1595                      .dwattr $C$DW$230, DW_AT_TI_end_line(0x1cf)
    1596              $C$DW$231       .dwtag  DW_TAG_TI_loop_range
    1597                      .dwattr $C$DW$231, DW_AT_low_pc($C$DW$L$_JAC_clear$3$B)
    1598                      .dwattr $C$DW$231, DW_AT_high_pc($C$DW$L$_JAC_clear$3$E)
    1599                      .dwendtag $C$DW$230
    1600              
    1601                      .dwattr $C$DW$219, DW_AT_TI_end_file("C:/Users/a0221074/Desktop/C5000/IBM_Watson_TIdesign_workarea/CS
    1602                      .dwattr $C$DW$219, DW_AT_TI_end_line(0x1da)
TMS320C55x Assembler PC v4.4.1 Wed Sep 13 16:33:23 2017

Tools Copyright (c) 1996-2012 Texas Instruments Incorporated
C:\Users\a0221074\AppData\Local\Temp\1618010                         PAGE   36

    1603                      .dwattr $C$DW$219, DW_AT_TI_end_column(0x01)
    1604                      .dwendentry
    1605                      .dwendtag $C$DW$219
    1606              
    1607 000000               .sect   ".text:_MP_JAC_load"
    1608                      .clink
    1609              
    1610              $C$DW$232       .dwtag  DW_TAG_subprogram, DW_AT_name("MP_JAC_load")
    1611                      .dwattr $C$DW$232, DW_AT_low_pc(_MP_JAC_load)
    1612                      .dwattr $C$DW$232, DW_AT_high_pc(0x00)
    1613                      .dwattr $C$DW$232, DW_AT_TI_symbol_name("_MP_JAC_load")
    1614                      .dwattr $C$DW$232, DW_AT_type(*$C$DW$T$108)
    1615                      .dwattr $C$DW$232, DW_AT_TI_begin_file("C:/Users/a0221074/Desktop/C5000/IBM_Watson_TIdesign_workarea/
    1616                      .dwattr $C$DW$232, DW_AT_TI_begin_line(0x1ee)
    1617                      .dwattr $C$DW$232, DW_AT_TI_begin_column(0x1a)
    1618                      .dwattr $C$DW$232, DW_AT_TI_max_frame_size(0x0c)
    1619                      .dwpsn  file "C:/Users/a0221074/Desktop/C5000/IBM_Watson_TIdesign_workarea/CSL_bitbucket/c55_csl/c55x
    1620              
    1621                      .dwfde $C$DW$CIE, _MP_JAC_load
    1622              $C$DW$233       .dwtag  DW_TAG_formal_parameter, DW_AT_name("bias_file")
    1623                      .dwattr $C$DW$233, DW_AT_TI_symbol_name("_bias_file")
    1624                      .dwattr $C$DW$233, DW_AT_type(*$C$DW$T$110)
    1625                      .dwattr $C$DW$233, DW_AT_location[DW_OP_reg17]
    1626              $C$DW$234       .dwtag  DW_TAG_formal_parameter, DW_AT_name("gv")
    1627                      .dwattr $C$DW$234, DW_AT_TI_symbol_name("_gv")
    1628                      .dwattr $C$DW$234, DW_AT_type(*$C$DW$T$98)
    1629                      .dwattr $C$DW$234, DW_AT_location[DW_OP_reg19]
    1630              $C$DW$235       .dwtag  DW_TAG_formal_parameter, DW_AT_name("pNetDir")
    1631                      .dwattr $C$DW$235, DW_AT_TI_symbol_name("_pNetDir")
    1632                      .dwattr $C$DW$235, DW_AT_type(*$C$DW$T$110)
    1633                      .dwattr $C$DW$235, DW_AT_location[DW_OP_reg21]
    1634              $C$DW$236       .dwtag  DW_TAG_formal_parameter, DW_AT_name("p_tree_file")
    1635                      .dwattr $C$DW$236, DW_AT_TI_symbol_name("_p_tree_file")
    1636                      .dwattr $C$DW$236, DW_AT_type(*$C$DW$T$110)
    1637                      .dwattr $C$DW$236, DW_AT_location[DW_OP_reg23]
    1638              $C$DW$237       .dwtag  DW_TAG_formal_parameter, DW_AT_name("bTriphone")
    1639                      .dwattr $C$DW$237, DW_AT_TI_symbol_name("_bTriphone")
    1640                      .dwattr $C$DW$237, DW_AT_type(*$C$DW$T$8)
    1641                      .dwattr $C$DW$237, DW_AT_location[DW_OP_reg12]
    1642              ;*******************************************************************************
    1643              ;* FUNCTION NAME: MP_JAC_load                                                  *
    1644              ;*                                                                             *
    1645              ;*   Function Uses Regs : T0,AR0,XAR0,AR1,XAR1,AR2,XAR2,AR3,XAR3,SP,M40,SATA,  *
    1646              ;*                        SATD,RDM,FRCT,SMUL                                   *
    1647              ;*   Stack Frame        : Compact (No Frame Pointer, w/ debug)                 *
    1648              ;*   Total Frame Size   : 12 words                                             *
    1649              ;*                        (2 return address/alignment)                         *
    1650              ;*                        (10 local values)                                    *
    1651              ;*   Min System Stack   : 1 word                                               *
    1652              ;*******************************************************************************
    1653 000000       _MP_JAC_load:
    1654                      .dwcfi  cfa_offset, 1
    1655                      .dwcfi  save_reg_to_mem, 91, -1
    1656 000000 4EF5          AADD #-11, SP
    1657                      .dwcfi  cfa_offset, 12
TMS320C55x Assembler PC v4.4.1 Wed Sep 13 16:33:23 2017

Tools Copyright (c) 1996-2012 Texas Instruments Incorporated
C:\Users\a0221074\AppData\Local\Temp\1618010                         PAGE   37

    1658              $C$DW$238       .dwtag  DW_TAG_variable, DW_AT_name("bias_file")
    1659                      .dwattr $C$DW$238, DW_AT_TI_symbol_name("_bias_file")
    1660                      .dwattr $C$DW$238, DW_AT_type(*$C$DW$T$110)
    1661                      .dwattr $C$DW$238, DW_AT_location[DW_OP_bregx 0x24 0]
    1662              $C$DW$239       .dwtag  DW_TAG_variable, DW_AT_name("gv")
    1663                      .dwattr $C$DW$239, DW_AT_TI_symbol_name("_gv")
    1664                      .dwattr $C$DW$239, DW_AT_type(*$C$DW$T$98)
    1665                      .dwattr $C$DW$239, DW_AT_location[DW_OP_bregx 0x24 2]
    1666              $C$DW$240       .dwtag  DW_TAG_variable, DW_AT_name("pNetDir")
    1667                      .dwattr $C$DW$240, DW_AT_TI_symbol_name("_pNetDir")
    1668                      .dwattr $C$DW$240, DW_AT_type(*$C$DW$T$110)
    1669                      .dwattr $C$DW$240, DW_AT_location[DW_OP_bregx 0x24 4]
    1670              $C$DW$241       .dwtag  DW_TAG_variable, DW_AT_name("p_tree_file")
    1671                      .dwattr $C$DW$241, DW_AT_TI_symbol_name("_p_tree_file")
    1672                      .dwattr $C$DW$241, DW_AT_type(*$C$DW$T$110)
    1673                      .dwattr $C$DW$241, DW_AT_location[DW_OP_bregx 0x24 6]
    1674              $C$DW$242       .dwtag  DW_TAG_variable, DW_AT_name("bTriphone")
    1675                      .dwattr $C$DW$242, DW_AT_TI_symbol_name("_bTriphone")
    1676                      .dwattr $C$DW$242, DW_AT_type(*$C$DW$T$8)
    1677                      .dwattr $C$DW$242, DW_AT_location[DW_OP_bregx 0x24 8]
    1678              $C$DW$243       .dwtag  DW_TAG_variable, DW_AT_name("eStatus")
    1679                      .dwattr $C$DW$243, DW_AT_TI_symbol_name("_eStatus")
    1680                      .dwattr $C$DW$243, DW_AT_type(*$C$DW$T$108)
    1681                      .dwattr $C$DW$243, DW_AT_location[DW_OP_bregx 0x24 9]
    1682 000002 C410          MOV T0, *SP(#8) ; |497| 
    1683 000004 EB0C          MOV XAR3, dbl(*SP(#6))
         000006 B5   
    1684 000007 EB08          MOV XAR2, dbl(*SP(#4))
         000009 A5   
    1685 00000a EB04          MOV XAR1, dbl(*SP(#2))
         00000c 95   
    1686 00000d EB00          MOV XAR0, dbl(*SP(#0))
         00000f 85   
    1687                      .dwpsn  file "C:/Users/a0221074/Desktop/C5000/IBM_Watson_TIdesign_workarea/CSL_bitbucket/c55_csl/c55x
    1688 000010 ED04          MOV dbl(*SP(#2)), XAR0
         000012 8F   
    1689              $C$DW$244       .dwtag  DW_TAG_TI_branch
    1690                      .dwattr $C$DW$244, DW_AT_low_pc(0x00)
    1691                      .dwattr $C$DW$244, DW_AT_name("_cm_load")
    1692                      .dwattr $C$DW$244, DW_AT_TI_call
    1693 000013 6C00          CALL #_cm_load ; |688| 
         000015 0000!
    1694                                                      ; call occurs [#_cm_load] ; |688| 
    1695                      .dwpsn  file "C:/Users/a0221074/Desktop/C5000/IBM_Watson_TIdesign_workarea/CSL_bitbucket/c55_csl/c55x
    1696 000017 ED08          MOV dbl(*SP(#4)), XAR1
         000019 9F   
    1697 00001a ED0C          MOV dbl(*SP(#6)), XAR2
         00001c AF   
    1698 00001d ED04          MOV dbl(*SP(#2)), XAR0
         00001f 8F   
    1699              $C$DW$245       .dwtag  DW_TAG_TI_branch
    1700                      .dwattr $C$DW$245, DW_AT_low_pc(0x00)
    1701                      .dwattr $C$DW$245, DW_AT_name("_JAC_clear")
    1702                      .dwattr $C$DW$245, DW_AT_TI_call
    1703 000020 6C00          CALL #_JAC_clear ; |691| 
TMS320C55x Assembler PC v4.4.1 Wed Sep 13 16:33:23 2017

Tools Copyright (c) 1996-2012 Texas Instruments Incorporated
C:\Users\a0221074\AppData\Local\Temp\1618010                         PAGE   38

         000022 0000+
    1704                                                      ; call occurs [#_JAC_clear] ; |691| 
    1705 000024 C412          MOV T0, *SP(#9) ; |691| 
    1706                      .dwpsn  file "C:/Users/a0221074/Desktop/C5000/IBM_Watson_TIdesign_workarea/CSL_bitbucket/c55_csl/c55x
    1707                      .dwpsn  file "C:/Users/a0221074/Desktop/C5000/IBM_Watson_TIdesign_workarea/CSL_bitbucket/c55_csl/c55x
    1708 000026 4E0B          AADD #11, SP
    1709                      .dwcfi  cfa_offset, 1
    1710              $C$DW$246       .dwtag  DW_TAG_TI_branch
    1711                      .dwattr $C$DW$246, DW_AT_low_pc(0x00)
    1712                      .dwattr $C$DW$246, DW_AT_TI_return
    1713 000028 4804          RET
    1714                                                      ; return occurs
    1715                      .dwattr $C$DW$232, DW_AT_TI_end_file("C:/Users/a0221074/Desktop/C5000/IBM_Watson_TIdesign_workarea/CS
    1716                      .dwattr $C$DW$232, DW_AT_TI_end_line(0x2b8)
    1717                      .dwattr $C$DW$232, DW_AT_TI_end_column(0x01)
    1718                      .dwendentry
    1719                      .dwendtag $C$DW$232
    1720              
    1721 000000               .sect   ".text:_JAC_load"
    1722                      .clink
    1723                      .global _JAC_load
    1724              
    1725              $C$DW$247       .dwtag  DW_TAG_subprogram, DW_AT_name("JAC_load")
    1726                      .dwattr $C$DW$247, DW_AT_low_pc(_JAC_load)
    1727                      .dwattr $C$DW$247, DW_AT_high_pc(0x00)
    1728                      .dwattr $C$DW$247, DW_AT_TI_symbol_name("_JAC_load")
    1729                      .dwattr $C$DW$247, DW_AT_external
    1730                      .dwattr $C$DW$247, DW_AT_type(*$C$DW$T$108)
    1731                      .dwattr $C$DW$247, DW_AT_TI_begin_file("C:/Users/a0221074/Desktop/C5000/IBM_Watson_TIdesign_workarea/
    1732                      .dwattr $C$DW$247, DW_AT_TI_begin_line(0x2cb)
    1733                      .dwattr $C$DW$247, DW_AT_TI_begin_column(0x1a)
    1734                      .dwattr $C$DW$247, DW_AT_TI_max_frame_size(0x0a)
    1735                      .dwpsn  file "C:/Users/a0221074/Desktop/C5000/IBM_Watson_TIdesign_workarea/CSL_bitbucket/c55_csl/c55x
    1736              
    1737                      .dwfde $C$DW$CIE, _JAC_load
    1738              $C$DW$248       .dwtag  DW_TAG_formal_parameter, DW_AT_name("bias_file")
    1739                      .dwattr $C$DW$248, DW_AT_TI_symbol_name("_bias_file")
    1740                      .dwattr $C$DW$248, DW_AT_type(*$C$DW$T$110)
    1741                      .dwattr $C$DW$248, DW_AT_location[DW_OP_reg17]
    1742              $C$DW$249       .dwtag  DW_TAG_formal_parameter, DW_AT_name("gv")
    1743                      .dwattr $C$DW$249, DW_AT_TI_symbol_name("_gv")
    1744                      .dwattr $C$DW$249, DW_AT_type(*$C$DW$T$98)
    1745                      .dwattr $C$DW$249, DW_AT_location[DW_OP_reg19]
    1746              $C$DW$250       .dwtag  DW_TAG_formal_parameter, DW_AT_name("pNetDir")
    1747                      .dwattr $C$DW$250, DW_AT_TI_symbol_name("_pNetDir")
    1748                      .dwattr $C$DW$250, DW_AT_type(*$C$DW$T$110)
    1749                      .dwattr $C$DW$250, DW_AT_location[DW_OP_reg21]
    1750              $C$DW$251       .dwtag  DW_TAG_formal_parameter, DW_AT_name("p_tree_file")
    1751                      .dwattr $C$DW$251, DW_AT_TI_symbol_name("_p_tree_file")
    1752                      .dwattr $C$DW$251, DW_AT_type(*$C$DW$T$110)
    1753                      .dwattr $C$DW$251, DW_AT_location[DW_OP_reg23]
    1754              ;*******************************************************************************
    1755              ;* FUNCTION NAME: JAC_load                                                     *
    1756              ;*                                                                             *
    1757              ;*   Function Uses Regs : T0,AR0,XAR0,AR1,XAR1,AR2,XAR2,AR3,XAR3,SP,M40,SATA,  *
TMS320C55x Assembler PC v4.4.1 Wed Sep 13 16:33:23 2017

Tools Copyright (c) 1996-2012 Texas Instruments Incorporated
C:\Users\a0221074\AppData\Local\Temp\1618010                         PAGE   39

    1758              ;*                        SATD,RDM,FRCT,SMUL                                   *
    1759              ;*   Stack Frame        : Compact (No Frame Pointer, w/ debug)                 *
    1760              ;*   Total Frame Size   : 10 words                                             *
    1761              ;*                        (1 return address/alignment)                         *
    1762              ;*                        (9 local values)                                     *
    1763              ;*   Min System Stack   : 1 word                                               *
    1764              ;*******************************************************************************
    1765 000000       _JAC_load:
    1766                      .dwcfi  cfa_offset, 1
    1767                      .dwcfi  save_reg_to_mem, 91, -1
    1768 000000 4EF7          AADD #-9, SP
    1769                      .dwcfi  cfa_offset, 10
    1770              $C$DW$252       .dwtag  DW_TAG_variable, DW_AT_name("bias_file")
    1771                      .dwattr $C$DW$252, DW_AT_TI_symbol_name("_bias_file")
    1772                      .dwattr $C$DW$252, DW_AT_type(*$C$DW$T$110)
    1773                      .dwattr $C$DW$252, DW_AT_location[DW_OP_bregx 0x24 0]
    1774              $C$DW$253       .dwtag  DW_TAG_variable, DW_AT_name("gv")
    1775                      .dwattr $C$DW$253, DW_AT_TI_symbol_name("_gv")
    1776                      .dwattr $C$DW$253, DW_AT_type(*$C$DW$T$98)
    1777                      .dwattr $C$DW$253, DW_AT_location[DW_OP_bregx 0x24 2]
    1778              $C$DW$254       .dwtag  DW_TAG_variable, DW_AT_name("pNetDir")
    1779                      .dwattr $C$DW$254, DW_AT_TI_symbol_name("_pNetDir")
    1780                      .dwattr $C$DW$254, DW_AT_type(*$C$DW$T$110)
    1781                      .dwattr $C$DW$254, DW_AT_location[DW_OP_bregx 0x24 4]
    1782              $C$DW$255       .dwtag  DW_TAG_variable, DW_AT_name("p_tree_file")
    1783                      .dwattr $C$DW$255, DW_AT_TI_symbol_name("_p_tree_file")
    1784                      .dwattr $C$DW$255, DW_AT_type(*$C$DW$T$110)
    1785                      .dwattr $C$DW$255, DW_AT_location[DW_OP_bregx 0x24 6]
    1786              $C$DW$256       .dwtag  DW_TAG_variable, DW_AT_name("eStatus")
    1787                      .dwattr $C$DW$256, DW_AT_TI_symbol_name("_eStatus")
    1788                      .dwattr $C$DW$256, DW_AT_type(*$C$DW$T$108)
    1789                      .dwattr $C$DW$256, DW_AT_location[DW_OP_bregx 0x24 8]
    1790 000002 EB0C          MOV XAR3, dbl(*SP(#6))
         000004 B5   
    1791 000005 EB08          MOV XAR2, dbl(*SP(#4))
         000007 A5   
    1792 000008 EB04          MOV XAR1, dbl(*SP(#2))
         00000a 95   
    1793 00000b EB00          MOV XAR0, dbl(*SP(#0))
         00000d 85   
    1794                      .dwpsn  file "C:/Users/a0221074/Desktop/C5000/IBM_Watson_TIdesign_workarea/CSL_bitbucket/c55_csl/c55x
    1795 00000e E610          MOV #0, *SP(#8) ; |732| 
         000010 00   
    1796                      .dwpsn  file "C:/Users/a0221074/Desktop/C5000/IBM_Watson_TIdesign_workarea/CSL_bitbucket/c55_csl/c55x
    1797 000011 ED00          MOV dbl(*SP(#0)), XAR0
         000013 8F   
    1798 000014 ED04          MOV dbl(*SP(#2)), XAR1
         000016 9F   
    1799 000017 ED08          MOV dbl(*SP(#4)), XAR2
         000019 AF   
    1800 00001a ED0C          MOV dbl(*SP(#6)), XAR3
         00001c BF   
    1801              $C$DW$257       .dwtag  DW_TAG_TI_branch
    1802                      .dwattr $C$DW$257, DW_AT_low_pc(0x00)
    1803                      .dwattr $C$DW$257, DW_AT_name("_MP_JAC_load")
TMS320C55x Assembler PC v4.4.1 Wed Sep 13 16:33:23 2017

Tools Copyright (c) 1996-2012 Texas Instruments Incorporated
C:\Users\a0221074\AppData\Local\Temp\1618010                         PAGE   40

    1804                      .dwattr $C$DW$257, DW_AT_TI_call
    1805              
    1806 00001d 6C00          CALL #_MP_JAC_load ; |744| 
         00001f 0000+
    1807 000021 3D14  ||      MOV #1, T0
    1808              
    1809                                                      ; call occurs [#_MP_JAC_load] ; |744| 
    1810 000023 C410          MOV T0, *SP(#8) ; |744| 
    1811                      .dwpsn  file "C:/Users/a0221074/Desktop/C5000/IBM_Watson_TIdesign_workarea/CSL_bitbucket/c55_csl/c55x
    1812                      .dwpsn  file "C:/Users/a0221074/Desktop/C5000/IBM_Watson_TIdesign_workarea/CSL_bitbucket/c55_csl/c55x
    1813 000025 4E09          AADD #9, SP
    1814                      .dwcfi  cfa_offset, 1
    1815              $C$DW$258       .dwtag  DW_TAG_TI_branch
    1816                      .dwattr $C$DW$258, DW_AT_low_pc(0x00)
    1817                      .dwattr $C$DW$258, DW_AT_TI_return
    1818 000027 4804          RET
    1819                                                      ; return occurs
    1820                      .dwattr $C$DW$247, DW_AT_TI_end_file("C:/Users/a0221074/Desktop/C5000/IBM_Watson_TIdesign_workarea/CS
    1821                      .dwattr $C$DW$247, DW_AT_TI_end_line(0x2eb)
    1822                      .dwattr $C$DW$247, DW_AT_TI_end_column(0x01)
    1823                      .dwendentry
    1824                      .dwendtag $C$DW$247
    1825              
    1826 000000               .sect   ".text:_JAC_save"
    1827                      .clink
    1828                      .global _JAC_save
    1829              
    1830              $C$DW$259       .dwtag  DW_TAG_subprogram, DW_AT_name("JAC_save")
    1831                      .dwattr $C$DW$259, DW_AT_low_pc(_JAC_save)
    1832                      .dwattr $C$DW$259, DW_AT_high_pc(0x00)
    1833                      .dwattr $C$DW$259, DW_AT_TI_symbol_name("_JAC_save")
    1834                      .dwattr $C$DW$259, DW_AT_external
    1835                      .dwattr $C$DW$259, DW_AT_type(*$C$DW$T$108)
    1836                      .dwattr $C$DW$259, DW_AT_TI_begin_file("C:/Users/a0221074/Desktop/C5000/IBM_Watson_TIdesign_workarea/
    1837                      .dwattr $C$DW$259, DW_AT_TI_begin_line(0x2f4)
    1838                      .dwattr $C$DW$259, DW_AT_TI_begin_column(0x1a)
    1839                      .dwattr $C$DW$259, DW_AT_TI_max_frame_size(0x0a)
    1840                      .dwpsn  file "C:/Users/a0221074/Desktop/C5000/IBM_Watson_TIdesign_workarea/CSL_bitbucket/c55_csl/c55x
    1841              
    1842                      .dwfde $C$DW$CIE, _JAC_save
    1843              $C$DW$260       .dwtag  DW_TAG_formal_parameter, DW_AT_name("bias_file")
    1844                      .dwattr $C$DW$260, DW_AT_TI_symbol_name("_bias_file")
    1845                      .dwattr $C$DW$260, DW_AT_type(*$C$DW$T$110)
    1846                      .dwattr $C$DW$260, DW_AT_location[DW_OP_reg17]
    1847              $C$DW$261       .dwtag  DW_TAG_formal_parameter, DW_AT_name("gv")
    1848                      .dwattr $C$DW$261, DW_AT_TI_symbol_name("_gv")
    1849                      .dwattr $C$DW$261, DW_AT_type(*$C$DW$T$98)
    1850                      .dwattr $C$DW$261, DW_AT_location[DW_OP_reg19]
    1851              ;*******************************************************************************
    1852              ;* FUNCTION NAME: JAC_save                                                     *
    1853              ;*                                                                             *
    1854              ;*   Function Uses Regs : AC0,AC0,AC1,AC1,T0,AR0,XAR0,AR1,XAR1,AR3,XAR3,SP,    *
    1855              ;*                        CARRY,TC1,M40,SATA,SATD,RDM,FRCT,SMUL                *
    1856              ;*   Stack Frame        : Compact (No Frame Pointer, w/ debug)                 *
    1857              ;*   Total Frame Size   : 10 words                                             *
TMS320C55x Assembler PC v4.4.1 Wed Sep 13 16:33:23 2017

Tools Copyright (c) 1996-2012 Texas Instruments Incorporated
C:\Users\a0221074\AppData\Local\Temp\1618010                         PAGE   41

    1858              ;*                        (2 return address/alignment)                         *
    1859              ;*                        (8 local values)                                     *
    1860              ;*   Min System Stack   : 1 word                                               *
    1861              ;*******************************************************************************
    1862 000000       _JAC_save:
    1863                      .dwcfi  cfa_offset, 1
    1864                      .dwcfi  save_reg_to_mem, 91, -1
    1865 000000 4EF7          AADD #-9, SP
    1866                      .dwcfi  cfa_offset, 10
    1867              $C$DW$262       .dwtag  DW_TAG_variable, DW_AT_name("bias_file")
    1868                      .dwattr $C$DW$262, DW_AT_TI_symbol_name("_bias_file")
    1869                      .dwattr $C$DW$262, DW_AT_type(*$C$DW$T$110)
    1870                      .dwattr $C$DW$262, DW_AT_location[DW_OP_bregx 0x24 0]
    1871              $C$DW$263       .dwtag  DW_TAG_variable, DW_AT_name("gv")
    1872                      .dwattr $C$DW$263, DW_AT_TI_symbol_name("_gv")
    1873                      .dwattr $C$DW$263, DW_AT_type(*$C$DW$T$98)
    1874                      .dwattr $C$DW$263, DW_AT_location[DW_OP_bregx 0x24 2]
    1875              $C$DW$264       .dwtag  DW_TAG_variable, DW_AT_name("numWritten")
    1876                      .dwattr $C$DW$264, DW_AT_TI_symbol_name("_numWritten")
    1877                      .dwattr $C$DW$264, DW_AT_type(*$C$DW$T$189)
    1878                      .dwattr $C$DW$264, DW_AT_location[DW_OP_bregx 0x24 4]
    1879              $C$DW$265       .dwtag  DW_TAG_variable, DW_AT_name("pf")
    1880                      .dwattr $C$DW$265, DW_AT_TI_symbol_name("_pf")
    1881                      .dwattr $C$DW$265, DW_AT_type(*$C$DW$T$121)
    1882                      .dwattr $C$DW$265, DW_AT_location[DW_OP_bregx 0x24 6]
    1883              $C$DW$266       .dwtag  DW_TAG_label, DW_AT_name("Failure"), DW_AT_low_pc($C$L18)
    1884                      .dwattr $C$DW$266, DW_AT_TI_symbol_name("_Failure")
    1885 000002 EB04          MOV XAR1, dbl(*SP(#2))
         000004 95   
    1886 000005 EB00          MOV XAR0, dbl(*SP(#0))
         000007 85   
    1887                      .dwpsn  file "C:/Users/a0221074/Desktop/C5000/IBM_Watson_TIdesign_workarea/CSL_bitbucket/c55_csl/c55x
    1888 000008 EC31          AMOV #$C$FSL1, XAR1 ; |763| 
         00000a 9E00 
         00000c 0000+
    1889              $C$DW$267       .dwtag  DW_TAG_TI_branch
    1890                      .dwattr $C$DW$267, DW_AT_low_pc(0x00)
    1891                      .dwattr $C$DW$267, DW_AT_name("_my_fopen")
    1892                      .dwattr $C$DW$267, DW_AT_TI_call
    1893 00000e 6C00          CALL #_my_fopen ; |763| 
         000010 0000!
    1894                                                      ; call occurs [#_my_fopen] ; |763| 
    1895 000012 EB0C          MOV XAR0, dbl(*SP(#6))
         000014 85   
    1896                      .dwpsn  file "C:/Users/a0221074/Desktop/C5000/IBM_Watson_TIdesign_workarea/CSL_bitbucket/c55_csl/c55x
    1897 000015 ED0C          MOV dbl(*SP(#6)), XAR3
         000017 BF   
    1898 000018 90B0          MOV XAR3, AC0
    1899 00001a 6290          BCC $C$L17,AC0 != #0 ; |765| 
    1900                                                      ; branchcc occurs ; |765| 
    1901                      .dwpsn  file "C:/Users/a0221074/Desktop/C5000/IBM_Watson_TIdesign_workarea/CSL_bitbucket/c55_csl/c55x
    1902 00001c 3C44          MOV #4, T0
    1903 00001e 0600          B $C$L19  ; |768| 
         000020 B7   
    1904                                                      ; branch occurs ; |768| 
TMS320C55x Assembler PC v4.4.1 Wed Sep 13 16:33:23 2017

Tools Copyright (c) 1996-2012 Texas Instruments Incorporated
C:\Users\a0221074\AppData\Local\Temp\1618010                         PAGE   42

    1905 000021       $C$L17:    
    1906                      .dwpsn  file "C:/Users/a0221074/Desktop/C5000/IBM_Watson_TIdesign_workarea/CSL_bitbucket/c55_csl/c55x
    1907 000021 ED04          MOV dbl(*SP(#2)), XAR0
         000023 8F   
    1908 000024 ED0C          MOV dbl(*SP(#6)), XAR1
         000026 9F   
    1909 000027 3C10          MOV #1, AC0 ; |773| 
    1910 000029 B40F          AMAR *+AR0(#279) ; |773| 
         00002b 0117 
    1911              $C$DW$268       .dwtag  DW_TAG_TI_branch
    1912                      .dwattr $C$DW$268, DW_AT_low_pc(0x00)
    1913                      .dwattr $C$DW$268, DW_AT_name("_my_fwrite")
    1914                      .dwattr $C$DW$268, DW_AT_TI_call
    1915              
    1916 00002d 6C00          CALL #_my_fwrite ; |773| 
         00002f 0000!
    1917 000031 3D11  ||      MOV #1, AC1 ; |773| 
    1918              
    1919                                                      ; call occurs [#_my_fwrite] ; |773| 
    1920 000033 EB08          MOV AC0, dbl(*SP(#4)) ; |773| 
         000035 08   
    1921                      .dwpsn  file "C:/Users/a0221074/Desktop/C5000/IBM_Watson_TIdesign_workarea/CSL_bitbucket/c55_csl/c55x
    1922              
    1923 000036 ED08          MOV dbl(*SP(#4)), AC1 ; |774| 
         000038 18   
    1924 000039 3D10  ||      MOV #1, AC0 ; |774| 
    1925              
    1926 00003b 1210          CMPU AC1 == AC0, TC1 ; |774| 
         00003d 04   
    1927 00003e 6D74          BCC $C$L18,!TC1 ; |774| 
         000040 008D 
    1928                                                      ; branchcc occurs ; |774| 
    1929                      .dwpsn  file "C:/Users/a0221074/Desktop/C5000/IBM_Watson_TIdesign_workarea/CSL_bitbucket/c55_csl/c55x
    1930                      .dwpsn  file "C:/Users/a0221074/Desktop/C5000/IBM_Watson_TIdesign_workarea/CSL_bitbucket/c55_csl/c55x
    1931 000042 ED04          MOV dbl(*SP(#2)), XAR0
         000044 8F   
    1932 000045 ED0C          MOV dbl(*SP(#6)), XAR1
         000047 9F   
    1933 000048 B40F          AMAR *+AR0(#278) ; |777| 
         00004a 0116 
    1934              $C$DW$269       .dwtag  DW_TAG_TI_branch
    1935                      .dwattr $C$DW$269, DW_AT_low_pc(0x00)
    1936                      .dwattr $C$DW$269, DW_AT_name("_my_fwrite")
    1937                      .dwattr $C$DW$269, DW_AT_TI_call
    1938              
    1939 00004c 6C00          CALL #_my_fwrite ; |777| 
         00004e 0000!
    1940 000050 3D11  ||      MOV #1, AC1 ; |777| 
    1941              
    1942                                                      ; call occurs [#_my_fwrite] ; |777| 
    1943 000052 EB08          MOV AC0, dbl(*SP(#4)) ; |777| 
         000054 08   
    1944                      .dwpsn  file "C:/Users/a0221074/Desktop/C5000/IBM_Watson_TIdesign_workarea/CSL_bitbucket/c55_csl/c55x
    1945              
    1946 000055 ED08          MOV dbl(*SP(#4)), AC1 ; |778| 
TMS320C55x Assembler PC v4.4.1 Wed Sep 13 16:33:23 2017

Tools Copyright (c) 1996-2012 Texas Instruments Incorporated
C:\Users\a0221074\AppData\Local\Temp\1618010                         PAGE   43

         000057 18   
    1947 000058 3D10  ||      MOV #1, AC0 ; |778| 
    1948              
    1949 00005a 1210          CMPU AC1 == AC0, TC1 ; |778| 
         00005c 04   
    1950 00005d 0474          BCC $C$L18,!TC1 ; |778| 
         00005f 6F   
    1951                                                      ; branchcc occurs ; |778| 
    1952                      .dwpsn  file "C:/Users/a0221074/Desktop/C5000/IBM_Watson_TIdesign_workarea/CSL_bitbucket/c55_csl/c55x
    1953                      .dwpsn  file "C:/Users/a0221074/Desktop/C5000/IBM_Watson_TIdesign_workarea/CSL_bitbucket/c55_csl/c55x
    1954 000060 ED04          MOV dbl(*SP(#2)), XAR3
         000062 BF   
    1955 000063 ED04          MOV dbl(*SP(#2)), XAR0
         000065 8F   
    1956 000066 ED0C          MOV dbl(*SP(#6)), XAR1
         000068 9F   
    1957 000069 DF6D          MOV uns(*AR3(#279)), AC1 ; |781| 
         00006b 1501 
         00006d 17   
    1958 00006e B40F          AMAR *+AR0(#840) ; |781| 
         000070 0348 
    1959              $C$DW$270       .dwtag  DW_TAG_TI_branch
    1960                      .dwattr $C$DW$270, DW_AT_low_pc(0x00)
    1961                      .dwattr $C$DW$270, DW_AT_name("_my_fwrite")
    1962                      .dwattr $C$DW$270, DW_AT_TI_call
    1963 000072 6C00          CALL #_my_fwrite ; |781| 
         000074 0000!
    1964                                                      ; call occurs [#_my_fwrite] ; |781| 
    1965 000076 EB08          MOV AC0, dbl(*SP(#4)) ; |781| 
         000078 08   
    1966                      .dwpsn  file "C:/Users/a0221074/Desktop/C5000/IBM_Watson_TIdesign_workarea/CSL_bitbucket/c55_csl/c55x
    1967 000079 ED04          MOV dbl(*SP(#2)), XAR3
         00007b BF   
    1968 00007c ED08          MOV dbl(*SP(#4)), AC1 ; |782| 
         00007e 18   
    1969 00007f DF6D          MOV uns(*AR3(#279)), AC0 ; |782| 
         000081 0501 
         000083 17   
    1970 000084 1210          CMPU AC1 == AC0, TC1 ; |782| 
         000086 04   
    1971 000087 0474          BCC $C$L18,!TC1 ; |782| 
         000089 45   
    1972                                                      ; branchcc occurs ; |782| 
    1973                      .dwpsn  file "C:/Users/a0221074/Desktop/C5000/IBM_Watson_TIdesign_workarea/CSL_bitbucket/c55_csl/c55x
    1974                      .dwpsn  file "C:/Users/a0221074/Desktop/C5000/IBM_Watson_TIdesign_workarea/CSL_bitbucket/c55_csl/c55x
    1975 00008a ED04          MOV dbl(*SP(#2)), XAR0
         00008c 8F   
    1976 00008d A96D          MOV *AR3(#279), AR1 ; |785| 
         00008f 0117 
    1977 000091 5090          SFTL AR1, #1 ; |785| 
    1978 000093 7DFF          AND #0xffff, AR1, AC1 ; |785| 
         000095 FF19 
    1979 000097 ED0C          MOV dbl(*SP(#6)), XAR1
         000099 9F   
    1980 00009a B40F          AMAR *+AR0(#892) ; |785| 
TMS320C55x Assembler PC v4.4.1 Wed Sep 13 16:33:23 2017

Tools Copyright (c) 1996-2012 Texas Instruments Incorporated
C:\Users\a0221074\AppData\Local\Temp\1618010                         PAGE   44

         00009c 037C 
    1981              $C$DW$271       .dwtag  DW_TAG_TI_branch
    1982                      .dwattr $C$DW$271, DW_AT_low_pc(0x00)
    1983                      .dwattr $C$DW$271, DW_AT_name("_my_fwrite")
    1984                      .dwattr $C$DW$271, DW_AT_TI_call
    1985              
    1986 00009e 6C00          CALL #_my_fwrite ; |785| 
         0000a0 0000!
    1987 0000a2 3D20  ||      MOV #2, AC0 ; |785| 
    1988              
    1989                                                      ; call occurs [#_my_fwrite] ; |785| 
    1990 0000a4 EB08          MOV AC0, dbl(*SP(#4)) ; |785| 
         0000a6 08   
    1991                      .dwpsn  file "C:/Users/a0221074/Desktop/C5000/IBM_Watson_TIdesign_workarea/CSL_bitbucket/c55_csl/c55x
    1992 0000a7 ED04          MOV dbl(*SP(#2)), XAR3
         0000a9 BF   
    1993 0000aa DF6D          MOV uns(*AR3(#279)), AC0 ; |786| 
         0000ac 0501 
         0000ae 17   
    1994              
    1995 0000b2 5100          SFTL AC0, #1 ; |786| 
    1996 0000af ED08  ||      MOV dbl(*SP(#4)), AC1 ; |786| 
         0000b1 18   
    1997              
    1998 0000b4 1210          CMPU AC1 == AC0, TC1 ; |786| 
         0000b6 04   
    1999 0000b7 0474          BCC $C$L18,!TC1 ; |786| 
         0000b9 15   
    2000                                                      ; branchcc occurs ; |786| 
    2001                      .dwpsn  file "C:/Users/a0221074/Desktop/C5000/IBM_Watson_TIdesign_workarea/CSL_bitbucket/c55_csl/c55x
    2002                      .dwpsn  file "C:/Users/a0221074/Desktop/C5000/IBM_Watson_TIdesign_workarea/CSL_bitbucket/c55_csl/c55x
    2003 0000ba ED0C          MOV dbl(*SP(#6)), XAR0
         0000bc 8F   
    2004 0000bd ED04          MOV dbl(*SP(#2)), XAR1
         0000bf 9F   
    2005              $C$DW$272       .dwtag  DW_TAG_TI_branch
    2006                      .dwattr $C$DW$272, DW_AT_low_pc(0x00)
    2007                      .dwattr $C$DW$272, DW_AT_name("_cm_save")
    2008                      .dwattr $C$DW$272, DW_AT_TI_call
    2009 0000c0 6C00          CALL #_cm_save ; |820| 
         0000c2 0000!
    2010                                                      ; call occurs [#_cm_save] ; |820| 
    2011                      .dwpsn  file "C:/Users/a0221074/Desktop/C5000/IBM_Watson_TIdesign_workarea/CSL_bitbucket/c55_csl/c55x
    2012 0000c4 ED0C          MOV dbl(*SP(#6)), XAR0
         0000c6 8F   
    2013              $C$DW$273       .dwtag  DW_TAG_TI_branch
    2014                      .dwattr $C$DW$273, DW_AT_low_pc(0x00)
    2015                      .dwattr $C$DW$273, DW_AT_name("_my_fclose")
    2016                      .dwattr $C$DW$273, DW_AT_TI_call
    2017 0000c7 6C00          CALL #_my_fclose ; |824| 
         0000c9 0000!
    2018                                                      ; call occurs [#_my_fclose] ; |824| 
    2019                      .dwpsn  file "C:/Users/a0221074/Desktop/C5000/IBM_Watson_TIdesign_workarea/CSL_bitbucket/c55_csl/c55x
    2020 0000cb 3C04          MOV #0, T0
    2021 0000cd 4A09          B $C$L19  ; |826| 
TMS320C55x Assembler PC v4.4.1 Wed Sep 13 16:33:23 2017

Tools Copyright (c) 1996-2012 Texas Instruments Incorporated
C:\Users\a0221074\AppData\Local\Temp\1618010                         PAGE   45

    2022                                                      ; branch occurs ; |826| 
    2023 0000cf       $C$L18:    
    2024                      .dwpsn  file "C:/Users/a0221074/Desktop/C5000/IBM_Watson_TIdesign_workarea/CSL_bitbucket/c55_csl/c55x
    2025 0000cf ED0C          MOV dbl(*SP(#6)), XAR0
         0000d1 8F   
    2026              $C$DW$274       .dwtag  DW_TAG_TI_branch
    2027                      .dwattr $C$DW$274, DW_AT_low_pc(0x00)
    2028                      .dwattr $C$DW$274, DW_AT_name("_my_fclose")
    2029                      .dwattr $C$DW$274, DW_AT_TI_call
    2030 0000d2 6C00          CALL #_my_fclose ; |830| 
         0000d4 0000!
    2031                                                      ; call occurs [#_my_fclose] ; |830| 
    2032                      .dwpsn  file "C:/Users/a0221074/Desktop/C5000/IBM_Watson_TIdesign_workarea/CSL_bitbucket/c55_csl/c55x
    2033 0000d6 3C44          MOV #4, T0
    2034 0000d8       $C$L19:    
    2035                      .dwpsn  file "C:/Users/a0221074/Desktop/C5000/IBM_Watson_TIdesign_workarea/CSL_bitbucket/c55_csl/c55x
    2036 0000d8 4E09          AADD #9, SP
    2037                      .dwcfi  cfa_offset, 1
    2038              $C$DW$275       .dwtag  DW_TAG_TI_branch
    2039                      .dwattr $C$DW$275, DW_AT_low_pc(0x00)
    2040                      .dwattr $C$DW$275, DW_AT_TI_return
    2041 0000da 4804          RET
    2042                                                      ; return occurs
    2043                      .dwattr $C$DW$259, DW_AT_TI_end_file("C:/Users/a0221074/Desktop/C5000/IBM_Watson_TIdesign_workarea/CS
    2044                      .dwattr $C$DW$259, DW_AT_TI_end_line(0x340)
    2045                      .dwattr $C$DW$259, DW_AT_TI_end_column(0x01)
    2046                      .dwendentry
    2047                      .dwendtag $C$DW$259
    2048              
    2049 000000               .sect   ".text:_JAC_backup_net"
    2050                      .clink
    2051              
    2052              $C$DW$276       .dwtag  DW_TAG_subprogram, DW_AT_name("JAC_backup_net")
    2053                      .dwattr $C$DW$276, DW_AT_low_pc(_JAC_backup_net)
    2054                      .dwattr $C$DW$276, DW_AT_high_pc(0x00)
    2055                      .dwattr $C$DW$276, DW_AT_TI_symbol_name("_JAC_backup_net")
    2056                      .dwattr $C$DW$276, DW_AT_TI_begin_file("C:/Users/a0221074/Desktop/C5000/IBM_Watson_TIdesign_workarea/
    2057                      .dwattr $C$DW$276, DW_AT_TI_begin_line(0x345)
    2058                      .dwattr $C$DW$276, DW_AT_TI_begin_column(0x0d)
    2059                      .dwattr $C$DW$276, DW_AT_TI_max_frame_size(0x04)
    2060                      .dwpsn  file "C:/Users/a0221074/Desktop/C5000/IBM_Watson_TIdesign_workarea/CSL_bitbucket/c55_csl/c55x
    2061              
    2062                      .dwfde $C$DW$CIE, _JAC_backup_net
    2063              $C$DW$277       .dwtag  DW_TAG_formal_parameter, DW_AT_name("gv")
    2064                      .dwattr $C$DW$277, DW_AT_TI_symbol_name("_gv")
    2065                      .dwattr $C$DW$277, DW_AT_type(*$C$DW$T$98)
    2066                      .dwattr $C$DW$277, DW_AT_location[DW_OP_reg17]
    2067              ;*******************************************************************************
    2068              ;* FUNCTION NAME: JAC_backup_net                                               *
    2069              ;*                                                                             *
    2070              ;*   Function Uses Regs : T0,AR0,XAR0,AR1,AR2,XAR2,AR3,XAR3,SP,CARRY,TC1,M40,  *
    2071              ;*                        SATA,SATD,RDM,FRCT,SMUL                              *
    2072              ;*   Stack Frame        : Compact (No Frame Pointer, w/ debug)                 *
    2073              ;*   Total Frame Size   : 4 words                                              *
    2074              ;*                        (1 return address/alignment)                         *
TMS320C55x Assembler PC v4.4.1 Wed Sep 13 16:33:23 2017

Tools Copyright (c) 1996-2012 Texas Instruments Incorporated
C:\Users\a0221074\AppData\Local\Temp\1618010                         PAGE   46

    2075              ;*                        (3 local values)                                     *
    2076              ;*   Min System Stack   : 1 word                                               *
    2077              ;*******************************************************************************
    2078 000000       _JAC_backup_net:
    2079                      .dwcfi  cfa_offset, 1
    2080                      .dwcfi  save_reg_to_mem, 91, -1
    2081 000000 4EFD          AADD #-3, SP
    2082                      .dwcfi  cfa_offset, 4
    2083              $C$DW$278       .dwtag  DW_TAG_variable, DW_AT_name("gv")
    2084                      .dwattr $C$DW$278, DW_AT_TI_symbol_name("_gv")
    2085                      .dwattr $C$DW$278, DW_AT_type(*$C$DW$T$98)
    2086                      .dwattr $C$DW$278, DW_AT_location[DW_OP_bregx 0x24 0]
    2087              $C$DW$279       .dwtag  DW_TAG_variable, DW_AT_name("i")
    2088                      .dwattr $C$DW$279, DW_AT_TI_symbol_name("_i")
    2089                      .dwattr $C$DW$279, DW_AT_type(*$C$DW$T$8)
    2090                      .dwattr $C$DW$279, DW_AT_location[DW_OP_bregx 0x24 2]
    2091 000002 EB00          MOV XAR0, dbl(*SP(#0))
         000004 85   
    2092                      .dwpsn  file "C:/Users/a0221074/Desktop/C5000/IBM_Watson_TIdesign_workarea/CSL_bitbucket/c55_csl/c55x
    2093 000005 ED00          MOV dbl(*SP(#0)), XAR3
         000007 BF   
    2094 000008 ED00          MOV dbl(*SP(#0)), XAR2
         00000a AF   
    2095 00000b ED6D          MOV dbl(*AR3(#1178)), XAR3
         00000d BF04 
         00000f 9A   
    2096 000010 EB4D          MOV XAR3, dbl(*AR2(#2018))
         000012 B507 
         000014 E2   
    2097                      .dwpsn  file "C:/Users/a0221074/Desktop/C5000/IBM_Watson_TIdesign_workarea/CSL_bitbucket/c55_csl/c55x
    2098 000015 ED00          MOV dbl(*SP(#0)), XAR3
         000017 BF   
    2099 000018 ED00          MOV dbl(*SP(#0)), XAR2
         00001a AF   
    2100 00001b ED6D          MOV dbl(*AR3(#1176)), XAR3
         00001d BF04 
         00001f 98   
    2101 000020 EB4D          MOV XAR3, dbl(*AR2(#2016))
         000022 B507 
         000024 E0   
    2102                      .dwpsn  file "C:/Users/a0221074/Desktop/C5000/IBM_Watson_TIdesign_workarea/CSL_bitbucket/c55_csl/c55x
    2103 000025 E604          MOV #0, *SP(#2) ; |843| 
         000027 00   
    2104                      .dwpsn  file "C:/Users/a0221074/Desktop/C5000/IBM_Watson_TIdesign_workarea/CSL_bitbucket/c55_csl/c55x
    2105 000028 ED00          MOV dbl(*SP(#0)), XAR3
         00002a BF   
    2106 00002b AA04          MOV *SP(#2), AR2 ; |843| 
    2107 00002d A96D          MOV *AR3(#2000), AR1 ; |843| 
         00002f 07D0 
    2108 000031 12A8          CMPU AR2 >= AR1, TC1 ; |843| 
         000033 94   
    2109 000034 0464          BCC $C$L21,TC1 ; |843| 
         000036 28   
    2110                                                      ; branchcc occurs ; |843| 
    2111 000037       $C$L20:    
TMS320C55x Assembler PC v4.4.1 Wed Sep 13 16:33:23 2017

Tools Copyright (c) 1996-2012 Texas Instruments Incorporated
C:\Users\a0221074\AppData\Local\Temp\1618010                         PAGE   47

    2112 000037       $C$DW$L$_JAC_backup_net$2$B:
    2113                      .dwpsn  file "C:/Users/a0221074/Desktop/C5000/IBM_Watson_TIdesign_workarea/CSL_bitbucket/c55_csl/c55x
    2114 000037 A404          MOV *SP(#2), T0 ; |844| 
    2115 000039 ED6D          MOV dbl(*AR3(#1998)), XAR3
         00003b BF07 
         00003d CE   
    2116 00003e 2249          MOV T0, AR1
    2117 000040 AA6B          MOV *AR3(T0), AR2 ; |844| 
    2118 000042 ED00          MOV dbl(*SP(#0)), XAR3
         000044 BF   
    2119 000045 1490          AADD AR1, AR3 ; |844| 
         000047 B0   
    2120 000048 CA6D          MOV AR2, *AR3(#2021) ; |844| 
         00004a 07E5 
    2121                      .dwpsn  file "C:/Users/a0221074/Desktop/C5000/IBM_Watson_TIdesign_workarea/CSL_bitbucket/c55_csl/c55x
    2122 00004c F704          ADD #1, *SP(#2) ; |843| 
         00004e 0001 
    2123                      .dwpsn  file "C:/Users/a0221074/Desktop/C5000/IBM_Watson_TIdesign_workarea/CSL_bitbucket/c55_csl/c55x
    2124 000050 ED00          MOV dbl(*SP(#0)), XAR3
         000052 BF   
    2125 000053 AA04          MOV *SP(#2), AR2 ; |843| 
    2126 000055 A96D          MOV *AR3(#2000), AR1 ; |843| 
         000057 07D0 
    2127 000059 12A4          CMPU AR2 < AR1, TC1 ; |843| 
         00005b 94   
    2128 00005c 0464          BCC $C$L20,TC1 ; |843| 
         00005e D8   
    2129                                                      ; branchcc occurs ; |843| 
    2130 00005f       $C$DW$L$_JAC_backup_net$2$E:
    2131 00005f       $C$L21:    
    2132                      .dwpsn  file "C:/Users/a0221074/Desktop/C5000/IBM_Watson_TIdesign_workarea/CSL_bitbucket/c55_csl/c55x
    2133 00005f A96D          MOV *AR3(#2000), AR1 ; |845| 
         000061 07D0 
    2134 000063 C96D          MOV AR1, *AR3(#2020) ; |845| 
         000065 07E4 
    2135                      .dwpsn  file "C:/Users/a0221074/Desktop/C5000/IBM_Watson_TIdesign_workarea/CSL_bitbucket/c55_csl/c55x
    2136 000067 4E03          AADD #3, SP
    2137                      .dwcfi  cfa_offset, 1
    2138              $C$DW$280       .dwtag  DW_TAG_TI_branch
    2139                      .dwattr $C$DW$280, DW_AT_low_pc(0x00)
    2140                      .dwattr $C$DW$280, DW_AT_TI_return
    2141 000069 4804          RET
    2142                                                      ; return occurs
    2143              
    2144              $C$DW$281       .dwtag  DW_TAG_TI_loop
    2145                      .dwattr $C$DW$281, DW_AT_name("C:\\Users\\a0221074\\AppData\\Local\\Temp\\1618010:$C$L20:1:1505334800
    2146                      .dwattr $C$DW$281, DW_AT_TI_begin_file("C:/Users/a0221074/Desktop/C5000/IBM_Watson_TIdesign_workarea/
    2147                      .dwattr $C$DW$281, DW_AT_TI_begin_line(0x34b)
    2148                      .dwattr $C$DW$281, DW_AT_TI_end_line(0x34c)
    2149              $C$DW$282       .dwtag  DW_TAG_TI_loop_range
    2150                      .dwattr $C$DW$282, DW_AT_low_pc($C$DW$L$_JAC_backup_net$2$B)
    2151                      .dwattr $C$DW$282, DW_AT_high_pc($C$DW$L$_JAC_backup_net$2$E)
    2152                      .dwendtag $C$DW$281
    2153              
    2154                      .dwattr $C$DW$276, DW_AT_TI_end_file("C:/Users/a0221074/Desktop/C5000/IBM_Watson_TIdesign_workarea/CS
TMS320C55x Assembler PC v4.4.1 Wed Sep 13 16:33:23 2017

Tools Copyright (c) 1996-2012 Texas Instruments Incorporated
C:\Users\a0221074\AppData\Local\Temp\1618010                         PAGE   48

    2155                      .dwattr $C$DW$276, DW_AT_TI_end_line(0x34e)
    2156                      .dwattr $C$DW$276, DW_AT_TI_end_column(0x01)
    2157                      .dwendentry
    2158                      .dwendtag $C$DW$276
    2159              
    2160 000000               .sect   ".text:_JAC_recover_backuped_net"
    2161                      .clink
    2162              
    2163              $C$DW$283       .dwtag  DW_TAG_subprogram, DW_AT_name("JAC_recover_backuped_net")
    2164                      .dwattr $C$DW$283, DW_AT_low_pc(_JAC_recover_backuped_net)
    2165                      .dwattr $C$DW$283, DW_AT_high_pc(0x00)
    2166                      .dwattr $C$DW$283, DW_AT_TI_symbol_name("_JAC_recover_backuped_net")
    2167                      .dwattr $C$DW$283, DW_AT_TI_begin_file("C:/Users/a0221074/Desktop/C5000/IBM_Watson_TIdesign_workarea/
    2168                      .dwattr $C$DW$283, DW_AT_TI_begin_line(0x351)
    2169                      .dwattr $C$DW$283, DW_AT_TI_begin_column(0x0d)
    2170                      .dwattr $C$DW$283, DW_AT_TI_max_frame_size(0x04)
    2171                      .dwpsn  file "C:/Users/a0221074/Desktop/C5000/IBM_Watson_TIdesign_workarea/CSL_bitbucket/c55_csl/c55x
    2172              
    2173                      .dwfde $C$DW$CIE, _JAC_recover_backuped_net
    2174              $C$DW$284       .dwtag  DW_TAG_formal_parameter, DW_AT_name("gv")
    2175                      .dwattr $C$DW$284, DW_AT_TI_symbol_name("_gv")
    2176                      .dwattr $C$DW$284, DW_AT_type(*$C$DW$T$98)
    2177                      .dwattr $C$DW$284, DW_AT_location[DW_OP_reg17]
    2178              ;*******************************************************************************
    2179              ;* FUNCTION NAME: JAC_recover_backuped_net                                     *
    2180              ;*                                                                             *
    2181              ;*   Function Uses Regs : T0,AR0,XAR0,AR1,AR2,XAR2,AR3,XAR3,SP,CARRY,TC1,M40,  *
    2182              ;*                        SATA,SATD,RDM,FRCT,SMUL                              *
    2183              ;*   Stack Frame        : Compact (No Frame Pointer, w/ debug)                 *
    2184              ;*   Total Frame Size   : 4 words                                              *
    2185              ;*                        (1 return address/alignment)                         *
    2186              ;*                        (3 local values)                                     *
    2187              ;*   Min System Stack   : 1 word                                               *
    2188              ;*******************************************************************************
    2189 000000       _JAC_recover_backuped_net:
    2190                      .dwcfi  cfa_offset, 1
    2191                      .dwcfi  save_reg_to_mem, 91, -1
    2192 000000 4EFD          AADD #-3, SP
    2193                      .dwcfi  cfa_offset, 4
    2194              $C$DW$285       .dwtag  DW_TAG_variable, DW_AT_name("gv")
    2195                      .dwattr $C$DW$285, DW_AT_TI_symbol_name("_gv")
    2196                      .dwattr $C$DW$285, DW_AT_type(*$C$DW$T$98)
    2197                      .dwattr $C$DW$285, DW_AT_location[DW_OP_bregx 0x24 0]
    2198              $C$DW$286       .dwtag  DW_TAG_variable, DW_AT_name("i")
    2199                      .dwattr $C$DW$286, DW_AT_TI_symbol_name("_i")
    2200                      .dwattr $C$DW$286, DW_AT_type(*$C$DW$T$8)
    2201                      .dwattr $C$DW$286, DW_AT_location[DW_OP_bregx 0x24 2]
    2202 000002 EB00          MOV XAR0, dbl(*SP(#0))
         000004 85   
    2203                      .dwpsn  file "C:/Users/a0221074/Desktop/C5000/IBM_Watson_TIdesign_workarea/CSL_bitbucket/c55_csl/c55x
    2204 000005 ED00          MOV dbl(*SP(#0)), XAR3
         000007 BF   
    2205 000008 ED00          MOV dbl(*SP(#0)), XAR2
         00000a AF   
    2206 00000b ED6D          MOV dbl(*AR3(#2018)), XAR3
TMS320C55x Assembler PC v4.4.1 Wed Sep 13 16:33:23 2017

Tools Copyright (c) 1996-2012 Texas Instruments Incorporated
C:\Users\a0221074\AppData\Local\Temp\1618010                         PAGE   49

         00000d BF07 
         00000f E2   
    2207 000010 EB4D          MOV XAR3, dbl(*AR2(#1178))
         000012 B504 
         000014 9A   
    2208                      .dwpsn  file "C:/Users/a0221074/Desktop/C5000/IBM_Watson_TIdesign_workarea/CSL_bitbucket/c55_csl/c55x
    2209 000015 ED00          MOV dbl(*SP(#0)), XAR3
         000017 BF   
    2210 000018 ED00          MOV dbl(*SP(#0)), XAR2
         00001a AF   
    2211 00001b ED6D          MOV dbl(*AR3(#2016)), XAR3
         00001d BF07 
         00001f E0   
    2212 000020 EB4D          MOV XAR3, dbl(*AR2(#1176))
         000022 B504 
         000024 98   
    2213                      .dwpsn  file "C:/Users/a0221074/Desktop/C5000/IBM_Watson_TIdesign_workarea/CSL_bitbucket/c55_csl/c55x
    2214 000025 ED00          MOV dbl(*SP(#0)), XAR3
         000027 BF   
    2215 000028 A96D          MOV *AR3(#2020), AR1 ; |856| 
         00002a 07E4 
    2216 00002c C96D          MOV AR1, *AR3(#2000) ; |856| 
         00002e 07D0 
    2217                      .dwpsn  file "C:/Users/a0221074/Desktop/C5000/IBM_Watson_TIdesign_workarea/CSL_bitbucket/c55_csl/c55x
    2218 000030 E604          MOV #0, *SP(#2) ; |857| 
         000032 00   
    2219                      .dwpsn  file "C:/Users/a0221074/Desktop/C5000/IBM_Watson_TIdesign_workarea/CSL_bitbucket/c55_csl/c55x
    2220 000033 ED00          MOV dbl(*SP(#0)), XAR3
         000035 BF   
    2221 000036 A96D          MOV *AR3(#2000), AR1 ; |857| 
         000038 07D0 
    2222 00003a AA04          MOV *SP(#2), AR2 ; |857| 
    2223 00003c 12A8          CMPU AR2 >= AR1, TC1 ; |857| 
         00003e 94   
    2224 00003f 0464          BCC $C$L23,TC1 ; |857| 
         000041 28   
    2225                                                      ; branchcc occurs ; |857| 
    2226 000042       $C$L22:    
    2227 000042       $C$DW$L$_JAC_recover_backuped_net$2$B:
    2228                      .dwpsn  file "C:/Users/a0221074/Desktop/C5000/IBM_Watson_TIdesign_workarea/CSL_bitbucket/c55_csl/c55x
    2229 000042 A904          MOV *SP(#2), AR1 ; |858| 
    2230 000044 1490          AADD AR1, AR3 ; |858| 
         000046 B0   
    2231 000047 A96D          MOV *AR3(#2021), AR1 ; |858| 
         000049 07E5 
    2232 00004b ED00          MOV dbl(*SP(#0)), XAR3
         00004d BF   
    2233 00004e A404          MOV *SP(#2), T0 ; |858| 
    2234 000050 ED6D          MOV dbl(*AR3(#1998)), XAR3
         000052 BF07 
         000054 CE   
    2235 000055 C96B          MOV AR1, *AR3(T0) ; |858| 
    2236                      .dwpsn  file "C:/Users/a0221074/Desktop/C5000/IBM_Watson_TIdesign_workarea/CSL_bitbucket/c55_csl/c55x
    2237 000057 F704          ADD #1, *SP(#2) ; |857| 
         000059 0001 
TMS320C55x Assembler PC v4.4.1 Wed Sep 13 16:33:23 2017

Tools Copyright (c) 1996-2012 Texas Instruments Incorporated
C:\Users\a0221074\AppData\Local\Temp\1618010                         PAGE   50

    2238                      .dwpsn  file "C:/Users/a0221074/Desktop/C5000/IBM_Watson_TIdesign_workarea/CSL_bitbucket/c55_csl/c55x
    2239 00005b ED00          MOV dbl(*SP(#0)), XAR3
         00005d BF   
    2240 00005e AA04          MOV *SP(#2), AR2 ; |857| 
    2241 000060 A96D          MOV *AR3(#2000), AR1 ; |857| 
         000062 07D0 
    2242 000064 12A4          CMPU AR2 < AR1, TC1 ; |857| 
         000066 94   
    2243 000067 0464          BCC $C$L22,TC1 ; |857| 
         000069 D8   
    2244                                                      ; branchcc occurs ; |857| 
    2245 00006a       $C$DW$L$_JAC_recover_backuped_net$2$E:
    2246                      .dwpsn  file "C:/Users/a0221074/Desktop/C5000/IBM_Watson_TIdesign_workarea/CSL_bitbucket/c55_csl/c55x
    2247 00006a       $C$L23:    
    2248 00006a 4E03          AADD #3, SP
    2249                      .dwcfi  cfa_offset, 1
    2250              $C$DW$287       .dwtag  DW_TAG_TI_branch
    2251                      .dwattr $C$DW$287, DW_AT_low_pc(0x00)
    2252                      .dwattr $C$DW$287, DW_AT_TI_return
    2253 00006c 4804          RET
    2254                                                      ; return occurs
    2255              
    2256              $C$DW$288       .dwtag  DW_TAG_TI_loop
    2257                      .dwattr $C$DW$288, DW_AT_name("C:\\Users\\a0221074\\AppData\\Local\\Temp\\1618010:$C$L22:1:1505334800
    2258                      .dwattr $C$DW$288, DW_AT_TI_begin_file("C:/Users/a0221074/Desktop/C5000/IBM_Watson_TIdesign_workarea/
    2259                      .dwattr $C$DW$288, DW_AT_TI_begin_line(0x359)
    2260                      .dwattr $C$DW$288, DW_AT_TI_end_line(0x35a)
    2261              $C$DW$289       .dwtag  DW_TAG_TI_loop_range
    2262                      .dwattr $C$DW$289, DW_AT_low_pc($C$DW$L$_JAC_recover_backuped_net$2$B)
    2263                      .dwattr $C$DW$289, DW_AT_high_pc($C$DW$L$_JAC_recover_backuped_net$2$E)
    2264                      .dwendtag $C$DW$288
    2265              
    2266                      .dwattr $C$DW$283, DW_AT_TI_end_file("C:/Users/a0221074/Desktop/C5000/IBM_Watson_TIdesign_workarea/CS
    2267                      .dwattr $C$DW$283, DW_AT_TI_end_line(0x35b)
    2268                      .dwattr $C$DW$283, DW_AT_TI_end_column(0x01)
    2269                      .dwendentry
    2270                      .dwendtag $C$DW$283
    2271              
    2272 000000               .sect   ".text:_cap_in_check"
    2273                      .clink
    2274              
    2275              $C$DW$290       .dwtag  DW_TAG_subprogram, DW_AT_name("cap_in_check")
    2276                      .dwattr $C$DW$290, DW_AT_low_pc(_cap_in_check)
    2277                      .dwattr $C$DW$290, DW_AT_high_pc(0x00)
    2278                      .dwattr $C$DW$290, DW_AT_TI_symbol_name("_cap_in_check")
    2279                      .dwattr $C$DW$290, DW_AT_type(*$C$DW$T$8)
    2280                      .dwattr $C$DW$290, DW_AT_TI_begin_file("C:/Users/a0221074/Desktop/C5000/IBM_Watson_TIdesign_workarea/
    2281                      .dwattr $C$DW$290, DW_AT_TI_begin_line(0x35f)
    2282                      .dwattr $C$DW$290, DW_AT_TI_begin_column(0x0e)
    2283                      .dwattr $C$DW$290, DW_AT_TI_max_frame_size(0x06)
    2284                      .dwpsn  file "C:/Users/a0221074/Desktop/C5000/IBM_Watson_TIdesign_workarea/CSL_bitbucket/c55_csl/c55x
    2285              
    2286                      .dwfde $C$DW$CIE, _cap_in_check
    2287              $C$DW$291       .dwtag  DW_TAG_formal_parameter, DW_AT_name("mesg")
    2288                      .dwattr $C$DW$291, DW_AT_TI_symbol_name("_mesg")
TMS320C55x Assembler PC v4.4.1 Wed Sep 13 16:33:23 2017

Tools Copyright (c) 1996-2012 Texas Instruments Incorporated
C:\Users\a0221074\AppData\Local\Temp\1618010                         PAGE   51

    2289                      .dwattr $C$DW$291, DW_AT_type(*$C$DW$T$78)
    2290                      .dwattr $C$DW$291, DW_AT_location[DW_OP_reg17]
    2291              $C$DW$292       .dwtag  DW_TAG_formal_parameter, DW_AT_name("value")
    2292                      .dwattr $C$DW$292, DW_AT_TI_symbol_name("_value")
    2293                      .dwattr $C$DW$292, DW_AT_type(*$C$DW$T$20)
    2294                      .dwattr $C$DW$292, DW_AT_location[DW_OP_reg12]
    2295              $C$DW$293       .dwtag  DW_TAG_formal_parameter, DW_AT_name("max_mem")
    2296                      .dwattr $C$DW$293, DW_AT_TI_symbol_name("_max_mem")
    2297                      .dwattr $C$DW$293, DW_AT_type(*$C$DW$T$20)
    2298                      .dwattr $C$DW$293, DW_AT_location[DW_OP_reg13]
    2299              ;*******************************************************************************
    2300              ;* FUNCTION NAME: cap_in_check                                                 *
    2301              ;*                                                                             *
    2302              ;*   Function Uses Regs : T0,T1,AR0,XAR0,AR1,AR2,SP,TC1,M40,SATA,SATD,RDM,FRCT,*
    2303              ;*                        SMUL                                                 *
    2304              ;*   Stack Frame        : Compact (No Frame Pointer, w/ debug)                 *
    2305              ;*   Total Frame Size   : 6 words                                              *
    2306              ;*                        (2 return address/alignment)                         *
    2307              ;*                        (4 local values)                                     *
    2308              ;*   Min System Stack   : 1 word                                               *
    2309              ;*******************************************************************************
    2310 000000       _cap_in_check:
    2311                      .dwcfi  cfa_offset, 1
    2312                      .dwcfi  save_reg_to_mem, 91, -1
    2313 000000 4EFB          AADD #-5, SP
    2314                      .dwcfi  cfa_offset, 6
    2315              $C$DW$294       .dwtag  DW_TAG_variable, DW_AT_name("mesg")
    2316                      .dwattr $C$DW$294, DW_AT_TI_symbol_name("_mesg")
    2317                      .dwattr $C$DW$294, DW_AT_type(*$C$DW$T$78)
    2318                      .dwattr $C$DW$294, DW_AT_location[DW_OP_bregx 0x24 0]
    2319              $C$DW$295       .dwtag  DW_TAG_variable, DW_AT_name("value")
    2320                      .dwattr $C$DW$295, DW_AT_TI_symbol_name("_value")
    2321                      .dwattr $C$DW$295, DW_AT_type(*$C$DW$T$20)
    2322                      .dwattr $C$DW$295, DW_AT_location[DW_OP_bregx 0x24 2]
    2323              $C$DW$296       .dwtag  DW_TAG_variable, DW_AT_name("max_mem")
    2324                      .dwattr $C$DW$296, DW_AT_TI_symbol_name("_max_mem")
    2325                      .dwattr $C$DW$296, DW_AT_type(*$C$DW$T$20)
    2326                      .dwattr $C$DW$296, DW_AT_location[DW_OP_bregx 0x24 3]
    2327 000002 C506          MOV T1, *SP(#3) ; |864| 
    2328 000004 C404          MOV T0, *SP(#2) ; |864| 
    2329 000006 EB00          MOV XAR0, dbl(*SP(#0))
         000008 85   
    2330                      .dwpsn  file "C:/Users/a0221074/Desktop/C5000/IBM_Watson_TIdesign_workarea/CSL_bitbucket/c55_csl/c55x
    2331 000009 A906          MOV *SP(#3), AR1 ; |868| 
    2332 00000b AA04          MOV *SP(#2), AR2 ; |868| 
    2333 00000d 1298          CMPU AR2 <= AR1, TC1 ; |868| 
         00000f A4   
    2334 000010 6264          BCC $C$L24,TC1 ; |868| 
    2335                                                      ; branchcc occurs ; |868| 
    2336                      .dwpsn  file "C:/Users/a0221074/Desktop/C5000/IBM_Watson_TIdesign_workarea/CSL_bitbucket/c55_csl/c55x
    2337 000012 3C04          MOV #0, T0
    2338 000014 4A02          B $C$L25  ; |873| 
    2339                                                      ; branch occurs ; |873| 
    2340 000016       $C$L24:    
    2341                      .dwpsn  file "C:/Users/a0221074/Desktop/C5000/IBM_Watson_TIdesign_workarea/CSL_bitbucket/c55_csl/c55x
TMS320C55x Assembler PC v4.4.1 Wed Sep 13 16:33:23 2017

Tools Copyright (c) 1996-2012 Texas Instruments Incorporated
C:\Users\a0221074\AppData\Local\Temp\1618010                         PAGE   52

    2342 000016 3C14          MOV #1, T0
    2343 000018       $C$L25:    
    2344                      .dwpsn  file "C:/Users/a0221074/Desktop/C5000/IBM_Watson_TIdesign_workarea/CSL_bitbucket/c55_csl/c55x
    2345 000018 4E05          AADD #5, SP
    2346                      .dwcfi  cfa_offset, 1
    2347              $C$DW$297       .dwtag  DW_TAG_TI_branch
    2348                      .dwattr $C$DW$297, DW_AT_low_pc(0x00)
    2349                      .dwattr $C$DW$297, DW_AT_TI_return
    2350 00001a 4804          RET
    2351                                                      ; return occurs
    2352                      .dwattr $C$DW$290, DW_AT_TI_end_file("C:/Users/a0221074/Desktop/C5000/IBM_Watson_TIdesign_workarea/CS
    2353                      .dwattr $C$DW$290, DW_AT_TI_end_line(0x36c)
    2354                      .dwattr $C$DW$290, DW_AT_TI_end_column(0x01)
    2355                      .dwendentry
    2356                      .dwendtag $C$DW$290
    2357              
    2358 000000               .sect   ".text:_JAC_make_net"
    2359                      .clink
    2360              
    2361              $C$DW$298       .dwtag  DW_TAG_subprogram, DW_AT_name("JAC_make_net")
    2362                      .dwattr $C$DW$298, DW_AT_low_pc(_JAC_make_net)
    2363                      .dwattr $C$DW$298, DW_AT_high_pc(0x00)
    2364                      .dwattr $C$DW$298, DW_AT_TI_symbol_name("_JAC_make_net")
    2365                      .dwattr $C$DW$298, DW_AT_type(*$C$DW$T$96)
    2366                      .dwattr $C$DW$298, DW_AT_TI_begin_file("C:/Users/a0221074/Desktop/C5000/IBM_Watson_TIdesign_workarea/
    2367                      .dwattr $C$DW$298, DW_AT_TI_begin_line(0x373)
    2368                      .dwattr $C$DW$298, DW_AT_TI_begin_column(0x1e)
    2369                      .dwattr $C$DW$298, DW_AT_TI_max_frame_size(0x16)
    2370                      .dwpsn  file "C:/Users/a0221074/Desktop/C5000/IBM_Watson_TIdesign_workarea/CSL_bitbucket/c55_csl/c55x
    2371              
    2372                      .dwfde $C$DW$CIE, _JAC_make_net
    2373              $C$DW$299       .dwtag  DW_TAG_formal_parameter, DW_AT_name("gv")
    2374                      .dwattr $C$DW$299, DW_AT_TI_symbol_name("_gv")
    2375                      .dwattr $C$DW$299, DW_AT_type(*$C$DW$T$98)
    2376                      .dwattr $C$DW$299, DW_AT_location[DW_OP_reg17]
    2377              $C$DW$300       .dwtag  DW_TAG_formal_parameter, DW_AT_name("n")
    2378                      .dwattr $C$DW$300, DW_AT_TI_symbol_name("_n")
    2379                      .dwattr $C$DW$300, DW_AT_type(*$C$DW$T$20)
    2380                      .dwattr $C$DW$300, DW_AT_location[DW_OP_reg12]
    2381              $C$DW$301       .dwtag  DW_TAG_formal_parameter, DW_AT_name("mem_count")
    2382                      .dwattr $C$DW$301, DW_AT_TI_symbol_name("_mem_count")
    2383                      .dwattr $C$DW$301, DW_AT_type(*$C$DW$T$22)
    2384                      .dwattr $C$DW$301, DW_AT_location[DW_OP_reg19]
    2385              $C$DW$302       .dwtag  DW_TAG_formal_parameter, DW_AT_name("mem_base")
    2386                      .dwattr $C$DW$302, DW_AT_TI_symbol_name("_mem_base")
    2387                      .dwattr $C$DW$302, DW_AT_type(*$C$DW$T$21)
    2388                      .dwattr $C$DW$302, DW_AT_location[DW_OP_reg21]
    2389              $C$DW$303       .dwtag  DW_TAG_formal_parameter, DW_AT_name("max_mem")
    2390                      .dwattr $C$DW$303, DW_AT_TI_symbol_name("_max_mem")
    2391                      .dwattr $C$DW$303, DW_AT_type(*$C$DW$T$20)
    2392                      .dwattr $C$DW$303, DW_AT_location[DW_OP_reg13]
    2393              ;*******************************************************************************
    2394              ;* FUNCTION NAME: JAC_make_net                                                 *
    2395              ;*                                                                             *
    2396              ;*   Function Uses Regs : AC0,AC0,AC1,AC1,T0,T1,AR0,XAR0,AR1,XAR1,AR2,XAR2,AR3,*
TMS320C55x Assembler PC v4.4.1 Wed Sep 13 16:33:23 2017

Tools Copyright (c) 1996-2012 Texas Instruments Incorporated
C:\Users\a0221074\AppData\Local\Temp\1618010                         PAGE   53

    2397              ;*                        XAR3,SP,CARRY,TC1,M40,SATA,SATD,RDM,FRCT,SMUL        *
    2398              ;*   Stack Frame        : Compact (No Frame Pointer, w/ debug)                 *
    2399              ;*   Total Frame Size   : 22 words                                             *
    2400              ;*                        (2 return address/alignment)                         *
    2401              ;*                        (20 local values)                                    *
    2402              ;*   Min System Stack   : 1 word                                               *
    2403              ;*******************************************************************************
    2404 000000       _JAC_make_net:
    2405                      .dwcfi  cfa_offset, 1
    2406                      .dwcfi  save_reg_to_mem, 91, -1
    2407 000000 4EEB          AADD #-21, SP
    2408                      .dwcfi  cfa_offset, 22
    2409              $C$DW$304       .dwtag  DW_TAG_variable, DW_AT_name("gv")
    2410                      .dwattr $C$DW$304, DW_AT_TI_symbol_name("_gv")
    2411                      .dwattr $C$DW$304, DW_AT_type(*$C$DW$T$98)
    2412                      .dwattr $C$DW$304, DW_AT_location[DW_OP_bregx 0x24 0]
    2413              $C$DW$305       .dwtag  DW_TAG_variable, DW_AT_name("n")
    2414                      .dwattr $C$DW$305, DW_AT_TI_symbol_name("_n")
    2415                      .dwattr $C$DW$305, DW_AT_type(*$C$DW$T$20)
    2416                      .dwattr $C$DW$305, DW_AT_location[DW_OP_bregx 0x24 2]
    2417              $C$DW$306       .dwtag  DW_TAG_variable, DW_AT_name("mem_count")
    2418                      .dwattr $C$DW$306, DW_AT_TI_symbol_name("_mem_count")
    2419                      .dwattr $C$DW$306, DW_AT_type(*$C$DW$T$22)
    2420                      .dwattr $C$DW$306, DW_AT_location[DW_OP_bregx 0x24 4]
    2421              $C$DW$307       .dwtag  DW_TAG_variable, DW_AT_name("mem_base")
    2422                      .dwattr $C$DW$307, DW_AT_TI_symbol_name("_mem_base")
    2423                      .dwattr $C$DW$307, DW_AT_type(*$C$DW$T$21)
    2424                      .dwattr $C$DW$307, DW_AT_location[DW_OP_bregx 0x24 6]
    2425              $C$DW$308       .dwtag  DW_TAG_variable, DW_AT_name("max_mem")
    2426                      .dwattr $C$DW$308, DW_AT_TI_symbol_name("_max_mem")
    2427                      .dwattr $C$DW$308, DW_AT_type(*$C$DW$T$20)
    2428                      .dwattr $C$DW$308, DW_AT_location[DW_OP_bregx 0x24 8]
    2429              $C$DW$309       .dwtag  DW_TAG_variable, DW_AT_name("cnt")
    2430                      .dwattr $C$DW$309, DW_AT_TI_symbol_name("_cnt")
    2431                      .dwattr $C$DW$309, DW_AT_type(*$C$DW$T$8)
    2432                      .dwattr $C$DW$309, DW_AT_location[DW_OP_bregx 0x24 9]
    2433              $C$DW$310       .dwtag  DW_TAG_variable, DW_AT_name("i")
    2434                      .dwattr $C$DW$310, DW_AT_TI_symbol_name("_i")
    2435                      .dwattr $C$DW$310, DW_AT_type(*$C$DW$T$8)
    2436                      .dwattr $C$DW$310, DW_AT_location[DW_OP_bregx 0x24 10]
    2437              $C$DW$311       .dwtag  DW_TAG_variable, DW_AT_name("p_cnt")
    2438                      .dwattr $C$DW$311, DW_AT_TI_symbol_name("_p_cnt")
    2439                      .dwattr $C$DW$311, DW_AT_type(*$C$DW$T$22)
    2440                      .dwattr $C$DW$311, DW_AT_location[DW_OP_bregx 0x24 12]
    2441              $C$DW$312       .dwtag  DW_TAG_variable, DW_AT_name("s")
    2442                      .dwattr $C$DW$312, DW_AT_TI_symbol_name("_s")
    2443                      .dwattr $C$DW$312, DW_AT_type(*$C$DW$T$20)
    2444                      .dwattr $C$DW$312, DW_AT_location[DW_OP_bregx 0x24 14]
    2445              $C$DW$313       .dwtag  DW_TAG_variable, DW_AT_name("total_words")
    2446                      .dwattr $C$DW$313, DW_AT_TI_symbol_name("_total_words")
    2447                      .dwattr $C$DW$313, DW_AT_type(*$C$DW$T$20)
    2448                      .dwattr $C$DW$313, DW_AT_location[DW_OP_bregx 0x24 15]
    2449              $C$DW$314       .dwtag  DW_TAG_variable, DW_AT_name("p_sym")
    2450                      .dwattr $C$DW$314, DW_AT_TI_symbol_name("_p_sym")
    2451                      .dwattr $C$DW$314, DW_AT_type(*$C$DW$T$125)
TMS320C55x Assembler PC v4.4.1 Wed Sep 13 16:33:23 2017

Tools Copyright (c) 1996-2012 Texas Instruments Incorporated
C:\Users\a0221074\AppData\Local\Temp\1618010                         PAGE   54

    2452                      .dwattr $C$DW$314, DW_AT_location[DW_OP_bregx 0x24 16]
    2453              $C$DW$315       .dwtag  DW_TAG_variable, DW_AT_name("p_sym0")
    2454                      .dwattr $C$DW$315, DW_AT_TI_symbol_name("_p_sym0")
    2455                      .dwattr $C$DW$315, DW_AT_type(*$C$DW$T$125)
    2456                      .dwattr $C$DW$315, DW_AT_location[DW_OP_bregx 0x24 18]
    2457 000002 C510          MOV T1, *SP(#8) ; |885| 
    2458 000004 EB0C          MOV XAR2, dbl(*SP(#6))
         000006 A5   
    2459 000007 EB08          MOV XAR1, dbl(*SP(#4))
         000009 95   
    2460 00000a C404          MOV T0, *SP(#2) ; |885| 
    2461 00000c EB00          MOV XAR0, dbl(*SP(#0))
         00000e 85   
    2462                      .dwpsn  file "C:/Users/a0221074/Desktop/C5000/IBM_Watson_TIdesign_workarea/CSL_bitbucket/c55_csl/c55x
    2463 00000f ED08          MOV dbl(*SP(#4)), XAR3
         000011 BF   
    2464 000012 DF61          MOV uns(*AR3), AC0 ; |892| 
         000014 05   
    2465 000015 900A          MOV AC0, XAR2
    2466 000017 ED0C          MOV dbl(*SP(#6)), XAR3
         000019 BF   
    2467 00001a 14A1          AADD XAR2, XAR3 ; |892| 
         00001c B0   
    2468 00001d ED00          MOV dbl(*SP(#0)), XAR2
         00001f AF   
    2469 000020 EB4D          MOV XAR3, dbl(*AR2(#1178))
         000022 B504 
         000024 9A   
    2470                      .dwpsn  file "C:/Users/a0221074/Desktop/C5000/IBM_Watson_TIdesign_workarea/CSL_bitbucket/c55_csl/c55x
    2471 000025 ED00          MOV dbl(*SP(#0)), XAR3
         000027 BF   
    2472 000028 ED00          MOV dbl(*SP(#0)), XAR2
         00002a AF   
    2473 00002b ED6D          MOV dbl(*AR3(#1178)), XAR3
         00002d BF04 
         00002f 9A   
    2474 000030 EB4D          MOV XAR3, dbl(*AR2(#1176))
         000032 B504 
         000034 98   
    2475                      .dwpsn  file "C:/Users/a0221074/Desktop/C5000/IBM_Watson_TIdesign_workarea/CSL_bitbucket/c55_csl/c55x
    2476 000035 ED00          MOV dbl(*SP(#0)), XAR3
         000037 BF   
    2477 000038 ED6D          MOV dbl(*AR3(#1176)), XAR3
         00003a BF04 
         00003c 98   
    2478 00003d A904          MOV *SP(#2), AR1 ; |895| 
    2479 00003f 4019          ADD #1, AR1 ; |895| 
    2480 000041 C973          MOV AR1, *AR3(short(#1)) ; |895| 
    2481                      .dwpsn  file "C:/Users/a0221074/Desktop/C5000/IBM_Watson_TIdesign_workarea/CSL_bitbucket/c55_csl/c55x
    2482 000043 ED00          MOV dbl(*SP(#0)), XAR3
         000045 BF   
    2483 000046 ED6D          MOV dbl(*AR3(#1176)), XAR3
         000048 BF04 
         00004a 98   
    2484 00004b A973          MOV *AR3(short(#1)), AR1 ; |897| 
TMS320C55x Assembler PC v4.4.1 Wed Sep 13 16:33:23 2017

Tools Copyright (c) 1996-2012 Texas Instruments Incorporated
C:\Users\a0221074\AppData\Local\Temp\1618010                         PAGE   55

    2485 00004d ED00          MOV dbl(*SP(#0)), XAR3
         00004f BF   
    2486 000050 ED6D          MOV dbl(*AR3(#1176)), XAR3
         000052 BF04 
         000054 98   
    2487 000055 4029          ADD #2, AR1 ; |897| 
    2488 000057 7DFF          AND #0xffff, AR1, AC1 ; |897| 
         000059 FF19 
    2489              
    2490 00005b A973          MOV *AR3(short(#1)), AR1 ; |897| 
    2491 00005d 1117  ||      SFTL AC1, #1, AC0 ; |897| 
         00005f 01   
    2492              
    2493 000060 4219          SUB #1, AR1 ; |897| 
    2494 000062 2510  ||      ADD AC1, AC0 ; |897| 
    2495              
    2496 000064 7DFF          AND #0xffff, AR1, AC1 ; |897| 
         000066 FF19 
    2497 000068 2410          ADD AC1, AC0 ; |897| 
    2498 00006a 4080          ADD #8, AC0 ; |897| 
    2499 00006c C01E          MOV AC0, *SP(#15) ; |897| 
    2500                      .dwpsn  file "C:/Users/a0221074/Desktop/C5000/IBM_Watson_TIdesign_workarea/CSL_bitbucket/c55_csl/c55x
    2501 00006e ED08          MOV dbl(*SP(#4)), XAR3
         000070 BF   
    2502 000071 2209          MOV AC0, AR1
    2503 000073 D661          ADD *AR3, AR1, AR1 ; |898| 
         000075 99   
    2504 000076 C961          MOV AR1, *AR3 ; |898| 
    2505                      .dwpsn  file "C:/Users/a0221074/Desktop/C5000/IBM_Watson_TIdesign_workarea/CSL_bitbucket/c55_csl/c55x
    2506 000078 ED08          MOV dbl(*SP(#4)), XAR3
         00007a BF   
    2507 00007b A510          MOV *SP(#8), T1 ; |902| 
    2508 00007d EC31          AMOV #$C$FSL2, XAR0 ; |902| 
         00007f 8E00 
         000081 0004+
    2509 000083 A461          MOV *AR3, T0 ; |902| 
    2510              $C$DW$316       .dwtag  DW_TAG_TI_branch
    2511                      .dwattr $C$DW$316, DW_AT_low_pc(0x00)
    2512                      .dwattr $C$DW$316, DW_AT_name("_cap_in_check")
    2513                      .dwattr $C$DW$316, DW_AT_TI_call
    2514 000085 6C00          CALL #_cap_in_check ; |902| 
         000087 0000+
    2515                                                      ; call occurs [#_cap_in_check] ; |902| 
    2516 000089 6394          BCC $C$L26,T0 != #0 ; |902| 
    2517                                                      ; branchcc occurs ; |902| 
    2518                      .dwpsn  file "C:/Users/a0221074/Desktop/C5000/IBM_Watson_TIdesign_workarea/CSL_bitbucket/c55_csl/c55x
    2519 00008b 7602          MOV #602, T0 ; |902| 
         00008d 5A48 
    2520 00008f 0601          B $C$L31  ; |902| 
         000091 92   
    2521                                                      ; branch occurs ; |902| 
    2522 000092       $C$L26:    
    2523                      .dwpsn  file "C:/Users/a0221074/Desktop/C5000/IBM_Watson_TIdesign_workarea/CSL_bitbucket/c55_csl/c55x
    2524 000092 ED00          MOV dbl(*SP(#0)), XAR3
         000094 BF   
TMS320C55x Assembler PC v4.4.1 Wed Sep 13 16:33:23 2017

Tools Copyright (c) 1996-2012 Texas Instruments Incorporated
C:\Users\a0221074\AppData\Local\Temp\1618010                         PAGE   56

    2525 000095 ED00          MOV dbl(*SP(#0)), XAR2
         000097 AF   
    2526 000098 ED6D          MOV dbl(*AR3(#2016)), XAR3
         00009a BF07 
         00009c E0   
    2527 00009d ED4D          MOV dbl(*AR2(#1176)), XAR2
         00009f AF04 
         0000a1 98   
    2528 0000a2 8061          MOV *AR3, *AR2 ; |905| 
         0000a4 04   
    2529                      .dwpsn  file "C:/Users/a0221074/Desktop/C5000/IBM_Watson_TIdesign_workarea/CSL_bitbucket/c55_csl/c55x
    2530 0000a5 ED00          MOV dbl(*SP(#0)), XAR3
         0000a7 BF   
    2531 0000a8 ED6D          MOV dbl(*AR3(#1176)), XAR3
         0000aa BF04 
         0000ac 98   
    2532 0000ad E675          MOV #0, *AR3(short(#2)) ; |906| 
         0000af 00   
    2533                      .dwpsn  file "C:/Users/a0221074/Desktop/C5000/IBM_Watson_TIdesign_workarea/CSL_bitbucket/c55_csl/c55x
    2534 0000b0 ED00          MOV dbl(*SP(#0)), XAR3
         0000b2 BF   
    2535 0000b3 ED6D          MOV dbl(*AR3(#2016)), XAR3
         0000b5 BF07 
         0000b7 E0   
    2536 0000b8 A977          MOV *AR3(short(#3)), AR1 ; |907| 
    2537 0000ba ED00          MOV dbl(*SP(#0)), XAR3
         0000bc BF   
    2538 0000bd ED6D          MOV dbl(*AR3(#1176)), XAR3
         0000bf BF04 
         0000c1 98   
    2539 0000c2 C977          MOV AR1, *AR3(short(#3)) ; |907| 
    2540                      .dwpsn  file "C:/Users/a0221074/Desktop/C5000/IBM_Watson_TIdesign_workarea/CSL_bitbucket/c55_csl/c55x
    2541 0000c4 ED00          MOV dbl(*SP(#0)), XAR3
         0000c6 BF   
    2542 0000c7 ED6D          MOV dbl(*AR3(#2016)), XAR3
         0000c9 BF07 
         0000cb E0   
    2543 0000cc A979          MOV *AR3(short(#4)), AR1 ; |908| 
    2544 0000ce ED00          MOV dbl(*SP(#0)), XAR3
         0000d0 BF   
    2545 0000d1 ED6D          MOV dbl(*AR3(#1176)), XAR3
         0000d3 BF04 
         0000d5 98   
    2546 0000d6 C979          MOV AR1, *AR3(short(#4)) ; |908| 
    2547                      .dwpsn  file "C:/Users/a0221074/Desktop/C5000/IBM_Watson_TIdesign_workarea/CSL_bitbucket/c55_csl/c55x
    2548 0000d8 ED00          MOV dbl(*SP(#0)), XAR3
         0000da BF   
    2549 0000db ED6D          MOV dbl(*AR3(#1176)), XAR3
         0000dd BF04 
         0000df 98   
    2550 0000e0 A973          MOV *AR3(short(#1)), AR1 ; |911| 
    2551 0000e2 4079          ADD #7, AR1 ; |911| 
    2552 0000e4 C912          MOV AR1, *SP(#9) ; |911| 
    2553                      .dwpsn  file "C:/Users/a0221074/Desktop/C5000/IBM_Watson_TIdesign_workarea/CSL_bitbucket/c55_csl/c55x
    2554 0000e6 ED00          MOV dbl(*SP(#0)), XAR3
TMS320C55x Assembler PC v4.4.1 Wed Sep 13 16:33:23 2017

Tools Copyright (c) 1996-2012 Texas Instruments Incorporated
C:\Users\a0221074\AppData\Local\Temp\1618010                         PAGE   57

         0000e8 BF   
    2555 0000e9 ED6D          MOV dbl(*AR3(#1176)), XAR3
         0000eb BF04 
         0000ed 98   
    2556 0000ee A912          MOV *SP(#9), AR1 ; |914| 
    2557 0000f0 C97B          MOV AR1, *AR3(short(#5)) ; |914| 
    2558                      .dwpsn  file "C:/Users/a0221074/Desktop/C5000/IBM_Watson_TIdesign_workarea/CSL_bitbucket/c55_csl/c55x
    2559 0000f2 F712          ADD #3, *SP(#9) ; |917| 
         0000f4 0003 
    2560                      .dwpsn  file "C:/Users/a0221074/Desktop/C5000/IBM_Watson_TIdesign_workarea/CSL_bitbucket/c55_csl/c55x
    2561 0000f6 ED00          MOV dbl(*SP(#0)), XAR3
         0000f8 BF   
    2562 0000f9 ED6D          MOV dbl(*AR3(#1176)), XAR3
         0000fb BF04 
         0000fd 98   
    2563 0000fe A912          MOV *SP(#9), AR1 ; |918| 
    2564 000100 C97D          MOV AR1, *AR3(short(#6)) ; |918| 
    2565                      .dwpsn  file "C:/Users/a0221074/Desktop/C5000/IBM_Watson_TIdesign_workarea/CSL_bitbucket/c55_csl/c55x
    2566 000102 F712          ADD #3, *SP(#9) ; |919| 
         000104 0003 
    2567                      .dwpsn  file "C:/Users/a0221074/Desktop/C5000/IBM_Watson_TIdesign_workarea/CSL_bitbucket/c55_csl/c55x
    2568 000106 ED00          MOV dbl(*SP(#0)), XAR3
         000108 BF   
    2569 000109 ED6D          MOV dbl(*AR3(#1176)), XAR3
         00010b BF04 
         00010d 98   
    2570              
    2571 00010e 8E18          MOV XAR3, dbl(*SP(#12))
         000110 BB14 
         000112 B507 
    2572              ||      AADD #7, AR3 ; |921| 
    2573              
    2574 000114 E61C          MOV #0, *SP(#14) ; |921| 
         000116 00   
    2575 000117 4A17          B $C$L28  ; |921| 
    2576                                                      ; branch occurs ; |921| 
    2577 000119       $C$L27:    
    2578 000119       $C$DW$L$_JAC_make_net$4$B:
    2579                      .dwpsn  file "C:/Users/a0221074/Desktop/C5000/IBM_Watson_TIdesign_workarea/CSL_bitbucket/c55_csl/c55x
    2580 000119 ED18          MOV dbl(*SP(#12)), XAR3
         00011b BF   
    2581 00011c A912          MOV *SP(#9), AR1 ; |922| 
    2582 00011e C961          MOV AR1, *AR3 ; |922| 
    2583                      .dwpsn  file "C:/Users/a0221074/Desktop/C5000/IBM_Watson_TIdesign_workarea/CSL_bitbucket/c55_csl/c55x
    2584 000120 F712          ADD #3, *SP(#9) ; |923| 
         000122 0003 
    2585                      .dwpsn  file "C:/Users/a0221074/Desktop/C5000/IBM_Watson_TIdesign_workarea/CSL_bitbucket/c55_csl/c55x
    2586 000124 F71C          ADD #1, *SP(#14) ; |921| 
         000126 0001 
    2587 000128 ED18          MOV dbl(*SP(#12)), XAR3
         00012a BF   
    2588 00012b B463          AMAR *AR3+
    2589 00012d EB18          MOV XAR3, dbl(*SP(#12))
         00012f B5   
    2590 000130       $C$DW$L$_JAC_make_net$4$E:
TMS320C55x Assembler PC v4.4.1 Wed Sep 13 16:33:23 2017

Tools Copyright (c) 1996-2012 Texas Instruments Incorporated
C:\Users\a0221074\AppData\Local\Temp\1618010                         PAGE   58

    2591 000130       $C$L28:    
    2592 000130       $C$DW$L$_JAC_make_net$5$B:
    2593                      .dwpsn  file "C:/Users/a0221074/Desktop/C5000/IBM_Watson_TIdesign_workarea/CSL_bitbucket/c55_csl/c55x
    2594 000130 ED00          MOV dbl(*SP(#0)), XAR3
         000132 BF   
    2595 000133 ED6D          MOV dbl(*AR3(#1176)), XAR3
         000135 BF04 
         000137 98   
    2596 000138 AA1C          MOV *SP(#14), AR2 ; |921| 
    2597 00013a A973          MOV *AR3(short(#1)), AR1 ; |921| 
    2598 00013c 12A4          CMPU AR2 < AR1, TC1 ; |921| 
         00013e 94   
    2599 00013f 0464          BCC $C$L27,TC1 ; |921| 
         000141 D7   
    2600                                                      ; branchcc occurs ; |921| 
    2601 000142       $C$DW$L$_JAC_make_net$5$E:
    2602                      .dwpsn  file "C:/Users/a0221074/Desktop/C5000/IBM_Watson_TIdesign_workarea/CSL_bitbucket/c55_csl/c55x
    2603 000142 ED18          MOV dbl(*SP(#12)), XAR3
         000144 BF   
    2604 000145 EB20          MOV XAR3, dbl(*SP(#16))
         000147 B5   
    2605 000148 EB24          MOV XAR3, dbl(*SP(#18))
         00014a B5   
    2606                      .dwpsn  file "C:/Users/a0221074/Desktop/C5000/IBM_Watson_TIdesign_workarea/CSL_bitbucket/c55_csl/c55x
    2607 00014b ED20          MOV dbl(*SP(#16)), XAR3
         00014d BF   
    2608 00014e E661          MOV #0, *AR3 ; |929| 
         000150 00   
    2609                      .dwpsn  file "C:/Users/a0221074/Desktop/C5000/IBM_Watson_TIdesign_workarea/CSL_bitbucket/c55_csl/c55x
    2610 000151 ED20          MOV dbl(*SP(#16)), XAR3
         000153 BF   
    2611 000154 E673          MOV #1, *AR3(short(#1)) ; |930| 
         000156 01   
    2612                      .dwpsn  file "C:/Users/a0221074/Desktop/C5000/IBM_Watson_TIdesign_workarea/CSL_bitbucket/c55_csl/c55x
    2613 000157 ED20          MOV dbl(*SP(#16)), XAR3
         000159 BF   
    2614 00015a E675          MOV #0, *AR3(short(#2)) ; |931| 
         00015c 00   
    2615                      .dwpsn  file "C:/Users/a0221074/Desktop/C5000/IBM_Watson_TIdesign_workarea/CSL_bitbucket/c55_csl/c55x
    2616 00015d ED20          MOV dbl(*SP(#16)), XAR3
         00015f BF   
    2617              
    2618 000160 8E20          MOV XAR3, dbl(*SP(#16))
         000162 BB14 
         000164 B503 
    2619              ||      AADD #3, AR3 ; |932| 
    2620              
    2621                      .dwpsn  file "C:/Users/a0221074/Desktop/C5000/IBM_Watson_TIdesign_workarea/CSL_bitbucket/c55_csl/c55x
    2622 000166 E661          MOV #0, *AR3 ; |934| 
         000168 00   
    2623                      .dwpsn  file "C:/Users/a0221074/Desktop/C5000/IBM_Watson_TIdesign_workarea/CSL_bitbucket/c55_csl/c55x
    2624 000169 ED20          MOV dbl(*SP(#16)), XAR3
         00016b BF   
    2625 00016c E673          MOV #1, *AR3(short(#1)) ; |935| 
         00016e 01   
TMS320C55x Assembler PC v4.4.1 Wed Sep 13 16:33:23 2017

Tools Copyright (c) 1996-2012 Texas Instruments Incorporated
C:\Users\a0221074\AppData\Local\Temp\1618010                         PAGE   59

    2626                      .dwpsn  file "C:/Users/a0221074/Desktop/C5000/IBM_Watson_TIdesign_workarea/CSL_bitbucket/c55_csl/c55x
    2627 00016f ED00          MOV dbl(*SP(#0)), XAR3
         000171 BF   
    2628 000172 ED6D          MOV dbl(*AR3(#1176)), XAR3
         000174 BF04 
         000176 98   
    2629 000177 A973          MOV *AR3(short(#1)), AR1 ; |936| 
    2630 000179 ED20          MOV dbl(*SP(#16)), XAR3
         00017b BF   
    2631 00017c 4219          SUB #1, AR1 ; |936| 
    2632 00017e C975          MOV AR1, *AR3(short(#2)) ; |936| 
    2633                      .dwpsn  file "C:/Users/a0221074/Desktop/C5000/IBM_Watson_TIdesign_workarea/CSL_bitbucket/c55_csl/c55x
    2634 000180 ED20          MOV dbl(*SP(#16)), XAR3
         000182 BF   
    2635              
    2636 000183 8E20          MOV XAR3, dbl(*SP(#16))
         000185 BB14 
         000187 B503 
    2637              ||      AADD #3, AR3 ; |937| 
    2638              
    2639                      .dwpsn  file "C:/Users/a0221074/Desktop/C5000/IBM_Watson_TIdesign_workarea/CSL_bitbucket/c55_csl/c55x
    2640 000189 ED00          MOV dbl(*SP(#0)), XAR3
         00018b BF   
    2641 00018c A96D          MOV *AR3(#1158), AR1 ; |940| 
         00018e 0486 
    2642 000190 4219          SUB #1, AR1 ; |940| 
    2643 000192 C914          MOV AR1, *SP(#10) ; |940| 
    2644                      .dwpsn  file "C:/Users/a0221074/Desktop/C5000/IBM_Watson_TIdesign_workarea/CSL_bitbucket/c55_csl/c55x
    2645 000194 E61C          MOV #0, *SP(#14) ; |941| 
         000196 00   
    2646 000197 0600          B $C$L30  ; |941| 
         000199 53   
    2647                                                      ; branch occurs ; |941| 
    2648 00019a       $C$L29:    
    2649 00019a       $C$DW$L$_JAC_make_net$7$B:
    2650                      .dwpsn  file "C:/Users/a0221074/Desktop/C5000/IBM_Watson_TIdesign_workarea/CSL_bitbucket/c55_csl/c55x
    2651 00019a DF1C          MOV uns(*SP(#14)), AC1 ; |942| 
         00019c 15   
    2652 00019d 1A00          OR #0, AC1, AC0
         00019f 01   
    2653 0001a0 ED20          MOV dbl(*SP(#16)), XAR3
         0001a2 BF   
    2654 0001a3 1013          ADD AC1 << #1, AC0 ; |942| 
         0001a5 01   
    2655 0001a6 900A          MOV AC0, XAR2
    2656 0001a8 A414          MOV *SP(#10), T0 ; |942| 
    2657 0001aa 7C00          SUB #1, T0, AR1 ; |942| 
         0001ac 0194 
    2658              
    2659                      AADD XAR2, XAR3 ; |942| 
    2660 0001ae 8C14  ||      MOV AR1, *SP(#10) ; |942| 
         0001b0 B910 
         0001b2 A1   
    2661              
    2662 0001b3 ED00          MOV dbl(*SP(#0)), XAR2
TMS320C55x Assembler PC v4.4.1 Wed Sep 13 16:33:23 2017

Tools Copyright (c) 1996-2012 Texas Instruments Incorporated
C:\Users\a0221074\AppData\Local\Temp\1618010                         PAGE   60

         0001b5 AF   
    2663 0001b6 ED4D          MOV dbl(*AR2(#1152)), XAR2
         0001b8 AF04 
         0001ba 80   
    2664 0001bb 805D          MOV *AR2(T0), *AR3 ; |942| 
         0001bd 84   
    2665                      .dwpsn  file "C:/Users/a0221074/Desktop/C5000/IBM_Watson_TIdesign_workarea/CSL_bitbucket/c55_csl/c55x
    2666 0001be ED20          MOV dbl(*SP(#16)), XAR3
         0001c0 BF   
    2667 0001c1 DF1C          MOV uns(*SP(#14)), AC1 ; |944| 
         0001c3 15   
    2668 0001c4 1A00          OR #0, AC1, AC0
         0001c6 01   
    2669 0001c7 1013          ADD AC1 << #1, AC0 ; |944| 
         0001c9 01   
    2670 0001ca 900A          MOV AC0, XAR2
    2671 0001cc 14A1          AADD XAR2, XAR3 ; |944| 
         0001ce B0   
    2672 0001cf E673          MOV #1, *AR3(short(#1)) ; |944| 
         0001d1 01   
    2673                      .dwpsn  file "C:/Users/a0221074/Desktop/C5000/IBM_Watson_TIdesign_workarea/CSL_bitbucket/c55_csl/c55x
    2674 0001d2 DF1C          MOV uns(*SP(#14)), AC1 ; |945| 
         0001d4 15   
    2675 0001d5 ED20          MOV dbl(*SP(#16)), XAR3
         0001d7 BF   
    2676 0001d8 1A00          OR #0, AC1, AC0
         0001da 01   
    2677 0001db 1013          ADD AC1 << #1, AC0 ; |945| 
         0001dd 01   
    2678 0001de 900A          MOV AC0, XAR2
    2679 0001e0 A91C          MOV *SP(#14), AR1 ; |945| 
    2680              
    2681 0001e2 14A1          AADD XAR2, XAR3 ; |945| 
         0001e4 B0   
    2682 0001e5 4119  ||      ADD #1, AR1 ; |945| 
    2683              
    2684 0001e7 C975          MOV AR1, *AR3(short(#2)) ; |945| 
    2685                      .dwpsn  file "C:/Users/a0221074/Desktop/C5000/IBM_Watson_TIdesign_workarea/CSL_bitbucket/c55_csl/c55x
    2686 0001e9 F71C          ADD #1, *SP(#14) ; |941| 
         0001eb 0001 
    2687 0001ed       $C$DW$L$_JAC_make_net$7$E:
    2688 0001ed       $C$L30:    
    2689 0001ed       $C$DW$L$_JAC_make_net$8$B:
    2690                      .dwpsn  file "C:/Users/a0221074/Desktop/C5000/IBM_Watson_TIdesign_workarea/CSL_bitbucket/c55_csl/c55x
    2691 0001ed ED00          MOV dbl(*SP(#0)), XAR3
         0001ef BF   
    2692 0001f0 ED6D          MOV dbl(*AR3(#1176)), XAR3
         0001f2 BF04 
         0001f4 98   
    2693 0001f5 AA1C          MOV *SP(#14), AR2 ; |941| 
    2694 0001f7 A973          MOV *AR3(short(#1)), AR1 ; |941| 
    2695 0001f9 12A4          CMPU AR2 < AR1, TC1 ; |941| 
         0001fb 94   
    2696 0001fc 0464          BCC $C$L29,TC1 ; |941| 
         0001fe 9B   
TMS320C55x Assembler PC v4.4.1 Wed Sep 13 16:33:23 2017

Tools Copyright (c) 1996-2012 Texas Instruments Incorporated
C:\Users\a0221074\AppData\Local\Temp\1618010                         PAGE   61

    2697                                                      ; branchcc occurs ; |941| 
    2698 0001ff       $C$DW$L$_JAC_make_net$8$E:
    2699                      .dwpsn  file "C:/Users/a0221074/Desktop/C5000/IBM_Watson_TIdesign_workarea/CSL_bitbucket/c55_csl/c55x
    2700 0001ff ED00          MOV dbl(*SP(#0)), XAR3
         000201 BF   
    2701 000202 ED6D          MOV dbl(*AR3(#1176)), XAR3
         000204 BF04 
         000206 98   
    2702 000207 A973          MOV *AR3(short(#1)), AR1 ; |947| 
    2703 000209 4219          SUB #1, AR1 ; |947| 
    2704 00020b ED20          MOV dbl(*SP(#16)), XAR3
         00020d BF   
    2705 00020e 7DFF          AND #0xffff, AR1, AC1 ; |947| 
         000210 FF19 
    2706 000212 1A00          OR #0, AC1, AC0
         000214 01   
    2707 000215 1013          ADD AC1 << #1, AC0 ; |947| 
         000217 01   
    2708 000218 900A          MOV AC0, XAR2
    2709 00021a 14A1          AADD XAR2, XAR3 ; |947| 
         00021c B0   
    2710 00021d E673          MOV #0, *AR3(short(#1)) ; |947| 
         00021f 00   
    2711                      .dwpsn  file "C:/Users/a0221074/Desktop/C5000/IBM_Watson_TIdesign_workarea/CSL_bitbucket/c55_csl/c55x
    2712 000220 7600          MOV #100, T0 ; |952| 
         000222 6448 
    2713 000224       $C$L31:    
    2714                      .dwpsn  file "C:/Users/a0221074/Desktop/C5000/IBM_Watson_TIdesign_workarea/CSL_bitbucket/c55_csl/c55x
    2715 000224 4E15          AADD #21, SP
    2716                      .dwcfi  cfa_offset, 1
    2717              $C$DW$317       .dwtag  DW_TAG_TI_branch
    2718                      .dwattr $C$DW$317, DW_AT_low_pc(0x00)
    2719                      .dwattr $C$DW$317, DW_AT_TI_return
    2720 000226 4804          RET
    2721                                                      ; return occurs
    2722              
    2723              $C$DW$318       .dwtag  DW_TAG_TI_loop
    2724                      .dwattr $C$DW$318, DW_AT_name("C:\\Users\\a0221074\\AppData\\Local\\Temp\\1618010:$C$L30:1:1505334800
    2725                      .dwattr $C$DW$318, DW_AT_TI_begin_file("C:/Users/a0221074/Desktop/C5000/IBM_Watson_TIdesign_workarea/
    2726                      .dwattr $C$DW$318, DW_AT_TI_begin_line(0x3ad)
    2727                      .dwattr $C$DW$318, DW_AT_TI_end_line(0x3b1)
    2728              $C$DW$319       .dwtag  DW_TAG_TI_loop_range
    2729                      .dwattr $C$DW$319, DW_AT_low_pc($C$DW$L$_JAC_make_net$8$B)
    2730                      .dwattr $C$DW$319, DW_AT_high_pc($C$DW$L$_JAC_make_net$8$E)
    2731              $C$DW$320       .dwtag  DW_TAG_TI_loop_range
    2732                      .dwattr $C$DW$320, DW_AT_low_pc($C$DW$L$_JAC_make_net$7$B)
    2733                      .dwattr $C$DW$320, DW_AT_high_pc($C$DW$L$_JAC_make_net$7$E)
    2734                      .dwendtag $C$DW$318
    2735              
    2736              
    2737              $C$DW$321       .dwtag  DW_TAG_TI_loop
    2738                      .dwattr $C$DW$321, DW_AT_name("C:\\Users\\a0221074\\AppData\\Local\\Temp\\1618010:$C$L28:1:1505334800
    2739                      .dwattr $C$DW$321, DW_AT_TI_begin_file("C:/Users/a0221074/Desktop/C5000/IBM_Watson_TIdesign_workarea/
    2740                      .dwattr $C$DW$321, DW_AT_TI_begin_line(0x399)
    2741                      .dwattr $C$DW$321, DW_AT_TI_end_line(0x39b)
TMS320C55x Assembler PC v4.4.1 Wed Sep 13 16:33:23 2017

Tools Copyright (c) 1996-2012 Texas Instruments Incorporated
C:\Users\a0221074\AppData\Local\Temp\1618010                         PAGE   62

    2742              $C$DW$322       .dwtag  DW_TAG_TI_loop_range
    2743                      .dwattr $C$DW$322, DW_AT_low_pc($C$DW$L$_JAC_make_net$5$B)
    2744                      .dwattr $C$DW$322, DW_AT_high_pc($C$DW$L$_JAC_make_net$5$E)
    2745              $C$DW$323       .dwtag  DW_TAG_TI_loop_range
    2746                      .dwattr $C$DW$323, DW_AT_low_pc($C$DW$L$_JAC_make_net$4$B)
    2747                      .dwattr $C$DW$323, DW_AT_high_pc($C$DW$L$_JAC_make_net$4$E)
    2748                      .dwendtag $C$DW$321
    2749              
    2750                      .dwattr $C$DW$298, DW_AT_TI_end_file("C:/Users/a0221074/Desktop/C5000/IBM_Watson_TIdesign_workarea/CS
    2751                      .dwattr $C$DW$298, DW_AT_TI_end_line(0x3b9)
    2752                      .dwattr $C$DW$298, DW_AT_TI_end_column(0x01)
    2753                      .dwendentry
    2754                      .dwendtag $C$DW$298
    2755              
    2756 000000               .sect   ".text:_process_a_file_1"
    2757                      .clink
    2758              
    2759              $C$DW$324       .dwtag  DW_TAG_subprogram, DW_AT_name("process_a_file_1")
    2760                      .dwattr $C$DW$324, DW_AT_low_pc(_process_a_file_1)
    2761                      .dwattr $C$DW$324, DW_AT_high_pc(0x00)
    2762                      .dwattr $C$DW$324, DW_AT_TI_symbol_name("_process_a_file_1")
    2763                      .dwattr $C$DW$324, DW_AT_type(*$C$DW$T$96)
    2764                      .dwattr $C$DW$324, DW_AT_TI_begin_file("C:/Users/a0221074/Desktop/C5000/IBM_Watson_TIdesign_workarea/
    2765                      .dwattr $C$DW$324, DW_AT_TI_begin_line(0x3bb)
    2766                      .dwattr $C$DW$324, DW_AT_TI_begin_column(0x1e)
    2767                      .dwattr $C$DW$324, DW_AT_TI_max_frame_size(0x2a)
    2768                      .dwpsn  file "C:/Users/a0221074/Desktop/C5000/IBM_Watson_TIdesign_workarea/CSL_bitbucket/c55_csl/c55x
    2769              
    2770                      .dwfde $C$DW$CIE, _process_a_file_1
    2771              $C$DW$325       .dwtag  DW_TAG_formal_parameter, DW_AT_name("gv")
    2772                      .dwattr $C$DW$325, DW_AT_TI_symbol_name("_gv")
    2773                      .dwattr $C$DW$325, DW_AT_type(*$C$DW$T$98)
    2774                      .dwattr $C$DW$325, DW_AT_location[DW_OP_reg17]
    2775              $C$DW$326       .dwtag  DW_TAG_formal_parameter, DW_AT_name("frm_cnt")
    2776                      .dwattr $C$DW$326, DW_AT_TI_symbol_name("_frm_cnt")
    2777                      .dwattr $C$DW$326, DW_AT_type(*$C$DW$T$20)
    2778                      .dwattr $C$DW$326, DW_AT_location[DW_OP_reg12]
    2779              $C$DW$327       .dwtag  DW_TAG_formal_parameter, DW_AT_name("start_frame")
    2780                      .dwattr $C$DW$327, DW_AT_TI_symbol_name("_start_frame")
    2781                      .dwattr $C$DW$327, DW_AT_type(*$C$DW$T$20)
    2782                      .dwattr $C$DW$327, DW_AT_location[DW_OP_reg13]
    2783              ;*******************************************************************************
    2784              ;* FUNCTION NAME: process_a_file_1                                             *
    2785              ;*                                                                             *
    2786              ;*   Function Uses Regs : AC0,AC0,T0,T1,AR0,XAR0,AR1,XAR1,AR2,XAR2,AR3,XAR3,SP,*
    2787              ;*                        CARRY,TC1,M40,SATA,SATD,RDM,FRCT,SMUL                *
    2788              ;*   Stack Frame        : Compact (No Frame Pointer, w/ debug)                 *
    2789              ;*   Total Frame Size   : 42 words                                             *
    2790              ;*                        (2 return address/alignment)                         *
    2791              ;*                        (40 local values)                                    *
    2792              ;*   Min System Stack   : 1 word                                               *
    2793              ;*******************************************************************************
    2794 000000       _process_a_file_1:
    2795                      .dwcfi  cfa_offset, 1
    2796                      .dwcfi  save_reg_to_mem, 91, -1
TMS320C55x Assembler PC v4.4.1 Wed Sep 13 16:33:23 2017

Tools Copyright (c) 1996-2012 Texas Instruments Incorporated
C:\Users\a0221074\AppData\Local\Temp\1618010                         PAGE   63

    2797 000000 4ED7          AADD #-41, SP
    2798                      .dwcfi  cfa_offset, 42
    2799              $C$DW$328       .dwtag  DW_TAG_variable, DW_AT_name("gv")
    2800                      .dwattr $C$DW$328, DW_AT_TI_symbol_name("_gv")
    2801                      .dwattr $C$DW$328, DW_AT_type(*$C$DW$T$98)
    2802                      .dwattr $C$DW$328, DW_AT_location[DW_OP_bregx 0x24 0]
    2803              $C$DW$329       .dwtag  DW_TAG_variable, DW_AT_name("frm_cnt")
    2804                      .dwattr $C$DW$329, DW_AT_TI_symbol_name("_frm_cnt")
    2805                      .dwattr $C$DW$329, DW_AT_type(*$C$DW$T$20)
    2806                      .dwattr $C$DW$329, DW_AT_location[DW_OP_bregx 0x24 2]
    2807              $C$DW$330       .dwtag  DW_TAG_variable, DW_AT_name("start_frame")
    2808                      .dwattr $C$DW$330, DW_AT_TI_symbol_name("_start_frame")
    2809                      .dwattr $C$DW$330, DW_AT_type(*$C$DW$T$20)
    2810                      .dwattr $C$DW$330, DW_AT_location[DW_OP_bregx 0x24 3]
    2811              $C$DW$331       .dwtag  DW_TAG_variable, DW_AT_name("fm")
    2812                      .dwattr $C$DW$331, DW_AT_TI_symbol_name("_fm")
    2813                      .dwattr $C$DW$331, DW_AT_type(*$C$DW$T$20)
    2814                      .dwattr $C$DW$331, DW_AT_location[DW_OP_bregx 0x24 4]
    2815              $C$DW$332       .dwtag  DW_TAG_variable, DW_AT_name("status")
    2816                      .dwattr $C$DW$332, DW_AT_TI_symbol_name("_status")
    2817                      .dwattr $C$DW$332, DW_AT_type(*$C$DW$T$20)
    2818                      .dwattr $C$DW$332, DW_AT_location[DW_OP_bregx 0x24 5]
    2819              $C$DW$333       .dwtag  DW_TAG_variable, DW_AT_name("mfcc_feature")
    2820                      .dwattr $C$DW$333, DW_AT_TI_symbol_name("_mfcc_feature")
    2821                      .dwattr $C$DW$333, DW_AT_type(*$C$DW$T$82)
    2822                      .dwattr $C$DW$333, DW_AT_location[DW_OP_bregx 0x24 6]
    2823              $C$DW$334       .dwtag  DW_TAG_variable, DW_AT_name("feat")
    2824                      .dwattr $C$DW$334, DW_AT_TI_symbol_name("_feat")
    2825                      .dwattr $C$DW$334, DW_AT_type(*$C$DW$T$22)
    2826                      .dwattr $C$DW$334, DW_AT_location[DW_OP_bregx 0x24 38]
    2827 000002 C506          MOV T1, *SP(#3) ; |957| 
    2828 000004 C404          MOV T0, *SP(#2) ; |957| 
    2829 000006 EB00          MOV XAR0, dbl(*SP(#0))
         000008 85   
    2830                      .dwpsn  file "C:/Users/a0221074/Desktop/C5000/IBM_Watson_TIdesign_workarea/CSL_bitbucket/c55_csl/c55x
    2831 000009 ED00          MOV dbl(*SP(#0)), XAR3
         00000b BF   
    2832 00000c A56D          MOV *AR3(#277), T1 ; |963| 
         00000e 0115 
    2833 000010 D306          MPYM *SP(#3), T1, AC0 ; |963| 
         000012 05   
    2834 000013 7DFF          AND #0xffff, AC0, AC0 ; |963| 
         000015 FF00 
    2835 000017 900A          MOV AC0, XAR2
    2836 000019 ED6D          MOV dbl(*AR3(#2002)), XAR3
         00001b BF07 
         00001d D2   
    2837              
    2838 00001e 8E4C          MOV XAR3, dbl(*SP(#38))
         000020 BB10 
         000022 B5A1 
    2839              ||      AADD XAR2, XAR3 ; |963| 
    2840              
    2841                      .dwpsn  file "C:/Users/a0221074/Desktop/C5000/IBM_Watson_TIdesign_workarea/CSL_bitbucket/c55_csl/c55x
    2842 000024 E608          MOV #0, *SP(#4) ; |968| 
TMS320C55x Assembler PC v4.4.1 Wed Sep 13 16:33:23 2017

Tools Copyright (c) 1996-2012 Texas Instruments Incorporated
C:\Users\a0221074\AppData\Local\Temp\1618010                         PAGE   64

         000026 00   
    2843                      .dwpsn  file "C:/Users/a0221074/Desktop/C5000/IBM_Watson_TIdesign_workarea/CSL_bitbucket/c55_csl/c55x
    2844 000027 A904          MOV *SP(#2), AR1 ; |968| 
    2845 000029 AA08          MOV *SP(#4), AR2 ; |968| 
    2846 00002b 12A8          CMPU AR2 >= AR1, TC1 ; |968| 
         00002d 94   
    2847 00002e 0464          BCC $C$L34,TC1 ; |968| 
         000030 53   
    2848                                                      ; branchcc occurs ; |968| 
    2849 000031       $C$L32:    
    2850 000031       $C$DW$L$_process_a_file_1$2$B:
    2851                      .dwpsn  file "C:/Users/a0221074/Desktop/C5000/IBM_Watson_TIdesign_workarea/CSL_bitbucket/c55_csl/c55x
    2852 000031 ED00          MOV dbl(*SP(#0)), XAR3
         000033 BF   
    2853 000034 ED4C          MOV dbl(*SP(#38)), XAR0
         000036 8F   
    2854 000037 EC0C          AMAR *SP(#6), XAR1
         000039 9E   
    2855 00003a ED6D          MOV dbl(*AR3(#1212)), XAR2
         00003c AF04 
         00003e BC   
    2856 00003f A46D          MOV *AR3(#277), T0 ; |970| 
         000041 0115 
    2857              $C$DW$335       .dwtag  DW_TAG_TI_branch
    2858                      .dwattr $C$DW$335, DW_AT_low_pc(0x00)
    2859                      .dwattr $C$DW$335, DW_AT_name("_vector_unpacking")
    2860                      .dwattr $C$DW$335, DW_AT_TI_call
    2861 000043 6C00          CALL #_vector_unpacking ; |970| 
         000045 0000!
    2862                                                      ; call occurs [#_vector_unpacking] ; |970| 
    2863                      .dwpsn  file "C:/Users/a0221074/Desktop/C5000/IBM_Watson_TIdesign_workarea/CSL_bitbucket/c55_csl/c55x
    2864 000047 A508          MOV *SP(#4), T1 ; |975| 
    2865 000049 EC0C          AMAR *SP(#6), XAR0
         00004b 8E   
    2866 00004c ED00          MOV dbl(*SP(#0)), XAR1
         00004e 9F   
    2867              $C$DW$336       .dwtag  DW_TAG_TI_branch
    2868                      .dwattr $C$DW$336, DW_AT_low_pc(0x00)
    2869                      .dwattr $C$DW$336, DW_AT_name("_search_a_frame")
    2870                      .dwattr $C$DW$336, DW_AT_TI_call
    2871              
    2872 00004f 6C00          CALL #_search_a_frame ; |975| 
         000051 0000!
    2873 000053 3D14  ||      MOV #1, T0
    2874              
    2875                                                      ; call occurs [#_search_a_frame] ; |975| 
    2876 000055 C40A          MOV T0, *SP(#5) ; |975| 
    2877                      .dwpsn  file "C:/Users/a0221074/Desktop/C5000/IBM_Watson_TIdesign_workarea/CSL_bitbucket/c55_csl/c55x
    2878 000057 F00A          CMP *SP(#5) == #100, TC1 ; |976| 
         000059 0064 
    2879 00005b 6364          BCC $C$L33,TC1 ; |976| 
    2880                                                      ; branchcc occurs ; |976| 
    2881 00005d       $C$DW$L$_process_a_file_1$2$E:
    2882                      .dwpsn  file "C:/Users/a0221074/Desktop/C5000/IBM_Watson_TIdesign_workarea/CSL_bitbucket/c55_csl/c55x
    2883 00005d 7601          MOV #401, T0 ; |978| 
TMS320C55x Assembler PC v4.4.1 Wed Sep 13 16:33:23 2017

Tools Copyright (c) 1996-2012 Texas Instruments Incorporated
C:\Users\a0221074\AppData\Local\Temp\1618010                         PAGE   65

         00005f 9148 
    2884 000061 4A25          B $C$L35  ; |978| 
    2885                                                      ; branch occurs ; |978| 
    2886 000063       $C$L33:    
    2887 000063       $C$DW$L$_process_a_file_1$4$B:
    2888                      .dwpsn  file "C:/Users/a0221074/Desktop/C5000/IBM_Watson_TIdesign_workarea/CSL_bitbucket/c55_csl/c55x
    2889 000063 ED00          MOV dbl(*SP(#0)), XAR3
         000065 BF   
    2890 000066 DF6D          MOV uns(*AR3(#277)), AC0 ; |982| 
         000068 0501 
         00006a 15   
    2891 00006b 900A          MOV AC0, XAR2
    2892 00006d ED4C          MOV dbl(*SP(#38)), XAR3
         00006f BF   
    2893              
    2894 000070 8E4C          MOV XAR3, dbl(*SP(#38))
         000072 BB10 
         000074 B5A1 
    2895              ||      AADD XAR2, XAR3 ; |982| 
    2896              
    2897                      .dwpsn  file "C:/Users/a0221074/Desktop/C5000/IBM_Watson_TIdesign_workarea/CSL_bitbucket/c55_csl/c55x
    2898 000076 F708          ADD #1, *SP(#4) ; |968| 
         000078 0001 
    2899                      .dwpsn  file "C:/Users/a0221074/Desktop/C5000/IBM_Watson_TIdesign_workarea/CSL_bitbucket/c55_csl/c55x
    2900 00007a A904          MOV *SP(#2), AR1 ; |968| 
    2901 00007c AA08          MOV *SP(#4), AR2 ; |968| 
    2902 00007e 12A4          CMPU AR2 < AR1, TC1 ; |968| 
         000080 94   
    2903 000081 0464          BCC $C$L32,TC1 ; |968| 
         000083 AD   
    2904                                                      ; branchcc occurs ; |968| 
    2905 000084       $C$DW$L$_process_a_file_1$4$E:
    2906 000084       $C$L34:    
    2907                      .dwpsn  file "C:/Users/a0221074/Desktop/C5000/IBM_Watson_TIdesign_workarea/CSL_bitbucket/c55_csl/c55x
    2908 000084 7600          MOV #100, T0 ; |988| 
         000086 6448 
    2909 000088       $C$L35:    
    2910                      .dwpsn  file "C:/Users/a0221074/Desktop/C5000/IBM_Watson_TIdesign_workarea/CSL_bitbucket/c55_csl/c55x
    2911 000088 4E29          AADD #41, SP
    2912                      .dwcfi  cfa_offset, 1
    2913              $C$DW$337       .dwtag  DW_TAG_TI_branch
    2914                      .dwattr $C$DW$337, DW_AT_low_pc(0x00)
    2915                      .dwattr $C$DW$337, DW_AT_TI_return
    2916 00008a 4804          RET
    2917                                                      ; return occurs
    2918              
    2919              $C$DW$338       .dwtag  DW_TAG_TI_loop
    2920                      .dwattr $C$DW$338, DW_AT_name("C:\\Users\\a0221074\\AppData\\Local\\Temp\\1618010:$C$L32:1:1505334800
    2921                      .dwattr $C$DW$338, DW_AT_TI_begin_file("C:/Users/a0221074/Desktop/C5000/IBM_Watson_TIdesign_workarea/
    2922                      .dwattr $C$DW$338, DW_AT_TI_begin_line(0x3c8)
    2923                      .dwattr $C$DW$338, DW_AT_TI_end_line(0x3db)
    2924              $C$DW$339       .dwtag  DW_TAG_TI_loop_range
    2925                      .dwattr $C$DW$339, DW_AT_low_pc($C$DW$L$_process_a_file_1$2$B)
    2926                      .dwattr $C$DW$339, DW_AT_high_pc($C$DW$L$_process_a_file_1$2$E)
    2927              $C$DW$340       .dwtag  DW_TAG_TI_loop_range
TMS320C55x Assembler PC v4.4.1 Wed Sep 13 16:33:23 2017

Tools Copyright (c) 1996-2012 Texas Instruments Incorporated
C:\Users\a0221074\AppData\Local\Temp\1618010                         PAGE   66

    2928                      .dwattr $C$DW$340, DW_AT_low_pc($C$DW$L$_process_a_file_1$4$B)
    2929                      .dwattr $C$DW$340, DW_AT_high_pc($C$DW$L$_process_a_file_1$4$E)
    2930                      .dwendtag $C$DW$338
    2931              
    2932                      .dwattr $C$DW$324, DW_AT_TI_end_file("C:/Users/a0221074/Desktop/C5000/IBM_Watson_TIdesign_workarea/CS
    2933                      .dwattr $C$DW$324, DW_AT_TI_end_line(0x3dd)
    2934                      .dwattr $C$DW$324, DW_AT_TI_end_column(0x01)
    2935                      .dwendentry
    2936                      .dwendtag $C$DW$324
    2937              
    2938 000000               .sect   ".text:_jac_force_alignment"
    2939                      .clink
    2940              
    2941              $C$DW$341       .dwtag  DW_TAG_subprogram, DW_AT_name("jac_force_alignment")
    2942                      .dwattr $C$DW$341, DW_AT_low_pc(_jac_force_alignment)
    2943                      .dwattr $C$DW$341, DW_AT_high_pc(0x00)
    2944                      .dwattr $C$DW$341, DW_AT_TI_symbol_name("_jac_force_alignment")
    2945                      .dwattr $C$DW$341, DW_AT_type(*$C$DW$T$96)
    2946                      .dwattr $C$DW$341, DW_AT_TI_begin_file("C:/Users/a0221074/Desktop/C5000/IBM_Watson_TIdesign_workarea/
    2947                      .dwattr $C$DW$341, DW_AT_TI_begin_line(0x3df)
    2948                      .dwattr $C$DW$341, DW_AT_TI_begin_column(0x1e)
    2949                      .dwattr $C$DW$341, DW_AT_TI_max_frame_size(0x10a)
    2950                      .dwpsn  file "C:/Users/a0221074/Desktop/C5000/IBM_Watson_TIdesign_workarea/CSL_bitbucket/c55_csl/c55x
    2951              
    2952                      .dwfde $C$DW$CIE, _jac_force_alignment
    2953              $C$DW$342       .dwtag  DW_TAG_formal_parameter, DW_AT_name("gv")
    2954                      .dwattr $C$DW$342, DW_AT_TI_symbol_name("_gv")
    2955                      .dwattr $C$DW$342, DW_AT_type(*$C$DW$T$98)
    2956                      .dwattr $C$DW$342, DW_AT_location[DW_OP_reg17]
    2957              ;*******************************************************************************
    2958              ;* FUNCTION NAME: jac_force_alignment                                          *
    2959              ;*                                                                             *
    2960              ;*   Function Uses Regs : T0,T1,AR0,XAR0,AR1,XAR1,AR2,XAR2,AR3,XAR3,AR4,XAR4,  *
    2961              ;*                        FP,XFP,SP,CARRY,TC1,M40,SATA,SATD,RDM,FRCT,SMUL      *
    2962              ;*   Save On Entry Regs : FP                                                   *
    2963              ;*   Stack Frame        : Full (Frame Pointer in AR6, w/ debug)                *
    2964              ;*   Total Frame Size   : 266 words                                            *
    2965              ;*                        (2 return address/alignment)                         *
    2966              ;*                        (2 function parameters)                              *
    2967              ;*                        (261 local values)                                   *
    2968              ;*                        (1 register save area)                               *
    2969              ;*   Min System Stack   : 2 words                                              *
    2970              ;*******************************************************************************
    2971 000000       _jac_force_alignment:
    2972                      .dwcfi  cfa_offset, 1
    2973                      .dwcfi  save_reg_to_mem, 91, -1
    2974 000000 50E5          PSHBOTH XFP
    2975                      .dwcfi  cfa_offset, 2
    2976                      .dwcfi  save_reg_to_mem, 32, -2
    2977 000002 F79A          ADD #-264, mmap(SP)
         000004 FEF8 
         000006 98   
    2978 000007 EC00          AMAR *SP(#0), XFP
         000009 EE   
    2979                      .dwcfi  cfa_offset, 266
TMS320C55x Assembler PC v4.4.1 Wed Sep 13 16:33:23 2017

Tools Copyright (c) 1996-2012 Texas Instruments Incorporated
C:\Users\a0221074\AppData\Local\Temp\1618010                         PAGE   67

    2980              $C$DW$343       .dwtag  DW_TAG_variable, DW_AT_name("gv")
    2981                      .dwattr $C$DW$343, DW_AT_TI_symbol_name("_gv")
    2982                      .dwattr $C$DW$343, DW_AT_type(*$C$DW$T$98)
    2983                      .dwattr $C$DW$343, DW_AT_location[DW_OP_bregx 0x24 2]
    2984              $C$DW$344       .dwtag  DW_TAG_variable, DW_AT_name("mem_count")
    2985                      .dwattr $C$DW$344, DW_AT_TI_symbol_name("_mem_count")
    2986                      .dwattr $C$DW$344, DW_AT_type(*$C$DW$T$20)
    2987                      .dwattr $C$DW$344, DW_AT_location[DW_OP_bregx 0x24 4]
    2988              $C$DW$345       .dwtag  DW_TAG_variable, DW_AT_name("total_frm")
    2989                      .dwattr $C$DW$345, DW_AT_TI_symbol_name("_total_frm")
    2990                      .dwattr $C$DW$345, DW_AT_type(*$C$DW$T$20)
    2991                      .dwattr $C$DW$345, DW_AT_location[DW_OP_bregx 0x24 5]
    2992              $C$DW$346       .dwtag  DW_TAG_variable, DW_AT_name("mem_base")
    2993                      .dwattr $C$DW$346, DW_AT_TI_symbol_name("_mem_base")
    2994                      .dwattr $C$DW$346, DW_AT_type(*$C$DW$T$54)
    2995                      .dwattr $C$DW$346, DW_AT_location[DW_OP_bregx 0x24 6]
    2996              $C$DW$347       .dwtag  DW_TAG_variable, DW_AT_name("status")
    2997                      .dwattr $C$DW$347, DW_AT_TI_symbol_name("_status")
    2998                      .dwattr $C$DW$347, DW_AT_type(*$C$DW$T$96)
    2999                      .dwattr $C$DW$347, DW_AT_location[DW_OP_bregx 0x24 262]
    3000 00000a EB04          MOV XAR0, dbl(*SP(#2))
         00000c 85   
    3001                      .dwpsn  file "C:/Users/a0221074/Desktop/C5000/IBM_Watson_TIdesign_workarea/CSL_bitbucket/c55_csl/c55x
    3002 00000d E608          MOV #0, *SP(#4) ; |993| 
         00000f 00   
    3003                      .dwpsn  file "C:/Users/a0221074/Desktop/C5000/IBM_Watson_TIdesign_workarea/CSL_bitbucket/c55_csl/c55x
    3004 000010 ED04          MOV dbl(*SP(#2)), XAR3
         000012 BF   
    3005 000013 A96D          MOV *AR3(#268), AR1 ; |993| 
         000015 010C 
    3006 000017 C90A          MOV AR1, *SP(#5) ; |993| 
    3007                      .dwpsn  file "C:/Users/a0221074/Desktop/C5000/IBM_Watson_TIdesign_workarea/CSL_bitbucket/c55_csl/c55x
    3008 000019 ED04          MOV dbl(*SP(#2)), XAR0
         00001b 8F   
    3009              $C$DW$348       .dwtag  DW_TAG_TI_branch
    3010                      .dwattr $C$DW$348, DW_AT_low_pc(0x00)
    3011                      .dwattr $C$DW$348, DW_AT_name("_JAC_backup_net")
    3012                      .dwattr $C$DW$348, DW_AT_TI_call
    3013 00001c 6C00          CALL #_JAC_backup_net ; |998| 
         00001e 0000+
    3014                                                      ; call occurs [#_JAC_backup_net] ; |998| 
    3015                      .dwpsn  file "C:/Users/a0221074/Desktop/C5000/IBM_Watson_TIdesign_workarea/CSL_bitbucket/c55_csl/c55x
    3016 000020 ED04          MOV dbl(*SP(#2)), XAR3
         000022 BF   
    3017 000023 A96D          MOV *AR3(#1158), AR1 ; |1000| 
         000025 0486 
    3018 000027 7C00          SUB #1, AR1, T0 ; |1000| 
         000029 0149 
    3019 00002b 7601          MOV #256, T1 ; |1000| 
         00002d 0058 
    3020 00002f EC0C          AMAR *SP(#6), XAR2
         000031 AE   
    3021 000032 ED04          MOV dbl(*SP(#2)), XAR0
         000034 8F   
    3022 000035 EC08          AMAR *SP(#4), XAR1
TMS320C55x Assembler PC v4.4.1 Wed Sep 13 16:33:23 2017

Tools Copyright (c) 1996-2012 Texas Instruments Incorporated
C:\Users\a0221074\AppData\Local\Temp\1618010                         PAGE   68

         000037 9E   
    3023              $C$DW$349       .dwtag  DW_TAG_TI_branch
    3024                      .dwattr $C$DW$349, DW_AT_low_pc(0x00)
    3025                      .dwattr $C$DW$349, DW_AT_name("_JAC_make_net")
    3026                      .dwattr $C$DW$349, DW_AT_TI_call
    3027 000038 6C00          CALL #_JAC_make_net ; |1000| 
         00003a 0000+
    3028                                                      ; call occurs [#_JAC_make_net] ; |1000| 
    3029 00003c C4CD          MOV T0, *FP(#262) ; |1000| 
         00003e 0106 
    3030                      .dwpsn  file "C:/Users/a0221074/Desktop/C5000/IBM_Watson_TIdesign_workarea/CSL_bitbucket/c55_csl/c55x
    3031 000040 F0CD          CMP *FP(#262) == #100, TC1 ; |1003| 
         000042 0064 
         000044 0106 
    3032 000046 6D74          BCC $C$L39,!TC1 ; |1003| 
         000048 0094 
    3033                                                      ; branchcc occurs ; |1003| 
    3034                      .dwpsn  file "C:/Users/a0221074/Desktop/C5000/IBM_Watson_TIdesign_workarea/CSL_bitbucket/c55_csl/c55x
    3035                      .dwpsn  file "C:/Users/a0221074/Desktop/C5000/IBM_Watson_TIdesign_workarea/CSL_bitbucket/c55_csl/c55x
    3036 00004a ED04          MOV dbl(*SP(#2)), XAR0
         00004c 8F   
    3037 00004d A40A          MOV *SP(#5), T0 ; |1005| 
    3038              $C$DW$350       .dwtag  DW_TAG_TI_branch
    3039                      .dwattr $C$DW$350, DW_AT_low_pc(0x00)
    3040                      .dwattr $C$DW$350, DW_AT_name("_process_a_file_1")
    3041                      .dwattr $C$DW$350, DW_AT_TI_call
    3042              
    3043 00004f 6C00          CALL #_process_a_file_1 ; |1005| 
         000051 0000+
    3044 000053 3D05  ||      MOV #0, T1
    3045              
    3046                                                      ; call occurs [#_process_a_file_1] ; |1005| 
    3047 000055 C4CD          MOV T0, *FP(#262) ; |1005| 
         000057 0106 
    3048                      .dwpsn  file "C:/Users/a0221074/Desktop/C5000/IBM_Watson_TIdesign_workarea/CSL_bitbucket/c55_csl/c55x
    3049 000059 F0CD          CMP *FP(#262) == #100, TC1 ; |1007| 
         00005b 0064 
         00005d 0106 
    3050 00005f 0474          BCC $C$L36,!TC1 ; |1007| 
         000061 15   
    3051                                                      ; branchcc occurs ; |1007| 
    3052                      .dwpsn  file "C:/Users/a0221074/Desktop/C5000/IBM_Watson_TIdesign_workarea/CSL_bitbucket/c55_csl/c55x
    3053 000062 A90A          MOV *SP(#5), AR1 ; |1007| 
    3054 000064 7C00          SUB #1, AR1, T1 ; |1007| 
         000066 0159 
    3055 000068 EC31          AMOV #0, XAR0 ; |1007| 
         00006a 8E00 
         00006c 0000 
    3056 00006e ED04          MOV dbl(*SP(#2)), XAR1
         000070 9F   
    3057              $C$DW$351       .dwtag  DW_TAG_TI_branch
    3058                      .dwattr $C$DW$351, DW_AT_low_pc(0x00)
    3059                      .dwattr $C$DW$351, DW_AT_name("_search_a_frame")
    3060                      .dwattr $C$DW$351, DW_AT_TI_call
    3061              
TMS320C55x Assembler PC v4.4.1 Wed Sep 13 16:33:23 2017

Tools Copyright (c) 1996-2012 Texas Instruments Incorporated
C:\Users\a0221074\AppData\Local\Temp\1618010                         PAGE   69

    3062 000071 6C00          CALL #_search_a_frame ; |1007| 
         000073 0000!
    3063 000075 3D04  ||      MOV #0, T0
    3064              
    3065                                                      ; call occurs [#_search_a_frame] ; |1007| 
    3066 000077       $C$L36:    
    3067                      .dwpsn  file "C:/Users/a0221074/Desktop/C5000/IBM_Watson_TIdesign_workarea/CSL_bitbucket/c55_csl/c55x
    3068 000077 F0CD          CMP *FP(#262) == #100, TC1 ; |1009| 
         000079 0064 
         00007b 0106 
    3069 00007d 0474          BCC $C$L37,!TC1 ; |1009| 
         00007f 45   
    3070                                                      ; branchcc occurs ; |1009| 
    3071 000080 ED04          MOV dbl(*SP(#2)), XAR3
         000082 BF   
    3072 000083 76FF          MOV #65535, AR2 ; |1009| 
         000085 FFA8 
    3073 000087 A96D          MOV *AR3(#1272), AR1 ; |1009| 
         000089 04F8 
    3074 00008b 1290          CMPU AR1 == AR2, TC1 ; |1009| 
         00008d A4   
    3075 00008e 0464          BCC $C$L37,TC1 ; |1009| 
         000090 34   
    3076                                                      ; branchcc occurs ; |1009| 
    3077                      .dwpsn  file "C:/Users/a0221074/Desktop/C5000/IBM_Watson_TIdesign_workarea/CSL_bitbucket/c55_csl/c55x
    3078 000091 EB00          MOV XAR3, dbl(*SP(#0))
         000093 B5   
    3079 000094 ED04          MOV dbl(*SP(#2)), XAR4
         000096 CF   
    3080 000097 ED04          MOV dbl(*SP(#2)), XAR3
         000099 BF   
    3081 00009a A90A          MOV *SP(#5), AR1 ; |1011| 
    3082 00009c 7C00          SUB #1, AR1, T1 ; |1011| 
         00009e 0159 
    3083 0000a0 B48F          AMAR *+AR4(#1159) ; |1011| 
         0000a2 0487 
    3084 0000a4 A46D          MOV *AR3(#1272), T0 ; |1011| 
         0000a6 04F8 
    3085 0000a8 ED6D          MOV dbl(*AR3(#1152)), XAR0
         0000aa 8F04 
         0000ac 80   
    3086 0000ad ED6D          MOV dbl(*AR3(#1156)), XAR2
         0000af AF04 
         0000b1 84   
    3087 0000b2 ED6D          MOV dbl(*AR3(#1154)), XAR1
         0000b4 9F04 
         0000b6 82   
    3088 0000b7 B46F          AMAR *+AR3(#1158) ; |1011| 
         0000b9 0486 
    3089              $C$DW$352       .dwtag  DW_TAG_TI_branch
    3090                      .dwattr $C$DW$352, DW_AT_low_pc(0x00)
    3091                      .dwattr $C$DW$352, DW_AT_name("_back_trace_beam")
    3092                      .dwattr $C$DW$352, DW_AT_TI_call
    3093 0000bb 6C00          CALL #_back_trace_beam ; |1011| 
         0000bd 0000!
TMS320C55x Assembler PC v4.4.1 Wed Sep 13 16:33:23 2017

Tools Copyright (c) 1996-2012 Texas Instruments Incorporated
C:\Users\a0221074\AppData\Local\Temp\1618010                         PAGE   70

    3094                                                      ; call occurs [#_back_trace_beam] ; |1011| 
    3095 0000bf C4CD          MOV T0, *FP(#262) ; |1011| 
         0000c1 0106 
    3096                      .dwpsn  file "C:/Users/a0221074/Desktop/C5000/IBM_Watson_TIdesign_workarea/CSL_bitbucket/c55_csl/c55x
    3097 0000c3 4A0E          B $C$L38  ; |1014| 
    3098                                                      ; branch occurs ; |1014| 
    3099 0000c5       $C$L37:    
    3100                      .dwpsn  file "C:/Users/a0221074/Desktop/C5000/IBM_Watson_TIdesign_workarea/CSL_bitbucket/c55_csl/c55x
    3101 0000c5 F0CD          CMP *FP(#262) == #100, TC1 ; |1016| 
         0000c7 0064 
         0000c9 0106 
    3102 0000cb 6374          BCC $C$L38,!TC1 ; |1016| 
    3103                                                      ; branchcc occurs ; |1016| 
    3104                      .dwpsn  file "C:/Users/a0221074/Desktop/C5000/IBM_Watson_TIdesign_workarea/CSL_bitbucket/c55_csl/c55x
    3105 0000cd FBCD          MOV #401, *FP(#262) ; |1016| 
         0000cf 0191 
         0000d1 0106 
    3106 0000d3       $C$L38:    
    3107                      .dwpsn  file "C:/Users/a0221074/Desktop/C5000/IBM_Watson_TIdesign_workarea/CSL_bitbucket/c55_csl/c55x
    3108 0000d3 ED04          MOV dbl(*SP(#2)), XAR0
         0000d5 8F   
    3109              $C$DW$353       .dwtag  DW_TAG_TI_branch
    3110                      .dwattr $C$DW$353, DW_AT_low_pc(0x00)
    3111                      .dwattr $C$DW$353, DW_AT_name("_JAC_recover_backuped_net")
    3112                      .dwattr $C$DW$353, DW_AT_TI_call
    3113 0000d6 6C00          CALL #_JAC_recover_backuped_net ; |1022| 
         0000d8 0000+
    3114                                                      ; call occurs [#_JAC_recover_backuped_net] ; |1022| 
    3115                      .dwpsn  file "C:/Users/a0221074/Desktop/C5000/IBM_Watson_TIdesign_workarea/CSL_bitbucket/c55_csl/c55x
    3116 0000da A4CD          MOV *FP(#262), T0 ; |1024| 
         0000dc 0106 
    3117 0000de       $C$L39:    
    3118                      .dwpsn  file "C:/Users/a0221074/Desktop/C5000/IBM_Watson_TIdesign_workarea/CSL_bitbucket/c55_csl/c55x
    3119 0000de F79A          ADD #264, mmap(SP)
         0000e0 0108 
         0000e2 98   
    3120                      .dwcfi  cfa_offset, 2
    3121 0000e3 50E4          POPBOTH XFP
    3122                      .dwcfi  restore_reg, 32
    3123                      .dwcfi  cfa_offset, 1
    3124              $C$DW$354       .dwtag  DW_TAG_TI_branch
    3125                      .dwattr $C$DW$354, DW_AT_low_pc(0x00)
    3126                      .dwattr $C$DW$354, DW_AT_TI_return
    3127 0000e5 4804          RET
    3128                                                      ; return occurs
    3129                      .dwattr $C$DW$341, DW_AT_TI_end_file("C:/Users/a0221074/Desktop/C5000/IBM_Watson_TIdesign_workarea/CS
    3130                      .dwattr $C$DW$341, DW_AT_TI_end_line(0x401)
    3131                      .dwattr $C$DW$341, DW_AT_TI_end_column(0x01)
    3132                      .dwendentry
    3133                      .dwendtag $C$DW$341
    3134              
    3135 000000               .sect   ".text:_JAC_update"
    3136                      .clink
    3137                      .global _JAC_update
    3138              
TMS320C55x Assembler PC v4.4.1 Wed Sep 13 16:33:23 2017

Tools Copyright (c) 1996-2012 Texas Instruments Incorporated
C:\Users\a0221074\AppData\Local\Temp\1618010                         PAGE   71

    3139              $C$DW$355       .dwtag  DW_TAG_subprogram, DW_AT_name("JAC_update")
    3140                      .dwattr $C$DW$355, DW_AT_low_pc(_JAC_update)
    3141                      .dwattr $C$DW$355, DW_AT_high_pc(0x00)
    3142                      .dwattr $C$DW$355, DW_AT_TI_symbol_name("_JAC_update")
    3143                      .dwattr $C$DW$355, DW_AT_external
    3144                      .dwattr $C$DW$355, DW_AT_type(*$C$DW$T$108)
    3145                      .dwattr $C$DW$355, DW_AT_TI_begin_file("C:/Users/a0221074/Desktop/C5000/IBM_Watson_TIdesign_workarea/
    3146                      .dwattr $C$DW$355, DW_AT_TI_begin_line(0x408)
    3147                      .dwattr $C$DW$355, DW_AT_TI_begin_column(0x1a)
    3148                      .dwattr $C$DW$355, DW_AT_TI_max_frame_size(0x4ba)
    3149                      .dwpsn  file "C:/Users/a0221074/Desktop/C5000/IBM_Watson_TIdesign_workarea/CSL_bitbucket/c55_csl/c55x
    3150              
    3151                      .dwfde $C$DW$CIE, _JAC_update
    3152              $C$DW$356       .dwtag  DW_TAG_formal_parameter, DW_AT_name("gvv")
    3153                      .dwattr $C$DW$356, DW_AT_TI_symbol_name("_gvv")
    3154                      .dwattr $C$DW$356, DW_AT_type(*$C$DW$T$98)
    3155                      .dwattr $C$DW$356, DW_AT_location[DW_OP_reg17]
    3156              ;*******************************************************************************
    3157              ;* FUNCTION NAME: JAC_update                                                   *
    3158              ;*                                                                             *
    3159              ;*   Function Uses Regs : AC0,AC0,AC1,AC1,T0,T1,AR0,XAR0,AR1,XAR1,AR2,XAR2,AR3,*
    3160              ;*                        XAR3,AR4,XAR4,FP,XFP,SP,CARRY,TC1,M40,SATA,SATD,RDM, *
    3161              ;*                        FRCT,SMUL                                            *
    3162              ;*   Save On Entry Regs : FP                                                   *
    3163              ;*   Stack Frame        : Full (Frame Pointer in AR6, w/ debug)                *
    3164              ;*   Total Frame Size   : 1210 words                                           *
    3165              ;*                        (1 return address/alignment)                         *
    3166              ;*                        (12 function parameters)                             *
    3167              ;*                        (1196 local values)                                  *
    3168              ;*                        (1 register save area)                               *
    3169              ;*   Min System Stack   : 2 words                                              *
    3170              ;*******************************************************************************
    3171 000000       _JAC_update:
    3172                      .dwcfi  cfa_offset, 1
    3173                      .dwcfi  save_reg_to_mem, 91, -1
    3174 000000 50E5          PSHBOTH XFP
    3175                      .dwcfi  cfa_offset, 2
    3176                      .dwcfi  save_reg_to_mem, 32, -2
    3177 000002 F79A          ADD #-1208, mmap(SP)
         000004 FB48 
         000006 98   
    3178 000007 EC00          AMAR *SP(#0), XFP
         000009 EE   
    3179                      .dwcfi  cfa_offset, 1210
    3180              $C$DW$357       .dwtag  DW_TAG_variable, DW_AT_name("gvv")
    3181                      .dwattr $C$DW$357, DW_AT_TI_symbol_name("_gvv")
    3182                      .dwattr $C$DW$357, DW_AT_type(*$C$DW$T$98)
    3183                      .dwattr $C$DW$357, DW_AT_location[DW_OP_bregx 0x24 12]
    3184              $C$DW$358       .dwtag  DW_TAG_variable, DW_AT_name("gv")
    3185                      .dwattr $C$DW$358, DW_AT_TI_symbol_name("_gv")
    3186                      .dwattr $C$DW$358, DW_AT_type(*$C$DW$T$98)
    3187                      .dwattr $C$DW$358, DW_AT_location[DW_OP_bregx 0x24 14]
    3188              $C$DW$359       .dwtag  DW_TAG_variable, DW_AT_name("jac_memory_base")
    3189                      .dwattr $C$DW$359, DW_AT_TI_symbol_name("_jac_memory_base")
    3190                      .dwattr $C$DW$359, DW_AT_type(*$C$DW$T$167)
TMS320C55x Assembler PC v4.4.1 Wed Sep 13 16:33:23 2017

Tools Copyright (c) 1996-2012 Texas Instruments Incorporated
C:\Users\a0221074\AppData\Local\Temp\1618010                         PAGE   72

    3191                      .dwattr $C$DW$359, DW_AT_location[DW_OP_bregx 0x24 16]
    3192              $C$DW$360       .dwtag  DW_TAG_variable, DW_AT_name("last_lhd")
    3193                      .dwattr $C$DW$360, DW_AT_TI_symbol_name("_last_lhd")
    3194                      .dwattr $C$DW$360, DW_AT_type(*$C$DW$T$8)
    3195                      .dwattr $C$DW$360, DW_AT_location[DW_OP_bregx 0x24 1016]
    3196              $C$DW$361       .dwtag  DW_TAG_variable, DW_AT_name("curt_lhd")
    3197                      .dwattr $C$DW$361, DW_AT_TI_symbol_name("_curt_lhd")
    3198                      .dwattr $C$DW$361, DW_AT_type(*$C$DW$T$8)
    3199                      .dwattr $C$DW$361, DW_AT_location[DW_OP_bregx 0x24 1017]
    3200              $C$DW$362       .dwtag  DW_TAG_variable, DW_AT_name("em_iter")
    3201                      .dwattr $C$DW$362, DW_AT_TI_symbol_name("_em_iter")
    3202                      .dwattr $C$DW$362, DW_AT_type(*$C$DW$T$20)
    3203                      .dwattr $C$DW$362, DW_AT_location[DW_OP_bregx 0x24 1018]
    3204              $C$DW$363       .dwtag  DW_TAG_variable, DW_AT_name("iter")
    3205                      .dwattr $C$DW$363, DW_AT_TI_symbol_name("_iter")
    3206                      .dwattr $C$DW$363, DW_AT_type(*$C$DW$T$20)
    3207                      .dwattr $C$DW$363, DW_AT_location[DW_OP_bregx 0x24 1019]
    3208              $C$DW$364       .dwtag  DW_TAG_variable, DW_AT_name("d")
    3209                      .dwattr $C$DW$364, DW_AT_TI_symbol_name("_d")
    3210                      .dwattr $C$DW$364, DW_AT_type(*$C$DW$T$20)
    3211                      .dwattr $C$DW$364, DW_AT_location[DW_OP_bregx 0x24 1020]
    3212              $C$DW$365       .dwtag  DW_TAG_variable, DW_AT_name("coeff_1")
    3213                      .dwattr $C$DW$365, DW_AT_TI_symbol_name("_coeff_1")
    3214                      .dwattr $C$DW$365, DW_AT_type(*$C$DW$T$20)
    3215                      .dwattr $C$DW$365, DW_AT_location[DW_OP_bregx 0x24 1021]
    3216              $C$DW$366       .dwtag  DW_TAG_variable, DW_AT_name("max_seg_len")
    3217                      .dwattr $C$DW$366, DW_AT_TI_symbol_name("_max_seg_len")
    3218                      .dwattr $C$DW$366, DW_AT_type(*$C$DW$T$20)
    3219                      .dwattr $C$DW$366, DW_AT_location[DW_OP_bregx 0x24 1022]
    3220              $C$DW$367       .dwtag  DW_TAG_variable, DW_AT_name("total_like")
    3221                      .dwattr $C$DW$367, DW_AT_TI_symbol_name("_total_like")
    3222                      .dwattr $C$DW$367, DW_AT_type(*$C$DW$T$12)
    3223                      .dwattr $C$DW$367, DW_AT_location[DW_OP_bregx 0x24 1024]
    3224              $C$DW$368       .dwtag  DW_TAG_variable, DW_AT_name("lld_forward")
    3225                      .dwattr $C$DW$368, DW_AT_TI_symbol_name("_lld_forward")
    3226                      .dwattr $C$DW$368, DW_AT_type(*$C$DW$T$12)
    3227                      .dwattr $C$DW$368, DW_AT_location[DW_OP_bregx 0x24 1026]
    3228              $C$DW$369       .dwtag  DW_TAG_variable, DW_AT_name("glb_accum")
    3229                      .dwattr $C$DW$369, DW_AT_TI_symbol_name("_glb_accum")
    3230                      .dwattr $C$DW$369, DW_AT_type(*$C$DW$T$47)
    3231                      .dwattr $C$DW$369, DW_AT_location[DW_OP_bregx 0x24 1028]
    3232              $C$DW$370       .dwtag  DW_TAG_variable, DW_AT_name("glb_accum_d")
    3233                      .dwattr $C$DW$370, DW_AT_TI_symbol_name("_glb_accum_d")
    3234                      .dwattr $C$DW$370, DW_AT_type(*$C$DW$T$47)
    3235                      .dwattr $C$DW$370, DW_AT_location[DW_OP_bregx 0x24 1030]
    3236              $C$DW$371       .dwtag  DW_TAG_variable, DW_AT_name("loc_accum")
    3237                      .dwattr $C$DW$371, DW_AT_TI_symbol_name("_loc_accum")
    3238                      .dwattr $C$DW$371, DW_AT_type(*$C$DW$T$47)
    3239                      .dwattr $C$DW$371, DW_AT_location[DW_OP_bregx 0x24 1032]
    3240              $C$DW$372       .dwtag  DW_TAG_variable, DW_AT_name("hmm")
    3241                      .dwattr $C$DW$372, DW_AT_TI_symbol_name("_hmm")
    3242                      .dwattr $C$DW$372, DW_AT_type(*$C$DW$T$119)
    3243                      .dwattr $C$DW$372, DW_AT_location[DW_OP_bregx 0x24 1034]
    3244              $C$DW$373       .dwtag  DW_TAG_variable, DW_AT_name("frame_cnt")
    3245                      .dwattr $C$DW$373, DW_AT_TI_symbol_name("_frame_cnt")
TMS320C55x Assembler PC v4.4.1 Wed Sep 13 16:33:23 2017

Tools Copyright (c) 1996-2012 Texas Instruments Incorporated
C:\Users\a0221074\AppData\Local\Temp\1618010                         PAGE   73

    3246                      .dwattr $C$DW$373, DW_AT_type(*$C$DW$T$172)
    3247                      .dwattr $C$DW$373, DW_AT_location[DW_OP_bregx 0x24 1036]
    3248              $C$DW$374       .dwtag  DW_TAG_variable, DW_AT_name("temp")
    3249                      .dwattr $C$DW$374, DW_AT_TI_symbol_name("_temp")
    3250                      .dwattr $C$DW$374, DW_AT_type(*$C$DW$T$187)
    3251                      .dwattr $C$DW$374, DW_AT_location[DW_OP_bregx 0x24 1038]
    3252 00000a EB18          MOV XAR0, dbl(*SP(#12))
         00000c 85   
    3253                      .dwpsn  file "C:/Users/a0221074/Desktop/C5000/IBM_Watson_TIdesign_workarea/CSL_bitbucket/c55_csl/c55x
    3254 00000d ED18          MOV dbl(*SP(#12)), XAR3
         00000f BF   
    3255 000010 EB1C          MOV XAR3, dbl(*SP(#14))
         000012 B5   
    3256                      .dwpsn  file "C:/Users/a0221074/Desktop/C5000/IBM_Watson_TIdesign_workarea/CSL_bitbucket/c55_csl/c55x
    3257 000013 FBCD          MOV #-32768, *FP(#1016) ; |1036| 
         000015 8000 
         000017 03F8 
    3258                      .dwpsn  file "C:/Users/a0221074/Desktop/C5000/IBM_Watson_TIdesign_workarea/CSL_bitbucket/c55_csl/c55x
    3259 000019 E6CD          MOV #0, *FP(#1022) ; |1037| 
         00001b 0003 
         00001d FE   
    3260                      .dwpsn  file "C:/Users/a0221074/Desktop/C5000/IBM_Watson_TIdesign_workarea/CSL_bitbucket/c55_csl/c55x
    3261 00001e ED1C          MOV dbl(*SP(#14)), XAR3
         000020 BF   
    3262 000021 B46F          AMAR *+AR3(#892) ; |1039| 
         000023 037C 
    3263 000025 EBCD          MOV XAR3, dbl(*FP(#1028))
         000027 B504 
         000029 04   
    3264                      .dwpsn  file "C:/Users/a0221074/Desktop/C5000/IBM_Watson_TIdesign_workarea/CSL_bitbucket/c55_csl/c55x
    3265 00002a ED1C          MOV dbl(*SP(#14)), XAR3
         00002c BF   
    3266 00002d DF6D          MOV uns(*AR3(#279)), AC0 ; |1040| 
         00002f 0501 
         000031 17   
    3267 000032 5000          SFTL AC0, #1 ; |1040| 
    3268 000034 900A          MOV AC0, XAR2
    3269 000036 EDCD          MOV dbl(*FP(#1028)), XAR3
         000038 BF04 
         00003a 04   
    3270 00003b 14A1          AADD XAR2, XAR3 ; |1040| 
         00003d B0   
    3271 00003e EBCD          MOV XAR3, dbl(*FP(#1030))
         000040 B504 
         000042 06   
    3272                      .dwpsn  file "C:/Users/a0221074/Desktop/C5000/IBM_Watson_TIdesign_workarea/CSL_bitbucket/c55_csl/c55x
    3273 000043 ED1C          MOV dbl(*SP(#14)), XAR3
         000045 BF   
    3274 000046 A96D          MOV *AR3(#279), AR1 ; |1041| 
         000048 0117 
    3275 00004a EDCD          MOV dbl(*FP(#1028)), XAR3
         00004c BF04 
         00004e 04   
    3276 00004f 5090          SFTL AR1, #1 ; |1041| 
    3277 000051 7DFF          AND #0xffff, AR1, AC0 ; |1041| 
TMS320C55x Assembler PC v4.4.1 Wed Sep 13 16:33:23 2017

Tools Copyright (c) 1996-2012 Texas Instruments Incorporated
C:\Users\a0221074\AppData\Local\Temp\1618010                         PAGE   74

         000053 FF09 
    3278 000055 5000          SFTL AC0, #1 ; |1041| 
    3279 000057 900A          MOV AC0, XAR2
    3280 000059 14A1          AADD XAR2, XAR3 ; |1041| 
         00005b B0   
    3281 00005c EBCD          MOV XAR3, dbl(*FP(#1032))
         00005e B504 
         000060 08   
    3282                      .dwpsn  file "C:/Users/a0221074/Desktop/C5000/IBM_Watson_TIdesign_workarea/CSL_bitbucket/c55_csl/c55x
    3283 000061 ED1C          MOV dbl(*SP(#14)), XAR3
         000063 BF   
    3284 000064 A96D          MOV *AR3(#1160), AR1 ; |1051| 
         000066 0488 
    3285 000068 AA6D          MOV *AR3(#268), AR2 ; |1051| 
         00006a 010C 
    3286 00006c 1298          CMPU AR2 <= AR1, TC1 ; |1051| 
         00006e A4   
    3287 00006f 62E4          BCC $C$L40,TC1 ; |1051| 
    3288                                                      ; branchcc occurs ; |1051| 
    3289                      .dwpsn  file "C:/Users/a0221074/Desktop/C5000/IBM_Watson_TIdesign_workarea/CSL_bitbucket/c55_csl/c55x
    3290 000071 3C94          MOV #9, T0
    3291 000073 0607          B $C$L71  ; |1052| 
         000075 CE   
    3292                                                      ; branch occurs ; |1052| 
    3293 000076       $C$L40:    
    3294                      .dwpsn  file "C:/Users/a0221074/Desktop/C5000/IBM_Watson_TIdesign_workarea/CSL_bitbucket/c55_csl/c55x
    3295 000076 ED18          MOV dbl(*SP(#12)), XAR3
         000078 BF   
    3296 000079 A96D          MOV *AR3(#1968), AR1 ; |1055| 
         00007b 07B0 
    3297 00007d 0419          BCC $C$L42,AR1 != #0 ; |1055| 
         00007f 36   
    3298                                                      ; branchcc occurs ; |1055| 
    3299                      .dwpsn  file "C:/Users/a0221074/Desktop/C5000/IBM_Watson_TIdesign_workarea/CSL_bitbucket/c55_csl/c55x
    3300 000080 E66D          MOV #2, *AR3(#1968) ; |1058| 
         000082 0207 
         000084 B0   
    3301                      .dwpsn  file "C:/Users/a0221074/Desktop/C5000/IBM_Watson_TIdesign_workarea/CSL_bitbucket/c55_csl/c55x
    3302 000085 ED1C          MOV dbl(*SP(#14)), XAR3
         000087 BF   
    3303 000088 ED6D          MOV dbl(*AR3(#2014)), XAR0
         00008a 8F07 
         00008c DE   
    3304              $C$DW$375       .dwtag  DW_TAG_TI_branch
    3305                      .dwattr $C$DW$375, DW_AT_low_pc(0x00)
    3306                      .dwattr $C$DW$375, DW_AT_name("_cm_freeze")
    3307                      .dwattr $C$DW$375, DW_AT_TI_call
    3308 00008d 6C00          CALL #_cm_freeze ; |1062| 
         00008f 0000!
    3309                                                      ; call occurs [#_cm_freeze] ; |1062| 
    3310                      .dwpsn  file "C:/Users/a0221074/Desktop/C5000/IBM_Watson_TIdesign_workarea/CSL_bitbucket/c55_csl/c55x
    3311 000091 ED1C          MOV dbl(*SP(#14)), XAR0
         000093 8F   
    3312              $C$DW$376       .dwtag  DW_TAG_TI_branch
    3313                      .dwattr $C$DW$376, DW_AT_low_pc(0x00)
TMS320C55x Assembler PC v4.4.1 Wed Sep 13 16:33:23 2017

Tools Copyright (c) 1996-2012 Texas Instruments Incorporated
C:\Users\a0221074\AppData\Local\Temp\1618010                         PAGE   75

    3314                      .dwattr $C$DW$376, DW_AT_name("_jac_force_alignment")
    3315                      .dwattr $C$DW$376, DW_AT_TI_call
    3316 000094 6C00          CALL #_jac_force_alignment ; |1065| 
         000096 0000+
    3317                                                      ; call occurs [#_jac_force_alignment] ; |1065| 
    3318 000098 7600          MOV #100, AR1 ; |1065| 
         00009a 6498 
    3319 00009c 1240          CMP T0 == AR1, TC1 ; |1065| 
         00009e 90   
    3320 00009f 66E4          BCC $C$L41,TC1 ; |1065| 
    3321                                                      ; branchcc occurs ; |1065| 
    3322                      .dwpsn  file "C:/Users/a0221074/Desktop/C5000/IBM_Watson_TIdesign_workarea/CSL_bitbucket/c55_csl/c55x
    3323 0000a1 ED18          MOV dbl(*SP(#12)), XAR3
         0000a3 BF   
    3324 0000a4 E66D          MOV #0, *AR3(#1968) ; |1066| 
         0000a6 0007 
         0000a8 B0   
    3325                      .dwpsn  file "C:/Users/a0221074/Desktop/C5000/IBM_Watson_TIdesign_workarea/CSL_bitbucket/c55_csl/c55x
    3326 0000a9 3C94          MOV #9, T0
    3327 0000ab 0607          B $C$L71  ; |1067| 
         0000ad 96   
    3328                                                      ; branch occurs ; |1067| 
    3329 0000ae       $C$L41:    
    3330                      .dwpsn  file "C:/Users/a0221074/Desktop/C5000/IBM_Watson_TIdesign_workarea/CSL_bitbucket/c55_csl/c55x
    3331 0000ae ED18          MOV dbl(*SP(#12)), XAR3
         0000b0 BF   
    3332 0000b1 E66D          MOV #0, *AR3(#1968) ; |1070| 
         0000b3 0007 
         0000b5 B0   
    3333 0000b6       $C$L42:    
    3334                      .dwpsn  file "C:/Users/a0221074/Desktop/C5000/IBM_Watson_TIdesign_workarea/CSL_bitbucket/c55_csl/c55x
    3335 0000b6 ED1C          MOV dbl(*SP(#14)), XAR0
         0000b8 8F   
    3336              $C$DW$377       .dwtag  DW_TAG_TI_branch
    3337                      .dwattr $C$DW$377, DW_AT_low_pc(0x00)
    3338                      .dwattr $C$DW$377, DW_AT_name("_cm_backup_adp")
    3339                      .dwattr $C$DW$377, DW_AT_TI_call
    3340 0000b9 6C00          CALL #_cm_backup_adp ; |1112| 
         0000bb 0000!
    3341                                                      ; call occurs [#_cm_backup_adp] ; |1112| 
    3342                      .dwpsn  file "C:/Users/a0221074/Desktop/C5000/IBM_Watson_TIdesign_workarea/CSL_bitbucket/c55_csl/c55x
    3343 0000bd E6CD          MOV #0, *FP(#1018) ; |1115| 
         0000bf 0003 
         0000c1 FA   
    3344                      .dwpsn  file "C:/Users/a0221074/Desktop/C5000/IBM_Watson_TIdesign_workarea/CSL_bitbucket/c55_csl/c55x
    3345 0000c2 A9CD          MOV *FP(#1018), AR1 ; |1115| 
         0000c4 03FA 
    3346 0000c6 6D19          BCC $C$L70,AR1 != #0 ; |1115| 
         0000c8 0778 
    3347                                                      ; branchcc occurs ; |1115| 
    3348 0000ca       $C$L43:    
    3349 0000ca       $C$DW$L$_JAC_update$8$B:
    3350                      .dwpsn  file "C:/Users/a0221074/Desktop/C5000/IBM_Watson_TIdesign_workarea/CSL_bitbucket/c55_csl/c55x
    3351 0000ca E6CD          MOV #0, *FP(#1036) ; |1116| 
         0000cc 0004 
TMS320C55x Assembler PC v4.4.1 Wed Sep 13 16:33:23 2017

Tools Copyright (c) 1996-2012 Texas Instruments Incorporated
C:\Users\a0221074\AppData\Local\Temp\1618010                         PAGE   76

         0000ce 0C   
    3352                      .dwpsn  file "C:/Users/a0221074/Desktop/C5000/IBM_Watson_TIdesign_workarea/CSL_bitbucket/c55_csl/c55x
    3353 0000cf 3C00          MOV #0, AC0 ; |1117| 
    3354 0000d1 EBCD          MOV AC0, dbl(*FP(#1024)) ; |1117| 
         0000d3 0804 
         0000d5 00   
    3355                      .dwpsn  file "C:/Users/a0221074/Desktop/C5000/IBM_Watson_TIdesign_workarea/CSL_bitbucket/c55_csl/c55x
    3356 0000d6 E6CD          MOV #0, *FP(#1020) ; |1120| 
         0000d8 0003 
         0000da FC   
    3357 0000db ED1C          MOV dbl(*SP(#14)), XAR3
         0000dd BF   
    3358 0000de AACD          MOV *FP(#1020), AR2 ; |1120| 
         0000e0 03FC 
    3359 0000e2 A96D          MOV *AR3(#279), AR1 ; |1120| 
         0000e4 0117 
    3360 0000e6 12A8          CMPU AR2 >= AR1, TC1 ; |1120| 
         0000e8 94   
    3361 0000e9 0464          BCC $C$L45,TC1 ; |1120| 
         0000eb 65   
    3362                                                      ; branchcc occurs ; |1120| 
    3363 0000ec       $C$DW$L$_JAC_update$8$E:
    3364 0000ec       $C$L44:    
    3365 0000ec       $C$DW$L$_JAC_update$9$B:
    3366                      .dwpsn  file "C:/Users/a0221074/Desktop/C5000/IBM_Watson_TIdesign_workarea/CSL_bitbucket/c55_csl/c55x
    3367 0000ec DFCD          MOV uns(*FP(#1020)), AC0 ; |1122| 
         0000ee 0503 
         0000f0 FC   
    3368 0000f1 900A          MOV AC0, XAR2
    3369 0000f3 DFCD          MOV uns(*FP(#1020)), AC0 ; |1122| 
         0000f5 0503 
         0000f7 FC   
    3370              
    3371 0000f8 14A1          AADD XAR2, XAR3 ; |1122| 
         0000fa B0   
    3372 0000fb 5100  ||      SFTL AC0, #1 ; |1122| 
    3373              
    3374 0000fd 900A          MOV AC0, XAR2
    3375 0000ff A16D          MOV *AR3(#840), AC1 ; |1122| 
         000101 0348 
    3376 000103 EC00          AMAR *SP(#0), XAR3
         000105 BE   
    3377 000106 B46F          AMAR *+AR3(#1038)
         000108 040E 
    3378 00010a 14A1          AADD XAR2, XAR3 ; |1122| 
         00010c B0   
    3379 00010d EB61          MOV AC1, dbl(*AR3) ; |1122| 
         00010f 18   
    3380                      .dwpsn  file "C:/Users/a0221074/Desktop/C5000/IBM_Watson_TIdesign_workarea/CSL_bitbucket/c55_csl/c55x
    3381 000110 ED1C          MOV dbl(*SP(#14)), XAR3
         000112 BF   
    3382 000113 DFCD          MOV uns(*FP(#1020)), AC0 ; |1124| 
         000115 0503 
         000117 FC   
    3383 000118 900A          MOV AC0, XAR2
TMS320C55x Assembler PC v4.4.1 Wed Sep 13 16:33:23 2017

Tools Copyright (c) 1996-2012 Texas Instruments Incorporated
C:\Users\a0221074\AppData\Local\Temp\1618010                         PAGE   77

    3384 00011a A46D          MOV *AR3(#835), T0 ; |1124| 
         00011c 0343 
    3385 00011e 14A1          AADD XAR2, XAR3 ; |1124| 
         000120 B0   
    3386 000121 A06D          MOV *AR3(#840), AC0 ; |1124| 
         000123 0348 
    3387              $C$DW$378       .dwtag  DW_TAG_TI_branch
    3388                      .dwattr $C$DW$378, DW_AT_low_pc(0x00)
    3389                      .dwattr $C$DW$378, DW_AT_name("_q15_x")
    3390                      .dwattr $C$DW$378, DW_AT_TI_call
    3391 000125 6C00          CALL #_q15_x ; |1124| 
         000127 0000!
    3392                                                      ; call occurs [#_q15_x] ; |1124| 
    3393 000129 ED1C          MOV dbl(*SP(#14)), XAR3
         00012b BF   
    3394 00012c DFCD          MOV uns(*FP(#1020)), AC1 ; |1124| 
         00012e 1503 
         000130 FC   
    3395 000131 901A          MOV AC1, XAR2
    3396 000133 14A1          AADD XAR2, XAR3 ; |1124| 
         000135 B0   
    3397 000136 C06D          MOV AC0, *AR3(#840) ; |1124| 
         000138 0348 
    3398                      .dwpsn  file "C:/Users/a0221074/Desktop/C5000/IBM_Watson_TIdesign_workarea/CSL_bitbucket/c55_csl/c55x
    3399 00013a F7CD          ADD #1, *FP(#1020) ; |1120| 
         00013c 0001 
         00013e 03FC 
    3400 000140 ED1C          MOV dbl(*SP(#14)), XAR3
         000142 BF   
    3401 000143 AACD          MOV *FP(#1020), AR2 ; |1120| 
         000145 03FC 
    3402 000147 A96D          MOV *AR3(#279), AR1 ; |1120| 
         000149 0117 
    3403 00014b 12A4          CMPU AR2 < AR1, TC1 ; |1120| 
         00014d 94   
    3404 00014e 0464          BCC $C$L44,TC1 ; |1120| 
         000150 9B   
    3405                                                      ; branchcc occurs ; |1120| 
    3406 000151       $C$DW$L$_JAC_update$9$E:
    3407 000151       $C$L45:    
    3408 000151       $C$DW$L$_JAC_update$10$B:
    3409                      .dwpsn  file "C:/Users/a0221074/Desktop/C5000/IBM_Watson_TIdesign_workarea/CSL_bitbucket/c55_csl/c55x
    3410 000151 E6CD          MOV #0, *FP(#1019) ; |1130| 
         000153 0003 
         000155 FB   
    3411                      .dwpsn  file "C:/Users/a0221074/Desktop/C5000/IBM_Watson_TIdesign_workarea/CSL_bitbucket/c55_csl/c55x
    3412 000156 A9CD          MOV *FP(#1019), AR1 ; |1130| 
         000158 03FB 
    3413 00015a 6D19          BCC $C$L67,AR1 != #0 ; |1130| 
         00015c 06B4 
    3414                                                      ; branchcc occurs ; |1130| 
    3415 00015e       $C$DW$L$_JAC_update$10$E:
    3416 00015e       $C$L46:    
    3417 00015e       $C$DW$L$_JAC_update$11$B:
    3418              
TMS320C55x Assembler PC v4.4.1 Wed Sep 13 16:33:23 2017

Tools Copyright (c) 1996-2012 Texas Instruments Incorporated
C:\Users\a0221074\AppData\Local\Temp\1618010                         PAGE   78

    3419              $C$DW$379       .dwtag  DW_TAG_lexical_block, DW_AT_low_pc(0x00), DW_AT_high_pc(0x00)
    3420              $C$DW$380       .dwtag  DW_TAG_variable, DW_AT_name("s")
    3421                      .dwattr $C$DW$380, DW_AT_TI_symbol_name("_s")
    3422                      .dwattr $C$DW$380, DW_AT_type(*$C$DW$T$20)
    3423                      .dwattr $C$DW$380, DW_AT_location[DW_OP_bregx 0x24 1194]
    3424              $C$DW$381       .dwtag  DW_TAG_variable, DW_AT_name("seg_len")
    3425                      .dwattr $C$DW$381, DW_AT_TI_symbol_name("_seg_len")
    3426                      .dwattr $C$DW$381, DW_AT_type(*$C$DW$T$20)
    3427                      .dwattr $C$DW$381, DW_AT_location[DW_OP_bregx 0x24 1195]
    3428              $C$DW$382       .dwtag  DW_TAG_variable, DW_AT_name("em_mem")
    3429                      .dwattr $C$DW$382, DW_AT_TI_symbol_name("_em_mem")
    3430                      .dwattr $C$DW$382, DW_AT_type(*$C$DW$T$20)
    3431                      .dwattr $C$DW$382, DW_AT_location[DW_OP_bregx 0x24 1196]
    3432              $C$DW$383       .dwtag  DW_TAG_variable, DW_AT_name("state_lld")
    3433                      .dwattr $C$DW$383, DW_AT_TI_symbol_name("_state_lld")
    3434                      .dwattr $C$DW$383, DW_AT_type(*$C$DW$T$21)
    3435                      .dwattr $C$DW$383, DW_AT_location[DW_OP_bregx 0x24 1198]
    3436              $C$DW$384       .dwtag  DW_TAG_variable, DW_AT_name("bp")
    3437                      .dwattr $C$DW$384, DW_AT_TI_symbol_name("_bp")
    3438                      .dwattr $C$DW$384, DW_AT_type(*$C$DW$T$21)
    3439                      .dwattr $C$DW$384, DW_AT_location[DW_OP_bregx 0x24 1200]
    3440              $C$DW$385       .dwtag  DW_TAG_variable, DW_AT_name("alpha")
    3441                      .dwattr $C$DW$385, DW_AT_TI_symbol_name("_alpha")
    3442                      .dwattr $C$DW$385, DW_AT_type(*$C$DW$T$21)
    3443                      .dwattr $C$DW$385, DW_AT_location[DW_OP_bregx 0x24 1202]
    3444              $C$DW$386       .dwtag  DW_TAG_variable, DW_AT_name("c_t_beta")
    3445                      .dwattr $C$DW$386, DW_AT_TI_symbol_name("_c_t_beta")
    3446                      .dwattr $C$DW$386, DW_AT_type(*$C$DW$T$21)
    3447                      .dwattr $C$DW$386, DW_AT_location[DW_OP_bregx 0x24 1204]
    3448                      .dwpsn  file "C:/Users/a0221074/Desktop/C5000/IBM_Watson_TIdesign_workarea/CSL_bitbucket/c55_csl/c55x
    3449 00015e E6CD          MOV #0, *FP(#1020) ; |1134| 
         000160 0003 
         000162 FC   
    3450 000163 ED1C          MOV dbl(*SP(#14)), XAR3
         000165 BF   
    3451 000166 AACD          MOV *FP(#1020), AR2 ; |1134| 
         000168 03FC 
    3452 00016a A96D          MOV *AR3(#279), AR1 ; |1134| 
         00016c 0117 
    3453 00016e 5090          SFTL AR1, #1 ; |1134| 
    3454 000170 12A8          CMPU AR2 >= AR1, TC1 ; |1134| 
         000172 94   
    3455 000173 0464          BCC $C$L48,TC1 ; |1134| 
         000175 2F   
    3456                                                      ; branchcc occurs ; |1134| 
    3457 000176       $C$DW$L$_JAC_update$11$E:
    3458 000176       $C$L47:    
    3459 000176       $C$DW$L$_JAC_update$12$B:
    3460                      .dwpsn  file "C:/Users/a0221074/Desktop/C5000/IBM_Watson_TIdesign_workarea/CSL_bitbucket/c55_csl/c55x
    3461 000176 EDCD          MOV dbl(*FP(#1032)), XAR3
         000178 BF04 
         00017a 08   
    3462 00017b DFCD          MOV uns(*FP(#1020)), AC0 ; |1134| 
         00017d 0503 
         00017f FC   
TMS320C55x Assembler PC v4.4.1 Wed Sep 13 16:33:23 2017

Tools Copyright (c) 1996-2012 Texas Instruments Incorporated
C:\Users\a0221074\AppData\Local\Temp\1618010                         PAGE   79

    3463 000180 5000          SFTL AC0, #1 ; |1134| 
    3464 000182 900A          MOV AC0, XAR2
    3465              
    3466 000184 14A1          AADD XAR2, XAR3 ; |1134| 
         000186 B0   
    3467 000187 3D00  ||      MOV #0, AC0 ; |1134| 
    3468              
    3469 000189 EB61          MOV AC0, dbl(*AR3) ; |1134| 
         00018b 08   
    3470                      .dwpsn  file "C:/Users/a0221074/Desktop/C5000/IBM_Watson_TIdesign_workarea/CSL_bitbucket/c55_csl/c55x
    3471 00018c F7CD          ADD #1, *FP(#1020) ; |1134| 
         00018e 0001 
         000190 03FC 
    3472 000192 ED1C          MOV dbl(*SP(#14)), XAR3
         000194 BF   
    3473 000195 AACD          MOV *FP(#1020), AR2 ; |1134| 
         000197 03FC 
    3474 000199 A96D          MOV *AR3(#279), AR1 ; |1134| 
         00019b 0117 
    3475 00019d 5090          SFTL AR1, #1 ; |1134| 
    3476 00019f 12A4          CMPU AR2 < AR1, TC1 ; |1134| 
         0001a1 94   
    3477 0001a2 0464          BCC $C$L47,TC1 ; |1134| 
         0001a4 D1   
    3478                                                      ; branchcc occurs ; |1134| 
    3479 0001a5       $C$DW$L$_JAC_update$12$E:
    3480 0001a5       $C$L48:    
    3481 0001a5       $C$DW$L$_JAC_update$13$B:
    3482                      .dwpsn  file "C:/Users/a0221074/Desktop/C5000/IBM_Watson_TIdesign_workarea/CSL_bitbucket/c55_csl/c55x
    3483 0001a5 E6CD          MOV #0, *FP(#1194) ; |1135| 
         0001a7 0004 
         0001a9 AA   
    3484                      .dwpsn  file "C:/Users/a0221074/Desktop/C5000/IBM_Watson_TIdesign_workarea/CSL_bitbucket/c55_csl/c55x
    3485 0001aa ED1C          MOV dbl(*SP(#14)), XAR3
         0001ac BF   
    3486 0001ad AACD          MOV *FP(#1194), AR2 ; |1135| 
         0001af 04AA 
    3487 0001b1 A96D          MOV *AR3(#1158), AR1 ; |1135| 
         0001b3 0486 
    3488 0001b5 12A8          CMPU AR2 >= AR1, TC1 ; |1135| 
         0001b7 94   
    3489 0001b8 6D64          BCC $C$L56,TC1 ; |1135| 
         0001ba 02EA 
    3490                                                      ; branchcc occurs ; |1135| 
    3491 0001bc       $C$DW$L$_JAC_update$13$E:
    3492 0001bc       $C$L49:    
    3493 0001bc       $C$DW$L$_JAC_update$14$B:
    3494                      .dwpsn  file "C:/Users/a0221074/Desktop/C5000/IBM_Watson_TIdesign_workarea/CSL_bitbucket/c55_csl/c55x
    3495 0001bc 22A9          MOV AR2, AR1
    3496 0001be 0409          BCC $C$L50,AR1 == #0 ; |1139| 
         0001c0 2E   
    3497                                                      ; branchcc occurs ; |1139| 
    3498 0001c1       $C$DW$L$_JAC_update$14$E:
    3499 0001c1       $C$DW$L$_JAC_update$15$B:
    3500 0001c1 ED6D          MOV dbl(*AR3(#1156)), XAR2
TMS320C55x Assembler PC v4.4.1 Wed Sep 13 16:33:23 2017

Tools Copyright (c) 1996-2012 Texas Instruments Incorporated
C:\Users\a0221074\AppData\Local\Temp\1618010                         PAGE   80

         0001c3 AF04 
         0001c5 84   
    3501 0001c6 DFCD          MOV uns(*FP(#1194)), AC0 ; |1139| 
         0001c8 0504 
         0001ca AA   
    3502 0001cb 900B          MOV AC0, XAR3
    3503 0001cd B465          AMAR *AR3-
    3504 0001cf 14A1          AADD XAR2, XAR3 ; |1139| 
         0001d1 B0   
    3505 0001d2 A961          MOV *AR3, AR1 ; |1139| 
    3506 0001d4 ED1C          MOV dbl(*SP(#14)), XAR3
         0001d6 BF   
    3507 0001d7 DFCD          MOV uns(*FP(#1194)), AC0 ; |1139| 
         0001d9 0504 
         0001db AA   
    3508 0001dc 900A          MOV AC0, XAR2
    3509 0001de ED6D          MOV dbl(*AR3(#1156)), XAR3
         0001e0 BF04 
         0001e2 84   
    3510 0001e3 14A1          AADD XAR2, XAR3 ; |1139| 
         0001e5 B0   
    3511 0001e6 AA61          MOV *AR3, AR2 ; |1139| 
    3512 0001e8 1298          CMPU AR2 <= AR1, TC1 ; |1139| 
         0001ea A4   
    3513 0001eb 6D74          BCC $C$L56,!TC1 ; |1139| 
         0001ed 02B7 
    3514                                                      ; branchcc occurs ; |1139| 
    3515 0001ef       $C$DW$L$_JAC_update$15$E:
    3516 0001ef       $C$DW$L$_JAC_update$16$B:
    3517                      .dwpsn  file "C:/Users/a0221074/Desktop/C5000/IBM_Watson_TIdesign_workarea/CSL_bitbucket/c55_csl/c55x
    3518 0001ef       $C$DW$L$_JAC_update$16$E:
    3519 0001ef       $C$L50:    
    3520 0001ef       $C$DW$L$_JAC_update$17$B:
    3521                      .dwpsn  file "C:/Users/a0221074/Desktop/C5000/IBM_Watson_TIdesign_workarea/CSL_bitbucket/c55_csl/c55x
    3522 0001ef ED1C          MOV dbl(*SP(#14)), XAR3
         0001f1 BF   
    3523 0001f2 DFCD          MOV uns(*FP(#1194)), AC0 ; |1141| 
         0001f4 0504 
         0001f6 AA   
    3524 0001f7 900A          MOV AC0, XAR2
    3525 0001f9 ED6D          MOV dbl(*AR3(#1154)), XAR3
         0001fb BF04 
         0001fd 82   
    3526 0001fe 14A1          AADD XAR2, XAR3 ; |1141| 
         000200 B0   
    3527 000201 ED1C          MOV dbl(*SP(#14)), XAR2
         000203 AF   
    3528 000204 DFCD          MOV uns(*FP(#1194)), AC0 ; |1141| 
         000206 0504 
         000208 AA   
    3529 000209 900C          MOV AC0, XAR4
    3530 00020b ED4D          MOV dbl(*AR2(#1156)), XAR2
         00020d AF04 
         00020f 84   
    3531 000210 14C1          AADD XAR4, XAR2 ; |1141| 
TMS320C55x Assembler PC v4.4.1 Wed Sep 13 16:33:23 2017

Tools Copyright (c) 1996-2012 Texas Instruments Incorporated
C:\Users\a0221074\AppData\Local\Temp\1618010                         PAGE   81

         000212 A0   
    3532 000213 A041          MOV *AR2, AC0 ; |1141| 
    3533 000215 DF61          SUB uns(*AR3), AC0, AC0 ; |1141| 
         000217 0F   
    3534 000218 C0CD          MOV AC0, *FP(#1195) ; |1141| 
         00021a 04AB 
    3535                      .dwpsn  file "C:/Users/a0221074/Desktop/C5000/IBM_Watson_TIdesign_workarea/CSL_bitbucket/c55_csl/c55x
    3536 00021c ED1C          MOV dbl(*SP(#14)), XAR3
         00021e BF   
    3537 00021f 220A          MOV AC0, AR2 ; |1144| 
    3538 000221 A96D          MOV *AR3(#833), AR1 ; |1144| 
         000223 0341 
    3539 000225 1298          CMPU AR2 <= AR1, TC1 ; |1144| 
         000227 A4   
    3540 000228 6464          BCC $C$L51,TC1 ; |1144| 
    3541                                                      ; branchcc occurs ; |1144| 
    3542 00022a       $C$DW$L$_JAC_update$17$E:
    3543 00022a       $C$DW$L$_JAC_update$18$B:
    3544                      .dwpsn  file "C:/Users/a0221074/Desktop/C5000/IBM_Watson_TIdesign_workarea/CSL_bitbucket/c55_csl/c55x
    3545 00022a A96D          MOV *AR3(#833), AR1 ; |1146| 
         00022c 0341 
    3546 00022e C9CD          MOV AR1, *FP(#1195) ; |1146| 
         000230 04AB 
    3547 000232       $C$DW$L$_JAC_update$18$E:
    3548 000232       $C$L51:    
    3549 000232       $C$DW$L$_JAC_update$19$B:
    3550                      .dwpsn  file "C:/Users/a0221074/Desktop/C5000/IBM_Watson_TIdesign_workarea/CSL_bitbucket/c55_csl/c55x
    3551 000232 A9CD          MOV *FP(#1195), AR1 ; |1148| 
         000234 04AB 
    3552 000236 AACD          MOV *FP(#1022), AR2 ; |1148| 
         000238 03FE 
    3553 00023a 1298          CMPU AR2 <= AR1, TC1 ; |1148| 
         00023c A4   
    3554 00023d 6164          BCC $C$L52,TC1 ; |1148| 
    3555                                                      ; branchcc occurs ; |1148| 
    3556 00023f       $C$DW$L$_JAC_update$19$E:
    3557 00023f       $C$DW$L$_JAC_update$20$B:
    3558 00023f 22A9          MOV AR2, AR1
    3559 000241       $C$DW$L$_JAC_update$20$E:
    3560 000241       $C$L52:    
    3561 000241       $C$DW$L$_JAC_update$21$B:
    3562 000241 C9CD          MOV AR1, *FP(#1022) ; |1148| 
         000243 03FE 
    3563                      .dwpsn  file "C:/Users/a0221074/Desktop/C5000/IBM_Watson_TIdesign_workarea/CSL_bitbucket/c55_csl/c55x
    3564 000245 ED1C          MOV dbl(*SP(#14)), XAR3
         000247 BF   
    3565 000248 DFCD          MOV uns(*FP(#1194)), AC0 ; |1149| 
         00024a 0504 
         00024c AA   
    3566 00024d 900A          MOV AC0, XAR2
    3567 00024f ED6D          MOV dbl(*AR3(#1152)), XAR3
         000251 BF04 
         000253 80   
    3568 000254 14A1          AADD XAR2, XAR3 ; |1149| 
         000256 B0   
TMS320C55x Assembler PC v4.4.1 Wed Sep 13 16:33:23 2017

Tools Copyright (c) 1996-2012 Texas Instruments Incorporated
C:\Users\a0221074\AppData\Local\Temp\1618010                         PAGE   82

    3569 000257 ED1C          MOV dbl(*SP(#14)), XAR2
         000259 AF   
    3570 00025a A94D          MOV *AR2(#1159), AR1 ; |1149| 
         00025c 0487 
    3571 00025e D661          ADD *AR3, AR1, AR1 ; |1149| 
         000260 99   
    3572 000261 ED1C          MOV dbl(*SP(#14)), XAR3
         000263 BF   
    3573 000264 7DFF          AND #0xffff, AR1, AC0 ; |1149| 
         000266 FF09 
    3574 000268 900A          MOV AC0, XAR2
    3575 00026a ED6D          MOV dbl(*AR3(#1180)), XAR3
         00026c BF04 
         00026e 9C   
    3576 00026f 14A1          AADD XAR2, XAR3 ; |1149| 
         000271 B0   
    3577 000272 DF61          MOV uns(*AR3), AC0 ; |1149| 
         000274 05   
    3578 000275 ED1C          MOV dbl(*SP(#14)), XAR3
         000277 BF   
    3579 000278 900A          MOV AC0, XAR2
    3580 00027a ED6D          MOV dbl(*AR3(#1180)), XAR3
         00027c BF04 
         00027e 9C   
    3581 00027f 14A1          AADD XAR2, XAR3 ; |1149| 
         000281 B0   
    3582 000282 EBCD          MOV XAR3, dbl(*FP(#1034))
         000284 B504 
         000286 0A   
    3583                      .dwpsn  file "C:/Users/a0221074/Desktop/C5000/IBM_Watson_TIdesign_workarea/CSL_bitbucket/c55_csl/c55x
    3584 000287 E6CD          MOV #0, *FP(#1196) ; |1150| 
         000289 0004 
         00028b AC   
    3585                      .dwpsn  file "C:/Users/a0221074/Desktop/C5000/IBM_Watson_TIdesign_workarea/CSL_bitbucket/c55_csl/c55x
    3586 00028c DFCD          MOV uns(*FP(#1196)), AC0 ; |1151| 
         00028e 0504 
         000290 AC   
    3587 000291 900A          MOV AC0, XAR2
    3588 000293 EC20          AMAR *SP(#16), XAR3
         000295 BE   
    3589 000296 14A1          AADD XAR2, XAR3 ; |1151| 
         000298 B0   
    3590 000299 EBCD          MOV XAR3, dbl(*FP(#1198))
         00029b B504 
         00029d AE   
    3591                      .dwpsn  file "C:/Users/a0221074/Desktop/C5000/IBM_Watson_TIdesign_workarea/CSL_bitbucket/c55_csl/c55x
    3592 00029e EDCD          MOV dbl(*FP(#1034)), XAR3
         0002a0 BF04 
         0002a2 0A   
    3593 0002a3 A461          MOV *AR3, T0 ; |1152| 
    3594 0002a5 ED1C          MOV dbl(*SP(#14)), XAR3
         0002a7 BF   
    3595 0002a8 ED6D          MOV dbl(*AR3(#1190)), XAR3
         0002aa BF04 
         0002ac A6   
TMS320C55x Assembler PC v4.4.1 Wed Sep 13 16:33:23 2017

Tools Copyright (c) 1996-2012 Texas Instruments Incorporated
C:\Users\a0221074\AppData\Local\Temp\1618010                         PAGE   83

    3596 0002ad A0CD          MOV *FP(#1196), AC0 ; |1152| 
         0002af 04AC 
    3597 0002b1 A56B          MOV *AR3(T0), T1 ; |1152| 
    3598 0002b3 4215          SUB #1, T1 ; |1152| 
    3599 0002b5 D4CD          MACM *FP(#1195), T1, AC0, AC0 ; |1152| 
         0002b7 0404 
         0002b9 AB   
    3600 0002ba C0CD          MOV AC0, *FP(#1196) ; |1152| 
         0002bc 04AC 
    3601                      .dwpsn  file "C:/Users/a0221074/Desktop/C5000/IBM_Watson_TIdesign_workarea/CSL_bitbucket/c55_csl/c55x
    3602 0002be DFCD          MOV uns(*FP(#1196)), AC0 ; |1153| 
         0002c0 0504 
         0002c2 AC   
    3603 0002c3 900A          MOV AC0, XAR2
    3604 0002c5 EC20          AMAR *SP(#16), XAR3
         0002c7 BE   
    3605 0002c8 14A1          AADD XAR2, XAR3 ; |1153| 
         0002ca B0   
    3606 0002cb EBCD          MOV XAR3, dbl(*FP(#1200))
         0002cd B504 
         0002cf B0   
    3607                      .dwpsn  file "C:/Users/a0221074/Desktop/C5000/IBM_Watson_TIdesign_workarea/CSL_bitbucket/c55_csl/c55x
    3608 0002d0 EDCD          MOV dbl(*FP(#1034)), XAR3
         0002d2 BF04 
         0002d4 0A   
    3609 0002d5 A461          MOV *AR3, T0 ; |1154| 
    3610 0002d7 ED1C          MOV dbl(*SP(#14)), XAR3
         0002d9 BF   
    3611 0002da ED6D          MOV dbl(*AR3(#1190)), XAR3
         0002dc BF04 
         0002de A6   
    3612 0002df A5CD          MOV *FP(#1195), T1 ; |1154| 
         0002e1 04AB 
    3613 0002e3 A0CD          MOV *FP(#1196), AC0 ; |1154| 
         0002e5 04AC 
    3614 0002e7 D46B          MACM *AR3(T0), T1, AC0, AC0 ; |1154| 
         0002e9 04   
    3615 0002ea C0CD          MOV AC0, *FP(#1196) ; |1154| 
         0002ec 04AC 
    3616                      .dwpsn  file "C:/Users/a0221074/Desktop/C5000/IBM_Watson_TIdesign_workarea/CSL_bitbucket/c55_csl/c55x
    3617 0002ee DFCD          MOV uns(*FP(#1196)), AC0 ; |1155| 
         0002f0 0504 
         0002f2 AC   
    3618 0002f3 900A          MOV AC0, XAR2
    3619 0002f5 EC20          AMAR *SP(#16), XAR3
         0002f7 BE   
    3620 0002f8 14A1          AADD XAR2, XAR3 ; |1155| 
         0002fa B0   
    3621 0002fb EBCD          MOV XAR3, dbl(*FP(#1202))
         0002fd B504 
         0002ff B2   
    3622                      .dwpsn  file "C:/Users/a0221074/Desktop/C5000/IBM_Watson_TIdesign_workarea/CSL_bitbucket/c55_csl/c55x
    3623 000300 EDCD          MOV dbl(*FP(#1034)), XAR3
         000302 BF04 
         000304 0A   
TMS320C55x Assembler PC v4.4.1 Wed Sep 13 16:33:23 2017

Tools Copyright (c) 1996-2012 Texas Instruments Incorporated
C:\Users\a0221074\AppData\Local\Temp\1618010                         PAGE   84

    3624 000305 A461          MOV *AR3, T0 ; |1156| 
    3625 000307 ED1C          MOV dbl(*SP(#14)), XAR3
         000309 BF   
    3626 00030a ED6D          MOV dbl(*AR3(#1190)), XAR3
         00030c BF04 
         00030e A6   
    3627 00030f A0CD          MOV *FP(#1196), AC0 ; |1156| 
         000311 04AC 
    3628 000313 A16B          MOV *AR3(T0), AC1 ; |1156| 
    3629 000315 1013          ADD AC1 << #1, AC0 ; |1156| 
         000317 01   
    3630 000318 C0CD          MOV AC0, *FP(#1196) ; |1156| 
         00031a 04AC 
    3631                      .dwpsn  file "C:/Users/a0221074/Desktop/C5000/IBM_Watson_TIdesign_workarea/CSL_bitbucket/c55_csl/c55x
    3632 00031c DFCD          MOV uns(*FP(#1196)), AC0 ; |1157| 
         00031e 0504 
         000320 AC   
    3633 000321 900A          MOV AC0, XAR2
    3634 000323 EC20          AMAR *SP(#16), XAR3
         000325 BE   
    3635 000326 14A1          AADD XAR2, XAR3 ; |1157| 
         000328 B0   
    3636 000329 EBCD          MOV XAR3, dbl(*FP(#1204))
         00032b B504 
         00032d B4   
    3637                      .dwpsn  file "C:/Users/a0221074/Desktop/C5000/IBM_Watson_TIdesign_workarea/CSL_bitbucket/c55_csl/c55x
    3638 00032e A9CD          MOV *FP(#1195), AR1 ; |1158| 
         000330 04AB 
    3639 000332 D6CD          ADD *FP(#1196), AR1, AR1 ; |1158| 
         000334 9904 
         000336 AC   
    3640 000337 4019          ADD #1, AR1 ; |1158| 
    3641 000339 C9CD          MOV AR1, *FP(#1196) ; |1158| 
         00033b 04AC 
    3642                      .dwpsn  file "C:/Users/a0221074/Desktop/C5000/IBM_Watson_TIdesign_workarea/CSL_bitbucket/c55_csl/c55x
    3643 00033d 7603          MOV #1000, AR2 ; |1161| 
         00033f E8A8 
    3644 000341 12A8          CMPU AR1 <= AR2, TC1 ; |1161| 
         000343 94   
    3645 000344 62E4          BCC $C$L53,TC1 ; |1161| 
    3646                                                      ; branchcc occurs ; |1161| 
    3647 000346       $C$DW$L$_JAC_update$21$E:
    3648                      .dwpsn  file "C:/Users/a0221074/Desktop/C5000/IBM_Watson_TIdesign_workarea/CSL_bitbucket/c55_csl/c55x
    3649 000346 3C14          MOV #1, T0
    3650 000348 0604          B $C$L71  ; |1163| 
         00034a F9   
    3651                                                      ; branch occurs ; |1163| 
    3652 00034b       $C$L53:    
    3653 00034b       $C$DW$L$_JAC_update$23$B:
    3654                      .dwpsn  file "C:/Users/a0221074/Desktop/C5000/IBM_Watson_TIdesign_workarea/CSL_bitbucket/c55_csl/c55x
    3655 00034b ED1C          MOV dbl(*SP(#14)), XAR3
         00034d BF   
    3656 00034e DFCD          MOV uns(*FP(#1194)), AC0 ; |1170| 
         000350 0504 
         000352 AA   
TMS320C55x Assembler PC v4.4.1 Wed Sep 13 16:33:23 2017

Tools Copyright (c) 1996-2012 Texas Instruments Incorporated
C:\Users\a0221074\AppData\Local\Temp\1618010                         PAGE   85

    3657 000353 900A          MOV AC0, XAR2
    3658 000355 ED6D          MOV dbl(*AR3(#1154)), XAR3
         000357 BF04 
         000359 82   
    3659 00035a 14A1          AADD XAR2, XAR3 ; |1170| 
         00035c B0   
    3660 00035d A461          MOV *AR3, T0 ; |1170| 
    3661 00035f ED1C          MOV dbl(*SP(#14)), XAR3
         000361 BF   
    3662 000362 A5CD          MOV *FP(#1195), T1 ; |1170| 
         000364 04AB 
    3663 000366 EDCD          MOV dbl(*FP(#1034)), XAR0
         000368 8F04 
         00036a 0A   
    3664 00036b EDCD          MOV dbl(*FP(#1198)), XAR1
         00036d 9F04 
         00036f AE   
    3665 000370 AA6D          MOV *AR3(#277), AR2 ; |1170| 
         000372 0115 
    3666              $C$DW$387       .dwtag  DW_TAG_TI_branch
    3667                      .dwattr $C$DW$387, DW_AT_low_pc(0x00)
    3668                      .dwattr $C$DW$387, DW_AT_name("_observation_likelihood")
    3669                      .dwattr $C$DW$387, DW_AT_TI_call
    3670 000374 6C00          CALL #_observation_likelihood ; |1170| 
         000376 0000!
    3671                                                      ; call occurs [#_observation_likelihood] ; |1170| 
    3672                      .dwpsn  file "C:/Users/a0221074/Desktop/C5000/IBM_Watson_TIdesign_workarea/CSL_bitbucket/c55_csl/c55x
    3673 000378 A4CD          MOV *FP(#1195), T0 ; |1172| 
         00037a 04AB 
    3674 00037c ED1C          MOV dbl(*SP(#14)), XAR4
         00037e CF   
    3675 00037f EDCD          MOV dbl(*FP(#1198)), XAR0
         000381 8F04 
         000383 AE   
    3676 000384 EDCD          MOV dbl(*FP(#1200)), XAR1
         000386 9F04 
         000388 B0   
    3677 000389 EDCD          MOV dbl(*FP(#1034)), XAR2
         00038b AF04 
         00038d 0A   
    3678 00038e EDCD          MOV dbl(*FP(#1204)), XAR3
         000390 BF04 
         000392 B4   
    3679              $C$DW$388       .dwtag  DW_TAG_TI_branch
    3680                      .dwattr $C$DW$388, DW_AT_low_pc(0x00)
    3681                      .dwattr $C$DW$388, DW_AT_name("_EM_beta")
    3682                      .dwattr $C$DW$388, DW_AT_TI_call
    3683 000393 6C00          CALL #_EM_beta ; |1172| 
         000395 0000!
    3684                                                      ; call occurs [#_EM_beta] ; |1172| 
    3685 000397 EBCD          MOV AC0, dbl(*FP(#1026)) ; |1172| 
         000399 0804 
         00039b 02   
    3686                      .dwpsn  file "C:/Users/a0221074/Desktop/C5000/IBM_Watson_TIdesign_workarea/CSL_bitbucket/c55_csl/c55x
    3687 00039c 7AE1          MOV #-7813 << #16, AC0 ; |1174| 
TMS320C55x Assembler PC v4.4.1 Wed Sep 13 16:33:23 2017

Tools Copyright (c) 1996-2012 Texas Instruments Incorporated
C:\Users\a0221074\AppData\Local\Temp\1618010                         PAGE   86

         00039e 7B0A 
    3688 0003a0 7E80          OR #0x8000, AC0, AC0 ; |1174| 
         0003a2 0000 
    3689 0003a4 EDCD          MOV dbl(*FP(#1026)), AC1 ; |1174| 
         0003a6 1804 
         0003a8 02   
    3690 0003a9 1208          CMP AC1 <= AC0, TC1 ; |1174| 
         0003ab 10   
    3691 0003ac 6D64          BCC $C$L55,TC1 ; |1174| 
         0003ae 00DE 
    3692                                                      ; branchcc occurs ; |1174| 
    3693 0003b0       $C$DW$L$_JAC_update$23$E:
    3694 0003b0       $C$DW$L$_JAC_update$24$B:
    3695                      .dwpsn  file "C:/Users/a0221074/Desktop/C5000/IBM_Watson_TIdesign_workarea/CSL_bitbucket/c55_csl/c55x
    3696 0003b0 EDCD          MOV dbl(*FP(#1204)), XAR3
         0003b2 BF04 
         0003b4 B4   
    3697 0003b5 EB00          MOV XAR3, dbl(*SP(#0))
         0003b7 B5   
    3698 0003b8 EDCD          MOV dbl(*FP(#1032)), XAR3
         0003ba BF04 
         0003bc 08   
    3699 0003bd EB04          MOV XAR3, dbl(*SP(#2))
         0003bf B5   
    3700 0003c0 ED1C          MOV dbl(*SP(#14)), XAR3
         0003c2 BF   
    3701 0003c3 B46F          AMAR *+AR3(#840) ; |1176| 
         0003c5 0348 
    3702 0003c7 EB08          MOV XAR3, dbl(*SP(#4))
         0003c9 B5   
    3703 0003ca ED1C          MOV dbl(*SP(#14)), XAR3
         0003cc BF   
    3704 0003cd B46F          AMAR *+AR3(#866) ; |1176| 
         0003cf 0362 
    3705 0003d1 EB0C          MOV XAR3, dbl(*SP(#6))
         0003d3 B5   
    3706 0003d4 ED1C          MOV dbl(*SP(#14)), XAR3
         0003d6 BF   
    3707 0003d7 A96D          MOV *AR3(#277), AR1 ; |1176| 
         0003d9 0115 
    3708 0003db C910          MOV AR1, *SP(#8) ; |1176| 
    3709 0003dd ED1C          MOV dbl(*SP(#14)), XAR3
         0003df BF   
    3710 0003e0 EB14          MOV XAR3, dbl(*SP(#10))
         0003e2 B5   
    3711 0003e3 ED1C          MOV dbl(*SP(#14)), XAR3
         0003e5 BF   
    3712 0003e6 DFCD          MOV uns(*FP(#1194)), AC0 ; |1176| 
         0003e8 0504 
         0003ea AA   
    3713 0003eb 900A          MOV AC0, XAR2
    3714 0003ed ED6D          MOV dbl(*AR3(#1152)), XAR3
         0003ef BF04 
         0003f1 80   
    3715 0003f2 14A1          AADD XAR2, XAR3 ; |1176| 
TMS320C55x Assembler PC v4.4.1 Wed Sep 13 16:33:23 2017

Tools Copyright (c) 1996-2012 Texas Instruments Incorporated
C:\Users\a0221074\AppData\Local\Temp\1618010                         PAGE   87

         0003f4 B0   
    3716 0003f5 A461          MOV *AR3, T0 ; |1176| 
    3717 0003f7 ED1C          MOV dbl(*SP(#14)), XAR3
         0003f9 BF   
    3718 0003fa DFCD          MOV uns(*FP(#1194)), AC0 ; |1176| 
         0003fc 0504 
         0003fe AA   
    3719 0003ff 900A          MOV AC0, XAR2
    3720 000401 ED6D          MOV dbl(*AR3(#1154)), XAR3
         000403 BF04 
         000405 82   
    3721 000406 EDCD          MOV dbl(*FP(#1034)), XAR0
         000408 8F04 
         00040a 0A   
    3722 00040b EDCD          MOV dbl(*FP(#1202)), XAR4
         00040d CF04 
         00040f B2   
    3723 000410 EDCD          MOV dbl(*FP(#1198)), XAR1
         000412 9F04 
         000414 AE   
    3724 000415 14A1          AADD XAR2, XAR3 ; |1176| 
         000417 B0   
    3725 000418 A561          MOV *AR3, T1 ; |1176| 
    3726 00041a EDCD          MOV dbl(*FP(#1200)), XAR2
         00041c AF04 
         00041e B0   
    3727 00041f ABCD          MOV *FP(#1195), AR3 ; |1176| 
         000421 04AB 
    3728              $C$DW$389       .dwtag  DW_TAG_TI_branch
    3729                      .dwattr $C$DW$389, DW_AT_low_pc(0x00)
    3730                      .dwattr $C$DW$389, DW_AT_name("_update_statistics")
    3731                      .dwattr $C$DW$389, DW_AT_TI_call
    3732 000423 6C00          CALL #_update_statistics ; |1176| 
         000425 0000+
    3733                                                      ; call occurs [#_update_statistics] ; |1176| 
    3734 000427 0404          BCC $C$L54,T0 == #0 ; |1176| 
         000429 1C   
    3735                                                      ; branchcc occurs ; |1176| 
    3736 00042a       $C$DW$L$_JAC_update$24$E:
    3737 00042a       $C$DW$L$_JAC_update$25$B:
    3738                      .dwpsn  file "C:/Users/a0221074/Desktop/C5000/IBM_Watson_TIdesign_workarea/CSL_bitbucket/c55_csl/c55x
    3739 00042a EDCD          MOV dbl(*FP(#1026)), AC0 ; |1180| 
         00042c 0804 
         00042e 02   
    3740 00042f EDCD          ADD dbl(*FP(#1024)), AC0, AC0 ; |1180| 
         000431 0004 
         000433 00   
    3741 000434 EBCD          MOV AC0, dbl(*FP(#1024)) ; |1180| 
         000436 0804 
         000438 00   
    3742                      .dwpsn  file "C:/Users/a0221074/Desktop/C5000/IBM_Watson_TIdesign_workarea/CSL_bitbucket/c55_csl/c55x
    3743 000439 A9CD          MOV *FP(#1195), AR1 ; |1182| 
         00043b 04AB 
    3744 00043d D6CD          ADD *FP(#1036), AR1, AR1 ; |1182| 
         00043f 9904 
TMS320C55x Assembler PC v4.4.1 Wed Sep 13 16:33:23 2017

Tools Copyright (c) 1996-2012 Texas Instruments Incorporated
C:\Users\a0221074\AppData\Local\Temp\1618010                         PAGE   88

         000441 0C   
    3745 000442 C9CD          MOV AR1, *FP(#1036) ; |1182| 
         000444 040C 
    3746 000446       $C$DW$L$_JAC_update$25$E:
    3747 000446       $C$L54:    
    3748 000446       $C$DW$L$_JAC_update$26$B:
    3749                      .dwpsn  file "C:/Users/a0221074/Desktop/C5000/IBM_Watson_TIdesign_workarea/CSL_bitbucket/c55_csl/c55x
    3750 000446 ED1C          MOV dbl(*SP(#14)), XAR3
         000448 BF   
    3751 000449 DFCD          MOV uns(*FP(#1194)), AC0 ; |1193| 
         00044b 0504 
         00044d AA   
    3752 00044e 900A          MOV AC0, XAR2
    3753 000450 ED6D          MOV dbl(*AR3(#1152)), XAR3
         000452 BF04 
         000454 80   
    3754 000455 14A1          AADD XAR2, XAR3 ; |1193| 
         000457 B0   
    3755 000458 A461          MOV *AR3, T0 ; |1193| 
    3756 00045a ED1C          MOV dbl(*SP(#14)), XAR3
         00045c BF   
    3757 00045d DFCD          MOV uns(*FP(#1194)), AC0 ; |1193| 
         00045f 0504 
         000461 AA   
    3758 000462 900A          MOV AC0, XAR2
    3759 000464 ED6D          MOV dbl(*AR3(#1154)), XAR3
         000466 BF04 
         000468 82   
    3760 000469 14A1          AADD XAR2, XAR3 ; |1193| 
         00046b B0   
    3761 00046c A561          MOV *AR3, T1 ; |1193| 
    3762 00046e ED1C          MOV dbl(*SP(#14)), XAR3
         000470 BF   
    3763 000471 DFCD          MOV uns(*FP(#1194)), AC0 ; |1193| 
         000473 0504 
         000475 AA   
    3764 000476 900A          MOV AC0, XAR2
    3765 000478 ED6D          MOV dbl(*AR3(#1156)), XAR3
         00047a BF04 
         00047c 84   
    3766 00047d ED1C          MOV dbl(*SP(#14)), XAR0
         00047f 8F   
    3767 000480 EDCD          MOV dbl(*FP(#1026)), AC0 ; |1193| 
         000482 0804 
         000484 02   
    3768 000485 14A1          AADD XAR2, XAR3 ; |1193| 
         000487 B0   
    3769 000488 A961          MOV *AR3, AR1 ; |1193| 
    3770              $C$DW$390       .dwtag  DW_TAG_TI_branch
    3771                      .dwattr $C$DW$390, DW_AT_low_pc(0x00)
    3772                      .dwattr $C$DW$390, DW_AT_name("_cm_acc_seg_ratio_to_antimodel")
    3773                      .dwattr $C$DW$390, DW_AT_TI_call
    3774 00048a 6C00          CALL #_cm_acc_seg_ratio_to_antimodel ; |1193| 
         00048c 0000!
    3775                                                      ; call occurs [#_cm_acc_seg_ratio_to_antimodel] ; |1193| 
TMS320C55x Assembler PC v4.4.1 Wed Sep 13 16:33:23 2017

Tools Copyright (c) 1996-2012 Texas Instruments Incorporated
C:\Users\a0221074\AppData\Local\Temp\1618010                         PAGE   89

    3776 00048e       $C$DW$L$_JAC_update$26$E:
    3777 00048e       $C$L55:    
    3778 00048e       $C$DW$L$_JAC_update$27$B:
    3779                      .dwpsn  file "C:/Users/a0221074/Desktop/C5000/IBM_Watson_TIdesign_workarea/CSL_bitbucket/c55_csl/c55x
    3780 00048e F7CD          ADD #1, *FP(#1194) ; |1135| 
         000490 0001 
         000492 04AA 
    3781                      .dwpsn  file "C:/Users/a0221074/Desktop/C5000/IBM_Watson_TIdesign_workarea/CSL_bitbucket/c55_csl/c55x
    3782 000494 ED1C          MOV dbl(*SP(#14)), XAR3
         000496 BF   
    3783 000497 AACD          MOV *FP(#1194), AR2 ; |1135| 
         000499 04AA 
    3784 00049b A96D          MOV *AR3(#1158), AR1 ; |1135| 
         00049d 0486 
    3785 00049f 12A4          CMPU AR2 < AR1, TC1 ; |1135| 
         0004a1 94   
    3786 0004a2 6D64          BCC $C$L49,TC1 ; |1135| 
         0004a4 FD16 
    3787                                                      ; branchcc occurs ; |1135| 
    3788 0004a6       $C$DW$L$_JAC_update$27$E:
    3789 0004a6       $C$L56:    
    3790 0004a6       $C$DW$L$_JAC_update$28$B:
    3791                      .dwpsn  file "C:/Users/a0221074/Desktop/C5000/IBM_Watson_TIdesign_workarea/CSL_bitbucket/c55_csl/c55x
    3792 0004a6 ED1C          MOV dbl(*SP(#14)), XAR0
         0004a8 8F   
    3793              $C$DW$391       .dwtag  DW_TAG_TI_branch
    3794                      .dwattr $C$DW$391, DW_AT_low_pc(0x00)
    3795                      .dwattr $C$DW$391, DW_AT_name("_cm_update_status")
    3796                      .dwattr $C$DW$391, DW_AT_TI_call
    3797 0004a9 6C00          CALL #_cm_update_status ; |1205| 
         0004ab 0000!
    3798                                                      ; call occurs [#_cm_update_status] ; |1205| 
    3799                      .dwpsn  file "C:/Users/a0221074/Desktop/C5000/IBM_Watson_TIdesign_workarea/CSL_bitbucket/c55_csl/c55x
    3800 0004ad ED1C          MOV dbl(*SP(#14)), XAR3
         0004af BF   
    3801 0004b0 ED6D          MOV dbl(*AR3(#2014)), XAR3
         0004b2 BF07 
         0004b4 DE   
    3802 0004b5 A96D          MOV *AR3(#1346), AR1 ; |1209| 
         0004b7 0542 
    3803 0004b9 ED1C          MOV dbl(*SP(#14)), XAR3
         0004bb BF   
    3804 0004bc AA6D          MOV *AR3(#2012), AR2 ; |1209| 
         0004be 07DC 
    3805 0004c0 1298          CMP AR2 <= AR1, TC1 ; |1209| 
         0004c2 A0   
    3806 0004c3 6D64          BCC $C$L65,TC1 ; |1209| 
         0004c5 0336 
    3807                                                      ; branchcc occurs ; |1209| 
    3808 0004c7       $C$DW$L$_JAC_update$28$E:
    3809 0004c7       $C$DW$L$_JAC_update$29$B:
    3810                      .dwpsn  file "C:/Users/a0221074/Desktop/C5000/IBM_Watson_TIdesign_workarea/CSL_bitbucket/c55_csl/c55x
    3811 0004c7 3C00          MOV #0, AC0 ; |1218| 
    3812 0004c9 7E80          OR #0x8000, AC0, AC0 ; |1218| 
         0004cb 0000 
TMS320C55x Assembler PC v4.4.1 Wed Sep 13 16:33:23 2017

Tools Copyright (c) 1996-2012 Texas Instruments Incorporated
C:\Users\a0221074\AppData\Local\Temp\1618010                         PAGE   90

    3813 0004cd DF6D          SUB uns(*AR3(#1100)), AC0, AC0 ; |1218| 
         0004cf 0F04 
         0004d1 4C   
    3814 0004d2 C0CD          MOV AC0, *FP(#1021) ; |1218| 
         0004d4 03FD 
    3815                      .dwpsn  file "C:/Users/a0221074/Desktop/C5000/IBM_Watson_TIdesign_workarea/CSL_bitbucket/c55_csl/c55x
    3816 0004d6 E6CD          MOV #0, *FP(#1020) ; |1224| 
         0004d8 0003 
         0004da FC   
    3817 0004db ED1C          MOV dbl(*SP(#14)), XAR3
         0004dd BF   
    3818 0004de AACD          MOV *FP(#1020), AR2 ; |1224| 
         0004e0 03FC 
    3819 0004e2 A96D          MOV *AR3(#279), AR1 ; |1224| 
         0004e4 0117 
    3820 0004e6 5090          SFTL AR1, #1 ; |1224| 
    3821 0004e8 12A8          CMPU AR2 >= AR1, TC1 ; |1224| 
         0004ea 94   
    3822 0004eb 0464          BCC $C$L60,TC1 ; |1224| 
         0004ed 7D   
    3823                                                      ; branchcc occurs ; |1224| 
    3824 0004ee       $C$DW$L$_JAC_update$29$E:
    3825 0004ee       $C$L57:    
    3826 0004ee       $C$DW$L$_JAC_update$30$B:
    3827              
    3828              $C$DW$392       .dwtag  DW_TAG_lexical_block, DW_AT_low_pc(0x00), DW_AT_high_pc(0x00)
    3829              $C$DW$393       .dwtag  DW_TAG_variable, DW_AT_name("top")
    3830                      .dwattr $C$DW$393, DW_AT_TI_symbol_name("_top")
    3831                      .dwattr $C$DW$393, DW_AT_type(*$C$DW$T$12)
    3832                      .dwattr $C$DW$393, DW_AT_location[DW_OP_bregx 0x24 1206]
    3833                      .dwpsn  file "C:/Users/a0221074/Desktop/C5000/IBM_Watson_TIdesign_workarea/CSL_bitbucket/c55_csl/c55x
    3834 0004ee A9CD          MOV *FP(#1036), AR1 ; |1227| 
         0004f0 040C 
    3835 0004f2 6219          BCC $C$L58,AR1 != #0 ; |1227| 
    3836                                                      ; branchcc occurs ; |1227| 
    3837 0004f4       $C$DW$L$_JAC_update$30$E:
    3838 0004f4       $C$DW$L$_JAC_update$31$B:
    3839              
    3840 0004f4 4A1D          B $C$L59  ; |1227| 
    3841 0004f6 3D00  ||      MOV #0, AC0 ; |1227| 
    3842              
    3843                                                      ; branch occurs ; |1227| 
    3844 0004f8       $C$DW$L$_JAC_update$31$E:
    3845 0004f8       $C$L58:    
    3846 0004f8       $C$DW$L$_JAC_update$32$B:
    3847 0004f8 EDCD          MOV dbl(*FP(#1032)), XAR3
         0004fa BF04 
         0004fc 08   
    3848 0004fd DFCD          MOV uns(*FP(#1020)), AC0 ; |1227| 
         0004ff 0503 
         000501 FC   
    3849 000502 5000          SFTL AC0, #1 ; |1227| 
    3850 000504 900A          MOV AC0, XAR2
    3851 000506 DFCD          MOV uns(*FP(#1036)), AC1 ; |1227| 
         000508 1504 
TMS320C55x Assembler PC v4.4.1 Wed Sep 13 16:33:23 2017

Tools Copyright (c) 1996-2012 Texas Instruments Incorporated
C:\Users\a0221074\AppData\Local\Temp\1618010                         PAGE   91

         00050a 0C   
    3852 00050b 14A1          AADD XAR2, XAR3 ; |1227| 
         00050d B0   
    3853 00050e ED61          MOV dbl(*AR3), AC0 ; |1227| 
         000510 08   
    3854              $C$DW$394       .dwtag  DW_TAG_TI_branch
    3855                      .dwattr $C$DW$394, DW_AT_low_pc(0x00)
    3856                      .dwattr $C$DW$394, DW_AT_name("__divli")
    3857                      .dwattr $C$DW$394, DW_AT_TI_call
    3858 000511 6C00          CALL #__divli ; |1227| 
         000513 0000!
    3859                                                      ; call occurs [#__divli] ; |1227| 
    3860 000515       $C$DW$L$_JAC_update$32$E:
    3861 000515       $C$L59:    
    3862 000515       $C$DW$L$_JAC_update$33$B:
    3863 000515 EBCD          MOV AC0, dbl(*FP(#1206)) ; |1227| 
         000517 0804 
         000519 B6   
    3864                      .dwpsn  file "C:/Users/a0221074/Desktop/C5000/IBM_Watson_TIdesign_workarea/CSL_bitbucket/c55_csl/c55x
    3865 00051a ED1C          MOV dbl(*SP(#14)), XAR3
         00051c BF   
    3866 00051d DFCD          MOV uns(*FP(#1020)), AC0 ; |1229| 
         00051f 0503 
         000521 FC   
    3867 000522 5000          SFTL AC0, #1 ; |1229| 
    3868 000524 900A          MOV AC0, XAR2
    3869 000526 A46D          MOV *AR3(#1100), T0 ; |1229| 
         000528 044C 
    3870 00052a EDCD          MOV dbl(*FP(#1028)), XAR3
         00052c BF04 
         00052e 04   
    3871 00052f 14A1          AADD XAR2, XAR3 ; |1229| 
         000531 B0   
    3872 000532 ED61          MOV dbl(*AR3), AC0 ; |1229| 
         000534 08   
    3873              $C$DW$395       .dwtag  DW_TAG_TI_branch
    3874                      .dwattr $C$DW$395, DW_AT_low_pc(0x00)
    3875                      .dwattr $C$DW$395, DW_AT_name("_q15_x")
    3876                      .dwattr $C$DW$395, DW_AT_TI_call
    3877 000535 6C00          CALL #_q15_x ; |1229| 
         000537 0000!
    3878                                                      ; call occurs [#_q15_x] ; |1229| 
    3879 000539 EDCD          MOV dbl(*FP(#1028)), XAR3
         00053b BF04 
         00053d 04   
    3880 00053e EDCD          ADD dbl(*FP(#1206)), AC0, AC1 ; |1229| 
         000540 1004 
         000542 B6   
    3881 000543 DFCD          MOV uns(*FP(#1020)), AC0 ; |1229| 
         000545 0503 
         000547 FC   
    3882 000548 5000          SFTL AC0, #1 ; |1229| 
    3883 00054a 900A          MOV AC0, XAR2
    3884 00054c 14A1          AADD XAR2, XAR3 ; |1229| 
         00054e B0   
TMS320C55x Assembler PC v4.4.1 Wed Sep 13 16:33:23 2017

Tools Copyright (c) 1996-2012 Texas Instruments Incorporated
C:\Users\a0221074\AppData\Local\Temp\1618010                         PAGE   92

    3885 00054f EB61          MOV AC1, dbl(*AR3) ; |1229| 
         000551 18   
    3886                      .dwendtag $C$DW$392
    3887              
    3888                      .dwpsn  file "C:/Users/a0221074/Desktop/C5000/IBM_Watson_TIdesign_workarea/CSL_bitbucket/c55_csl/c55x
    3889 000552 F7CD          ADD #1, *FP(#1020) ; |1224| 
         000554 0001 
         000556 03FC 
    3890 000558 ED1C          MOV dbl(*SP(#14)), XAR3
         00055a BF   
    3891 00055b AACD          MOV *FP(#1020), AR2 ; |1224| 
         00055d 03FC 
    3892 00055f A96D          MOV *AR3(#279), AR1 ; |1224| 
         000561 0117 
    3893 000563 5090          SFTL AR1, #1 ; |1224| 
    3894 000565 12A4          CMPU AR2 < AR1, TC1 ; |1224| 
         000567 94   
    3895 000568 0464          BCC $C$L57,TC1 ; |1224| 
         00056a 83   
    3896                                                      ; branchcc occurs ; |1224| 
    3897 00056b       $C$DW$L$_JAC_update$33$E:
    3898 00056b       $C$L60:    
    3899 00056b       $C$DW$L$_JAC_update$34$B:
    3900                      .dwpsn  file "C:/Users/a0221074/Desktop/C5000/IBM_Watson_TIdesign_workarea/CSL_bitbucket/c55_csl/c55x
    3901 00056b E6CD          MOV #0, *FP(#1020) ; |1235| 
         00056d 0003 
         00056f FC   
    3902 000570 ED1C          MOV dbl(*SP(#14)), XAR3
         000572 BF   
    3903 000573 AACD          MOV *FP(#1020), AR2 ; |1235| 
         000575 03FC 
    3904 000577 A96D          MOV *AR3(#279), AR1 ; |1235| 
         000579 0117 
    3905 00057b 12A8          CMPU AR2 >= AR1, TC1 ; |1235| 
         00057d 94   
    3906 00057e 6D64          BCC $C$L64,TC1 ; |1235| 
         000580 0271 
    3907                                                      ; branchcc occurs ; |1235| 
    3908 000582       $C$DW$L$_JAC_update$34$E:
    3909 000582       $C$L61:    
    3910 000582       $C$DW$L$_JAC_update$35$B:
    3911                      .dwpsn  file "C:/Users/a0221074/Desktop/C5000/IBM_Watson_TIdesign_workarea/CSL_bitbucket/c55_csl/c55x
    3912 000582 EDCD          MOV dbl(*FP(#1030)), XAR3
         000584 BF04 
         000586 06   
    3913 000587 DFCD          MOV uns(*FP(#1020)), AC0 ; |1238| 
         000589 0503 
         00058b FC   
    3914 00058c 5000          SFTL AC0, #1 ; |1238| 
    3915 00058e 900A          MOV AC0, XAR2
    3916 000590 7600          MOV #81, AC0 ; |1238| 
         000592 5108 
    3917 000594 14A1          AADD XAR2, XAR3 ; |1238| 
         000596 B0   
    3918 000597 ED61          MOV dbl(*AR3), AC1 ; |1238| 
TMS320C55x Assembler PC v4.4.1 Wed Sep 13 16:33:23 2017

Tools Copyright (c) 1996-2012 Texas Instruments Incorporated
C:\Users\a0221074\AppData\Local\Temp\1618010                         PAGE   93

         000599 18   
    3919 00059a 1208          CMP AC1 <= AC0, TC1 ; |1238| 
         00059c 10   
    3920 00059d 6D64          BCC $C$L63,TC1 ; |1238| 
         00059f 023A 
    3921                                                      ; branchcc occurs ; |1238| 
    3922 0005a1       $C$DW$L$_JAC_update$35$E:
    3923 0005a1       $C$DW$L$_JAC_update$36$B:
    3924                      .dwpsn  file "C:/Users/a0221074/Desktop/C5000/IBM_Watson_TIdesign_workarea/CSL_bitbucket/c55_csl/c55x
    3925 0005a1 EDCD          MOV dbl(*FP(#1028)), XAR3
         0005a3 BF04 
         0005a5 04   
    3926 0005a6 DFCD          MOV uns(*FP(#1020)), AC0 ; |1240| 
         0005a8 0503 
         0005aa FC   
    3927 0005ab 5000          SFTL AC0, #1 ; |1240| 
    3928 0005ad 900A          MOV AC0, XAR2
    3929 0005af 14A1          AADD XAR2, XAR3 ; |1240| 
         0005b1 B0   
    3930 0005b2 ED1C          MOV dbl(*SP(#14)), XAR2
         0005b4 AF   
    3931 0005b5 A94D          MOV *AR2(#279), AR1 ; |1240| 
         0005b7 0117 
    3932 0005b9 D6CD          ADD *FP(#1020), AR1, AR1 ; |1240| 
         0005bb 9903 
         0005bd FC   
    3933 0005be 7DFF          AND #0xffff, AR1, AC0 ; |1240| 
         0005c0 FF09 
    3934 0005c2 5000          SFTL AC0, #1 ; |1240| 
    3935 0005c4 900C          MOV AC0, XAR4
    3936 0005c6 EC00          AMAR *SP(#0), XAR2
         0005c8 AE   
    3937 0005c9 B44F          AMAR *+AR2(#1038)
         0005cb 040E 
    3938 0005cd 14C1          AADD XAR4, XAR2 ; |1240| 
         0005cf A0   
    3939 0005d0 8061          MOV dbl(*AR3), dbl(*AR2) ; |1240| 
         0005d2 00   
    3940                      .dwpsn  file "C:/Users/a0221074/Desktop/C5000/IBM_Watson_TIdesign_workarea/CSL_bitbucket/c55_csl/c55x
    3941 0005d3 EDCD          MOV dbl(*FP(#1030)), XAR3
         0005d5 BF04 
         0005d7 06   
    3942 0005d8 DFCD          MOV uns(*FP(#1020)), AC0 ; |1241| 
         0005da 0503 
         0005dc FC   
    3943 0005dd 5000          SFTL AC0, #1 ; |1241| 
    3944 0005df 900A          MOV AC0, XAR2
    3945 0005e1 14A1          AADD XAR2, XAR3 ; |1241| 
         0005e3 B0   
    3946 0005e4 ED61          MOV dbl(*AR3), AC0 ; |1241| 
         0005e6 08   
    3947 0005e7 ED1C          MOV dbl(*SP(#14)), XAR3
         0005e9 BF   
    3948 0005ea A96D          MOV *AR3(#279), AR1 ; |1241| 
         0005ec 0117 
TMS320C55x Assembler PC v4.4.1 Wed Sep 13 16:33:23 2017

Tools Copyright (c) 1996-2012 Texas Instruments Incorporated
C:\Users\a0221074\AppData\Local\Temp\1618010                         PAGE   94

    3949 0005ee D6CD          ADD *FP(#1020), AR1, AR1 ; |1241| 
         0005f0 9903 
         0005f2 FC   
    3950 0005f3 4019          ADD #1, AR1 ; |1241| 
    3951              
    3952 0005f5 7DFF          AND #0xffff, AR1, AC0 ; |1241| 
         0005f7 FF09 
    3953 0005f9 1145  ||      SFTS AC0, #-2, AC1 ; |1241| 
         0005fb 3E   
    3954              
    3955 0005fc 5000          SFTL AC0, #1 ; |1241| 
    3956 0005fe 900A          MOV AC0, XAR2
    3957 000600 EC00          AMAR *SP(#0), XAR3
         000602 BE   
    3958 000603 B46F          AMAR *+AR3(#1038)
         000605 040E 
    3959 000607 14A1          AADD XAR2, XAR3 ; |1241| 
         000609 B0   
    3960 00060a EB61          MOV AC1, dbl(*AR3) ; |1241| 
         00060c 18   
    3961                      .dwpsn  file "C:/Users/a0221074/Desktop/C5000/IBM_Watson_TIdesign_workarea/CSL_bitbucket/c55_csl/c55x
    3962 00060d ED1C          MOV dbl(*SP(#14)), XAR3
         00060f BF   
    3963 000610 A96D          MOV *AR3(#837), AR1 ; |1242| 
         000612 0345 
    3964 000614 6D09          BCC $C$L62,AR1 == #0 ; |1242| 
         000616 0103 
    3965                                                      ; branchcc occurs ; |1242| 
    3966 000618       $C$DW$L$_JAC_update$36$E:
    3967 000618       $C$DW$L$_JAC_update$37$B:
    3968                      .dwpsn  file "C:/Users/a0221074/Desktop/C5000/IBM_Watson_TIdesign_workarea/CSL_bitbucket/c55_csl/c55x
    3969 000618 DFCD          MOV uns(*FP(#1020)), AC0 ; |1245| 
         00061a 0503 
         00061c FC   
    3970 00061d 5000          SFTL AC0, #1 ; |1245| 
    3971 00061f 900A          MOV AC0, XAR2
    3972 000621 A46D          MOV *AR3(#837), T0 ; |1245| 
         000623 0345 
    3973 000625 EC31          AMOV #_pPriorChannelInvvar, XAR3 ; |1245| 
         000627 BE00 
         000629 0000+
    3974 00062b 14A1          AADD XAR2, XAR3 ; |1245| 
         00062d B0   
    3975 00062e ED61          MOV dbl(*AR3), AC0 ; |1245| 
         000630 08   
    3976              $C$DW$396       .dwtag  DW_TAG_TI_branch
    3977                      .dwattr $C$DW$396, DW_AT_low_pc(0x00)
    3978                      .dwattr $C$DW$396, DW_AT_name("_q15_x")
    3979                      .dwattr $C$DW$396, DW_AT_TI_call
    3980 000631 6C00          CALL #_q15_x ; |1245| 
         000633 0000!
    3981                                                      ; call occurs [#_q15_x] ; |1245| 
    3982 000635 EBCD          MOV AC0, dbl(*FP(#1026)) ; |1245| 
         000637 0804 
         000639 02   
TMS320C55x Assembler PC v4.4.1 Wed Sep 13 16:33:23 2017

Tools Copyright (c) 1996-2012 Texas Instruments Incorporated
C:\Users\a0221074\AppData\Local\Temp\1618010                         PAGE   95

    3983                      .dwpsn  file "C:/Users/a0221074/Desktop/C5000/IBM_Watson_TIdesign_workarea/CSL_bitbucket/c55_csl/c55x
    3984 00063a DFCD          MOV uns(*FP(#1020)), AC0 ; |1246| 
         00063c 0503 
         00063e FC   
    3985 00063f 5000          SFTL AC0, #1 ; |1246| 
    3986 000641 900A          MOV AC0, XAR2
    3987 000643 DFCD          MOV uns(*FP(#1020)), AC0 ; |1246| 
         000645 0503 
         000647 FC   
    3988 000648 900C          MOV AC0, XAR4
    3989 00064a EC00          AMAR *SP(#0), XAR3
         00064c BE   
    3990 00064d B46F          AMAR *+AR3(#1038)
         00064f 040E 
    3991 000651 14A1          AADD XAR2, XAR3 ; |1246| 
         000653 B0   
    3992 000654 ED1C          MOV dbl(*SP(#14)), XAR2
         000656 AF   
    3993 000657 14C1          AADD XAR4, XAR2 ; |1246| 
         000659 A0   
    3994 00065a A04D          MOV *AR2(#840), AC0 ; |1246| 
         00065c 0348 
    3995 00065e ED61          SUB dbl(*AR3), AC0, AC1 ; |1246| 
         000660 12   
    3996 000661 EDCD          MOV dbl(*FP(#1026)), AC0 ; |1246| 
         000663 0804 
         000665 02   
    3997              $C$DW$397       .dwtag  DW_TAG_TI_branch
    3998                      .dwattr $C$DW$397, DW_AT_low_pc(0x00)
    3999                      .dwattr $C$DW$397, DW_AT_name("__mpyli")
    4000                      .dwattr $C$DW$397, DW_AT_TI_call
    4001 000666 6C00          CALL #__mpyli ; |1246| 
         000668 0000!
    4002                                                      ; call occurs [#__mpyli] ; |1246| 
    4003 00066a DFCD          MOV uns(*FP(#1020)), AC1 ; |1246| 
         00066c 1503 
         00066e FC   
    4004 00066f 5010          SFTL AC1, #1 ; |1246| 
    4005 000671 901A          MOV AC1, XAR2
    4006 000673 EC00          AMAR *SP(#0), XAR3
         000675 BE   
    4007 000676 B46F          AMAR *+AR3(#1038)
         000678 040E 
    4008 00067a 14A1          AADD XAR2, XAR3 ; |1246| 
         00067c B0   
    4009 00067d EB61          MOV AC0, dbl(*AR3) ; |1246| 
         00067f 08   
    4010                      .dwpsn  file "C:/Users/a0221074/Desktop/C5000/IBM_Watson_TIdesign_workarea/CSL_bitbucket/c55_csl/c55x
    4011 000680 DFCD          MOV uns(*FP(#1020)), AC0 ; |1247| 
         000682 0503 
         000684 FC   
    4012 000685 5000          SFTL AC0, #1 ; |1247| 
    4013 000687 900A          MOV AC0, XAR2
    4014 000689 EC00          AMAR *SP(#0), XAR3
         00068b BE   
TMS320C55x Assembler PC v4.4.1 Wed Sep 13 16:33:23 2017

Tools Copyright (c) 1996-2012 Texas Instruments Incorporated
C:\Users\a0221074\AppData\Local\Temp\1618010                         PAGE   96

    4015 00068c B46F          AMAR *+AR3(#1038)
         00068e 040E 
    4016 000690 7600          MOV #32, AC0 ; |1247| 
         000692 2008 
    4017 000694 14A1          AADD XAR2, XAR3 ; |1247| 
         000696 B0   
    4018 000697 ED61          ADD dbl(*AR3), AC0, AC0 ; |1247| 
         000699 00   
    4019 00069a 1045          SFTS AC0, #-6, AC1 ; |1247| 
         00069c 3A   
    4020 00069d DFCD          MOV uns(*FP(#1020)), AC0 ; |1247| 
         00069f 0503 
         0006a1 FC   
    4021 0006a2 5000          SFTL AC0, #1 ; |1247| 
    4022 0006a4 900A          MOV AC0, XAR2
    4023 0006a6 EC00          AMAR *SP(#0), XAR3
         0006a8 BE   
    4024 0006a9 B46F          AMAR *+AR3(#1038)
         0006ab 040E 
    4025 0006ad 14A1          AADD XAR2, XAR3 ; |1247| 
         0006af B0   
    4026 0006b0 EB61          MOV AC1, dbl(*AR3) ; |1247| 
         0006b2 18   
    4027                      .dwpsn  file "C:/Users/a0221074/Desktop/C5000/IBM_Watson_TIdesign_workarea/CSL_bitbucket/c55_csl/c55x
    4028 0006b3 ED1C          MOV dbl(*SP(#14)), XAR3
         0006b5 BF   
    4029 0006b6 A96D          MOV *AR3(#279), AR1 ; |1248| 
         0006b8 0117 
    4030 0006ba D6CD          ADD *FP(#1020), AR1, AR1 ; |1248| 
         0006bc 9903 
         0006be FC   
    4031 0006bf 7DFF          AND #0xffff, AR1, AC0 ; |1248| 
         0006c1 FF09 
    4032 0006c3 5000          SFTL AC0, #1 ; |1248| 
    4033 0006c5 900A          MOV AC0, XAR2
    4034 0006c7 DFCD          MOV uns(*FP(#1020)), AC0 ; |1248| 
         0006c9 0503 
         0006cb FC   
    4035              
    4036 0006cf 5100          SFTL AC0, #1 ; |1248| 
    4037 0006cc EC00  ||      AMAR *SP(#0), XAR3
         0006ce BE   
    4038              
    4039 0006d1 900C          MOV AC0, XAR4
    4040 0006d3 B46F          AMAR *+AR3(#1038)
         0006d5 040E 
    4041 0006d7 14A1          AADD XAR2, XAR3 ; |1248| 
         0006d9 B0   
    4042 0006da EC00          AMAR *SP(#0), XAR2
         0006dc AE   
    4043 0006dd B44F          AMAR *+AR2(#1038)
         0006df 040E 
    4044 0006e1 14C1          AADD XAR4, XAR2 ; |1248| 
         0006e3 A0   
    4045 0006e4 ED41          MOV dbl(*AR2), AC0 ; |1248| 
TMS320C55x Assembler PC v4.4.1 Wed Sep 13 16:33:23 2017

Tools Copyright (c) 1996-2012 Texas Instruments Incorporated
C:\Users\a0221074\AppData\Local\Temp\1618010                         PAGE   97

         0006e6 08   
    4046 0006e7 ED61          ADD dbl(*AR3), AC0, AC0 ; |1248| 
         0006e9 00   
    4047 0006ea EB61          MOV AC0, dbl(*AR3) ; |1248| 
         0006ec 08   
    4048                      .dwpsn  file "C:/Users/a0221074/Desktop/C5000/IBM_Watson_TIdesign_workarea/CSL_bitbucket/c55_csl/c55x
    4049 0006ed ED1C          MOV dbl(*SP(#14)), XAR3
         0006ef BF   
    4050 0006f0 A96D          MOV *AR3(#279), AR1 ; |1250| 
         0006f2 0117 
    4051 0006f4 D6CD          ADD *FP(#1020), AR1, AR1 ; |1250| 
         0006f6 9903 
         0006f8 FC   
    4052 0006f9 4019          ADD #1, AR1 ; |1250| 
    4053 0006fb 7DFF          AND #0xffff, AR1, AC0 ; |1250| 
         0006fd FF09 
    4054 0006ff 5000          SFTL AC0, #1 ; |1250| 
    4055 000701 900A          MOV AC0, XAR2
    4056 000703 EC00          AMAR *SP(#0), XAR3
         000705 BE   
    4057 000706 B46F          AMAR *+AR3(#1038)
         000708 040E 
    4058 00070a EDCD          MOV dbl(*FP(#1026)), AC1 ; |1250| 
         00070c 1804 
         00070e 02   
    4059 00070f 14A1          AADD XAR2, XAR3 ; |1250| 
         000711 B0   
    4060 000712 ED61          MOV dbl(*AR3), AC0 ; |1250| 
         000714 08   
    4061 000715 1013          ADD AC1 << #3, AC0 ; |1250| 
         000717 03   
    4062 000718 EB61          MOV AC0, dbl(*AR3) ; |1250| 
         00071a 08   
    4063 00071b       $C$DW$L$_JAC_update$37$E:
    4064 00071b       $C$L62:    
    4065 00071b       $C$DW$L$_JAC_update$38$B:
    4066                      .dwpsn  file "C:/Users/a0221074/Desktop/C5000/IBM_Watson_TIdesign_workarea/CSL_bitbucket/c55_csl/c55x
    4067 00071b ED1C          MOV dbl(*SP(#14)), XAR3
         00071d BF   
    4068 00071e A96D          MOV *AR3(#279), AR1 ; |1253| 
         000720 0117 
    4069 000722 D6CD          ADD *FP(#1020), AR1, AR1 ; |1253| 
         000724 9903 
         000726 FC   
    4070 000727 7DFF          AND #0xffff, AR1, AC0 ; |1253| 
         000729 FF09 
    4071 00072b 5000          SFTL AC0, #1 ; |1253| 
    4072 00072d 900A          MOV AC0, XAR2
    4073 00072f EC00          AMAR *SP(#0), XAR3
         000731 BE   
    4074 000732 B46F          AMAR *+AR3(#1038)
         000734 040E 
    4075 000736 14A1          AADD XAR2, XAR3 ; |1253| 
         000738 B0   
    4076 000739 ED61          MOV dbl(*AR3), AC0 ; |1253| 
TMS320C55x Assembler PC v4.4.1 Wed Sep 13 16:33:23 2017

Tools Copyright (c) 1996-2012 Texas Instruments Incorporated
C:\Users\a0221074\AppData\Local\Temp\1618010                         PAGE   98

         00073b 08   
    4077 00073c ED1C          MOV dbl(*SP(#14)), XAR3
         00073e BF   
    4078 00073f A96D          MOV *AR3(#279), AR1 ; |1253| 
         000741 0117 
    4079 000743 D6CD          ADD *FP(#1020), AR1, AR1 ; |1253| 
         000745 9903 
         000747 FC   
    4080 000748 4019          ADD #1, AR1 ; |1253| 
    4081 00074a 7DFF          AND #0xffff, AR1, AC1 ; |1253| 
         00074c FF19 
    4082 00074e 5010          SFTL AC1, #1 ; |1253| 
    4083 000750 901A          MOV AC1, XAR2
    4084 000752 EC00          AMAR *SP(#0), XAR3
         000754 BE   
    4085 000755 B46F          AMAR *+AR3(#1038)
         000757 040E 
    4086 000759 14A1          AADD XAR2, XAR3 ; |1253| 
         00075b B0   
    4087 00075c ED61          MOV dbl(*AR3), AC1 ; |1253| 
         00075e 18   
    4088              $C$DW$398       .dwtag  DW_TAG_TI_branch
    4089                      .dwattr $C$DW$398, DW_AT_low_pc(0x00)
    4090                      .dwattr $C$DW$398, DW_AT_name("_div32_32")
    4091                      .dwattr $C$DW$398, DW_AT_TI_call
    4092 00075f 6C00          CALL #_div32_32 ; |1253| 
         000761 0000!
    4093                                                      ; call occurs [#_div32_32] ; |1253| 
    4094 000763 DFCD          MOV uns(*FP(#1020)), AC1 ; |1253| 
         000765 1503 
         000767 FC   
    4095 000768 5010          SFTL AC1, #1 ; |1253| 
    4096 00076a 901A          MOV AC1, XAR2
    4097 00076c EC00          AMAR *SP(#0), XAR3
         00076e BE   
    4098 00076f B46F          AMAR *+AR3(#1038)
         000771 040E 
    4099 000773 14A1          AADD XAR2, XAR3 ; |1253| 
         000775 B0   
    4100 000776 EB61          MOV AC0, dbl(*AR3) ; |1253| 
         000778 08   
    4101                      .dwpsn  file "C:/Users/a0221074/Desktop/C5000/IBM_Watson_TIdesign_workarea/CSL_bitbucket/c55_csl/c55x
    4102 000779 ED1C          MOV dbl(*SP(#14)), XAR3
         00077b BF   
    4103 00077c DFCD          MOV uns(*FP(#1020)), AC0 ; |1255| 
         00077e 0503 
         000780 FC   
    4104 000781 5000          SFTL AC0, #1 ; |1255| 
    4105 000783 900A          MOV AC0, XAR2
    4106 000785 A46D          MOV *AR3(#836), T0 ; |1255| 
         000787 0344 
    4107 000789 EC00          AMAR *SP(#0), XAR3
         00078b BE   
    4108 00078c B46F          AMAR *+AR3(#1038)
         00078e 040E 
TMS320C55x Assembler PC v4.4.1 Wed Sep 13 16:33:23 2017

Tools Copyright (c) 1996-2012 Texas Instruments Incorporated
C:\Users\a0221074\AppData\Local\Temp\1618010                         PAGE   99

    4109 000790 14A1          AADD XAR2, XAR3 ; |1255| 
         000792 B0   
    4110 000793 ED61          MOV dbl(*AR3), AC0 ; |1255| 
         000795 08   
    4111              $C$DW$399       .dwtag  DW_TAG_TI_branch
    4112                      .dwattr $C$DW$399, DW_AT_low_pc(0x00)
    4113                      .dwattr $C$DW$399, DW_AT_name("_q15_x")
    4114                      .dwattr $C$DW$399, DW_AT_TI_call
    4115 000796 6C00          CALL #_q15_x ; |1255| 
         000798 0000!
    4116                                                      ; call occurs [#_q15_x] ; |1255| 
    4117 00079a DFCD          MOV uns(*FP(#1020)), AC1 ; |1255| 
         00079c 1503 
         00079e FC   
    4118 00079f 5010          SFTL AC1, #1 ; |1255| 
    4119 0007a1 901A          MOV AC1, XAR2
    4120 0007a3 EC00          AMAR *SP(#0), XAR3
         0007a5 BE   
    4121 0007a6 B46F          AMAR *+AR3(#1038)
         0007a8 040E 
    4122 0007aa 14A1          AADD XAR2, XAR3 ; |1255| 
         0007ac B0   
    4123 0007ad EB61          MOV AC0, dbl(*AR3) ; |1255| 
         0007af 08   
    4124                      .dwpsn  file "C:/Users/a0221074/Desktop/C5000/IBM_Watson_TIdesign_workarea/CSL_bitbucket/c55_csl/c55x
    4125 0007b0 DFCD          MOV uns(*FP(#1020)), AC0 ; |1256| 
         0007b2 0503 
         0007b4 FC   
    4126 0007b5 ED1C          MOV dbl(*SP(#14)), XAR3
         0007b7 BF   
    4127 0007b8 900A          MOV AC0, XAR2
    4128 0007ba DFCD          MOV uns(*FP(#1020)), AC0 ; |1256| 
         0007bc 0503 
         0007be FC   
    4129 0007bf 5000          SFTL AC0, #1 ; |1256| 
    4130 0007c1 900C          MOV AC0, XAR4
    4131 0007c3 14A1          AADD XAR2, XAR3 ; |1256| 
         0007c5 B0   
    4132 0007c6 EC00          AMAR *SP(#0), XAR2
         0007c8 AE   
    4133 0007c9 B44F          AMAR *+AR2(#1039)
         0007cb 040F 
    4134 0007cd B46F          AMAR *+AR3(#840) ; |1256| 
         0007cf 0348 
    4135 0007d1 14C1          AADD XAR4, XAR2 ; |1256| 
         0007d3 A0   
    4136 0007d4 A941          MOV *AR2, AR1 ; |1256| 
    4137 0007d6 D861          SUB AR1, *AR3, AR1 ; |1256| 
         0007d8 99   
    4138 0007d9 C961          MOV AR1, *AR3 ; |1256| 
    4139 0007db       $C$DW$L$_JAC_update$38$E:
    4140 0007db       $C$L63:    
    4141 0007db       $C$DW$L$_JAC_update$39$B:
    4142                      .dwpsn  file "C:/Users/a0221074/Desktop/C5000/IBM_Watson_TIdesign_workarea/CSL_bitbucket/c55_csl/c55x
    4143 0007db F7CD          ADD #1, *FP(#1020) ; |1235| 
TMS320C55x Assembler PC v4.4.1 Wed Sep 13 16:33:23 2017

Tools Copyright (c) 1996-2012 Texas Instruments Incorporated
C:\Users\a0221074\AppData\Local\Temp\1618010                         PAGE  100

         0007dd 0001 
         0007df 03FC 
    4144 0007e1 ED1C          MOV dbl(*SP(#14)), XAR3
         0007e3 BF   
    4145 0007e4 AACD          MOV *FP(#1020), AR2 ; |1235| 
         0007e6 03FC 
    4146 0007e8 A96D          MOV *AR3(#279), AR1 ; |1235| 
         0007ea 0117 
    4147 0007ec 12A4          CMPU AR2 < AR1, TC1 ; |1235| 
         0007ee 94   
    4148 0007ef 6D64          BCC $C$L61,TC1 ; |1235| 
         0007f1 FD8F 
    4149                                                      ; branchcc occurs ; |1235| 
    4150 0007f3       $C$DW$L$_JAC_update$39$E:
    4151 0007f3       $C$L64:    
    4152 0007f3       $C$DW$L$_JAC_update$40$B:
    4153                      .dwpsn  file "C:/Users/a0221074/Desktop/C5000/IBM_Watson_TIdesign_workarea/CSL_bitbucket/c55_csl/c55x
    4154 0007f3 A96D          MOV *AR3(#834), AR1 ; |1274| 
         0007f5 0342 
    4155 0007f7 C96D          MOV AR1, *AR3(#1100) ; |1274| 
         0007f9 044C 
    4156                      .dwpsn  file "C:/Users/a0221074/Desktop/C5000/IBM_Watson_TIdesign_workarea/CSL_bitbucket/c55_csl/c55x
    4157 0007fb 4A07          B $C$L66  ; |1353| 
    4158                                                      ; branch occurs ; |1353| 
    4159 0007fd       $C$DW$L$_JAC_update$40$E:
    4160 0007fd       $C$L65:    
    4161 0007fd       $C$DW$L$_JAC_update$41$B:
    4162                      .dwpsn  file "C:/Users/a0221074/Desktop/C5000/IBM_Watson_TIdesign_workarea/CSL_bitbucket/c55_csl/c55x
    4163 0007fd ED1C          MOV dbl(*SP(#14)), XAR0
         0007ff 8F   
    4164              $C$DW$400       .dwtag  DW_TAG_TI_branch
    4165                      .dwattr $C$DW$400, DW_AT_low_pc(0x00)
    4166                      .dwattr $C$DW$400, DW_AT_name("_cm_restore_adp")
    4167                      .dwattr $C$DW$400, DW_AT_TI_call
    4168 000800 6C00          CALL #_cm_restore_adp ; |1354| 
         000802 0000!
    4169                                                      ; call occurs [#_cm_restore_adp] ; |1354| 
    4170              $C$DW$L$_JAC_update$41$E:
    4171              $C$L66:    
    4172              $C$DW$L$_JAC_update$42$B:
    4173                      .dwendtag $C$DW$379
    4174              
    4175                      .dwpsn  file "C:/Users/a0221074/Desktop/C5000/IBM_Watson_TIdesign_workarea/CSL_bitbucket/c55_csl/c55x
    4176 000804 F7CD          ADD #1, *FP(#1019) ; |1130| 
         000806 0001 
         000808 03FB 
    4177                      .dwpsn  file "C:/Users/a0221074/Desktop/C5000/IBM_Watson_TIdesign_workarea/CSL_bitbucket/c55_csl/c55x
    4178 00080a A9CD          MOV *FP(#1019), AR1 ; |1130| 
         00080c 03FB 
    4179 00080e 6D09          BCC $C$L46,AR1 == #0 ; |1130| 
         000810 F94C 
    4180                                                      ; branchcc occurs ; |1130| 
    4181 000812       $C$DW$L$_JAC_update$42$E:
    4182 000812       $C$L67:    
    4183 000812       $C$DW$L$_JAC_update$43$B:
TMS320C55x Assembler PC v4.4.1 Wed Sep 13 16:33:23 2017

Tools Copyright (c) 1996-2012 Texas Instruments Incorporated
C:\Users\a0221074\AppData\Local\Temp\1618010                         PAGE  101

    4184                      .dwpsn  file "C:/Users/a0221074/Desktop/C5000/IBM_Watson_TIdesign_workarea/CSL_bitbucket/c55_csl/c55x
    4185 000812 A9CD          MOV *FP(#1036), AR1 ; |1359| 
         000814 040C 
    4186 000816 6219          BCC $C$L68,AR1 != #0 ; |1359| 
    4187                                                      ; branchcc occurs ; |1359| 
    4188 000818       $C$DW$L$_JAC_update$43$E:
    4189 000818       $C$DW$L$_JAC_update$44$B:
    4190              
    4191 000818 4A0E          B $C$L69  ; |1359| 
    4192 00081a 3D00  ||      MOV #0, AC0
    4193              
    4194                                                      ; branch occurs ; |1359| 
    4195 00081c       $C$DW$L$_JAC_update$44$E:
    4196 00081c       $C$L68:    
    4197 00081c       $C$DW$L$_JAC_update$45$B:
    4198 00081c DFCD          MOV uns(*FP(#1036)), AC1 ; |1359| 
         00081e 1504 
         000820 0C   
    4199 000821 EDCD          MOV dbl(*FP(#1024)), AC0 ; |1359| 
         000823 0804 
         000825 00   
    4200              $C$DW$401       .dwtag  DW_TAG_TI_branch
    4201                      .dwattr $C$DW$401, DW_AT_low_pc(0x00)
    4202                      .dwattr $C$DW$401, DW_AT_name("__divli")
    4203                      .dwattr $C$DW$401, DW_AT_TI_call
    4204 000826 6C00          CALL #__divli ; |1359| 
         000828 0000!
    4205                                                      ; call occurs [#__divli] ; |1359| 
    4206 00082a       $C$DW$L$_JAC_update$45$E:
    4207 00082a       $C$L69:    
    4208 00082a       $C$DW$L$_JAC_update$46$B:
    4209 00082a C0CD          MOV AC0, *FP(#1017) ; |1359| 
         00082c 03F9 
    4210                      .dwpsn  file "C:/Users/a0221074/Desktop/C5000/IBM_Watson_TIdesign_workarea/CSL_bitbucket/c55_csl/c55x
    4211 00082e 2209          MOV AC0, AR1
    4212 000830 C9CD          MOV AR1, *FP(#1016) ; |1361| 
         000832 03F8 
    4213                      .dwpsn  file "C:/Users/a0221074/Desktop/C5000/IBM_Watson_TIdesign_workarea/CSL_bitbucket/c55_csl/c55x
    4214 000834 F7CD          ADD #1, *FP(#1018) ; |1115| 
         000836 0001 
         000838 03FA 
    4215                      .dwpsn  file "C:/Users/a0221074/Desktop/C5000/IBM_Watson_TIdesign_workarea/CSL_bitbucket/c55_csl/c55x
    4216 00083a A9CD          MOV *FP(#1018), AR1 ; |1115| 
         00083c 03FA 
    4217 00083e 6D09          BCC $C$L43,AR1 == #0 ; |1115| 
         000840 F888 
    4218                                                      ; branchcc occurs ; |1115| 
    4219 000842       $C$DW$L$_JAC_update$46$E:
    4220 000842       $C$L70:    
    4221                      .dwpsn  file "C:/Users/a0221074/Desktop/C5000/IBM_Watson_TIdesign_workarea/CSL_bitbucket/c55_csl/c55x
    4222 000842 3C04          MOV #0, T0
    4223 000844       $C$L71:    
    4224                      .dwpsn  file "C:/Users/a0221074/Desktop/C5000/IBM_Watson_TIdesign_workarea/CSL_bitbucket/c55_csl/c55x
    4225 000844 F79A          ADD #1208, mmap(SP)
         000846 04B8 
TMS320C55x Assembler PC v4.4.1 Wed Sep 13 16:33:23 2017

Tools Copyright (c) 1996-2012 Texas Instruments Incorporated
C:\Users\a0221074\AppData\Local\Temp\1618010                         PAGE  102

         000848 98   
    4226                      .dwcfi  cfa_offset, 2
    4227 000849 50E4          POPBOTH XFP
    4228                      .dwcfi  restore_reg, 32
    4229                      .dwcfi  cfa_offset, 1
    4230              $C$DW$402       .dwtag  DW_TAG_TI_branch
    4231                      .dwattr $C$DW$402, DW_AT_low_pc(0x00)
    4232                      .dwattr $C$DW$402, DW_AT_TI_return
    4233 00084b 4804          RET
    4234                                                      ; return occurs
    4235              
    4236              $C$DW$403       .dwtag  DW_TAG_TI_loop
    4237                      .dwattr $C$DW$403, DW_AT_name("C:\\Users\\a0221074\\AppData\\Local\\Temp\\1618010:$C$L43:1:1505334800
    4238                      .dwattr $C$DW$403, DW_AT_TI_begin_file("C:/Users/a0221074/Desktop/C5000/IBM_Watson_TIdesign_workarea/
    4239                      .dwattr $C$DW$403, DW_AT_TI_begin_line(0x45b)
    4240                      .dwattr $C$DW$403, DW_AT_TI_end_line(0x553)
    4241              $C$DW$404       .dwtag  DW_TAG_TI_loop_range
    4242                      .dwattr $C$DW$404, DW_AT_low_pc($C$DW$L$_JAC_update$8$B)
    4243                      .dwattr $C$DW$404, DW_AT_high_pc($C$DW$L$_JAC_update$8$E)
    4244              $C$DW$405       .dwtag  DW_TAG_TI_loop_range
    4245                      .dwattr $C$DW$405, DW_AT_low_pc($C$DW$L$_JAC_update$10$B)
    4246                      .dwattr $C$DW$405, DW_AT_high_pc($C$DW$L$_JAC_update$10$E)
    4247              $C$DW$406       .dwtag  DW_TAG_TI_loop_range
    4248                      .dwattr $C$DW$406, DW_AT_low_pc($C$DW$L$_JAC_update$43$B)
    4249                      .dwattr $C$DW$406, DW_AT_high_pc($C$DW$L$_JAC_update$43$E)
    4250              $C$DW$407       .dwtag  DW_TAG_TI_loop_range
    4251                      .dwattr $C$DW$407, DW_AT_low_pc($C$DW$L$_JAC_update$44$B)
    4252                      .dwattr $C$DW$407, DW_AT_high_pc($C$DW$L$_JAC_update$44$E)
    4253              $C$DW$408       .dwtag  DW_TAG_TI_loop_range
    4254                      .dwattr $C$DW$408, DW_AT_low_pc($C$DW$L$_JAC_update$45$B)
    4255                      .dwattr $C$DW$408, DW_AT_high_pc($C$DW$L$_JAC_update$45$E)
    4256              $C$DW$409       .dwtag  DW_TAG_TI_loop_range
    4257                      .dwattr $C$DW$409, DW_AT_low_pc($C$DW$L$_JAC_update$46$B)
    4258                      .dwattr $C$DW$409, DW_AT_high_pc($C$DW$L$_JAC_update$46$E)
    4259              
    4260              $C$DW$410       .dwtag  DW_TAG_TI_loop
    4261                      .dwattr $C$DW$410, DW_AT_name("C:\\Users\\a0221074\\AppData\\Local\\Temp\\1618010:$C$L44:2:1505334800
    4262                      .dwattr $C$DW$410, DW_AT_TI_begin_file("C:/Users/a0221074/Desktop/C5000/IBM_Watson_TIdesign_workarea/
    4263                      .dwattr $C$DW$410, DW_AT_TI_begin_line(0x460)
    4264                      .dwattr $C$DW$410, DW_AT_TI_end_line(0x465)
    4265              $C$DW$411       .dwtag  DW_TAG_TI_loop_range
    4266                      .dwattr $C$DW$411, DW_AT_low_pc($C$DW$L$_JAC_update$9$B)
    4267                      .dwattr $C$DW$411, DW_AT_high_pc($C$DW$L$_JAC_update$9$E)
    4268                      .dwendtag $C$DW$410
    4269              
    4270              
    4271              $C$DW$412       .dwtag  DW_TAG_TI_loop
    4272                      .dwattr $C$DW$412, DW_AT_name("C:\\Users\\a0221074\\AppData\\Local\\Temp\\1618010:$C$L46:2:1505334800
    4273                      .dwattr $C$DW$412, DW_AT_TI_begin_file("C:/Users/a0221074/Desktop/C5000/IBM_Watson_TIdesign_workarea/
    4274                      .dwattr $C$DW$412, DW_AT_TI_begin_line(0x46a)
    4275                      .dwattr $C$DW$412, DW_AT_TI_end_line(0x54d)
    4276              $C$DW$413       .dwtag  DW_TAG_TI_loop_range
    4277                      .dwattr $C$DW$413, DW_AT_low_pc($C$DW$L$_JAC_update$11$B)
    4278                      .dwattr $C$DW$413, DW_AT_high_pc($C$DW$L$_JAC_update$11$E)
    4279              $C$DW$414       .dwtag  DW_TAG_TI_loop_range
TMS320C55x Assembler PC v4.4.1 Wed Sep 13 16:33:23 2017

Tools Copyright (c) 1996-2012 Texas Instruments Incorporated
C:\Users\a0221074\AppData\Local\Temp\1618010                         PAGE  103

    4280                      .dwattr $C$DW$414, DW_AT_low_pc($C$DW$L$_JAC_update$13$B)
    4281                      .dwattr $C$DW$414, DW_AT_high_pc($C$DW$L$_JAC_update$13$E)
    4282              $C$DW$415       .dwtag  DW_TAG_TI_loop_range
    4283                      .dwattr $C$DW$415, DW_AT_low_pc($C$DW$L$_JAC_update$28$B)
    4284                      .dwattr $C$DW$415, DW_AT_high_pc($C$DW$L$_JAC_update$28$E)
    4285              $C$DW$416       .dwtag  DW_TAG_TI_loop_range
    4286                      .dwattr $C$DW$416, DW_AT_low_pc($C$DW$L$_JAC_update$29$B)
    4287                      .dwattr $C$DW$416, DW_AT_high_pc($C$DW$L$_JAC_update$29$E)
    4288              $C$DW$417       .dwtag  DW_TAG_TI_loop_range
    4289                      .dwattr $C$DW$417, DW_AT_low_pc($C$DW$L$_JAC_update$34$B)
    4290                      .dwattr $C$DW$417, DW_AT_high_pc($C$DW$L$_JAC_update$34$E)
    4291              $C$DW$418       .dwtag  DW_TAG_TI_loop_range
    4292                      .dwattr $C$DW$418, DW_AT_low_pc($C$DW$L$_JAC_update$40$B)
    4293                      .dwattr $C$DW$418, DW_AT_high_pc($C$DW$L$_JAC_update$40$E)
    4294              $C$DW$419       .dwtag  DW_TAG_TI_loop_range
    4295                      .dwattr $C$DW$419, DW_AT_low_pc($C$DW$L$_JAC_update$41$B)
    4296                      .dwattr $C$DW$419, DW_AT_high_pc($C$DW$L$_JAC_update$41$E)
    4297              $C$DW$420       .dwtag  DW_TAG_TI_loop_range
    4298                      .dwattr $C$DW$420, DW_AT_low_pc($C$DW$L$_JAC_update$42$B)
    4299                      .dwattr $C$DW$420, DW_AT_high_pc($C$DW$L$_JAC_update$42$E)
    4300              
    4301              $C$DW$421       .dwtag  DW_TAG_TI_loop
    4302                      .dwattr $C$DW$421, DW_AT_name("C:\\Users\\a0221074\\AppData\\Local\\Temp\\1618010:$C$L47:3:1505334800
    4303                      .dwattr $C$DW$421, DW_AT_TI_begin_file("C:/Users/a0221074/Desktop/C5000/IBM_Watson_TIdesign_workarea/
    4304                      .dwattr $C$DW$421, DW_AT_TI_begin_line(0x46e)
    4305                      .dwattr $C$DW$421, DW_AT_TI_end_line(0x46e)
    4306              $C$DW$422       .dwtag  DW_TAG_TI_loop_range
    4307                      .dwattr $C$DW$422, DW_AT_low_pc($C$DW$L$_JAC_update$12$B)
    4308                      .dwattr $C$DW$422, DW_AT_high_pc($C$DW$L$_JAC_update$12$E)
    4309                      .dwendtag $C$DW$421
    4310              
    4311              
    4312              $C$DW$423       .dwtag  DW_TAG_TI_loop
    4313                      .dwattr $C$DW$423, DW_AT_name("C:\\Users\\a0221074\\AppData\\Local\\Temp\\1618010:$C$L49:3:1505334800
    4314                      .dwattr $C$DW$423, DW_AT_TI_begin_file("C:/Users/a0221074/Desktop/C5000/IBM_Watson_TIdesign_workarea/
    4315                      .dwattr $C$DW$423, DW_AT_TI_begin_line(0x46f)
    4316                      .dwattr $C$DW$423, DW_AT_TI_end_line(0x4b2)
    4317              $C$DW$424       .dwtag  DW_TAG_TI_loop_range
    4318                      .dwattr $C$DW$424, DW_AT_low_pc($C$DW$L$_JAC_update$14$B)
    4319                      .dwattr $C$DW$424, DW_AT_high_pc($C$DW$L$_JAC_update$14$E)
    4320              $C$DW$425       .dwtag  DW_TAG_TI_loop_range
    4321                      .dwattr $C$DW$425, DW_AT_low_pc($C$DW$L$_JAC_update$24$B)
    4322                      .dwattr $C$DW$425, DW_AT_high_pc($C$DW$L$_JAC_update$24$E)
    4323              $C$DW$426       .dwtag  DW_TAG_TI_loop_range
    4324                      .dwattr $C$DW$426, DW_AT_low_pc($C$DW$L$_JAC_update$25$B)
    4325                      .dwattr $C$DW$426, DW_AT_high_pc($C$DW$L$_JAC_update$25$E)
    4326              $C$DW$427       .dwtag  DW_TAG_TI_loop_range
    4327                      .dwattr $C$DW$427, DW_AT_low_pc($C$DW$L$_JAC_update$15$B)
    4328                      .dwattr $C$DW$427, DW_AT_high_pc($C$DW$L$_JAC_update$15$E)
    4329              $C$DW$428       .dwtag  DW_TAG_TI_loop_range
    4330                      .dwattr $C$DW$428, DW_AT_low_pc($C$DW$L$_JAC_update$16$B)
    4331                      .dwattr $C$DW$428, DW_AT_high_pc($C$DW$L$_JAC_update$16$E)
    4332              $C$DW$429       .dwtag  DW_TAG_TI_loop_range
    4333                      .dwattr $C$DW$429, DW_AT_low_pc($C$DW$L$_JAC_update$17$B)
    4334                      .dwattr $C$DW$429, DW_AT_high_pc($C$DW$L$_JAC_update$17$E)
TMS320C55x Assembler PC v4.4.1 Wed Sep 13 16:33:23 2017

Tools Copyright (c) 1996-2012 Texas Instruments Incorporated
C:\Users\a0221074\AppData\Local\Temp\1618010                         PAGE  104

    4335              $C$DW$430       .dwtag  DW_TAG_TI_loop_range
    4336                      .dwattr $C$DW$430, DW_AT_low_pc($C$DW$L$_JAC_update$18$B)
    4337                      .dwattr $C$DW$430, DW_AT_high_pc($C$DW$L$_JAC_update$18$E)
    4338              $C$DW$431       .dwtag  DW_TAG_TI_loop_range
    4339                      .dwattr $C$DW$431, DW_AT_low_pc($C$DW$L$_JAC_update$19$B)
    4340                      .dwattr $C$DW$431, DW_AT_high_pc($C$DW$L$_JAC_update$19$E)
    4341              $C$DW$432       .dwtag  DW_TAG_TI_loop_range
    4342                      .dwattr $C$DW$432, DW_AT_low_pc($C$DW$L$_JAC_update$20$B)
    4343                      .dwattr $C$DW$432, DW_AT_high_pc($C$DW$L$_JAC_update$20$E)
    4344              $C$DW$433       .dwtag  DW_TAG_TI_loop_range
    4345                      .dwattr $C$DW$433, DW_AT_low_pc($C$DW$L$_JAC_update$21$B)
    4346                      .dwattr $C$DW$433, DW_AT_high_pc($C$DW$L$_JAC_update$21$E)
    4347              $C$DW$434       .dwtag  DW_TAG_TI_loop_range
    4348                      .dwattr $C$DW$434, DW_AT_low_pc($C$DW$L$_JAC_update$23$B)
    4349                      .dwattr $C$DW$434, DW_AT_high_pc($C$DW$L$_JAC_update$23$E)
    4350              $C$DW$435       .dwtag  DW_TAG_TI_loop_range
    4351                      .dwattr $C$DW$435, DW_AT_low_pc($C$DW$L$_JAC_update$26$B)
    4352                      .dwattr $C$DW$435, DW_AT_high_pc($C$DW$L$_JAC_update$26$E)
    4353              $C$DW$436       .dwtag  DW_TAG_TI_loop_range
    4354                      .dwattr $C$DW$436, DW_AT_low_pc($C$DW$L$_JAC_update$27$B)
    4355                      .dwattr $C$DW$436, DW_AT_high_pc($C$DW$L$_JAC_update$27$E)
    4356                      .dwendtag $C$DW$423
    4357              
    4358              
    4359              $C$DW$437       .dwtag  DW_TAG_TI_loop
    4360                      .dwattr $C$DW$437, DW_AT_name("C:\\Users\\a0221074\\AppData\\Local\\Temp\\1618010:$C$L57:3:1505334800
    4361                      .dwattr $C$DW$437, DW_AT_TI_begin_file("C:/Users/a0221074/Desktop/C5000/IBM_Watson_TIdesign_workarea/
    4362                      .dwattr $C$DW$437, DW_AT_TI_begin_line(0x4c8)
    4363                      .dwattr $C$DW$437, DW_AT_TI_end_line(0x4d1)
    4364              $C$DW$438       .dwtag  DW_TAG_TI_loop_range
    4365                      .dwattr $C$DW$438, DW_AT_low_pc($C$DW$L$_JAC_update$30$B)
    4366                      .dwattr $C$DW$438, DW_AT_high_pc($C$DW$L$_JAC_update$30$E)
    4367              $C$DW$439       .dwtag  DW_TAG_TI_loop_range
    4368                      .dwattr $C$DW$439, DW_AT_low_pc($C$DW$L$_JAC_update$31$B)
    4369                      .dwattr $C$DW$439, DW_AT_high_pc($C$DW$L$_JAC_update$31$E)
    4370              $C$DW$440       .dwtag  DW_TAG_TI_loop_range
    4371                      .dwattr $C$DW$440, DW_AT_low_pc($C$DW$L$_JAC_update$32$B)
    4372                      .dwattr $C$DW$440, DW_AT_high_pc($C$DW$L$_JAC_update$32$E)
    4373              $C$DW$441       .dwtag  DW_TAG_TI_loop_range
    4374                      .dwattr $C$DW$441, DW_AT_low_pc($C$DW$L$_JAC_update$33$B)
    4375                      .dwattr $C$DW$441, DW_AT_high_pc($C$DW$L$_JAC_update$33$E)
    4376                      .dwendtag $C$DW$437
    4377              
    4378              
    4379              $C$DW$442       .dwtag  DW_TAG_TI_loop
    4380                      .dwattr $C$DW$442, DW_AT_name("C:\\Users\\a0221074\\AppData\\Local\\Temp\\1618010:$C$L61:3:1505334800
    4381                      .dwattr $C$DW$442, DW_AT_TI_begin_file("C:/Users/a0221074/Desktop/C5000/IBM_Watson_TIdesign_workarea/
    4382                      .dwattr $C$DW$442, DW_AT_TI_begin_line(0x4d3)
    4383                      .dwattr $C$DW$442, DW_AT_TI_end_line(0x4f7)
    4384              $C$DW$443       .dwtag  DW_TAG_TI_loop_range
    4385                      .dwattr $C$DW$443, DW_AT_low_pc($C$DW$L$_JAC_update$35$B)
    4386                      .dwattr $C$DW$443, DW_AT_high_pc($C$DW$L$_JAC_update$35$E)
    4387              $C$DW$444       .dwtag  DW_TAG_TI_loop_range
    4388                      .dwattr $C$DW$444, DW_AT_low_pc($C$DW$L$_JAC_update$36$B)
    4389                      .dwattr $C$DW$444, DW_AT_high_pc($C$DW$L$_JAC_update$36$E)
TMS320C55x Assembler PC v4.4.1 Wed Sep 13 16:33:23 2017

Tools Copyright (c) 1996-2012 Texas Instruments Incorporated
C:\Users\a0221074\AppData\Local\Temp\1618010                         PAGE  105

    4390              $C$DW$445       .dwtag  DW_TAG_TI_loop_range
    4391                      .dwattr $C$DW$445, DW_AT_low_pc($C$DW$L$_JAC_update$37$B)
    4392                      .dwattr $C$DW$445, DW_AT_high_pc($C$DW$L$_JAC_update$37$E)
    4393              $C$DW$446       .dwtag  DW_TAG_TI_loop_range
    4394                      .dwattr $C$DW$446, DW_AT_low_pc($C$DW$L$_JAC_update$38$B)
    4395                      .dwattr $C$DW$446, DW_AT_high_pc($C$DW$L$_JAC_update$38$E)
    4396              $C$DW$447       .dwtag  DW_TAG_TI_loop_range
    4397                      .dwattr $C$DW$447, DW_AT_low_pc($C$DW$L$_JAC_update$39$B)
    4398                      .dwattr $C$DW$447, DW_AT_high_pc($C$DW$L$_JAC_update$39$E)
    4399                      .dwendtag $C$DW$442
    4400              
    4401                      .dwendtag $C$DW$412
    4402              
    4403                      .dwendtag $C$DW$403
    4404              
    4405                      .dwattr $C$DW$355, DW_AT_TI_end_file("C:/Users/a0221074/Desktop/C5000/IBM_Watson_TIdesign_workarea/CS
    4406                      .dwattr $C$DW$355, DW_AT_TI_end_line(0x55b)
    4407                      .dwattr $C$DW$355, DW_AT_TI_end_column(0x01)
    4408                      .dwendentry
    4409                      .dwendtag $C$DW$355
    4410              
    4411 000000               .sect   ".text:_JAC_set_default_params"
    4412                      .clink
    4413                      .global _JAC_set_default_params
    4414              
    4415              $C$DW$448       .dwtag  DW_TAG_subprogram, DW_AT_name("JAC_set_default_params")
    4416                      .dwattr $C$DW$448, DW_AT_low_pc(_JAC_set_default_params)
    4417                      .dwattr $C$DW$448, DW_AT_high_pc(0x00)
    4418                      .dwattr $C$DW$448, DW_AT_TI_symbol_name("_JAC_set_default_params")
    4419                      .dwattr $C$DW$448, DW_AT_external
    4420                      .dwattr $C$DW$448, DW_AT_type(*$C$DW$T$108)
    4421                      .dwattr $C$DW$448, DW_AT_TI_begin_file("C:/Users/a0221074/Desktop/C5000/IBM_Watson_TIdesign_workarea/
    4422                      .dwattr $C$DW$448, DW_AT_TI_begin_line(0x563)
    4423                      .dwattr $C$DW$448, DW_AT_TI_begin_column(0x1a)
    4424                      .dwattr $C$DW$448, DW_AT_TI_max_frame_size(0x04)
    4425                      .dwpsn  file "C:/Users/a0221074/Desktop/C5000/IBM_Watson_TIdesign_workarea/CSL_bitbucket/c55_csl/c55x
    4426              
    4427                      .dwfde $C$DW$CIE, _JAC_set_default_params
    4428              $C$DW$449       .dwtag  DW_TAG_formal_parameter, DW_AT_name("gv")
    4429                      .dwattr $C$DW$449, DW_AT_TI_symbol_name("_gv")
    4430                      .dwattr $C$DW$449, DW_AT_type(*$C$DW$T$98)
    4431                      .dwattr $C$DW$449, DW_AT_location[DW_OP_reg17]
    4432              ;*******************************************************************************
    4433              ;* FUNCTION NAME: JAC_set_default_params                                       *
    4434              ;*                                                                             *
    4435              ;*   Function Uses Regs : T0,AR0,XAR0,AR1,AR3,XAR3,SP,M40,SATA,SATD,RDM,FRCT,  *
    4436              ;*                        SMUL                                                 *
    4437              ;*   Stack Frame        : Compact (No Frame Pointer, w/ debug)                 *
    4438              ;*   Total Frame Size   : 4 words                                              *
    4439              ;*                        (2 return address/alignment)                         *
    4440              ;*                        (2 local values)                                     *
    4441              ;*   Min System Stack   : 1 word                                               *
    4442              ;*******************************************************************************
    4443 000000       _JAC_set_default_params:
    4444                      .dwcfi  cfa_offset, 1
TMS320C55x Assembler PC v4.4.1 Wed Sep 13 16:33:23 2017

Tools Copyright (c) 1996-2012 Texas Instruments Incorporated
C:\Users\a0221074\AppData\Local\Temp\1618010                         PAGE  106

    4445                      .dwcfi  save_reg_to_mem, 91, -1
    4446 000000 4EFD          AADD #-3, SP
    4447                      .dwcfi  cfa_offset, 4
    4448              $C$DW$450       .dwtag  DW_TAG_variable, DW_AT_name("gv")
    4449                      .dwattr $C$DW$450, DW_AT_TI_symbol_name("_gv")
    4450                      .dwattr $C$DW$450, DW_AT_type(*$C$DW$T$98)
    4451                      .dwattr $C$DW$450, DW_AT_location[DW_OP_bregx 0x24 0]
    4452 000002 EB00          MOV XAR0, dbl(*SP(#0))
         000004 85   
    4453                      .dwpsn  file "C:/Users/a0221074/Desktop/C5000/IBM_Watson_TIdesign_workarea/CSL_bitbucket/c55_csl/c55x
    4454 000005 ED00          MOV dbl(*SP(#0)), XAR3
         000007 BF   
    4455 000008 A931          MOV *(#_VEC_PER_FRAME_DEFAULT), AR1 ; |1381| 
         00000a 0000 
         00000c 00+  
    4456 00000d C96D          MOV AR1, *AR3(#831) ; |1381| 
         00000f 033F 
    4457                      .dwpsn  file "C:/Users/a0221074/Desktop/C5000/IBM_Watson_TIdesign_workarea/CSL_bitbucket/c55_csl/c55x
    4458 000011 ED00          MOV dbl(*SP(#0)), XAR3
         000013 BF   
    4459 000014 A931          MOV *(#_COMPONENT_LIKELIHOOD_DEFAULT), AR1 ; |1382| 
         000016 0000 
         000018 01+  
    4460 000019 C96D          MOV AR1, *AR3(#832) ; |1382| 
         00001b 0340 
    4461                      .dwpsn  file "C:/Users/a0221074/Desktop/C5000/IBM_Watson_TIdesign_workarea/CSL_bitbucket/c55_csl/c55x
    4462 00001d ED00          MOV dbl(*SP(#0)), XAR3
         00001f BF   
    4463 000020 A931          MOV *(#_MAX_SEG_SIZE_DEFAULT), AR1 ; |1383| 
         000022 0000 
         000024 02+  
    4464 000025 C96D          MOV AR1, *AR3(#833) ; |1383| 
         000027 0341 
    4465                      .dwpsn  file "C:/Users/a0221074/Desktop/C5000/IBM_Watson_TIdesign_workarea/CSL_bitbucket/c55_csl/c55x
    4466 000029 ED00          MOV dbl(*SP(#0)), XAR3
         00002b BF   
    4467 00002c A931          MOV *(#_SMOOTH_COEF_DEFAULT), AR1 ; |1384| 
         00002e 0000 
         000030 03+  
    4468 000031 C96D          MOV AR1, *AR3(#834) ; |1384| 
         000033 0342 
    4469                      .dwpsn  file "C:/Users/a0221074/Desktop/C5000/IBM_Watson_TIdesign_workarea/CSL_bitbucket/c55_csl/c55x
    4470 000035 ED00          MOV dbl(*SP(#0)), XAR3
         000037 BF   
    4471 000038 A931          MOV *(#_DISCOUNT_FACTOR_DEFAULT), AR1 ; |1385| 
         00003a 0000 
         00003c 04+  
    4472 00003d C96D          MOV AR1, *AR3(#835) ; |1385| 
         00003f 0343 
    4473                      .dwpsn  file "C:/Users/a0221074/Desktop/C5000/IBM_Watson_TIdesign_workarea/CSL_bitbucket/c55_csl/c55x
    4474 000041 ED00          MOV dbl(*SP(#0)), XAR3
         000043 BF   
    4475 000044 A931          MOV *(#_DEWEIGHT_FACTOR_DEFAULT), AR1 ; |1386| 
         000046 0000 
         000048 05+  
TMS320C55x Assembler PC v4.4.1 Wed Sep 13 16:33:23 2017

Tools Copyright (c) 1996-2012 Texas Instruments Incorporated
C:\Users\a0221074\AppData\Local\Temp\1618010                         PAGE  107

    4476 000049 C96D          MOV AR1, *AR3(#836) ; |1386| 
         00004b 0344 
    4477                      .dwpsn  file "C:/Users/a0221074/Desktop/C5000/IBM_Watson_TIdesign_workarea/CSL_bitbucket/c55_csl/c55x
    4478 00004d ED00          MOV dbl(*SP(#0)), XAR3
         00004f BF   
    4479 000050 A931          MOV *(#_VAR_FORGET_FACTOR_DEFAULT), AR1 ; |1387| 
         000052 0000 
         000054 07+  
    4480 000055 C96D          MOV AR1, *AR3(#838) ; |1387| 
         000057 0346 
    4481                      .dwpsn  file "C:/Users/a0221074/Desktop/C5000/IBM_Watson_TIdesign_workarea/CSL_bitbucket/c55_csl/c55x
    4482 000059 ED00          MOV dbl(*SP(#0)), XAR3
         00005b BF   
    4483 00005c A931          MOV *(#_BAYESIAN_WEIGHT_DEFAULT), AR1 ; |1389| 
         00005e 0000 
         000060 06+  
    4484 000061 C96D          MOV AR1, *AR3(#837) ; |1389| 
         000063 0345 
    4485                      .dwpsn  file "C:/Users/a0221074/Desktop/C5000/IBM_Watson_TIdesign_workarea/CSL_bitbucket/c55_csl/c55x
    4486 000065 3C04          MOV #0, T0
    4487                      .dwpsn  file "C:/Users/a0221074/Desktop/C5000/IBM_Watson_TIdesign_workarea/CSL_bitbucket/c55_csl/c55x
    4488 000067 4E03          AADD #3, SP
    4489                      .dwcfi  cfa_offset, 1
    4490              $C$DW$451       .dwtag  DW_TAG_TI_branch
    4491                      .dwattr $C$DW$451, DW_AT_low_pc(0x00)
    4492                      .dwattr $C$DW$451, DW_AT_TI_return
    4493 000069 4804          RET
    4494                                                      ; return occurs
    4495                      .dwattr $C$DW$448, DW_AT_TI_end_file("C:/Users/a0221074/Desktop/C5000/IBM_Watson_TIdesign_workarea/CS
    4496                      .dwattr $C$DW$448, DW_AT_TI_end_line(0x570)
    4497                      .dwattr $C$DW$448, DW_AT_TI_end_column(0x01)
    4498                      .dwendentry
    4499                      .dwendtag $C$DW$448
    4500              
    4501              ;*******************************************************************************
    4502              ;* FAR STRINGS                                                                 *
    4503              ;*******************************************************************************
    4504 000000               .sect   ".const:.string"
    4505                      .align  2
    4506 000000 0077  $C$FSL1:        .string "wb",0
         000001 0062 
         000002 0000 
    4507                      .align  2
    4508 000004 0074  $C$FSL2:        .string "total network memory",0
         000005 006F 
         000006 0074 
         000007 0061 
         000008 006C 
         000009 0020 
         00000a 006E 
         00000b 0065 
         00000c 0074 
         00000d 0077 
         00000e 006F 
         00000f 0072 
TMS320C55x Assembler PC v4.4.1 Wed Sep 13 16:33:23 2017

Tools Copyright (c) 1996-2012 Texas Instruments Incorporated
C:\Users\a0221074\AppData\Local\Temp\1618010                         PAGE  108

         000010 006B 
         000011 0020 
         000012 006D 
         000013 0065 
         000014 006D 
         000015 006F 
         000016 0072 
         000017 0079 
         000018 0000 
    4509              ;******************************************************************************
    4510              ;* UNDEFINED EXTERNAL REFERENCES                                              *
    4511              ;******************************************************************************
    4512                      .global _search_a_frame
    4513                      .global _back_trace_beam
    4514                      .global _EM_alpha_t
    4515                      .global _EM_beta
    4516                      .global _hlr_gauss_obs_score_f
    4517                      .global _hlr_expn
    4518                      .global _q15_x
    4519                      .global _div32_32
    4520                      .global _cos_transform
    4521                      .global _vector_unpacking
    4522                      .global _log_spectral_compensation
    4523                      .global _observation_likelihood
    4524                      .global _cm_load
    4525                      .global _cm_save
    4526                      .global _cm_acc_seg_ratio_to_antimodel
    4527                      .global _cm_freeze
    4528                      .global _cm_update_status
    4529                      .global _cm_backup_adp
    4530                      .global _cm_restore_adp
    4531                      .global _my_fwrite
    4532                      .global _my_fopen
    4533                      .global _my_fclose
    4534                      .global __divli
    4535                      .global __mpyli
    4536              
    4537              ;*******************************************************************************
    4538              ;* TYPE INFORMATION                                                            *
    4539              ;*******************************************************************************
    4540              
    4541              $C$DW$T$95      .dwtag  DW_TAG_enumeration_type
    4542                      .dwattr $C$DW$T$95, DW_AT_byte_size(0x01)
    4543              $C$DW$452       .dwtag  DW_TAG_enumerator, DW_AT_name("eTIesrEngineSuccess"), DW_AT_const_value(0x64)
    4544              $C$DW$453       .dwtag  DW_TAG_enumerator, DW_AT_name("eTIesrEngineEvalCellOverflow"), DW_AT_const_value(0x65
    4545              $C$DW$454       .dwtag  DW_TAG_enumerator, DW_AT_name("eTIesrEngineBeamCellOverflow"), DW_AT_const_value(0x66
    4546              $C$DW$455       .dwtag  DW_TAG_enumerator, DW_AT_name("eTIesrEngineTimeCellOverflow"), DW_AT_const_value(0x67
    4547              $C$DW$456       .dwtag  DW_TAG_enumerator, DW_AT_name("eTIesrEngineSearchSpace"), DW_AT_const_value(0xc8)
    4548              $C$DW$457       .dwtag  DW_TAG_enumerator, DW_AT_name("eTIesrEngineSearchMemoryLimit"), DW_AT_const_value(0xc
    4549              $C$DW$458       .dwtag  DW_TAG_enumerator, DW_AT_name("eTIesrEngineSearchMemorySize"), DW_AT_const_value(0xca
    4550              $C$DW$459       .dwtag  DW_TAG_enumerator, DW_AT_name("eTIesrEngineVQHMMMemorySize"), DW_AT_const_value(0xcb)
    4551              $C$DW$460       .dwtag  DW_TAG_enumerator, DW_AT_name("eTIesrEngineVQHMMGarbage"), DW_AT_const_value(0xcc)
    4552              $C$DW$461       .dwtag  DW_TAG_enumerator, DW_AT_name("eTIesrEngineVQHMMSave"), DW_AT_const_value(0xcd)
    4553              $C$DW$462       .dwtag  DW_TAG_enumerator, DW_AT_name("eTIesrEngineVQHMMLoad"), DW_AT_const_value(0xce)
    4554              $C$DW$463       .dwtag  DW_TAG_enumerator, DW_AT_name("eTIesrEngineCompFail"), DW_AT_const_value(0xcf)
TMS320C55x Assembler PC v4.4.1 Wed Sep 13 16:33:23 2017

Tools Copyright (c) 1996-2012 Texas Instruments Incorporated
C:\Users\a0221074\AppData\Local\Temp\1618010                         PAGE  109

    4555              $C$DW$464       .dwtag  DW_TAG_enumerator, DW_AT_name("eTIesrEngineFeatureMemoryOut"), DW_AT_const_value(0x12
    4556              $C$DW$465       .dwtag  DW_TAG_enumerator, DW_AT_name("eTIesrEngineSegmentMemoryOut"), DW_AT_const_value(0x12
    4557              $C$DW$466       .dwtag  DW_TAG_enumerator, DW_AT_name("eTIesrEngineMuSpaceMemoryOut"), DW_AT_const_value(0x12
    4558              $C$DW$467       .dwtag  DW_TAG_enumerator, DW_AT_name("eTIesrEngineFeatureFrameOut"), DW_AT_const_value(0x12f
    4559              $C$DW$468       .dwtag  DW_TAG_enumerator, DW_AT_name("eTIesrEngineAnswerMemoryOut"), DW_AT_const_value(0x130
    4560              $C$DW$469       .dwtag  DW_TAG_enumerator, DW_AT_name("eTIesrEngineTimeOut"), DW_AT_const_value(0x131)
    4561              $C$DW$470       .dwtag  DW_TAG_enumerator, DW_AT_name("eTIesrEngineNBestMem"), DW_AT_const_value(0x132)
    4562              $C$DW$471       .dwtag  DW_TAG_enumerator, DW_AT_name("eTIesrEngineModelLoadFail"), DW_AT_const_value(0x190)
    4563              $C$DW$472       .dwtag  DW_TAG_enumerator, DW_AT_name("eTIesrEngineAlignmentFail"), DW_AT_const_value(0x191)
    4564              $C$DW$473       .dwtag  DW_TAG_enumerator, DW_AT_name("eTIesrEngineMemorySizeFail"), DW_AT_const_value(0x192)
    4565              $C$DW$474       .dwtag  DW_TAG_enumerator, DW_AT_name("eTIesrEngineFailedJAC"), DW_AT_const_value(0x1a9)
    4566              $C$DW$475       .dwtag  DW_TAG_enumerator, DW_AT_name("eTIesrEngineFeatureDimensionFail"), DW_AT_const_value(
    4567              $C$DW$476       .dwtag  DW_TAG_enumerator, DW_AT_name("eTIesrEngineSegmentSizeCheckFail"), DW_AT_const_value(
    4568              $C$DW$477       .dwtag  DW_TAG_enumerator, DW_AT_name("eTIesrEngineModelFileFail"), DW_AT_const_value(0x1c4)
    4569              $C$DW$478       .dwtag  DW_TAG_enumerator, DW_AT_name("eTIesrEngineSaveFail"), DW_AT_const_value(0x1c5)
    4570              $C$DW$479       .dwtag  DW_TAG_enumerator, DW_AT_name("eTIesrEngineEnrollLoadFail"), DW_AT_const_value(0x1c6)
    4571              $C$DW$480       .dwtag  DW_TAG_enumerator, DW_AT_name("eTIesrEngineBackgoundCreationFail"), DW_AT_const_value
    4572              $C$DW$481       .dwtag  DW_TAG_enumerator, DW_AT_name("eTIesrEngineStateMemoryOut"), DW_AT_const_value(0x1f4)
    4573              $C$DW$482       .dwtag  DW_TAG_enumerator, DW_AT_name("eTIesrEngineSearchMemoryOut"), DW_AT_const_value(0x1f5
    4574              $C$DW$483       .dwtag  DW_TAG_enumerator, DW_AT_name("eTIesrEngineModelMemorySize"), DW_AT_const_value(0x258
    4575              $C$DW$484       .dwtag  DW_TAG_enumerator, DW_AT_name("eTIesrEngineFeatureMemorySize"), DW_AT_const_value(0x2
    4576              $C$DW$485       .dwtag  DW_TAG_enumerator, DW_AT_name("eTIesrEngineNetworkMemorySize"), DW_AT_const_value(0x2
    4577              $C$DW$486       .dwtag  DW_TAG_enumerator, DW_AT_name("eTIesrEngineModelSize"), DW_AT_const_value(0x25b)
    4578              $C$DW$487       .dwtag  DW_TAG_enumerator, DW_AT_name("eTIesrEngineBackTrackMemorySize"), DW_AT_const_value(0
    4579              $C$DW$488       .dwtag  DW_TAG_enumerator, DW_AT_name("eTIesrEngineCMMemorySize"), DW_AT_const_value(0x25d)
    4580              $C$DW$489       .dwtag  DW_TAG_enumerator, DW_AT_name("eTIesrEngineVALTreeMemorySize"), DW_AT_const_value(0x2
    4581              $C$DW$490       .dwtag  DW_TAG_enumerator, DW_AT_name("eTIesrEngineSym2PosMapSize"), DW_AT_const_value(0x25f)
    4582              $C$DW$491       .dwtag  DW_TAG_enumerator, DW_AT_name("eTIesrEngineShortUtterance"), DW_AT_const_value(0x2bc)
    4583              $C$DW$492       .dwtag  DW_TAG_enumerator, DW_AT_name("eTIesrTTSLoadHMM2Phone"), DW_AT_const_value(0x320)
    4584              $C$DW$493       .dwtag  DW_TAG_enumerator, DW_AT_name("eTIesrTTSNoSilencePhone"), DW_AT_const_value(0x321)
    4585              $C$DW$494       .dwtag  DW_TAG_enumerator, DW_AT_name("eTIesrTTSLoadPhone2Voicing"), DW_AT_const_value(0x322)
    4586              $C$DW$495       .dwtag  DW_TAG_enumerator, DW_AT_name("eTIesrTTSLoadPhoneDuration"), DW_AT_const_value(0x323)
    4587              $C$DW$496       .dwtag  DW_TAG_enumerator, DW_AT_name("eTIesrTTSPhoneMismatch"), DW_AT_const_value(0x324)
    4588              $C$DW$497       .dwtag  DW_TAG_enumerator, DW_AT_name("eTIesrTTSPhoneMissWord"), DW_AT_const_value(0x325)
    4589              $C$DW$498       .dwtag  DW_TAG_enumerator, DW_AT_name("eTIesrTTSPhoneDuration"), DW_AT_const_value(0x326)
    4590              $C$DW$499       .dwtag  DW_TAG_enumerator, DW_AT_name("eTIesrTTSPhoneWord"), DW_AT_const_value(0x327)
    4591              $C$DW$500       .dwtag  DW_TAG_enumerator, DW_AT_name("eTIesrTTSSaveTTSMean"), DW_AT_const_value(0x328)
    4592              $C$DW$501       .dwtag  DW_TAG_enumerator, DW_AT_name("eTIesrTTSSaveVoicing"), DW_AT_const_value(0x329)
    4593              $C$DW$502       .dwtag  DW_TAG_enumerator, DW_AT_name("eTIesrTTSSaveDuration"), DW_AT_const_value(0x32a)
    4594              $C$DW$503       .dwtag  DW_TAG_enumerator, DW_AT_name("eTIesrTTSTTS"), DW_AT_const_value(0x32b)
    4595              $C$DW$504       .dwtag  DW_TAG_enumerator, DW_AT_name("eTIesrTTSPhoneList"), DW_AT_const_value(0x32c)
    4596              $C$DW$505       .dwtag  DW_TAG_enumerator, DW_AT_name("eTIesrTTSNumPhones"), DW_AT_const_value(0x32d)
    4597              $C$DW$506       .dwtag  DW_TAG_enumerator, DW_AT_name("eTIesrTTSNumWords"), DW_AT_const_value(0x32e)
    4598              $C$DW$507       .dwtag  DW_TAG_enumerator, DW_AT_name("eTIesrTTSOutputFile"), DW_AT_const_value(0x32f)
    4599              $C$DW$508       .dwtag  DW_TAG_enumerator, DW_AT_name("eTIesrTTSInputMFCC"), DW_AT_const_value(0x330)
    4600              $C$DW$509       .dwtag  DW_TAG_enumerator, DW_AT_name("eTIesrTTSInputDuration"), DW_AT_const_value(0x331)
    4601              $C$DW$510       .dwtag  DW_TAG_enumerator, DW_AT_name("eTIesrTTSInputVoicing"), DW_AT_const_value(0x332)
    4602              $C$DW$511       .dwtag  DW_TAG_enumerator, DW_AT_name("eTIesrTTSNotFound"), DW_AT_const_value(0x333)
    4603              $C$DW$512       .dwtag  DW_TAG_enumerator, DW_AT_name("eTIesrTTSOutputMeanSize"), DW_AT_const_value(0x334)
    4604              $C$DW$513       .dwtag  DW_TAG_enumerator, DW_AT_name("eTIesrTTSOutput"), DW_AT_const_value(0x335)
    4605                      .dwendtag $C$DW$T$95
    4606              
    4607              $C$DW$T$96      .dwtag  DW_TAG_typedef, DW_AT_name("TIesrEngineStatusType")
    4608                      .dwattr $C$DW$T$96, DW_AT_type(*$C$DW$T$95)
    4609                      .dwattr $C$DW$T$96, DW_AT_language(DW_LANG_C)
TMS320C55x Assembler PC v4.4.1 Wed Sep 13 16:33:23 2017

Tools Copyright (c) 1996-2012 Texas Instruments Incorporated
C:\Users\a0221074\AppData\Local\Temp\1618010                         PAGE  110

    4610              
    4611              $C$DW$T$107     .dwtag  DW_TAG_enumeration_type
    4612                      .dwattr $C$DW$T$107, DW_AT_byte_size(0x01)
    4613              $C$DW$514       .dwtag  DW_TAG_enumerator, DW_AT_name("eTIesrEngineJACSuccess"), DW_AT_const_value(0x00)
    4614              $C$DW$515       .dwtag  DW_TAG_enumerator, DW_AT_name("eTIesrEngineJACMemoryFail"), DW_AT_const_value(0x01)
    4615              $C$DW$516       .dwtag  DW_TAG_enumerator, DW_AT_name("eTIesrEngineJACLoadFail"), DW_AT_const_value(0x02)
    4616              $C$DW$517       .dwtag  DW_TAG_enumerator, DW_AT_name("eTIesrEngineJACReset"), DW_AT_const_value(0x03)
    4617              $C$DW$518       .dwtag  DW_TAG_enumerator, DW_AT_name("eTIesrEngineJACSaveFail"), DW_AT_const_value(0x04)
    4618              $C$DW$519       .dwtag  DW_TAG_enumerator, DW_AT_name("eTIesrEngineJACSBCInitFail"), DW_AT_const_value(0x05)
    4619              $C$DW$520       .dwtag  DW_TAG_enumerator, DW_AT_name("eTIesrEngineJACSBCLoadFail"), DW_AT_const_value(0x06)
    4620              $C$DW$521       .dwtag  DW_TAG_enumerator, DW_AT_name("eTIesrEngineJACSVAFail"), DW_AT_const_value(0x07)
    4621              $C$DW$522       .dwtag  DW_TAG_enumerator, DW_AT_name("eTIesrEngineJACFail"), DW_AT_const_value(0x08)
    4622              $C$DW$523       .dwtag  DW_TAG_enumerator, DW_AT_name("eTIesrEngineJACNoAlignment"), DW_AT_const_value(0x09)
    4623              $C$DW$524       .dwtag  DW_TAG_enumerator, DW_AT_name("eTIesrEngineJACRJLoadFail"), DW_AT_const_value(0x0a)
    4624                      .dwendtag $C$DW$T$107
    4625              
    4626              $C$DW$T$108     .dwtag  DW_TAG_typedef, DW_AT_name("TIesrEngineJACStatusType")
    4627                      .dwattr $C$DW$T$108, DW_AT_type(*$C$DW$T$107)
    4628                      .dwattr $C$DW$T$108, DW_AT_language(DW_LANG_C)
    4629              
    4630              $C$DW$T$19      .dwtag  DW_TAG_structure_type
    4631                      .dwattr $C$DW$T$19, DW_AT_byte_size(0x03)
    4632              $C$DW$525       .dwtag  DW_TAG_member
    4633                      .dwattr $C$DW$525, DW_AT_type(*$C$DW$T$8)
    4634                      .dwattr $C$DW$525, DW_AT_name("num")
    4635                      .dwattr $C$DW$525, DW_AT_TI_symbol_name("_num")
    4636                      .dwattr $C$DW$525, DW_AT_data_member_location[DW_OP_plus_uconst 0x0]
    4637                      .dwattr $C$DW$525, DW_AT_accessibility(DW_ACCESS_public)
    4638              $C$DW$526       .dwtag  DW_TAG_member
    4639                      .dwattr $C$DW$526, DW_AT_type(*$C$DW$T$8)
    4640                      .dwattr $C$DW$526, DW_AT_name("x1")
    4641                      .dwattr $C$DW$526, DW_AT_TI_symbol_name("_x1")
    4642                      .dwattr $C$DW$526, DW_AT_data_member_location[DW_OP_plus_uconst 0x1]
    4643                      .dwattr $C$DW$526, DW_AT_accessibility(DW_ACCESS_public)
    4644              $C$DW$527       .dwtag  DW_TAG_member
    4645                      .dwattr $C$DW$527, DW_AT_type(*$C$DW$T$8)
    4646                      .dwattr $C$DW$527, DW_AT_name("x2")
    4647                      .dwattr $C$DW$527, DW_AT_TI_symbol_name("_x2")
    4648                      .dwattr $C$DW$527, DW_AT_data_member_location[DW_OP_plus_uconst 0x2]
    4649                      .dwattr $C$DW$527, DW_AT_accessibility(DW_ACCESS_public)
    4650                      .dwendtag $C$DW$T$19
    4651              
    4652              $C$DW$T$60      .dwtag  DW_TAG_typedef, DW_AT_name("mel_filter_type")
    4653                      .dwattr $C$DW$T$60, DW_AT_type(*$C$DW$T$19)
    4654                      .dwattr $C$DW$T$60, DW_AT_language(DW_LANG_C)
    4655              $C$DW$528       .dwtag  DW_TAG_TI_far_type
    4656                      .dwattr $C$DW$528, DW_AT_type(*$C$DW$T$60)
    4657              $C$DW$T$61      .dwtag  DW_TAG_const_type
    4658                      .dwattr $C$DW$T$61, DW_AT_type(*$C$DW$528)
    4659              $C$DW$T$62      .dwtag  DW_TAG_pointer_type
    4660                      .dwattr $C$DW$T$62, DW_AT_type(*$C$DW$T$61)
    4661                      .dwattr $C$DW$T$62, DW_AT_address_class(0x17)
    4662              
    4663              $C$DW$T$23      .dwtag  DW_TAG_structure_type
    4664                      .dwattr $C$DW$T$23, DW_AT_byte_size(0x18)
TMS320C55x Assembler PC v4.4.1 Wed Sep 13 16:33:23 2017

Tools Copyright (c) 1996-2012 Texas Instruments Incorporated
C:\Users\a0221074\AppData\Local\Temp\1618010                         PAGE  111

    4665              $C$DW$529       .dwtag  DW_TAG_member
    4666                      .dwattr $C$DW$529, DW_AT_type(*$C$DW$T$20)
    4667                      .dwattr $C$DW$529, DW_AT_name("max_mem_usage")
    4668                      .dwattr $C$DW$529, DW_AT_TI_symbol_name("_max_mem_usage")
    4669                      .dwattr $C$DW$529, DW_AT_data_member_location[DW_OP_plus_uconst 0x0]
    4670                      .dwattr $C$DW$529, DW_AT_accessibility(DW_ACCESS_public)
    4671              $C$DW$530       .dwtag  DW_TAG_member
    4672                      .dwattr $C$DW$530, DW_AT_type(*$C$DW$T$20)
    4673                      .dwattr $C$DW$530, DW_AT_name("n_terminals")
    4674                      .dwattr $C$DW$530, DW_AT_TI_symbol_name("_n_terminals")
    4675                      .dwattr $C$DW$530, DW_AT_data_member_location[DW_OP_plus_uconst 0x1]
    4676                      .dwattr $C$DW$530, DW_AT_accessibility(DW_ACCESS_public)
    4677              $C$DW$531       .dwtag  DW_TAG_member
    4678                      .dwattr $C$DW$531, DW_AT_type(*$C$DW$T$20)
    4679                      .dwattr $C$DW$531, DW_AT_name("n_monophones")
    4680                      .dwattr $C$DW$531, DW_AT_TI_symbol_name("_n_monophones")
    4681                      .dwattr $C$DW$531, DW_AT_data_member_location[DW_OP_plus_uconst 0x2]
    4682                      .dwattr $C$DW$531, DW_AT_accessibility(DW_ACCESS_public)
    4683              $C$DW$532       .dwtag  DW_TAG_member
    4684                      .dwattr $C$DW$532, DW_AT_type(*$C$DW$T$21)
    4685                      .dwattr $C$DW$532, DW_AT_name("hlrTreeBase")
    4686                      .dwattr $C$DW$532, DW_AT_TI_symbol_name("_hlrTreeBase")
    4687                      .dwattr $C$DW$532, DW_AT_data_member_location[DW_OP_plus_uconst 0x4]
    4688                      .dwattr $C$DW$532, DW_AT_accessibility(DW_ACCESS_public)
    4689              $C$DW$533       .dwtag  DW_TAG_member
    4690                      .dwattr $C$DW$533, DW_AT_type(*$C$DW$T$22)
    4691                      .dwattr $C$DW$533, DW_AT_name("hlrTerminal")
    4692                      .dwattr $C$DW$533, DW_AT_TI_symbol_name("_hlrTerminal")
    4693                      .dwattr $C$DW$533, DW_AT_data_member_location[DW_OP_plus_uconst 0x6]
    4694                      .dwattr $C$DW$533, DW_AT_accessibility(DW_ACCESS_public)
    4695              $C$DW$534       .dwtag  DW_TAG_member
    4696                      .dwattr $C$DW$534, DW_AT_type(*$C$DW$T$21)
    4697                      .dwattr $C$DW$534, DW_AT_name("pHMM2phone")
    4698                      .dwattr $C$DW$534, DW_AT_TI_symbol_name("_pHMM2phone")
    4699                      .dwattr $C$DW$534, DW_AT_data_member_location[DW_OP_plus_uconst 0x8]
    4700                      .dwattr $C$DW$534, DW_AT_accessibility(DW_ACCESS_public)
    4701              $C$DW$535       .dwtag  DW_TAG_member
    4702                      .dwattr $C$DW$535, DW_AT_type(*$C$DW$T$22)
    4703                      .dwattr $C$DW$535, DW_AT_name("hlrTransformIndex")
    4704                      .dwattr $C$DW$535, DW_AT_TI_symbol_name("_hlrTransformIndex")
    4705                      .dwattr $C$DW$535, DW_AT_data_member_location[DW_OP_plus_uconst 0xa]
    4706                      .dwattr $C$DW$535, DW_AT_accessibility(DW_ACCESS_public)
    4707              $C$DW$536       .dwtag  DW_TAG_member
    4708                      .dwattr $C$DW$536, DW_AT_type(*$C$DW$T$20)
    4709                      .dwattr $C$DW$536, DW_AT_name("hlr_TRANSFORM_SIZE")
    4710                      .dwattr $C$DW$536, DW_AT_TI_symbol_name("_hlr_TRANSFORM_SIZE")
    4711                      .dwattr $C$DW$536, DW_AT_data_member_location[DW_OP_plus_uconst 0xc]
    4712                      .dwattr $C$DW$536, DW_AT_accessibility(DW_ACCESS_public)
    4713              $C$DW$537       .dwtag  DW_TAG_member
    4714                      .dwattr $C$DW$537, DW_AT_type(*$C$DW$T$21)
    4715                      .dwattr $C$DW$537, DW_AT_name("hlrTransforms")
    4716                      .dwattr $C$DW$537, DW_AT_TI_symbol_name("_hlrTransforms")
    4717                      .dwattr $C$DW$537, DW_AT_data_member_location[DW_OP_plus_uconst 0xe]
    4718                      .dwattr $C$DW$537, DW_AT_accessibility(DW_ACCESS_public)
    4719              $C$DW$538       .dwtag  DW_TAG_member
TMS320C55x Assembler PC v4.4.1 Wed Sep 13 16:33:23 2017

Tools Copyright (c) 1996-2012 Texas Instruments Incorporated
C:\Users\a0221074\AppData\Local\Temp\1618010                         PAGE  112

    4720                      .dwattr $C$DW$538, DW_AT_type(*$C$DW$T$21)
    4721                      .dwattr $C$DW$538, DW_AT_name("pSegStat_dif1")
    4722                      .dwattr $C$DW$538, DW_AT_TI_symbol_name("_pSegStat_dif1")
    4723                      .dwattr $C$DW$538, DW_AT_data_member_location[DW_OP_plus_uconst 0x10]
    4724                      .dwattr $C$DW$538, DW_AT_accessibility(DW_ACCESS_public)
    4725              $C$DW$539       .dwtag  DW_TAG_member
    4726                      .dwattr $C$DW$539, DW_AT_type(*$C$DW$T$21)
    4727                      .dwattr $C$DW$539, DW_AT_name("pSegStat_dif2")
    4728                      .dwattr $C$DW$539, DW_AT_TI_symbol_name("_pSegStat_dif2")
    4729                      .dwattr $C$DW$539, DW_AT_data_member_location[DW_OP_plus_uconst 0x12]
    4730                      .dwattr $C$DW$539, DW_AT_accessibility(DW_ACCESS_public)
    4731              $C$DW$540       .dwtag  DW_TAG_member
    4732                      .dwattr $C$DW$540, DW_AT_type(*$C$DW$T$21)
    4733                      .dwattr $C$DW$540, DW_AT_name("pEnhanced")
    4734                      .dwattr $C$DW$540, DW_AT_TI_symbol_name("_pEnhanced")
    4735                      .dwattr $C$DW$540, DW_AT_data_member_location[DW_OP_plus_uconst 0x14]
    4736                      .dwattr $C$DW$540, DW_AT_accessibility(DW_ACCESS_public)
    4737              $C$DW$541       .dwtag  DW_TAG_member
    4738                      .dwattr $C$DW$541, DW_AT_type(*$C$DW$T$21)
    4739                      .dwattr $C$DW$541, DW_AT_name("bk_node_cnt")
    4740                      .dwattr $C$DW$541, DW_AT_TI_symbol_name("_bk_node_cnt")
    4741                      .dwattr $C$DW$541, DW_AT_data_member_location[DW_OP_plus_uconst 0x16]
    4742                      .dwattr $C$DW$541, DW_AT_accessibility(DW_ACCESS_public)
    4743                      .dwendtag $C$DW$T$23
    4744              
    4745              $C$DW$T$66      .dwtag  DW_TAG_typedef, DW_AT_name("FeaHLRAccType")
    4746                      .dwattr $C$DW$T$66, DW_AT_type(*$C$DW$T$23)
    4747                      .dwattr $C$DW$T$66, DW_AT_language(DW_LANG_C)
    4748              $C$DW$T$67      .dwtag  DW_TAG_pointer_type
    4749                      .dwattr $C$DW$T$67, DW_AT_type(*$C$DW$T$66)
    4750                      .dwattr $C$DW$T$67, DW_AT_address_class(0x17)
    4751              
    4752              $C$DW$T$24      .dwtag  DW_TAG_structure_type
    4753                      .dwattr $C$DW$T$24, DW_AT_byte_size(0x03)
    4754              $C$DW$542       .dwtag  DW_TAG_member
    4755                      .dwattr $C$DW$542, DW_AT_type(*$C$DW$T$9)
    4756                      .dwattr $C$DW$542, DW_AT_name("sym_code")
    4757                      .dwattr $C$DW$542, DW_AT_TI_symbol_name("_sym_code")
    4758                      .dwattr $C$DW$542, DW_AT_data_member_location[DW_OP_plus_uconst 0x0]
    4759                      .dwattr $C$DW$542, DW_AT_accessibility(DW_ACCESS_public)
    4760              $C$DW$543       .dwtag  DW_TAG_member
    4761                      .dwattr $C$DW$543, DW_AT_type(*$C$DW$T$9)
    4762                      .dwattr $C$DW$543, DW_AT_name("start_cell")
    4763                      .dwattr $C$DW$543, DW_AT_TI_symbol_name("_start_cell")
    4764                      .dwattr $C$DW$543, DW_AT_data_member_location[DW_OP_plus_uconst 0x1]
    4765                      .dwattr $C$DW$543, DW_AT_accessibility(DW_ACCESS_public)
    4766              $C$DW$544       .dwtag  DW_TAG_member
    4767                      .dwattr $C$DW$544, DW_AT_type(*$C$DW$T$9)
    4768                      .dwattr $C$DW$544, DW_AT_name("depth")
    4769                      .dwattr $C$DW$544, DW_AT_TI_symbol_name("_depth")
    4770                      .dwattr $C$DW$544, DW_AT_data_member_location[DW_OP_plus_uconst 0x2]
    4771                      .dwattr $C$DW$544, DW_AT_accessibility(DW_ACCESS_public)
    4772                      .dwendtag $C$DW$T$24
    4773              
    4774              $C$DW$T$69      .dwtag  DW_TAG_typedef, DW_AT_name("SymCell")
TMS320C55x Assembler PC v4.4.1 Wed Sep 13 16:33:23 2017

Tools Copyright (c) 1996-2012 Texas Instruments Incorporated
C:\Users\a0221074\AppData\Local\Temp\1618010                         PAGE  113

    4775                      .dwattr $C$DW$T$69, DW_AT_type(*$C$DW$T$24)
    4776                      .dwattr $C$DW$T$69, DW_AT_language(DW_LANG_C)
    4777              $C$DW$T$70      .dwtag  DW_TAG_pointer_type
    4778                      .dwattr $C$DW$T$70, DW_AT_type(*$C$DW$T$69)
    4779                      .dwattr $C$DW$T$70, DW_AT_address_class(0x17)
    4780              
    4781              $C$DW$T$25      .dwtag  DW_TAG_structure_type
    4782                      .dwattr $C$DW$T$25, DW_AT_byte_size(0x03)
    4783              $C$DW$545       .dwtag  DW_TAG_member
    4784                      .dwattr $C$DW$545, DW_AT_type(*$C$DW$T$8)
    4785                      .dwattr $C$DW$545, DW_AT_name("scr")
    4786                      .dwattr $C$DW$545, DW_AT_TI_symbol_name("_scr")
    4787                      .dwattr $C$DW$545, DW_AT_data_member_location[DW_OP_plus_uconst 0x0]
    4788                      .dwattr $C$DW$545, DW_AT_accessibility(DW_ACCESS_public)
    4789              $C$DW$546       .dwtag  DW_TAG_member
    4790                      .dwattr $C$DW$546, DW_AT_type(*$C$DW$T$9)
    4791                      .dwattr $C$DW$546, DW_AT_name("sym")
    4792                      .dwattr $C$DW$546, DW_AT_TI_symbol_name("_sym")
    4793                      .dwattr $C$DW$546, DW_AT_data_member_location[DW_OP_plus_uconst 0x1]
    4794                      .dwattr $C$DW$546, DW_AT_accessibility(DW_ACCESS_public)
    4795              $C$DW$547       .dwtag  DW_TAG_member
    4796                      .dwattr $C$DW$547, DW_AT_type(*$C$DW$T$9)
    4797                      .dwattr $C$DW$547, DW_AT_name("frm")
    4798                      .dwattr $C$DW$547, DW_AT_TI_symbol_name("_frm")
    4799                      .dwattr $C$DW$547, DW_AT_data_member_location[DW_OP_plus_uconst 0x2]
    4800                      .dwattr $C$DW$547, DW_AT_accessibility(DW_ACCESS_public)
    4801                      .dwendtag $C$DW$T$25
    4802              
    4803              $C$DW$T$71      .dwtag  DW_TAG_typedef, DW_AT_name("StateCell")
    4804                      .dwattr $C$DW$T$71, DW_AT_type(*$C$DW$T$25)
    4805                      .dwattr $C$DW$T$71, DW_AT_language(DW_LANG_C)
    4806              $C$DW$T$72      .dwtag  DW_TAG_pointer_type
    4807                      .dwattr $C$DW$T$72, DW_AT_type(*$C$DW$T$71)
    4808                      .dwattr $C$DW$T$72, DW_AT_address_class(0x17)
    4809              
    4810              $C$DW$T$26      .dwtag  DW_TAG_structure_type
    4811                      .dwattr $C$DW$T$26, DW_AT_byte_size(0x02)
    4812              $C$DW$548       .dwtag  DW_TAG_member
    4813                      .dwattr $C$DW$548, DW_AT_type(*$C$DW$T$9)
    4814                      .dwattr $C$DW$548, DW_AT_name("frm")
    4815                      .dwattr $C$DW$548, DW_AT_TI_symbol_name("_frm")
    4816                      .dwattr $C$DW$548, DW_AT_data_member_location[DW_OP_plus_uconst 0x0]
    4817                      .dwattr $C$DW$548, DW_AT_accessibility(DW_ACCESS_public)
    4818              $C$DW$549       .dwtag  DW_TAG_member
    4819                      .dwattr $C$DW$549, DW_AT_type(*$C$DW$T$9)
    4820                      .dwattr $C$DW$549, DW_AT_name("beam_idx")
    4821                      .dwattr $C$DW$549, DW_AT_TI_symbol_name("_beam_idx")
    4822                      .dwattr $C$DW$549, DW_AT_data_member_location[DW_OP_plus_uconst 0x1]
    4823                      .dwattr $C$DW$549, DW_AT_accessibility(DW_ACCESS_public)
    4824                      .dwendtag $C$DW$T$26
    4825              
    4826              $C$DW$T$75      .dwtag  DW_TAG_typedef, DW_AT_name("TimeType")
    4827                      .dwattr $C$DW$T$75, DW_AT_type(*$C$DW$T$26)
    4828                      .dwattr $C$DW$T$75, DW_AT_language(DW_LANG_C)
    4829              $C$DW$T$76      .dwtag  DW_TAG_pointer_type
TMS320C55x Assembler PC v4.4.1 Wed Sep 13 16:33:23 2017

Tools Copyright (c) 1996-2012 Texas Instruments Incorporated
C:\Users\a0221074\AppData\Local\Temp\1618010                         PAGE  114

    4830                      .dwattr $C$DW$T$76, DW_AT_type(*$C$DW$T$75)
    4831                      .dwattr $C$DW$T$76, DW_AT_address_class(0x17)
    4832              
    4833              $C$DW$T$28      .dwtag  DW_TAG_structure_type
    4834                      .dwattr $C$DW$T$28, DW_AT_byte_size(0x08)
    4835              $C$DW$550       .dwtag  DW_TAG_member
    4836                      .dwattr $C$DW$550, DW_AT_type(*$C$DW$T$9)
    4837                      .dwattr $C$DW$550, DW_AT_name("n_hmm")
    4838                      .dwattr $C$DW$550, DW_AT_TI_symbol_name("_n_hmm")
    4839                      .dwattr $C$DW$550, DW_AT_data_member_location[DW_OP_plus_uconst 0x0]
    4840                      .dwattr $C$DW$550, DW_AT_accessibility(DW_ACCESS_public)
    4841              $C$DW$551       .dwtag  DW_TAG_member
    4842                      .dwattr $C$DW$551, DW_AT_type(*$C$DW$T$9)
    4843                      .dwattr $C$DW$551, DW_AT_name("n_sym")
    4844                      .dwattr $C$DW$551, DW_AT_TI_symbol_name("_n_sym")
    4845                      .dwattr $C$DW$551, DW_AT_data_member_location[DW_OP_plus_uconst 0x1]
    4846                      .dwattr $C$DW$551, DW_AT_accessibility(DW_ACCESS_public)
    4847              $C$DW$552       .dwtag  DW_TAG_member
    4848                      .dwattr $C$DW$552, DW_AT_type(*$C$DW$T$9)
    4849                      .dwattr $C$DW$552, DW_AT_name("n_word")
    4850                      .dwattr $C$DW$552, DW_AT_TI_symbol_name("_n_word")
    4851                      .dwattr $C$DW$552, DW_AT_data_member_location[DW_OP_plus_uconst 0x2]
    4852                      .dwattr $C$DW$552, DW_AT_accessibility(DW_ACCESS_public)
    4853              $C$DW$553       .dwtag  DW_TAG_member
    4854                      .dwattr $C$DW$553, DW_AT_type(*$C$DW$T$9)
    4855                      .dwattr $C$DW$553, DW_AT_name("n_set")
    4856                      .dwattr $C$DW$553, DW_AT_TI_symbol_name("_n_set")
    4857                      .dwattr $C$DW$553, DW_AT_data_member_location[DW_OP_plus_uconst 0x3]
    4858                      .dwattr $C$DW$553, DW_AT_accessibility(DW_ACCESS_public)
    4859              $C$DW$554       .dwtag  DW_TAG_member
    4860                      .dwattr $C$DW$554, DW_AT_type(*$C$DW$T$9)
    4861                      .dwattr $C$DW$554, DW_AT_name("n_hmm_set")
    4862                      .dwattr $C$DW$554, DW_AT_TI_symbol_name("_n_hmm_set")
    4863                      .dwattr $C$DW$554, DW_AT_data_member_location[DW_OP_plus_uconst 0x4]
    4864                      .dwattr $C$DW$554, DW_AT_accessibility(DW_ACCESS_public)
    4865              $C$DW$555       .dwtag  DW_TAG_member
    4866                      .dwattr $C$DW$555, DW_AT_type(*$C$DW$T$9)
    4867                      .dwattr $C$DW$555, DW_AT_name("start")
    4868                      .dwattr $C$DW$555, DW_AT_TI_symbol_name("_start")
    4869                      .dwattr $C$DW$555, DW_AT_data_member_location[DW_OP_plus_uconst 0x5]
    4870                      .dwattr $C$DW$555, DW_AT_accessibility(DW_ACCESS_public)
    4871              $C$DW$556       .dwtag  DW_TAG_member
    4872                      .dwattr $C$DW$556, DW_AT_type(*$C$DW$T$9)
    4873                      .dwattr $C$DW$556, DW_AT_name("stop")
    4874                      .dwattr $C$DW$556, DW_AT_TI_symbol_name("_stop")
    4875                      .dwattr $C$DW$556, DW_AT_data_member_location[DW_OP_plus_uconst 0x6]
    4876                      .dwattr $C$DW$556, DW_AT_accessibility(DW_ACCESS_public)
    4877              $C$DW$557       .dwtag  DW_TAG_member
    4878                      .dwattr $C$DW$557, DW_AT_type(*$C$DW$T$27)
    4879                      .dwattr $C$DW$557, DW_AT_name("symlist")
    4880                      .dwattr $C$DW$557, DW_AT_TI_symbol_name("_symlist")
    4881                      .dwattr $C$DW$557, DW_AT_data_member_location[DW_OP_plus_uconst 0x7]
    4882                      .dwattr $C$DW$557, DW_AT_accessibility(DW_ACCESS_public)
    4883                      .dwendtag $C$DW$T$28
    4884              
TMS320C55x Assembler PC v4.4.1 Wed Sep 13 16:33:23 2017

Tools Copyright (c) 1996-2012 Texas Instruments Incorporated
C:\Users\a0221074\AppData\Local\Temp\1618010                         PAGE  115

    4885              $C$DW$T$79      .dwtag  DW_TAG_typedef, DW_AT_name("TransType")
    4886                      .dwattr $C$DW$T$79, DW_AT_type(*$C$DW$T$28)
    4887                      .dwattr $C$DW$T$79, DW_AT_language(DW_LANG_C)
    4888              $C$DW$T$80      .dwtag  DW_TAG_pointer_type
    4889                      .dwattr $C$DW$T$80, DW_AT_type(*$C$DW$T$79)
    4890                      .dwattr $C$DW$T$80, DW_AT_address_class(0x17)
    4891              
    4892              $C$DW$T$29      .dwtag  DW_TAG_structure_type
    4893                      .dwattr $C$DW$T$29, DW_AT_byte_size(0x02)
    4894              $C$DW$558       .dwtag  DW_TAG_member
    4895                      .dwattr $C$DW$558, DW_AT_type(*$C$DW$T$9)
    4896                      .dwattr $C$DW$558, DW_AT_name("high_pos")
    4897                      .dwattr $C$DW$558, DW_AT_TI_symbol_name("_high_pos")
    4898                      .dwattr $C$DW$558, DW_AT_data_member_location[DW_OP_plus_uconst 0x0]
    4899                      .dwattr $C$DW$558, DW_AT_accessibility(DW_ACCESS_public)
    4900              $C$DW$559       .dwtag  DW_TAG_member
    4901                      .dwattr $C$DW$559, DW_AT_type(*$C$DW$T$9)
    4902                      .dwattr $C$DW$559, DW_AT_name("cur_pos")
    4903                      .dwattr $C$DW$559, DW_AT_TI_symbol_name("_cur_pos")
    4904                      .dwattr $C$DW$559, DW_AT_data_member_location[DW_OP_plus_uconst 0x1]
    4905                      .dwattr $C$DW$559, DW_AT_accessibility(DW_ACCESS_public)
    4906                      .dwendtag $C$DW$T$29
    4907              
    4908              $C$DW$T$30      .dwtag  DW_TAG_typedef, DW_AT_name("PosType")
    4909                      .dwattr $C$DW$T$30, DW_AT_type(*$C$DW$T$29)
    4910                      .dwattr $C$DW$T$30, DW_AT_language(DW_LANG_C)
    4911              
    4912              $C$DW$T$31      .dwtag  DW_TAG_array_type
    4913                      .dwattr $C$DW$T$31, DW_AT_type(*$C$DW$T$30)
    4914                      .dwattr $C$DW$T$31, DW_AT_language(DW_LANG_C)
    4915                      .dwattr $C$DW$T$31, DW_AT_byte_size(0x04)
    4916              $C$DW$560       .dwtag  DW_TAG_subrange_type
    4917                      .dwattr $C$DW$560, DW_AT_upper_bound(0x01)
    4918                      .dwendtag $C$DW$T$31
    4919              
    4920              
    4921              $C$DW$T$32      .dwtag  DW_TAG_structure_type
    4922                      .dwattr $C$DW$T$32, DW_AT_byte_size(0x0a)
    4923              $C$DW$561       .dwtag  DW_TAG_member
    4924                      .dwattr $C$DW$561, DW_AT_type(*$C$DW$T$30)
    4925                      .dwattr $C$DW$561, DW_AT_name("state")
    4926                      .dwattr $C$DW$561, DW_AT_TI_symbol_name("_state")
    4927                      .dwattr $C$DW$561, DW_AT_data_member_location[DW_OP_plus_uconst 0x0]
    4928                      .dwattr $C$DW$561, DW_AT_accessibility(DW_ACCESS_public)
    4929              $C$DW$562       .dwtag  DW_TAG_member
    4930                      .dwattr $C$DW$562, DW_AT_type(*$C$DW$T$31)
    4931                      .dwattr $C$DW$562, DW_AT_name("sym")
    4932                      .dwattr $C$DW$562, DW_AT_TI_symbol_name("_sym")
    4933                      .dwattr $C$DW$562, DW_AT_data_member_location[DW_OP_plus_uconst 0x2]
    4934                      .dwattr $C$DW$562, DW_AT_accessibility(DW_ACCESS_public)
    4935              $C$DW$563       .dwtag  DW_TAG_member
    4936                      .dwattr $C$DW$563, DW_AT_type(*$C$DW$T$30)
    4937                      .dwattr $C$DW$563, DW_AT_name("beam")
    4938                      .dwattr $C$DW$563, DW_AT_TI_symbol_name("_beam")
    4939                      .dwattr $C$DW$563, DW_AT_data_member_location[DW_OP_plus_uconst 0x6]
TMS320C55x Assembler PC v4.4.1 Wed Sep 13 16:33:23 2017

Tools Copyright (c) 1996-2012 Texas Instruments Incorporated
C:\Users\a0221074\AppData\Local\Temp\1618010                         PAGE  116

    4940                      .dwattr $C$DW$563, DW_AT_accessibility(DW_ACCESS_public)
    4941              $C$DW$564       .dwtag  DW_TAG_member
    4942                      .dwattr $C$DW$564, DW_AT_type(*$C$DW$T$30)
    4943                      .dwattr $C$DW$564, DW_AT_name("time")
    4944                      .dwattr $C$DW$564, DW_AT_TI_symbol_name("_time")
    4945                      .dwattr $C$DW$564, DW_AT_data_member_location[DW_OP_plus_uconst 0x8]
    4946                      .dwattr $C$DW$564, DW_AT_accessibility(DW_ACCESS_public)
    4947                      .dwendtag $C$DW$T$32
    4948              
    4949              $C$DW$T$83      .dwtag  DW_TAG_typedef, DW_AT_name("EvalStat")
    4950                      .dwattr $C$DW$T$83, DW_AT_type(*$C$DW$T$32)
    4951                      .dwattr $C$DW$T$83, DW_AT_language(DW_LANG_C)
    4952              
    4953              $C$DW$T$34      .dwtag  DW_TAG_structure_type
    4954                      .dwattr $C$DW$T$34, DW_AT_byte_size(0x03)
    4955              $C$DW$565       .dwtag  DW_TAG_member
    4956                      .dwattr $C$DW$565, DW_AT_type(*$C$DW$T$33)
    4957                      .dwattr $C$DW$565, DW_AT_name("cur_sym")
    4958                      .dwattr $C$DW$565, DW_AT_TI_symbol_name("_cur_sym")
    4959                      .dwattr $C$DW$565, DW_AT_data_member_location[DW_OP_plus_uconst 0x0]
    4960                      .dwattr $C$DW$565, DW_AT_accessibility(DW_ACCESS_public)
    4961              $C$DW$566       .dwtag  DW_TAG_member
    4962                      .dwattr $C$DW$566, DW_AT_type(*$C$DW$T$9)
    4963                      .dwattr $C$DW$566, DW_AT_name("cur_state")
    4964                      .dwattr $C$DW$566, DW_AT_TI_symbol_name("_cur_state")
    4965                      .dwattr $C$DW$566, DW_AT_data_member_location[DW_OP_plus_uconst 0x2]
    4966                      .dwattr $C$DW$566, DW_AT_accessibility(DW_ACCESS_public)
    4967                      .dwendtag $C$DW$T$34
    4968              
    4969              $C$DW$T$84      .dwtag  DW_TAG_typedef, DW_AT_name("EvalIdx")
    4970                      .dwattr $C$DW$T$84, DW_AT_type(*$C$DW$T$34)
    4971                      .dwattr $C$DW$T$84, DW_AT_language(DW_LANG_C)
    4972              
    4973              $C$DW$T$85      .dwtag  DW_TAG_array_type
    4974                      .dwattr $C$DW$T$85, DW_AT_type(*$C$DW$T$84)
    4975                      .dwattr $C$DW$T$85, DW_AT_language(DW_LANG_C)
    4976                      .dwattr $C$DW$T$85, DW_AT_byte_size(0x06)
    4977              $C$DW$567       .dwtag  DW_TAG_subrange_type
    4978                      .dwattr $C$DW$567, DW_AT_upper_bound(0x01)
    4979                      .dwendtag $C$DW$T$85
    4980              
    4981              
    4982              $C$DW$T$36      .dwtag  DW_TAG_structure_type
    4983                      .dwattr $C$DW$T$36, DW_AT_byte_size(0x06)
    4984              $C$DW$568       .dwtag  DW_TAG_member
    4985                      .dwattr $C$DW$568, DW_AT_type(*$C$DW$T$9)
    4986                      .dwattr $C$DW$568, DW_AT_name("max_nbr_syms")
    4987                      .dwattr $C$DW$568, DW_AT_TI_symbol_name("_max_nbr_syms")
    4988                      .dwattr $C$DW$568, DW_AT_data_member_location[DW_OP_plus_uconst 0x0]
    4989                      .dwattr $C$DW$568, DW_AT_accessibility(DW_ACCESS_public)
    4990              $C$DW$569       .dwtag  DW_TAG_member
    4991                      .dwattr $C$DW$569, DW_AT_type(*$C$DW$T$8)
    4992                      .dwattr $C$DW$569, DW_AT_name("nbr_syms")
    4993                      .dwattr $C$DW$569, DW_AT_TI_symbol_name("_nbr_syms")
    4994                      .dwattr $C$DW$569, DW_AT_data_member_location[DW_OP_plus_uconst 0x1]
TMS320C55x Assembler PC v4.4.1 Wed Sep 13 16:33:23 2017

Tools Copyright (c) 1996-2012 Texas Instruments Incorporated
C:\Users\a0221074\AppData\Local\Temp\1618010                         PAGE  117

    4995                      .dwattr $C$DW$569, DW_AT_accessibility(DW_ACCESS_public)
    4996              $C$DW$570       .dwtag  DW_TAG_member
    4997                      .dwattr $C$DW$570, DW_AT_type(*$C$DW$T$21)
    4998                      .dwattr $C$DW$570, DW_AT_name("sym2pos")
    4999                      .dwattr $C$DW$570, DW_AT_TI_symbol_name("_sym2pos")
    5000                      .dwattr $C$DW$570, DW_AT_data_member_location[DW_OP_plus_uconst 0x2]
    5001                      .dwattr $C$DW$570, DW_AT_accessibility(DW_ACCESS_public)
    5002              $C$DW$571       .dwtag  DW_TAG_member
    5003                      .dwattr $C$DW$571, DW_AT_type(*$C$DW$T$35)
    5004                      .dwattr $C$DW$571, DW_AT_name("syms")
    5005                      .dwattr $C$DW$571, DW_AT_TI_symbol_name("_syms")
    5006                      .dwattr $C$DW$571, DW_AT_data_member_location[DW_OP_plus_uconst 0x4]
    5007                      .dwattr $C$DW$571, DW_AT_accessibility(DW_ACCESS_public)
    5008                      .dwendtag $C$DW$T$36
    5009              
    5010              $C$DW$T$86      .dwtag  DW_TAG_typedef, DW_AT_name("Sym2PosType")
    5011                      .dwattr $C$DW$T$86, DW_AT_type(*$C$DW$T$36)
    5012                      .dwattr $C$DW$T$86, DW_AT_language(DW_LANG_C)
    5013              
    5014              $C$DW$T$38      .dwtag  DW_TAG_structure_type
    5015                      .dwattr $C$DW$T$38, DW_AT_byte_size(0x16)
    5016              $C$DW$572       .dwtag  DW_TAG_member
    5017                      .dwattr $C$DW$572, DW_AT_type(*$C$DW$T$8)
    5018                      .dwattr $C$DW$572, DW_AT_name("scr")
    5019                      .dwattr $C$DW$572, DW_AT_TI_symbol_name("_scr")
    5020                      .dwattr $C$DW$572, DW_AT_data_member_location[DW_OP_plus_uconst 0x0]
    5021                      .dwattr $C$DW$572, DW_AT_accessibility(DW_ACCESS_public)
    5022              $C$DW$573       .dwtag  DW_TAG_member
    5023                      .dwattr $C$DW$573, DW_AT_type(*$C$DW$T$8)
    5024                      .dwattr $C$DW$573, DW_AT_name("n_ans")
    5025                      .dwattr $C$DW$573, DW_AT_TI_symbol_name("_n_ans")
    5026                      .dwattr $C$DW$573, DW_AT_data_member_location[DW_OP_plus_uconst 0x1]
    5027                      .dwattr $C$DW$573, DW_AT_accessibility(DW_ACCESS_public)
    5028              $C$DW$574       .dwtag  DW_TAG_member
    5029                      .dwattr $C$DW$574, DW_AT_type(*$C$DW$T$37)
    5030                      .dwattr $C$DW$574, DW_AT_name("answers")
    5031                      .dwattr $C$DW$574, DW_AT_TI_symbol_name("_answers")
    5032                      .dwattr $C$DW$574, DW_AT_data_member_location[DW_OP_plus_uconst 0x2]
    5033                      .dwattr $C$DW$574, DW_AT_accessibility(DW_ACCESS_public)
    5034                      .dwendtag $C$DW$T$38
    5035              
    5036              $C$DW$T$40      .dwtag  DW_TAG_typedef, DW_AT_name("NB_element")
    5037                      .dwattr $C$DW$T$40, DW_AT_type(*$C$DW$T$38)
    5038                      .dwattr $C$DW$T$40, DW_AT_language(DW_LANG_C)
    5039              
    5040              $C$DW$T$41      .dwtag  DW_TAG_array_type
    5041                      .dwattr $C$DW$T$41, DW_AT_type(*$C$DW$T$40)
    5042                      .dwattr $C$DW$T$41, DW_AT_language(DW_LANG_C)
    5043                      .dwattr $C$DW$T$41, DW_AT_byte_size(0x294)
    5044              $C$DW$575       .dwtag  DW_TAG_subrange_type
    5045                      .dwattr $C$DW$575, DW_AT_upper_bound(0x1d)
    5046                      .dwendtag $C$DW$T$41
    5047              
    5048              
    5049              $C$DW$T$42      .dwtag  DW_TAG_structure_type
TMS320C55x Assembler PC v4.4.1 Wed Sep 13 16:33:23 2017

Tools Copyright (c) 1996-2012 Texas Instruments Incorporated
C:\Users\a0221074\AppData\Local\Temp\1618010                         PAGE  118

    5050                      .dwattr $C$DW$T$42, DW_AT_byte_size(0x2b3)
    5051              $C$DW$576       .dwtag  DW_TAG_member
    5052                      .dwattr $C$DW$576, DW_AT_type(*$C$DW$T$8)
    5053                      .dwattr $C$DW$576, DW_AT_name("n_bests")
    5054                      .dwattr $C$DW$576, DW_AT_TI_symbol_name("_n_bests")
    5055                      .dwattr $C$DW$576, DW_AT_data_member_location[DW_OP_plus_uconst 0x0]
    5056                      .dwattr $C$DW$576, DW_AT_accessibility(DW_ACCESS_public)
    5057              $C$DW$577       .dwtag  DW_TAG_member
    5058                      .dwattr $C$DW$577, DW_AT_type(*$C$DW$T$39)
    5059                      .dwattr $C$DW$577, DW_AT_name("best_idx")
    5060                      .dwattr $C$DW$577, DW_AT_TI_symbol_name("_best_idx")
    5061                      .dwattr $C$DW$577, DW_AT_data_member_location[DW_OP_plus_uconst 0x1]
    5062                      .dwattr $C$DW$577, DW_AT_accessibility(DW_ACCESS_public)
    5063              $C$DW$578       .dwtag  DW_TAG_member
    5064                      .dwattr $C$DW$578, DW_AT_type(*$C$DW$T$41)
    5065                      .dwattr $C$DW$578, DW_AT_name("elem")
    5066                      .dwattr $C$DW$578, DW_AT_TI_symbol_name("_elem")
    5067                      .dwattr $C$DW$578, DW_AT_data_member_location[DW_OP_plus_uconst 0x1f]
    5068                      .dwattr $C$DW$578, DW_AT_accessibility(DW_ACCESS_public)
    5069                      .dwendtag $C$DW$T$42
    5070              
    5071              $C$DW$T$87      .dwtag  DW_TAG_typedef, DW_AT_name("NB_words")
    5072                      .dwattr $C$DW$T$87, DW_AT_type(*$C$DW$T$42)
    5073                      .dwattr $C$DW$T$87, DW_AT_language(DW_LANG_C)
    5074              
    5075              $C$DW$T$43      .dwtag  DW_TAG_structure_type
    5076                      .dwattr $C$DW$T$43, DW_AT_byte_size(0x14)
    5077              $C$DW$579       .dwtag  DW_TAG_member
    5078                      .dwattr $C$DW$579, DW_AT_type(*$C$DW$T$20)
    5079                      .dwattr $C$DW$579, DW_AT_name("alpha_p")
    5080                      .dwattr $C$DW$579, DW_AT_TI_symbol_name("_alpha_p")
    5081                      .dwattr $C$DW$579, DW_AT_data_member_location[DW_OP_plus_uconst 0x0]
    5082                      .dwattr $C$DW$579, DW_AT_accessibility(DW_ACCESS_public)
    5083              $C$DW$580       .dwtag  DW_TAG_member
    5084                      .dwattr $C$DW$580, DW_AT_type(*$C$DW$T$20)
    5085                      .dwattr $C$DW$580, DW_AT_name("sAlpha")
    5086                      .dwattr $C$DW$580, DW_AT_TI_symbol_name("_sAlpha")
    5087                      .dwattr $C$DW$580, DW_AT_data_member_location[DW_OP_plus_uconst 0x1]
    5088                      .dwattr $C$DW$580, DW_AT_accessibility(DW_ACCESS_public)
    5089              $C$DW$581       .dwtag  DW_TAG_member
    5090                      .dwattr $C$DW$581, DW_AT_type(*$C$DW$T$8)
    5091                      .dwattr $C$DW$581, DW_AT_name("sBeta")
    5092                      .dwattr $C$DW$581, DW_AT_TI_symbol_name("_sBeta")
    5093                      .dwattr $C$DW$581, DW_AT_data_member_location[DW_OP_plus_uconst 0x2]
    5094                      .dwattr $C$DW$581, DW_AT_accessibility(DW_ACCESS_public)
    5095              $C$DW$582       .dwtag  DW_TAG_member
    5096                      .dwattr $C$DW$582, DW_AT_type(*$C$DW$T$8)
    5097                      .dwattr $C$DW$582, DW_AT_name("lambdaLTEhigherE")
    5098                      .dwattr $C$DW$582, DW_AT_TI_symbol_name("_lambdaLTEhigherE")
    5099                      .dwattr $C$DW$582, DW_AT_data_member_location[DW_OP_plus_uconst 0x3]
    5100                      .dwattr $C$DW$582, DW_AT_accessibility(DW_ACCESS_public)
    5101              $C$DW$583       .dwtag  DW_TAG_member
    5102                      .dwattr $C$DW$583, DW_AT_type(*$C$DW$T$8)
    5103                      .dwattr $C$DW$583, DW_AT_name("frm_count")
    5104                      .dwattr $C$DW$583, DW_AT_TI_symbol_name("_frm_count")
TMS320C55x Assembler PC v4.4.1 Wed Sep 13 16:33:23 2017

Tools Copyright (c) 1996-2012 Texas Instruments Incorporated
C:\Users\a0221074\AppData\Local\Temp\1618010                         PAGE  119

    5105                      .dwattr $C$DW$583, DW_AT_data_member_location[DW_OP_plus_uconst 0x4]
    5106                      .dwattr $C$DW$583, DW_AT_accessibility(DW_ACCESS_public)
    5107              $C$DW$584       .dwtag  DW_TAG_member
    5108                      .dwattr $C$DW$584, DW_AT_type(*$C$DW$T$20)
    5109                      .dwattr $C$DW$584, DW_AT_name("prob_sp")
    5110                      .dwattr $C$DW$584, DW_AT_TI_symbol_name("_prob_sp")
    5111                      .dwattr $C$DW$584, DW_AT_data_member_location[DW_OP_plus_uconst 0x5]
    5112                      .dwattr $C$DW$584, DW_AT_accessibility(DW_ACCESS_public)
    5113              $C$DW$585       .dwtag  DW_TAG_member
    5114                      .dwattr $C$DW$585, DW_AT_type(*$C$DW$T$21)
    5115                      .dwattr $C$DW$585, DW_AT_name("s_noise_floor")
    5116                      .dwattr $C$DW$585, DW_AT_TI_symbol_name("_s_noise_floor")
    5117                      .dwattr $C$DW$585, DW_AT_data_member_location[DW_OP_plus_uconst 0x6]
    5118                      .dwattr $C$DW$585, DW_AT_accessibility(DW_ACCESS_public)
    5119              $C$DW$586       .dwtag  DW_TAG_member
    5120                      .dwattr $C$DW$586, DW_AT_type(*$C$DW$T$21)
    5121                      .dwattr $C$DW$586, DW_AT_name("snr")
    5122                      .dwattr $C$DW$586, DW_AT_TI_symbol_name("_snr")
    5123                      .dwattr $C$DW$586, DW_AT_data_member_location[DW_OP_plus_uconst 0x8]
    5124                      .dwattr $C$DW$586, DW_AT_accessibility(DW_ACCESS_public)
    5125              $C$DW$587       .dwtag  DW_TAG_member
    5126                      .dwattr $C$DW$587, DW_AT_type(*$C$DW$T$21)
    5127                      .dwattr $C$DW$587, DW_AT_name("ps_long_term_noise")
    5128                      .dwattr $C$DW$587, DW_AT_TI_symbol_name("_ps_long_term_noise")
    5129                      .dwattr $C$DW$587, DW_AT_data_member_location[DW_OP_plus_uconst 0xa]
    5130                      .dwattr $C$DW$587, DW_AT_accessibility(DW_ACCESS_public)
    5131              $C$DW$588       .dwtag  DW_TAG_member
    5132                      .dwattr $C$DW$588, DW_AT_type(*$C$DW$T$8)
    5133                      .dwattr $C$DW$588, DW_AT_name("frmEn")
    5134                      .dwattr $C$DW$588, DW_AT_TI_symbol_name("_frmEn")
    5135                      .dwattr $C$DW$588, DW_AT_data_member_location[DW_OP_plus_uconst 0xc]
    5136                      .dwattr $C$DW$588, DW_AT_accessibility(DW_ACCESS_public)
    5137              $C$DW$589       .dwtag  DW_TAG_member
    5138                      .dwattr $C$DW$589, DW_AT_type(*$C$DW$T$8)
    5139                      .dwattr $C$DW$589, DW_AT_name("meanEn")
    5140                      .dwattr $C$DW$589, DW_AT_TI_symbol_name("_meanEn")
    5141                      .dwattr $C$DW$589, DW_AT_data_member_location[DW_OP_plus_uconst 0xd]
    5142                      .dwattr $C$DW$589, DW_AT_accessibility(DW_ACCESS_public)
    5143              $C$DW$590       .dwtag  DW_TAG_member
    5144                      .dwattr $C$DW$590, DW_AT_type(*$C$DW$T$8)
    5145                      .dwattr $C$DW$590, DW_AT_name("prevMeanEn")
    5146                      .dwattr $C$DW$590, DW_AT_TI_symbol_name("_prevMeanEn")
    5147                      .dwattr $C$DW$590, DW_AT_data_member_location[DW_OP_plus_uconst 0xe]
    5148                      .dwattr $C$DW$590, DW_AT_accessibility(DW_ACCESS_public)
    5149              $C$DW$591       .dwtag  DW_TAG_member
    5150                      .dwattr $C$DW$591, DW_AT_type(*$C$DW$T$8)
    5151                      .dwattr $C$DW$591, DW_AT_name("noiselvl")
    5152                      .dwattr $C$DW$591, DW_AT_TI_symbol_name("_noiselvl")
    5153                      .dwattr $C$DW$591, DW_AT_data_member_location[DW_OP_plus_uconst 0xf]
    5154                      .dwattr $C$DW$591, DW_AT_accessibility(DW_ACCESS_public)
    5155              $C$DW$592       .dwtag  DW_TAG_member
    5156                      .dwattr $C$DW$592, DW_AT_type(*$C$DW$T$8)
    5157                      .dwattr $C$DW$592, DW_AT_name("lambdaLTE")
    5158                      .dwattr $C$DW$592, DW_AT_TI_symbol_name("_lambdaLTE")
    5159                      .dwattr $C$DW$592, DW_AT_data_member_location[DW_OP_plus_uconst 0x10]
TMS320C55x Assembler PC v4.4.1 Wed Sep 13 16:33:23 2017

Tools Copyright (c) 1996-2012 Texas Instruments Incorporated
C:\Users\a0221074\AppData\Local\Temp\1618010                         PAGE  120

    5160                      .dwattr $C$DW$592, DW_AT_accessibility(DW_ACCESS_public)
    5161              $C$DW$593       .dwtag  DW_TAG_member
    5162                      .dwattr $C$DW$593, DW_AT_type(*$C$DW$T$8)
    5163                      .dwattr $C$DW$593, DW_AT_name("nbSpeechFrame")
    5164                      .dwattr $C$DW$593, DW_AT_TI_symbol_name("_nbSpeechFrame")
    5165                      .dwattr $C$DW$593, DW_AT_data_member_location[DW_OP_plus_uconst 0x11]
    5166                      .dwattr $C$DW$593, DW_AT_accessibility(DW_ACCESS_public)
    5167              $C$DW$594       .dwtag  DW_TAG_member
    5168                      .dwattr $C$DW$594, DW_AT_type(*$C$DW$T$8)
    5169                      .dwattr $C$DW$594, DW_AT_name("hangOver")
    5170                      .dwattr $C$DW$594, DW_AT_TI_symbol_name("_hangOver")
    5171                      .dwattr $C$DW$594, DW_AT_data_member_location[DW_OP_plus_uconst 0x12]
    5172                      .dwattr $C$DW$594, DW_AT_accessibility(DW_ACCESS_public)
    5173                      .dwendtag $C$DW$T$43
    5174              
    5175              $C$DW$T$90      .dwtag  DW_TAG_typedef, DW_AT_name("NssType")
    5176                      .dwattr $C$DW$T$90, DW_AT_type(*$C$DW$T$43)
    5177                      .dwattr $C$DW$T$90, DW_AT_language(DW_LANG_C)
    5178              $C$DW$T$91      .dwtag  DW_TAG_pointer_type
    5179                      .dwattr $C$DW$T$91, DW_AT_type(*$C$DW$T$90)
    5180                      .dwattr $C$DW$T$91, DW_AT_address_class(0x17)
    5181              
    5182              $C$DW$T$44      .dwtag  DW_TAG_structure_type
    5183                      .dwattr $C$DW$T$44, DW_AT_byte_size(0x03)
    5184              $C$DW$595       .dwtag  DW_TAG_member
    5185                      .dwattr $C$DW$595, DW_AT_type(*$C$DW$T$8)
    5186                      .dwattr $C$DW$595, DW_AT_name("mean")
    5187                      .dwattr $C$DW$595, DW_AT_TI_symbol_name("_mean")
    5188                      .dwattr $C$DW$595, DW_AT_data_member_location[DW_OP_plus_uconst 0x0]
    5189                      .dwattr $C$DW$595, DW_AT_accessibility(DW_ACCESS_public)
    5190              $C$DW$596       .dwtag  DW_TAG_member
    5191                      .dwattr $C$DW$596, DW_AT_type(*$C$DW$T$8)
    5192                      .dwattr $C$DW$596, DW_AT_name("inv")
    5193                      .dwattr $C$DW$596, DW_AT_TI_symbol_name("_inv")
    5194                      .dwattr $C$DW$596, DW_AT_data_member_location[DW_OP_plus_uconst 0x1]
    5195                      .dwattr $C$DW$596, DW_AT_accessibility(DW_ACCESS_public)
    5196              $C$DW$597       .dwtag  DW_TAG_member
    5197                      .dwattr $C$DW$597, DW_AT_type(*$C$DW$T$8)
    5198                      .dwattr $C$DW$597, DW_AT_name("gconst")
    5199                      .dwattr $C$DW$597, DW_AT_TI_symbol_name("_gconst")
    5200                      .dwattr $C$DW$597, DW_AT_data_member_location[DW_OP_plus_uconst 0x2]
    5201                      .dwattr $C$DW$597, DW_AT_accessibility(DW_ACCESS_public)
    5202                      .dwendtag $C$DW$T$44
    5203              
    5204              $C$DW$T$46      .dwtag  DW_TAG_typedef, DW_AT_name("CM_hypo")
    5205                      .dwattr $C$DW$T$46, DW_AT_type(*$C$DW$T$44)
    5206                      .dwattr $C$DW$T$46, DW_AT_language(DW_LANG_C)
    5207              
    5208              $C$DW$T$48      .dwtag  DW_TAG_structure_type
    5209                      .dwattr $C$DW$T$48, DW_AT_byte_size(0x544)
    5210              $C$DW$598       .dwtag  DW_TAG_member
    5211                      .dwattr $C$DW$598, DW_AT_type(*$C$DW$T$45)
    5212                      .dwattr $C$DW$598, DW_AT_name("base_mem")
    5213                      .dwattr $C$DW$598, DW_AT_TI_symbol_name("_base_mem")
    5214                      .dwattr $C$DW$598, DW_AT_data_member_location[DW_OP_plus_uconst 0x0]
TMS320C55x Assembler PC v4.4.1 Wed Sep 13 16:33:23 2017

Tools Copyright (c) 1996-2012 Texas Instruments Incorporated
C:\Users\a0221074\AppData\Local\Temp\1618010                         PAGE  121

    5215                      .dwattr $C$DW$598, DW_AT_accessibility(DW_ACCESS_public)
    5216              $C$DW$599       .dwtag  DW_TAG_member
    5217                      .dwattr $C$DW$599, DW_AT_type(*$C$DW$T$20)
    5218                      .dwattr $C$DW$599, DW_AT_name("mem_count")
    5219                      .dwattr $C$DW$599, DW_AT_TI_symbol_name("_mem_count")
    5220                      .dwattr $C$DW$599, DW_AT_data_member_location[DW_OP_plus_uconst 0x514]
    5221                      .dwattr $C$DW$599, DW_AT_accessibility(DW_ACCESS_public)
    5222              $C$DW$600       .dwtag  DW_TAG_member
    5223                      .dwattr $C$DW$600, DW_AT_type(*$C$DW$T$22)
    5224                      .dwattr $C$DW$600, DW_AT_name("answers")
    5225                      .dwattr $C$DW$600, DW_AT_TI_symbol_name("_answers")
    5226                      .dwattr $C$DW$600, DW_AT_data_member_location[DW_OP_plus_uconst 0x516]
    5227                      .dwattr $C$DW$600, DW_AT_accessibility(DW_ACCESS_public)
    5228              $C$DW$601       .dwtag  DW_TAG_member
    5229                      .dwattr $C$DW$601, DW_AT_type(*$C$DW$T$22)
    5230                      .dwattr $C$DW$601, DW_AT_name("uStp")
    5231                      .dwattr $C$DW$601, DW_AT_TI_symbol_name("_uStp")
    5232                      .dwattr $C$DW$601, DW_AT_data_member_location[DW_OP_plus_uconst 0x518]
    5233                      .dwattr $C$DW$601, DW_AT_accessibility(DW_ACCESS_public)
    5234              $C$DW$602       .dwtag  DW_TAG_member
    5235                      .dwattr $C$DW$602, DW_AT_type(*$C$DW$T$20)
    5236                      .dwattr $C$DW$602, DW_AT_name("nWords")
    5237                      .dwattr $C$DW$602, DW_AT_TI_symbol_name("_nWords")
    5238                      .dwattr $C$DW$602, DW_AT_data_member_location[DW_OP_plus_uconst 0x51a]
    5239                      .dwattr $C$DW$602, DW_AT_accessibility(DW_ACCESS_public)
    5240              $C$DW$603       .dwtag  DW_TAG_member
    5241                      .dwattr $C$DW$603, DW_AT_type(*$C$DW$T$8)
    5242                      .dwattr $C$DW$603, DW_AT_name("nS")
    5243                      .dwattr $C$DW$603, DW_AT_TI_symbol_name("_nS")
    5244                      .dwattr $C$DW$603, DW_AT_data_member_location[DW_OP_plus_uconst 0x51b]
    5245                      .dwattr $C$DW$603, DW_AT_accessibility(DW_ACCESS_public)
    5246              $C$DW$604       .dwtag  DW_TAG_member
    5247                      .dwattr $C$DW$604, DW_AT_type(*$C$DW$T$21)
    5248                      .dwattr $C$DW$604, DW_AT_name("cm_scr")
    5249                      .dwattr $C$DW$604, DW_AT_TI_symbol_name("_cm_scr")
    5250                      .dwattr $C$DW$604, DW_AT_data_member_location[DW_OP_plus_uconst 0x51c]
    5251                      .dwattr $C$DW$604, DW_AT_accessibility(DW_ACCESS_public)
    5252              $C$DW$605       .dwtag  DW_TAG_member
    5253                      .dwattr $C$DW$605, DW_AT_type(*$C$DW$T$8)
    5254                      .dwattr $C$DW$605, DW_AT_name("bNeedUpdate")
    5255                      .dwattr $C$DW$605, DW_AT_TI_symbol_name("_bNeedUpdate")
    5256                      .dwattr $C$DW$605, DW_AT_data_member_location[DW_OP_plus_uconst 0x51e]
    5257                      .dwattr $C$DW$605, DW_AT_accessibility(DW_ACCESS_public)
    5258              $C$DW$606       .dwtag  DW_TAG_member
    5259                      .dwattr $C$DW$606, DW_AT_type(*$C$DW$T$21)
    5260                      .dwattr $C$DW$606, DW_AT_name("cm_anti_scr")
    5261                      .dwattr $C$DW$606, DW_AT_TI_symbol_name("_cm_anti_scr")
    5262                      .dwattr $C$DW$606, DW_AT_data_member_location[DW_OP_plus_uconst 0x520]
    5263                      .dwattr $C$DW$606, DW_AT_accessibility(DW_ACCESS_public)
    5264              $C$DW$607       .dwtag  DW_TAG_member
    5265                      .dwattr $C$DW$607, DW_AT_type(*$C$DW$T$12)
    5266                      .dwattr $C$DW$607, DW_AT_name("cm_fg_scr")
    5267                      .dwattr $C$DW$607, DW_AT_TI_symbol_name("_cm_fg_scr")
    5268                      .dwattr $C$DW$607, DW_AT_data_member_location[DW_OP_plus_uconst 0x522]
    5269                      .dwattr $C$DW$607, DW_AT_accessibility(DW_ACCESS_public)
TMS320C55x Assembler PC v4.4.1 Wed Sep 13 16:33:23 2017

Tools Copyright (c) 1996-2012 Texas Instruments Incorporated
C:\Users\a0221074\AppData\Local\Temp\1618010                         PAGE  122

    5270              $C$DW$608       .dwtag  DW_TAG_member
    5271                      .dwattr $C$DW$608, DW_AT_type(*$C$DW$T$12)
    5272                      .dwattr $C$DW$608, DW_AT_name("cm_bk_scr")
    5273                      .dwattr $C$DW$608, DW_AT_TI_symbol_name("_cm_bk_scr")
    5274                      .dwattr $C$DW$608, DW_AT_data_member_location[DW_OP_plus_uconst 0x524]
    5275                      .dwattr $C$DW$608, DW_AT_accessibility(DW_ACCESS_public)
    5276              $C$DW$609       .dwtag  DW_TAG_member
    5277                      .dwattr $C$DW$609, DW_AT_type(*$C$DW$T$8)
    5278                      .dwattr $C$DW$609, DW_AT_name("th_nbest")
    5279                      .dwattr $C$DW$609, DW_AT_TI_symbol_name("_th_nbest")
    5280                      .dwattr $C$DW$609, DW_AT_data_member_location[DW_OP_plus_uconst 0x526]
    5281                      .dwattr $C$DW$609, DW_AT_accessibility(DW_ACCESS_public)
    5282              $C$DW$610       .dwtag  DW_TAG_member
    5283                      .dwattr $C$DW$610, DW_AT_type(*$C$DW$T$8)
    5284                      .dwattr $C$DW$610, DW_AT_name("nSpeech")
    5285                      .dwattr $C$DW$610, DW_AT_TI_symbol_name("_nSpeech")
    5286                      .dwattr $C$DW$610, DW_AT_data_member_location[DW_OP_plus_uconst 0x527]
    5287                      .dwattr $C$DW$610, DW_AT_accessibility(DW_ACCESS_public)
    5288              $C$DW$611       .dwtag  DW_TAG_member
    5289                      .dwattr $C$DW$611, DW_AT_type(*$C$DW$T$8)
    5290                      .dwattr $C$DW$611, DW_AT_name("nNoise")
    5291                      .dwattr $C$DW$611, DW_AT_TI_symbol_name("_nNoise")
    5292                      .dwattr $C$DW$611, DW_AT_data_member_location[DW_OP_plus_uconst 0x528]
    5293                      .dwattr $C$DW$611, DW_AT_accessibility(DW_ACCESS_public)
    5294              $C$DW$612       .dwtag  DW_TAG_member
    5295                      .dwattr $C$DW$612, DW_AT_type(*$C$DW$T$12)
    5296                      .dwattr $C$DW$612, DW_AT_name("speech_power")
    5297                      .dwattr $C$DW$612, DW_AT_TI_symbol_name("_speech_power")
    5298                      .dwattr $C$DW$612, DW_AT_data_member_location[DW_OP_plus_uconst 0x52a]
    5299                      .dwattr $C$DW$612, DW_AT_accessibility(DW_ACCESS_public)
    5300              $C$DW$613       .dwtag  DW_TAG_member
    5301                      .dwattr $C$DW$613, DW_AT_type(*$C$DW$T$12)
    5302                      .dwattr $C$DW$613, DW_AT_name("noise_power")
    5303                      .dwattr $C$DW$613, DW_AT_TI_symbol_name("_noise_power")
    5304                      .dwattr $C$DW$613, DW_AT_data_member_location[DW_OP_plus_uconst 0x52c]
    5305                      .dwattr $C$DW$613, DW_AT_accessibility(DW_ACCESS_public)
    5306              $C$DW$614       .dwtag  DW_TAG_member
    5307                      .dwattr $C$DW$614, DW_AT_type(*$C$DW$T$12)
    5308                      .dwattr $C$DW$614, DW_AT_name("noise_power_sqr")
    5309                      .dwattr $C$DW$614, DW_AT_TI_symbol_name("_noise_power_sqr")
    5310                      .dwattr $C$DW$614, DW_AT_data_member_location[DW_OP_plus_uconst 0x52e]
    5311                      .dwattr $C$DW$614, DW_AT_accessibility(DW_ACCESS_public)
    5312              $C$DW$615       .dwtag  DW_TAG_member
    5313                      .dwattr $C$DW$615, DW_AT_type(*$C$DW$T$8)
    5314                      .dwattr $C$DW$615, DW_AT_name("NSNR")
    5315                      .dwattr $C$DW$615, DW_AT_TI_symbol_name("_NSNR")
    5316                      .dwattr $C$DW$615, DW_AT_data_member_location[DW_OP_plus_uconst 0x530]
    5317                      .dwattr $C$DW$615, DW_AT_accessibility(DW_ACCESS_public)
    5318              $C$DW$616       .dwtag  DW_TAG_member
    5319                      .dwattr $C$DW$616, DW_AT_type(*$C$DW$T$46)
    5320                      .dwattr $C$DW$616, DW_AT_name("H0")
    5321                      .dwattr $C$DW$616, DW_AT_TI_symbol_name("_H0")
    5322                      .dwattr $C$DW$616, DW_AT_data_member_location[DW_OP_plus_uconst 0x531]
    5323                      .dwattr $C$DW$616, DW_AT_accessibility(DW_ACCESS_public)
    5324              $C$DW$617       .dwtag  DW_TAG_member
TMS320C55x Assembler PC v4.4.1 Wed Sep 13 16:33:23 2017

Tools Copyright (c) 1996-2012 Texas Instruments Incorporated
C:\Users\a0221074\AppData\Local\Temp\1618010                         PAGE  123

    5325                      .dwattr $C$DW$617, DW_AT_type(*$C$DW$T$46)
    5326                      .dwattr $C$DW$617, DW_AT_name("H1")
    5327                      .dwattr $C$DW$617, DW_AT_TI_symbol_name("_H1")
    5328                      .dwattr $C$DW$617, DW_AT_data_member_location[DW_OP_plus_uconst 0x534]
    5329                      .dwattr $C$DW$617, DW_AT_accessibility(DW_ACCESS_public)
    5330              $C$DW$618       .dwtag  DW_TAG_member
    5331                      .dwattr $C$DW$618, DW_AT_type(*$C$DW$T$21)
    5332                      .dwattr $C$DW$618, DW_AT_name("lgBeta")
    5333                      .dwattr $C$DW$618, DW_AT_TI_symbol_name("_lgBeta")
    5334                      .dwattr $C$DW$618, DW_AT_data_member_location[DW_OP_plus_uconst 0x538]
    5335                      .dwattr $C$DW$618, DW_AT_accessibility(DW_ACCESS_public)
    5336              $C$DW$619       .dwtag  DW_TAG_member
    5337                      .dwattr $C$DW$619, DW_AT_type(*$C$DW$T$47)
    5338                      .dwattr $C$DW$619, DW_AT_name("acc_dif2_beta")
    5339                      .dwattr $C$DW$619, DW_AT_TI_symbol_name("_acc_dif2_beta")
    5340                      .dwattr $C$DW$619, DW_AT_data_member_location[DW_OP_plus_uconst 0x53a]
    5341                      .dwattr $C$DW$619, DW_AT_accessibility(DW_ACCESS_public)
    5342              $C$DW$620       .dwtag  DW_TAG_member
    5343                      .dwattr $C$DW$620, DW_AT_type(*$C$DW$T$8)
    5344                      .dwattr $C$DW$620, DW_AT_name("bCalced")
    5345                      .dwattr $C$DW$620, DW_AT_TI_symbol_name("_bCalced")
    5346                      .dwattr $C$DW$620, DW_AT_data_member_location[DW_OP_plus_uconst 0x53c]
    5347                      .dwattr $C$DW$620, DW_AT_accessibility(DW_ACCESS_public)
    5348              $C$DW$621       .dwtag  DW_TAG_member
    5349                      .dwattr $C$DW$621, DW_AT_type(*$C$DW$T$21)
    5350                      .dwattr $C$DW$621, DW_AT_name("sCH")
    5351                      .dwattr $C$DW$621, DW_AT_TI_symbol_name("_sCH")
    5352                      .dwattr $C$DW$621, DW_AT_data_member_location[DW_OP_plus_uconst 0x53e]
    5353                      .dwattr $C$DW$621, DW_AT_accessibility(DW_ACCESS_public)
    5354              $C$DW$622       .dwtag  DW_TAG_member
    5355                      .dwattr $C$DW$622, DW_AT_type(*$C$DW$T$47)
    5356                      .dwattr $C$DW$622, DW_AT_name("lAccum")
    5357                      .dwattr $C$DW$622, DW_AT_TI_symbol_name("_lAccum")
    5358                      .dwattr $C$DW$622, DW_AT_data_member_location[DW_OP_plus_uconst 0x540]
    5359                      .dwattr $C$DW$622, DW_AT_accessibility(DW_ACCESS_public)
    5360              $C$DW$623       .dwtag  DW_TAG_member
    5361                      .dwattr $C$DW$623, DW_AT_type(*$C$DW$T$8)
    5362                      .dwattr $C$DW$623, DW_AT_name("adp_th")
    5363                      .dwattr $C$DW$623, DW_AT_TI_symbol_name("_adp_th")
    5364                      .dwattr $C$DW$623, DW_AT_data_member_location[DW_OP_plus_uconst 0x542]
    5365                      .dwattr $C$DW$623, DW_AT_accessibility(DW_ACCESS_public)
    5366                      .dwendtag $C$DW$T$48
    5367              
    5368              $C$DW$T$92      .dwtag  DW_TAG_typedef, DW_AT_name("ConfType")
    5369                      .dwattr $C$DW$T$92, DW_AT_type(*$C$DW$T$48)
    5370                      .dwattr $C$DW$T$92, DW_AT_language(DW_LANG_C)
    5371              $C$DW$T$93      .dwtag  DW_TAG_pointer_type
    5372                      .dwattr $C$DW$T$93, DW_AT_type(*$C$DW$T$92)
    5373                      .dwattr $C$DW$T$93, DW_AT_address_class(0x17)
    5374              
    5375              $C$DW$T$49      .dwtag  DW_TAG_structure_type
    5376                      .dwattr $C$DW$T$49, DW_AT_byte_size(0x02)
    5377              $C$DW$624       .dwtag  DW_TAG_member
    5378                      .dwattr $C$DW$624, DW_AT_type(*$C$DW$T$8)
    5379                      .dwattr $C$DW$624, DW_AT_name("tran")
TMS320C55x Assembler PC v4.4.1 Wed Sep 13 16:33:23 2017

Tools Copyright (c) 1996-2012 Texas Instruments Incorporated
C:\Users\a0221074\AppData\Local\Temp\1618010                         PAGE  124

    5380                      .dwattr $C$DW$624, DW_AT_TI_symbol_name("_tran")
    5381                      .dwattr $C$DW$624, DW_AT_data_member_location[DW_OP_plus_uconst 0x0]
    5382                      .dwattr $C$DW$624, DW_AT_accessibility(DW_ACCESS_public)
    5383              $C$DW$625       .dwtag  DW_TAG_member
    5384                      .dwattr $C$DW$625, DW_AT_type(*$C$DW$T$27)
    5385                      .dwattr $C$DW$625, DW_AT_name("pdf_idx")
    5386                      .dwattr $C$DW$625, DW_AT_TI_symbol_name("_pdf_idx")
    5387                      .dwattr $C$DW$625, DW_AT_data_member_location[DW_OP_plus_uconst 0x1]
    5388                      .dwattr $C$DW$625, DW_AT_accessibility(DW_ACCESS_public)
    5389                      .dwendtag $C$DW$T$49
    5390              
    5391              $C$DW$T$118     .dwtag  DW_TAG_typedef, DW_AT_name("HmmType")
    5392                      .dwattr $C$DW$T$118, DW_AT_type(*$C$DW$T$49)
    5393                      .dwattr $C$DW$T$118, DW_AT_language(DW_LANG_C)
    5394              $C$DW$T$119     .dwtag  DW_TAG_pointer_type
    5395                      .dwattr $C$DW$T$119, DW_AT_type(*$C$DW$T$118)
    5396                      .dwattr $C$DW$T$119, DW_AT_address_class(0x17)
    5397              
    5398              $C$DW$T$51      .dwtag  DW_TAG_structure_type
    5399                      .dwattr $C$DW$T$51, DW_AT_byte_size(0x0c)
    5400              $C$DW$626       .dwtag  DW_TAG_member
    5401                      .dwattr $C$DW$626, DW_AT_type(*$C$DW$T$10)
    5402                      .dwattr $C$DW$626, DW_AT_name("fd")
    5403                      .dwattr $C$DW$626, DW_AT_TI_symbol_name("_fd")
    5404                      .dwattr $C$DW$626, DW_AT_data_member_location[DW_OP_plus_uconst 0x0]
    5405                      .dwattr $C$DW$626, DW_AT_accessibility(DW_ACCESS_public)
    5406              $C$DW$627       .dwtag  DW_TAG_member
    5407                      .dwattr $C$DW$627, DW_AT_type(*$C$DW$T$50)
    5408                      .dwattr $C$DW$627, DW_AT_name("buf")
    5409                      .dwattr $C$DW$627, DW_AT_TI_symbol_name("_buf")
    5410                      .dwattr $C$DW$627, DW_AT_data_member_location[DW_OP_plus_uconst 0x2]
    5411                      .dwattr $C$DW$627, DW_AT_accessibility(DW_ACCESS_public)
    5412              $C$DW$628       .dwtag  DW_TAG_member
    5413                      .dwattr $C$DW$628, DW_AT_type(*$C$DW$T$50)
    5414                      .dwattr $C$DW$628, DW_AT_name("pos")
    5415                      .dwattr $C$DW$628, DW_AT_TI_symbol_name("_pos")
    5416                      .dwattr $C$DW$628, DW_AT_data_member_location[DW_OP_plus_uconst 0x4]
    5417                      .dwattr $C$DW$628, DW_AT_accessibility(DW_ACCESS_public)
    5418              $C$DW$629       .dwtag  DW_TAG_member
    5419                      .dwattr $C$DW$629, DW_AT_type(*$C$DW$T$50)
    5420                      .dwattr $C$DW$629, DW_AT_name("bufend")
    5421                      .dwattr $C$DW$629, DW_AT_TI_symbol_name("_bufend")
    5422                      .dwattr $C$DW$629, DW_AT_data_member_location[DW_OP_plus_uconst 0x6]
    5423                      .dwattr $C$DW$629, DW_AT_accessibility(DW_ACCESS_public)
    5424              $C$DW$630       .dwtag  DW_TAG_member
    5425                      .dwattr $C$DW$630, DW_AT_type(*$C$DW$T$50)
    5426                      .dwattr $C$DW$630, DW_AT_name("buff_stop")
    5427                      .dwattr $C$DW$630, DW_AT_TI_symbol_name("_buff_stop")
    5428                      .dwattr $C$DW$630, DW_AT_data_member_location[DW_OP_plus_uconst 0x8]
    5429                      .dwattr $C$DW$630, DW_AT_accessibility(DW_ACCESS_public)
    5430              $C$DW$631       .dwtag  DW_TAG_member
    5431                      .dwattr $C$DW$631, DW_AT_type(*$C$DW$T$11)
    5432                      .dwattr $C$DW$631, DW_AT_name("flags")
    5433                      .dwattr $C$DW$631, DW_AT_TI_symbol_name("_flags")
    5434                      .dwattr $C$DW$631, DW_AT_data_member_location[DW_OP_plus_uconst 0xa]
TMS320C55x Assembler PC v4.4.1 Wed Sep 13 16:33:23 2017

Tools Copyright (c) 1996-2012 Texas Instruments Incorporated
C:\Users\a0221074\AppData\Local\Temp\1618010                         PAGE  125

    5435                      .dwattr $C$DW$631, DW_AT_accessibility(DW_ACCESS_public)
    5436                      .dwendtag $C$DW$T$51
    5437              
    5438              $C$DW$T$120     .dwtag  DW_TAG_typedef, DW_AT_name("FILE")
    5439                      .dwattr $C$DW$T$120, DW_AT_type(*$C$DW$T$51)
    5440                      .dwattr $C$DW$T$120, DW_AT_language(DW_LANG_C)
    5441              $C$DW$T$121     .dwtag  DW_TAG_pointer_type
    5442                      .dwattr $C$DW$T$121, DW_AT_type(*$C$DW$T$120)
    5443                      .dwattr $C$DW$T$121, DW_AT_address_class(0x17)
    5444              
    5445              $C$DW$T$52      .dwtag  DW_TAG_structure_type
    5446                      .dwattr $C$DW$T$52, DW_AT_byte_size(0x03)
    5447              $C$DW$632       .dwtag  DW_TAG_member
    5448                      .dwattr $C$DW$632, DW_AT_type(*$C$DW$T$9)
    5449                      .dwattr $C$DW$632, DW_AT_name("hmm_code")
    5450                      .dwattr $C$DW$632, DW_AT_TI_symbol_name("_hmm_code")
    5451                      .dwattr $C$DW$632, DW_AT_data_member_location[DW_OP_plus_uconst 0x0]
    5452                      .dwattr $C$DW$632, DW_AT_accessibility(DW_ACCESS_public)
    5453              $C$DW$633       .dwtag  DW_TAG_member
    5454                      .dwattr $C$DW$633, DW_AT_type(*$C$DW$T$9)
    5455                      .dwattr $C$DW$633, DW_AT_name("n_next")
    5456                      .dwattr $C$DW$633, DW_AT_TI_symbol_name("_n_next")
    5457                      .dwattr $C$DW$633, DW_AT_data_member_location[DW_OP_plus_uconst 0x1]
    5458                      .dwattr $C$DW$633, DW_AT_accessibility(DW_ACCESS_public)
    5459              $C$DW$634       .dwtag  DW_TAG_member
    5460                      .dwattr $C$DW$634, DW_AT_type(*$C$DW$T$27)
    5461                      .dwattr $C$DW$634, DW_AT_name("next")
    5462                      .dwattr $C$DW$634, DW_AT_TI_symbol_name("_next")
    5463                      .dwattr $C$DW$634, DW_AT_data_member_location[DW_OP_plus_uconst 0x2]
    5464                      .dwattr $C$DW$634, DW_AT_accessibility(DW_ACCESS_public)
    5465                      .dwendtag $C$DW$T$52
    5466              
    5467              $C$DW$T$124     .dwtag  DW_TAG_typedef, DW_AT_name("SymType")
    5468                      .dwattr $C$DW$T$124, DW_AT_type(*$C$DW$T$52)
    5469                      .dwattr $C$DW$T$124, DW_AT_language(DW_LANG_C)
    5470              $C$DW$T$125     .dwtag  DW_TAG_pointer_type
    5471                      .dwattr $C$DW$T$125, DW_AT_type(*$C$DW$T$124)
    5472                      .dwattr $C$DW$T$125, DW_AT_address_class(0x17)
    5473              
    5474              $C$DW$T$126     .dwtag  DW_TAG_enumeration_type
    5475                      .dwattr $C$DW$T$126, DW_AT_name("ObsType")
    5476                      .dwattr $C$DW$T$126, DW_AT_byte_size(0x01)
    5477              $C$DW$635       .dwtag  DW_TAG_enumerator, DW_AT_name("VITERBI"), DW_AT_const_value(0x00)
    5478              $C$DW$636       .dwtag  DW_TAG_enumerator, DW_AT_name("FULL"), DW_AT_const_value(0x01)
    5479              $C$DW$637       .dwtag  DW_TAG_enumerator, DW_AT_name("COMPONENT"), DW_AT_const_value(0x02)
    5480                      .dwendtag $C$DW$T$126
    5481              
    5482              $C$DW$T$127     .dwtag  DW_TAG_typedef, DW_AT_name("ObsType")
    5483                      .dwattr $C$DW$T$127, DW_AT_type(*$C$DW$T$126)
    5484                      .dwattr $C$DW$T$127, DW_AT_language(DW_LANG_C)
    5485              $C$DW$T$3       .dwtag  DW_TAG_pointer_type
    5486                      .dwattr $C$DW$T$3, DW_AT_address_class(0x17)
    5487              $C$DW$T$4       .dwtag  DW_TAG_base_type
    5488                      .dwattr $C$DW$T$4, DW_AT_encoding(DW_ATE_boolean)
    5489                      .dwattr $C$DW$T$4, DW_AT_name("bool")
TMS320C55x Assembler PC v4.4.1 Wed Sep 13 16:33:23 2017

Tools Copyright (c) 1996-2012 Texas Instruments Incorporated
C:\Users\a0221074\AppData\Local\Temp\1618010                         PAGE  126

    5490                      .dwattr $C$DW$T$4, DW_AT_byte_size(0x01)
    5491              $C$DW$T$5       .dwtag  DW_TAG_base_type
    5492                      .dwattr $C$DW$T$5, DW_AT_encoding(DW_ATE_signed_char)
    5493                      .dwattr $C$DW$T$5, DW_AT_name("signed char")
    5494                      .dwattr $C$DW$T$5, DW_AT_byte_size(0x01)
    5495              $C$DW$T$6       .dwtag  DW_TAG_base_type
    5496                      .dwattr $C$DW$T$6, DW_AT_encoding(DW_ATE_unsigned_char)
    5497                      .dwattr $C$DW$T$6, DW_AT_name("unsigned char")
    5498                      .dwattr $C$DW$T$6, DW_AT_byte_size(0x01)
    5499              $C$DW$T$50      .dwtag  DW_TAG_pointer_type
    5500                      .dwattr $C$DW$T$50, DW_AT_type(*$C$DW$T$6)
    5501                      .dwattr $C$DW$T$50, DW_AT_address_class(0x17)
    5502              $C$DW$T$7       .dwtag  DW_TAG_base_type
    5503                      .dwattr $C$DW$T$7, DW_AT_encoding(DW_ATE_signed_char)
    5504                      .dwattr $C$DW$T$7, DW_AT_name("wchar_t")
    5505                      .dwattr $C$DW$T$7, DW_AT_byte_size(0x01)
    5506              $C$DW$T$8       .dwtag  DW_TAG_base_type
    5507                      .dwattr $C$DW$T$8, DW_AT_encoding(DW_ATE_signed)
    5508                      .dwattr $C$DW$T$8, DW_AT_name("short")
    5509                      .dwattr $C$DW$T$8, DW_AT_byte_size(0x01)
    5510              $C$DW$T$21      .dwtag  DW_TAG_pointer_type
    5511                      .dwattr $C$DW$T$21, DW_AT_type(*$C$DW$T$8)
    5512                      .dwattr $C$DW$T$21, DW_AT_address_class(0x17)
    5513              
    5514              $C$DW$T$39      .dwtag  DW_TAG_array_type
    5515                      .dwattr $C$DW$T$39, DW_AT_type(*$C$DW$T$8)
    5516                      .dwattr $C$DW$T$39, DW_AT_language(DW_LANG_C)
    5517                      .dwattr $C$DW$T$39, DW_AT_byte_size(0x1e)
    5518              $C$DW$638       .dwtag  DW_TAG_subrange_type
    5519                      .dwattr $C$DW$638, DW_AT_upper_bound(0x1d)
    5520                      .dwendtag $C$DW$T$39
    5521              
    5522              
    5523              $C$DW$T$45      .dwtag  DW_TAG_array_type
    5524                      .dwattr $C$DW$T$45, DW_AT_type(*$C$DW$T$8)
    5525                      .dwattr $C$DW$T$45, DW_AT_language(DW_LANG_C)
    5526                      .dwattr $C$DW$T$45, DW_AT_byte_size(0x514)
    5527              $C$DW$639       .dwtag  DW_TAG_subrange_type
    5528                      .dwattr $C$DW$639, DW_AT_upper_bound(0x513)
    5529                      .dwendtag $C$DW$T$45
    5530              
    5531              
    5532              $C$DW$T$54      .dwtag  DW_TAG_array_type
    5533                      .dwattr $C$DW$T$54, DW_AT_type(*$C$DW$T$8)
    5534                      .dwattr $C$DW$T$54, DW_AT_language(DW_LANG_C)
    5535                      .dwattr $C$DW$T$54, DW_AT_byte_size(0x100)
    5536              $C$DW$640       .dwtag  DW_TAG_subrange_type
    5537                      .dwattr $C$DW$640, DW_AT_upper_bound(0xff)
    5538                      .dwendtag $C$DW$T$54
    5539              
    5540              
    5541              $C$DW$T$55      .dwtag  DW_TAG_array_type
    5542                      .dwattr $C$DW$T$55, DW_AT_type(*$C$DW$T$8)
    5543                      .dwattr $C$DW$T$55, DW_AT_language(DW_LANG_C)
    5544                      .dwattr $C$DW$T$55, DW_AT_byte_size(0x10)
TMS320C55x Assembler PC v4.4.1 Wed Sep 13 16:33:23 2017

Tools Copyright (c) 1996-2012 Texas Instruments Incorporated
C:\Users\a0221074\AppData\Local\Temp\1618010                         PAGE  127

    5545              $C$DW$641       .dwtag  DW_TAG_subrange_type
    5546                      .dwattr $C$DW$641, DW_AT_upper_bound(0x0f)
    5547                      .dwendtag $C$DW$T$55
    5548              
    5549              
    5550              $C$DW$T$56      .dwtag  DW_TAG_array_type
    5551                      .dwattr $C$DW$T$56, DW_AT_type(*$C$DW$T$8)
    5552                      .dwattr $C$DW$T$56, DW_AT_language(DW_LANG_C)
    5553                      .dwattr $C$DW$T$56, DW_AT_byte_size(0xe0)
    5554              $C$DW$642       .dwtag  DW_TAG_subrange_type
    5555                      .dwattr $C$DW$642, DW_AT_upper_bound(0x0d)
    5556              $C$DW$643       .dwtag  DW_TAG_subrange_type
    5557                      .dwattr $C$DW$643, DW_AT_upper_bound(0x0f)
    5558                      .dwendtag $C$DW$T$56
    5559              
    5560              $C$DW$644       .dwtag  DW_TAG_TI_far_type
    5561                      .dwattr $C$DW$644, DW_AT_type(*$C$DW$T$8)
    5562              $C$DW$T$57      .dwtag  DW_TAG_const_type
    5563                      .dwattr $C$DW$T$57, DW_AT_type(*$C$DW$644)
    5564              $C$DW$T$58      .dwtag  DW_TAG_pointer_type
    5565                      .dwattr $C$DW$T$58, DW_AT_type(*$C$DW$T$57)
    5566                      .dwattr $C$DW$T$58, DW_AT_address_class(0x17)
    5567              
    5568              $C$DW$T$59      .dwtag  DW_TAG_array_type
    5569                      .dwattr $C$DW$T$59, DW_AT_type(*$C$DW$T$58)
    5570                      .dwattr $C$DW$T$59, DW_AT_language(DW_LANG_C)
    5571                      .dwattr $C$DW$T$59, DW_AT_byte_size(0x20)
    5572              $C$DW$645       .dwtag  DW_TAG_subrange_type
    5573                      .dwattr $C$DW$645, DW_AT_upper_bound(0x0f)
    5574                      .dwendtag $C$DW$T$59
    5575              
    5576              $C$DW$T$128     .dwtag  DW_TAG_pointer_type
    5577                      .dwattr $C$DW$T$128, DW_AT_type(*$C$DW$T$58)
    5578                      .dwattr $C$DW$T$128, DW_AT_address_class(0x17)
    5579              
    5580              $C$DW$T$63      .dwtag  DW_TAG_array_type
    5581                      .dwattr $C$DW$T$63, DW_AT_type(*$C$DW$T$8)
    5582                      .dwattr $C$DW$T$63, DW_AT_language(DW_LANG_C)
    5583                      .dwattr $C$DW$T$63, DW_AT_byte_size(0x80)
    5584              $C$DW$646       .dwtag  DW_TAG_subrange_type
    5585                      .dwattr $C$DW$646, DW_AT_upper_bound(0x7f)
    5586                      .dwendtag $C$DW$T$63
    5587              
    5588              
    5589              $C$DW$T$64      .dwtag  DW_TAG_array_type
    5590                      .dwattr $C$DW$T$64, DW_AT_type(*$C$DW$T$8)
    5591                      .dwattr $C$DW$T$64, DW_AT_language(DW_LANG_C)
    5592                      .dwattr $C$DW$T$64, DW_AT_byte_size(0x1a)
    5593              $C$DW$647       .dwtag  DW_TAG_subrange_type
    5594                      .dwattr $C$DW$647, DW_AT_upper_bound(0x19)
    5595                      .dwendtag $C$DW$T$64
    5596              
    5597              
    5598              $C$DW$T$82      .dwtag  DW_TAG_array_type
    5599                      .dwattr $C$DW$T$82, DW_AT_type(*$C$DW$T$8)
TMS320C55x Assembler PC v4.4.1 Wed Sep 13 16:33:23 2017

Tools Copyright (c) 1996-2012 Texas Instruments Incorporated
C:\Users\a0221074\AppData\Local\Temp\1618010                         PAGE  128

    5600                      .dwattr $C$DW$T$82, DW_AT_language(DW_LANG_C)
    5601                      .dwattr $C$DW$T$82, DW_AT_byte_size(0x20)
    5602              $C$DW$648       .dwtag  DW_TAG_subrange_type
    5603                      .dwattr $C$DW$648, DW_AT_upper_bound(0x1f)
    5604                      .dwendtag $C$DW$T$82
    5605              
    5606              
    5607              $C$DW$T$88      .dwtag  DW_TAG_array_type
    5608                      .dwattr $C$DW$T$88, DW_AT_type(*$C$DW$T$8)
    5609                      .dwattr $C$DW$T$88, DW_AT_language(DW_LANG_C)
    5610                      .dwattr $C$DW$T$88, DW_AT_byte_size(0x14)
    5611              $C$DW$649       .dwtag  DW_TAG_subrange_type
    5612                      .dwattr $C$DW$649, DW_AT_upper_bound(0x13)
    5613                      .dwendtag $C$DW$T$88
    5614              
    5615              
    5616              $C$DW$T$167     .dwtag  DW_TAG_array_type
    5617                      .dwattr $C$DW$T$167, DW_AT_type(*$C$DW$T$8)
    5618                      .dwattr $C$DW$T$167, DW_AT_language(DW_LANG_C)
    5619                      .dwattr $C$DW$T$167, DW_AT_byte_size(0x3e8)
    5620              $C$DW$650       .dwtag  DW_TAG_subrange_type
    5621                      .dwattr $C$DW$650, DW_AT_upper_bound(0x3e7)
    5622                      .dwendtag $C$DW$T$167
    5623              
    5624              $C$DW$T$9       .dwtag  DW_TAG_base_type
    5625                      .dwattr $C$DW$T$9, DW_AT_encoding(DW_ATE_unsigned)
    5626                      .dwattr $C$DW$T$9, DW_AT_name("unsigned short")
    5627                      .dwattr $C$DW$T$9, DW_AT_byte_size(0x01)
    5628              
    5629              $C$DW$T$27      .dwtag  DW_TAG_array_type
    5630                      .dwattr $C$DW$T$27, DW_AT_type(*$C$DW$T$9)
    5631                      .dwattr $C$DW$T$27, DW_AT_language(DW_LANG_C)
    5632                      .dwattr $C$DW$T$27, DW_AT_byte_size(0x01)
    5633              $C$DW$651       .dwtag  DW_TAG_subrange_type
    5634                      .dwattr $C$DW$651, DW_AT_upper_bound(0x00)
    5635                      .dwendtag $C$DW$T$27
    5636              
    5637              
    5638              $C$DW$T$33      .dwtag  DW_TAG_array_type
    5639                      .dwattr $C$DW$T$33, DW_AT_type(*$C$DW$T$9)
    5640                      .dwattr $C$DW$T$33, DW_AT_language(DW_LANG_C)
    5641                      .dwattr $C$DW$T$33, DW_AT_byte_size(0x02)
    5642              $C$DW$652       .dwtag  DW_TAG_subrange_type
    5643                      .dwattr $C$DW$652, DW_AT_upper_bound(0x01)
    5644                      .dwendtag $C$DW$T$33
    5645              
    5646              $C$DW$T$35      .dwtag  DW_TAG_pointer_type
    5647                      .dwattr $C$DW$T$35, DW_AT_type(*$C$DW$T$9)
    5648                      .dwattr $C$DW$T$35, DW_AT_address_class(0x17)
    5649              $C$DW$653       .dwtag  DW_TAG_TI_far_type
    5650                      .dwattr $C$DW$653, DW_AT_type(*$C$DW$T$9)
    5651              $C$DW$T$131     .dwtag  DW_TAG_const_type
    5652                      .dwattr $C$DW$T$131, DW_AT_type(*$C$DW$653)
    5653              $C$DW$T$132     .dwtag  DW_TAG_pointer_type
    5654                      .dwattr $C$DW$T$132, DW_AT_type(*$C$DW$T$131)
TMS320C55x Assembler PC v4.4.1 Wed Sep 13 16:33:23 2017

Tools Copyright (c) 1996-2012 Texas Instruments Incorporated
C:\Users\a0221074\AppData\Local\Temp\1618010                         PAGE  129

    5655                      .dwattr $C$DW$T$132, DW_AT_address_class(0x17)
    5656              $C$DW$T$20      .dwtag  DW_TAG_typedef, DW_AT_name("ushort")
    5657                      .dwattr $C$DW$T$20, DW_AT_type(*$C$DW$T$9)
    5658                      .dwattr $C$DW$T$20, DW_AT_language(DW_LANG_C)
    5659              $C$DW$T$22      .dwtag  DW_TAG_pointer_type
    5660                      .dwattr $C$DW$T$22, DW_AT_type(*$C$DW$T$20)
    5661                      .dwattr $C$DW$T$22, DW_AT_address_class(0x17)
    5662              
    5663              $C$DW$T$37      .dwtag  DW_TAG_array_type
    5664                      .dwattr $C$DW$T$37, DW_AT_type(*$C$DW$T$20)
    5665                      .dwattr $C$DW$T$37, DW_AT_language(DW_LANG_C)
    5666                      .dwattr $C$DW$T$37, DW_AT_byte_size(0x14)
    5667              $C$DW$654       .dwtag  DW_TAG_subrange_type
    5668                      .dwattr $C$DW$654, DW_AT_upper_bound(0x13)
    5669                      .dwendtag $C$DW$T$37
    5670              
    5671              
    5672              $C$DW$T$89      .dwtag  DW_TAG_array_type
    5673                      .dwattr $C$DW$T$89, DW_AT_type(*$C$DW$T$20)
    5674                      .dwattr $C$DW$T$89, DW_AT_language(DW_LANG_C)
    5675                      .dwattr $C$DW$T$89, DW_AT_byte_size(0x02)
    5676              $C$DW$655       .dwtag  DW_TAG_subrange_type
    5677                      .dwattr $C$DW$655, DW_AT_upper_bound(0x01)
    5678                      .dwendtag $C$DW$T$89
    5679              
    5680              
    5681              $C$DW$T$172     .dwtag  DW_TAG_array_type
    5682                      .dwattr $C$DW$T$172, DW_AT_type(*$C$DW$T$20)
    5683                      .dwattr $C$DW$T$172, DW_AT_language(DW_LANG_C)
    5684                      .dwattr $C$DW$T$172, DW_AT_byte_size(0x01)
    5685              $C$DW$656       .dwtag  DW_TAG_subrange_type
    5686                      .dwattr $C$DW$656, DW_AT_upper_bound(0x00)
    5687                      .dwendtag $C$DW$T$172
    5688              
    5689              $C$DW$657       .dwtag  DW_TAG_TI_far_type
    5690                      .dwattr $C$DW$657, DW_AT_type(*$C$DW$T$20)
    5691              $C$DW$T$147     .dwtag  DW_TAG_const_type
    5692                      .dwattr $C$DW$T$147, DW_AT_type(*$C$DW$657)
    5693              $C$DW$T$10      .dwtag  DW_TAG_base_type
    5694                      .dwattr $C$DW$T$10, DW_AT_encoding(DW_ATE_signed)
    5695                      .dwattr $C$DW$T$10, DW_AT_name("int")
    5696                      .dwattr $C$DW$T$10, DW_AT_byte_size(0x01)
    5697              $C$DW$T$11      .dwtag  DW_TAG_base_type
    5698                      .dwattr $C$DW$T$11, DW_AT_encoding(DW_ATE_unsigned)
    5699                      .dwattr $C$DW$T$11, DW_AT_name("unsigned int")
    5700                      .dwattr $C$DW$T$11, DW_AT_byte_size(0x01)
    5701              $C$DW$T$12      .dwtag  DW_TAG_base_type
    5702                      .dwattr $C$DW$T$12, DW_AT_encoding(DW_ATE_signed)
    5703                      .dwattr $C$DW$T$12, DW_AT_name("long")
    5704                      .dwattr $C$DW$T$12, DW_AT_byte_size(0x02)
    5705              $C$DW$T$174     .dwtag  DW_TAG_typedef, DW_AT_name("Int32")
    5706                      .dwattr $C$DW$T$174, DW_AT_type(*$C$DW$T$12)
    5707                      .dwattr $C$DW$T$174, DW_AT_language(DW_LANG_C)
    5708              $C$DW$T$47      .dwtag  DW_TAG_pointer_type
    5709                      .dwattr $C$DW$T$47, DW_AT_type(*$C$DW$T$12)
TMS320C55x Assembler PC v4.4.1 Wed Sep 13 16:33:23 2017

Tools Copyright (c) 1996-2012 Texas Instruments Incorporated
C:\Users\a0221074\AppData\Local\Temp\1618010                         PAGE  130

    5710                      .dwattr $C$DW$T$47, DW_AT_address_class(0x17)
    5711              
    5712              $C$DW$T$65      .dwtag  DW_TAG_array_type
    5713                      .dwattr $C$DW$T$65, DW_AT_type(*$C$DW$T$12)
    5714                      .dwattr $C$DW$T$65, DW_AT_language(DW_LANG_C)
    5715                      .dwattr $C$DW$T$65, DW_AT_byte_size(0xd0)
    5716              $C$DW$658       .dwtag  DW_TAG_subrange_type
    5717                      .dwattr $C$DW$658, DW_AT_upper_bound(0x67)
    5718                      .dwendtag $C$DW$T$65
    5719              
    5720              
    5721              $C$DW$T$68      .dwtag  DW_TAG_array_type
    5722                      .dwattr $C$DW$T$68, DW_AT_type(*$C$DW$T$12)
    5723                      .dwattr $C$DW$T$68, DW_AT_language(DW_LANG_C)
    5724                      .dwattr $C$DW$T$68, DW_AT_byte_size(0x20)
    5725              $C$DW$659       .dwtag  DW_TAG_subrange_type
    5726                      .dwattr $C$DW$659, DW_AT_upper_bound(0x0f)
    5727                      .dwendtag $C$DW$T$68
    5728              
    5729              $C$DW$660       .dwtag  DW_TAG_TI_far_type
    5730                      .dwattr $C$DW$660, DW_AT_type(*$C$DW$T$12)
    5731              $C$DW$T$184     .dwtag  DW_TAG_const_type
    5732                      .dwattr $C$DW$T$184, DW_AT_type(*$C$DW$660)
    5733              
    5734              $C$DW$T$185     .dwtag  DW_TAG_array_type
    5735                      .dwattr $C$DW$T$185, DW_AT_type(*$C$DW$T$184)
    5736                      .dwattr $C$DW$T$185, DW_AT_language(DW_LANG_C)
    5737                      .dwattr $C$DW$T$185, DW_AT_byte_size(0x34)
    5738              $C$DW$661       .dwtag  DW_TAG_subrange_type
    5739                      .dwattr $C$DW$661, DW_AT_upper_bound(0x19)
    5740                      .dwendtag $C$DW$T$185
    5741              
    5742              
    5743              $C$DW$T$187     .dwtag  DW_TAG_array_type
    5744                      .dwattr $C$DW$T$187, DW_AT_type(*$C$DW$T$12)
    5745                      .dwattr $C$DW$T$187, DW_AT_language(DW_LANG_C)
    5746                      .dwattr $C$DW$T$187, DW_AT_byte_size(0x9c)
    5747              $C$DW$662       .dwtag  DW_TAG_subrange_type
    5748                      .dwattr $C$DW$662, DW_AT_upper_bound(0x4d)
    5749                      .dwendtag $C$DW$T$187
    5750              
    5751              $C$DW$T$13      .dwtag  DW_TAG_base_type
    5752                      .dwattr $C$DW$T$13, DW_AT_encoding(DW_ATE_unsigned)
    5753                      .dwattr $C$DW$T$13, DW_AT_name("unsigned long")
    5754                      .dwattr $C$DW$T$13, DW_AT_byte_size(0x02)
    5755              $C$DW$T$189     .dwtag  DW_TAG_typedef, DW_AT_name("size_t")
    5756                      .dwattr $C$DW$T$189, DW_AT_type(*$C$DW$T$13)
    5757                      .dwattr $C$DW$T$189, DW_AT_language(DW_LANG_C)
    5758              $C$DW$T$14      .dwtag  DW_TAG_base_type
    5759                      .dwattr $C$DW$T$14, DW_AT_encoding(DW_ATE_signed)
    5760                      .dwattr $C$DW$T$14, DW_AT_name("long long")
    5761                      .dwattr $C$DW$T$14, DW_AT_byte_size(0x04)
    5762                      .dwattr $C$DW$T$14, DW_AT_bit_size(0x28)
    5763                      .dwattr $C$DW$T$14, DW_AT_bit_offset(0x18)
    5764              $C$DW$T$15      .dwtag  DW_TAG_base_type
TMS320C55x Assembler PC v4.4.1 Wed Sep 13 16:33:23 2017

Tools Copyright (c) 1996-2012 Texas Instruments Incorporated
C:\Users\a0221074\AppData\Local\Temp\1618010                         PAGE  131

    5765                      .dwattr $C$DW$T$15, DW_AT_encoding(DW_ATE_unsigned)
    5766                      .dwattr $C$DW$T$15, DW_AT_name("unsigned long long")
    5767                      .dwattr $C$DW$T$15, DW_AT_byte_size(0x04)
    5768                      .dwattr $C$DW$T$15, DW_AT_bit_size(0x28)
    5769                      .dwattr $C$DW$T$15, DW_AT_bit_offset(0x18)
    5770              $C$DW$T$16      .dwtag  DW_TAG_base_type
    5771                      .dwattr $C$DW$T$16, DW_AT_encoding(DW_ATE_float)
    5772                      .dwattr $C$DW$T$16, DW_AT_name("float")
    5773                      .dwattr $C$DW$T$16, DW_AT_byte_size(0x02)
    5774              $C$DW$T$17      .dwtag  DW_TAG_base_type
    5775                      .dwattr $C$DW$T$17, DW_AT_encoding(DW_ATE_float)
    5776                      .dwattr $C$DW$T$17, DW_AT_name("double")
    5777                      .dwattr $C$DW$T$17, DW_AT_byte_size(0x02)
    5778              $C$DW$T$18      .dwtag  DW_TAG_base_type
    5779                      .dwattr $C$DW$T$18, DW_AT_encoding(DW_ATE_float)
    5780                      .dwattr $C$DW$T$18, DW_AT_name("long double")
    5781                      .dwattr $C$DW$T$18, DW_AT_byte_size(0x02)
    5782              $C$DW$T$77      .dwtag  DW_TAG_base_type
    5783                      .dwattr $C$DW$T$77, DW_AT_encoding(DW_ATE_signed_char)
    5784                      .dwattr $C$DW$T$77, DW_AT_name("signed char")
    5785                      .dwattr $C$DW$T$77, DW_AT_byte_size(0x01)
    5786              $C$DW$T$78      .dwtag  DW_TAG_pointer_type
    5787                      .dwattr $C$DW$T$78, DW_AT_type(*$C$DW$T$77)
    5788                      .dwattr $C$DW$T$78, DW_AT_address_class(0x17)
    5789              $C$DW$T$81      .dwtag  DW_TAG_pointer_type
    5790                      .dwattr $C$DW$T$81, DW_AT_type(*$C$DW$T$78)
    5791                      .dwattr $C$DW$T$81, DW_AT_address_class(0x17)
    5792              $C$DW$663       .dwtag  DW_TAG_TI_far_type
    5793                      .dwattr $C$DW$663, DW_AT_type(*$C$DW$T$77)
    5794              $C$DW$T$109     .dwtag  DW_TAG_const_type
    5795                      .dwattr $C$DW$T$109, DW_AT_type(*$C$DW$663)
    5796              $C$DW$T$110     .dwtag  DW_TAG_pointer_type
    5797                      .dwattr $C$DW$T$110, DW_AT_type(*$C$DW$T$109)
    5798                      .dwattr $C$DW$T$110, DW_AT_address_class(0x17)
    5799              
    5800              $C$DW$T$53      .dwtag  DW_TAG_structure_type
    5801                      .dwattr $C$DW$T$53, DW_AT_name("ele")
    5802                      .dwattr $C$DW$T$53, DW_AT_byte_size(0x03)
    5803              $C$DW$664       .dwtag  DW_TAG_member
    5804                      .dwattr $C$DW$664, DW_AT_type(*$C$DW$T$9)
    5805                      .dwattr $C$DW$664, DW_AT_name("sym")
    5806                      .dwattr $C$DW$664, DW_AT_TI_symbol_name("_sym")
    5807                      .dwattr $C$DW$664, DW_AT_data_member_location[DW_OP_plus_uconst 0x0]
    5808                      .dwattr $C$DW$664, DW_AT_accessibility(DW_ACCESS_public)
    5809              $C$DW$665       .dwtag  DW_TAG_member
    5810                      .dwattr $C$DW$665, DW_AT_type(*$C$DW$T$9)
    5811                      .dwattr $C$DW$665, DW_AT_name("idx_flag")
    5812                      .dwattr $C$DW$665, DW_AT_TI_symbol_name("_idx_flag")
    5813                      .dwattr $C$DW$665, DW_AT_data_member_location[DW_OP_plus_uconst 0x1]
    5814                      .dwattr $C$DW$665, DW_AT_accessibility(DW_ACCESS_public)
    5815              $C$DW$666       .dwtag  DW_TAG_member
    5816                      .dwattr $C$DW$666, DW_AT_type(*$C$DW$T$9)
    5817                      .dwattr $C$DW$666, DW_AT_name("next")
    5818                      .dwattr $C$DW$666, DW_AT_TI_symbol_name("_next")
    5819                      .dwattr $C$DW$666, DW_AT_data_member_location[DW_OP_plus_uconst 0x2]
TMS320C55x Assembler PC v4.4.1 Wed Sep 13 16:33:23 2017

Tools Copyright (c) 1996-2012 Texas Instruments Incorporated
C:\Users\a0221074\AppData\Local\Temp\1618010                         PAGE  132

    5820                      .dwattr $C$DW$666, DW_AT_accessibility(DW_ACCESS_public)
    5821                      .dwendtag $C$DW$T$53
    5822              
    5823              $C$DW$T$73      .dwtag  DW_TAG_typedef, DW_AT_name("BeamType")
    5824                      .dwattr $C$DW$T$73, DW_AT_type(*$C$DW$T$53)
    5825                      .dwattr $C$DW$T$73, DW_AT_language(DW_LANG_C)
    5826              $C$DW$T$74      .dwtag  DW_TAG_pointer_type
    5827                      .dwattr $C$DW$T$74, DW_AT_type(*$C$DW$T$73)
    5828                      .dwattr $C$DW$T$74, DW_AT_address_class(0x17)
    5829              
    5830              $C$DW$T$94      .dwtag  DW_TAG_structure_type
    5831                      .dwattr $C$DW$T$94, DW_AT_name("gmhmm_type")
    5832                      .dwattr $C$DW$T$94, DW_AT_byte_size(0x7fe)
    5833              $C$DW$667       .dwtag  DW_TAG_member
    5834                      .dwattr $C$DW$667, DW_AT_type(*$C$DW$T$20)
    5835                      .dwattr $C$DW$667, DW_AT_name("avedepth")
    5836                      .dwattr $C$DW$667, DW_AT_TI_symbol_name("_avedepth")
    5837                      .dwattr $C$DW$667, DW_AT_data_member_location[DW_OP_plus_uconst 0x0]
    5838                      .dwattr $C$DW$667, DW_AT_accessibility(DW_ACCESS_public)
    5839              $C$DW$668       .dwtag  DW_TAG_member
    5840                      .dwattr $C$DW$668, DW_AT_type(*$C$DW$T$20)
    5841                      .dwattr $C$DW$668, DW_AT_name("bestdepth")
    5842                      .dwattr $C$DW$668, DW_AT_TI_symbol_name("_bestdepth")
    5843                      .dwattr $C$DW$668, DW_AT_data_member_location[DW_OP_plus_uconst 0x1]
    5844                      .dwattr $C$DW$668, DW_AT_accessibility(DW_ACCESS_public)
    5845              $C$DW$669       .dwtag  DW_TAG_member
    5846                      .dwattr $C$DW$669, DW_AT_type(*$C$DW$T$20)
    5847                      .dwattr $C$DW$669, DW_AT_name("index_mean")
    5848                      .dwattr $C$DW$669, DW_AT_TI_symbol_name("_index_mean")
    5849                      .dwattr $C$DW$669, DW_AT_data_member_location[DW_OP_plus_uconst 0x2]
    5850                      .dwattr $C$DW$669, DW_AT_accessibility(DW_ACCESS_public)
    5851              $C$DW$670       .dwtag  DW_TAG_member
    5852                      .dwattr $C$DW$670, DW_AT_type(*$C$DW$T$20)
    5853                      .dwattr $C$DW$670, DW_AT_name("signal_cnt")
    5854                      .dwattr $C$DW$670, DW_AT_TI_symbol_name("_signal_cnt")
    5855                      .dwattr $C$DW$670, DW_AT_data_member_location[DW_OP_plus_uconst 0x3]
    5856                      .dwattr $C$DW$670, DW_AT_accessibility(DW_ACCESS_public)
    5857              $C$DW$671       .dwtag  DW_TAG_member
    5858                      .dwattr $C$DW$671, DW_AT_type(*$C$DW$T$8)
    5859                      .dwattr $C$DW$671, DW_AT_name("buf_idx")
    5860                      .dwattr $C$DW$671, DW_AT_TI_symbol_name("_buf_idx")
    5861                      .dwattr $C$DW$671, DW_AT_data_member_location[DW_OP_plus_uconst 0x4]
    5862                      .dwattr $C$DW$671, DW_AT_accessibility(DW_ACCESS_public)
    5863              $C$DW$672       .dwtag  DW_TAG_member
    5864                      .dwattr $C$DW$672, DW_AT_type(*$C$DW$T$20)
    5865                      .dwattr $C$DW$672, DW_AT_name("speech_detected")
    5866                      .dwattr $C$DW$672, DW_AT_TI_symbol_name("_speech_detected")
    5867                      .dwattr $C$DW$672, DW_AT_data_member_location[DW_OP_plus_uconst 0x5]
    5868                      .dwattr $C$DW$672, DW_AT_accessibility(DW_ACCESS_public)
    5869              $C$DW$673       .dwtag  DW_TAG_member
    5870                      .dwattr $C$DW$673, DW_AT_type(*$C$DW$T$20)
    5871                      .dwattr $C$DW$673, DW_AT_name("mfcc_cnt")
    5872                      .dwattr $C$DW$673, DW_AT_TI_symbol_name("_mfcc_cnt")
    5873                      .dwattr $C$DW$673, DW_AT_data_member_location[DW_OP_plus_uconst 0x6]
    5874                      .dwattr $C$DW$673, DW_AT_accessibility(DW_ACCESS_public)
TMS320C55x Assembler PC v4.4.1 Wed Sep 13 16:33:23 2017

Tools Copyright (c) 1996-2012 Texas Instruments Incorporated
C:\Users\a0221074\AppData\Local\Temp\1618010                         PAGE  133

    5875              $C$DW$674       .dwtag  DW_TAG_member
    5876                      .dwattr $C$DW$674, DW_AT_type(*$C$DW$T$20)
    5877                      .dwattr $C$DW$674, DW_AT_name("nbr_cpy")
    5878                      .dwattr $C$DW$674, DW_AT_TI_symbol_name("_nbr_cpy")
    5879                      .dwattr $C$DW$674, DW_AT_data_member_location[DW_OP_plus_uconst 0x7]
    5880                      .dwattr $C$DW$674, DW_AT_accessibility(DW_ACCESS_public)
    5881              $C$DW$675       .dwtag  DW_TAG_member
    5882                      .dwattr $C$DW$675, DW_AT_type(*$C$DW$T$8)
    5883                      .dwattr $C$DW$675, DW_AT_name("last_sig")
    5884                      .dwattr $C$DW$675, DW_AT_TI_symbol_name("_last_sig")
    5885                      .dwattr $C$DW$675, DW_AT_data_member_location[DW_OP_plus_uconst 0x8]
    5886                      .dwattr $C$DW$675, DW_AT_accessibility(DW_ACCESS_public)
    5887              $C$DW$676       .dwtag  DW_TAG_member
    5888                      .dwattr $C$DW$676, DW_AT_type(*$C$DW$T$54)
    5889                      .dwattr $C$DW$676, DW_AT_name("sample_signal")
    5890                      .dwattr $C$DW$676, DW_AT_TI_symbol_name("_sample_signal")
    5891                      .dwattr $C$DW$676, DW_AT_data_member_location[DW_OP_plus_uconst 0x9]
    5892                      .dwattr $C$DW$676, DW_AT_accessibility(DW_ACCESS_public)
    5893              $C$DW$677       .dwtag  DW_TAG_member
    5894                      .dwattr $C$DW$677, DW_AT_type(*$C$DW$T$8)
    5895                      .dwattr $C$DW$677, DW_AT_name("amplitude_max")
    5896                      .dwattr $C$DW$677, DW_AT_TI_symbol_name("_amplitude_max")
    5897                      .dwattr $C$DW$677, DW_AT_data_member_location[DW_OP_plus_uconst 0x109]
    5898                      .dwattr $C$DW$677, DW_AT_accessibility(DW_ACCESS_public)
    5899              $C$DW$678       .dwtag  DW_TAG_member
    5900                      .dwattr $C$DW$678, DW_AT_type(*$C$DW$T$8)
    5901                      .dwattr $C$DW$678, DW_AT_name("amplitude_min")
    5902                      .dwattr $C$DW$678, DW_AT_TI_symbol_name("_amplitude_min")
    5903                      .dwattr $C$DW$678, DW_AT_data_member_location[DW_OP_plus_uconst 0x10a]
    5904                      .dwattr $C$DW$678, DW_AT_accessibility(DW_ACCESS_public)
    5905              $C$DW$679       .dwtag  DW_TAG_member
    5906                      .dwattr $C$DW$679, DW_AT_type(*$C$DW$T$8)
    5907                      .dwattr $C$DW$679, DW_AT_name("pred_first_frame")
    5908                      .dwattr $C$DW$679, DW_AT_TI_symbol_name("_pred_first_frame")
    5909                      .dwattr $C$DW$679, DW_AT_data_member_location[DW_OP_plus_uconst 0x10b]
    5910                      .dwattr $C$DW$679, DW_AT_accessibility(DW_ACCESS_public)
    5911              $C$DW$680       .dwtag  DW_TAG_member
    5912                      .dwattr $C$DW$680, DW_AT_type(*$C$DW$T$8)
    5913                      .dwattr $C$DW$680, DW_AT_name("frm_cnt")
    5914                      .dwattr $C$DW$680, DW_AT_TI_symbol_name("_frm_cnt")
    5915                      .dwattr $C$DW$680, DW_AT_data_member_location[DW_OP_plus_uconst 0x10c]
    5916                      .dwattr $C$DW$680, DW_AT_accessibility(DW_ACCESS_public)
    5917              $C$DW$681       .dwtag  DW_TAG_member
    5918                      .dwattr $C$DW$681, DW_AT_type(*$C$DW$T$8)
    5919                      .dwattr $C$DW$681, DW_AT_name("beam_count")
    5920                      .dwattr $C$DW$681, DW_AT_TI_symbol_name("_beam_count")
    5921                      .dwattr $C$DW$681, DW_AT_data_member_location[DW_OP_plus_uconst 0x10d]
    5922                      .dwattr $C$DW$681, DW_AT_accessibility(DW_ACCESS_public)
    5923              $C$DW$682       .dwtag  DW_TAG_member
    5924                      .dwattr $C$DW$682, DW_AT_type(*$C$DW$T$8)
    5925                      .dwattr $C$DW$682, DW_AT_name("active_beam_cells")
    5926                      .dwattr $C$DW$682, DW_AT_TI_symbol_name("_active_beam_cells")
    5927                      .dwattr $C$DW$682, DW_AT_data_member_location[DW_OP_plus_uconst 0x10e]
    5928                      .dwattr $C$DW$682, DW_AT_accessibility(DW_ACCESS_public)
    5929              $C$DW$683       .dwtag  DW_TAG_member
TMS320C55x Assembler PC v4.4.1 Wed Sep 13 16:33:23 2017

Tools Copyright (c) 1996-2012 Texas Instruments Incorporated
C:\Users\a0221074\AppData\Local\Temp\1618010                         PAGE  134

    5930                      .dwattr $C$DW$683, DW_AT_type(*$C$DW$T$8)
    5931                      .dwattr $C$DW$683, DW_AT_name("active_time_cells")
    5932                      .dwattr $C$DW$683, DW_AT_TI_symbol_name("_active_time_cells")
    5933                      .dwattr $C$DW$683, DW_AT_data_member_location[DW_OP_plus_uconst 0x10f]
    5934                      .dwattr $C$DW$683, DW_AT_accessibility(DW_ACCESS_public)
    5935              $C$DW$684       .dwtag  DW_TAG_member
    5936                      .dwattr $C$DW$684, DW_AT_type(*$C$DW$T$9)
    5937                      .dwattr $C$DW$684, DW_AT_name("ending_sym_count")
    5938                      .dwattr $C$DW$684, DW_AT_TI_symbol_name("_ending_sym_count")
    5939                      .dwattr $C$DW$684, DW_AT_data_member_location[DW_OP_plus_uconst 0x110]
    5940                      .dwattr $C$DW$684, DW_AT_accessibility(DW_ACCESS_public)
    5941              $C$DW$685       .dwtag  DW_TAG_member
    5942                      .dwattr $C$DW$685, DW_AT_type(*$C$DW$T$8)
    5943                      .dwattr $C$DW$685, DW_AT_name("comp_type")
    5944                      .dwattr $C$DW$685, DW_AT_TI_symbol_name("_comp_type")
    5945                      .dwattr $C$DW$685, DW_AT_data_member_location[DW_OP_plus_uconst 0x111]
    5946                      .dwattr $C$DW$685, DW_AT_accessibility(DW_ACCESS_public)
    5947              $C$DW$686       .dwtag  DW_TAG_member
    5948                      .dwattr $C$DW$686, DW_AT_type(*$C$DW$T$9)
    5949                      .dwattr $C$DW$686, DW_AT_name("low_vol_limit")
    5950                      .dwattr $C$DW$686, DW_AT_TI_symbol_name("_low_vol_limit")
    5951                      .dwattr $C$DW$686, DW_AT_data_member_location[DW_OP_plus_uconst 0x112]
    5952                      .dwattr $C$DW$686, DW_AT_accessibility(DW_ACCESS_public)
    5953              $C$DW$687       .dwtag  DW_TAG_member
    5954                      .dwattr $C$DW$687, DW_AT_type(*$C$DW$T$9)
    5955                      .dwattr $C$DW$687, DW_AT_name("high_vol_limit")
    5956                      .dwattr $C$DW$687, DW_AT_TI_symbol_name("_high_vol_limit")
    5957                      .dwattr $C$DW$687, DW_AT_data_member_location[DW_OP_plus_uconst 0x113]
    5958                      .dwattr $C$DW$687, DW_AT_accessibility(DW_ACCESS_public)
    5959              $C$DW$688       .dwtag  DW_TAG_member
    5960                      .dwattr $C$DW$688, DW_AT_type(*$C$DW$T$8)
    5961                      .dwattr $C$DW$688, DW_AT_name("vol")
    5962                      .dwattr $C$DW$688, DW_AT_TI_symbol_name("_vol")
    5963                      .dwattr $C$DW$688, DW_AT_data_member_location[DW_OP_plus_uconst 0x114]
    5964                      .dwattr $C$DW$688, DW_AT_accessibility(DW_ACCESS_public)
    5965              $C$DW$689       .dwtag  DW_TAG_member
    5966                      .dwattr $C$DW$689, DW_AT_type(*$C$DW$T$20)
    5967                      .dwattr $C$DW$689, DW_AT_name("n_mfcc")
    5968                      .dwattr $C$DW$689, DW_AT_TI_symbol_name("_n_mfcc")
    5969                      .dwattr $C$DW$689, DW_AT_data_member_location[DW_OP_plus_uconst 0x115]
    5970                      .dwattr $C$DW$689, DW_AT_accessibility(DW_ACCESS_public)
    5971              $C$DW$690       .dwtag  DW_TAG_member
    5972                      .dwattr $C$DW$690, DW_AT_type(*$C$DW$T$8)
    5973                      .dwattr $C$DW$690, DW_AT_name("nbr_dim")
    5974                      .dwattr $C$DW$690, DW_AT_TI_symbol_name("_nbr_dim")
    5975                      .dwattr $C$DW$690, DW_AT_data_member_location[DW_OP_plus_uconst 0x116]
    5976                      .dwattr $C$DW$690, DW_AT_accessibility(DW_ACCESS_public)
    5977              $C$DW$691       .dwtag  DW_TAG_member
    5978                      .dwattr $C$DW$691, DW_AT_type(*$C$DW$T$20)
    5979                      .dwattr $C$DW$691, DW_AT_name("n_filter")
    5980                      .dwattr $C$DW$691, DW_AT_TI_symbol_name("_n_filter")
    5981                      .dwattr $C$DW$691, DW_AT_data_member_location[DW_OP_plus_uconst 0x117]
    5982                      .dwattr $C$DW$691, DW_AT_accessibility(DW_ACCESS_public)
    5983              $C$DW$692       .dwtag  DW_TAG_member
    5984                      .dwattr $C$DW$692, DW_AT_type(*$C$DW$T$56)
TMS320C55x Assembler PC v4.4.1 Wed Sep 13 16:33:23 2017

Tools Copyright (c) 1996-2012 Texas Instruments Incorporated
C:\Users\a0221074\AppData\Local\Temp\1618010                         PAGE  135

    5985                      .dwattr $C$DW$692, DW_AT_name("mfcc_buf")
    5986                      .dwattr $C$DW$692, DW_AT_TI_symbol_name("_mfcc_buf")
    5987                      .dwattr $C$DW$692, DW_AT_data_member_location[DW_OP_plus_uconst 0x118]
    5988                      .dwattr $C$DW$692, DW_AT_accessibility(DW_ACCESS_public)
    5989              $C$DW$693       .dwtag  DW_TAG_member
    5990                      .dwattr $C$DW$693, DW_AT_type(*$C$DW$T$55)
    5991                      .dwattr $C$DW$693, DW_AT_name("mfcc_mean")
    5992                      .dwattr $C$DW$693, DW_AT_TI_symbol_name("_mfcc_mean")
    5993                      .dwattr $C$DW$693, DW_AT_data_member_location[DW_OP_plus_uconst 0x1f8]
    5994                      .dwattr $C$DW$693, DW_AT_accessibility(DW_ACCESS_public)
    5995              $C$DW$694       .dwtag  DW_TAG_member
    5996                      .dwattr $C$DW$694, DW_AT_type(*$C$DW$T$59)
    5997                      .dwattr $C$DW$694, DW_AT_name("cosxfm")
    5998                      .dwattr $C$DW$694, DW_AT_TI_symbol_name("_cosxfm")
    5999                      .dwattr $C$DW$694, DW_AT_data_member_location[DW_OP_plus_uconst 0x208]
    6000                      .dwattr $C$DW$694, DW_AT_accessibility(DW_ACCESS_public)
    6001              $C$DW$695       .dwtag  DW_TAG_member
    6002                      .dwattr $C$DW$695, DW_AT_type(*$C$DW$T$62)
    6003                      .dwattr $C$DW$695, DW_AT_name("mel_filter")
    6004                      .dwattr $C$DW$695, DW_AT_TI_symbol_name("_mel_filter")
    6005                      .dwattr $C$DW$695, DW_AT_data_member_location[DW_OP_plus_uconst 0x228]
    6006                      .dwattr $C$DW$695, DW_AT_accessibility(DW_ACCESS_public)
    6007              $C$DW$696       .dwtag  DW_TAG_member
    6008                      .dwattr $C$DW$696, DW_AT_type(*$C$DW$T$8)
    6009                      .dwattr $C$DW$696, DW_AT_name("th_noise_flr")
    6010                      .dwattr $C$DW$696, DW_AT_TI_symbol_name("_th_noise_flr")
    6011                      .dwattr $C$DW$696, DW_AT_data_member_location[DW_OP_plus_uconst 0x22a]
    6012                      .dwattr $C$DW$696, DW_AT_accessibility(DW_ACCESS_public)
    6013              $C$DW$697       .dwtag  DW_TAG_member
    6014                      .dwattr $C$DW$697, DW_AT_type(*$C$DW$T$8)
    6015                      .dwattr $C$DW$697, DW_AT_name("th_speech_delta")
    6016                      .dwattr $C$DW$697, DW_AT_TI_symbol_name("_th_speech_delta")
    6017                      .dwattr $C$DW$697, DW_AT_data_member_location[DW_OP_plus_uconst 0x22b]
    6018                      .dwattr $C$DW$697, DW_AT_accessibility(DW_ACCESS_public)
    6019              $C$DW$698       .dwtag  DW_TAG_member
    6020                      .dwattr $C$DW$698, DW_AT_type(*$C$DW$T$8)
    6021                      .dwattr $C$DW$698, DW_AT_name("th_min_speech_db")
    6022                      .dwattr $C$DW$698, DW_AT_TI_symbol_name("_th_min_speech_db")
    6023                      .dwattr $C$DW$698, DW_AT_data_member_location[DW_OP_plus_uconst 0x22c]
    6024                      .dwattr $C$DW$698, DW_AT_accessibility(DW_ACCESS_public)
    6025              $C$DW$699       .dwtag  DW_TAG_member
    6026                      .dwattr $C$DW$699, DW_AT_type(*$C$DW$T$8)
    6027                      .dwattr $C$DW$699, DW_AT_name("th_min_beg_frm")
    6028                      .dwattr $C$DW$699, DW_AT_TI_symbol_name("_th_min_beg_frm")
    6029                      .dwattr $C$DW$699, DW_AT_data_member_location[DW_OP_plus_uconst 0x22d]
    6030                      .dwattr $C$DW$699, DW_AT_accessibility(DW_ACCESS_public)
    6031              $C$DW$700       .dwtag  DW_TAG_member
    6032                      .dwattr $C$DW$700, DW_AT_type(*$C$DW$T$8)
    6033                      .dwattr $C$DW$700, DW_AT_name("th_min_end_frm")
    6034                      .dwattr $C$DW$700, DW_AT_TI_symbol_name("_th_min_end_frm")
    6035                      .dwattr $C$DW$700, DW_AT_data_member_location[DW_OP_plus_uconst 0x22e]
    6036                      .dwattr $C$DW$700, DW_AT_accessibility(DW_ACCESS_public)
    6037              $C$DW$701       .dwtag  DW_TAG_member
    6038                      .dwattr $C$DW$701, DW_AT_type(*$C$DW$T$8)
    6039                      .dwattr $C$DW$701, DW_AT_name("uttdet_cnt")
TMS320C55x Assembler PC v4.4.1 Wed Sep 13 16:33:23 2017

Tools Copyright (c) 1996-2012 Texas Instruments Incorporated
C:\Users\a0221074\AppData\Local\Temp\1618010                         PAGE  136

    6040                      .dwattr $C$DW$701, DW_AT_TI_symbol_name("_uttdet_cnt")
    6041                      .dwattr $C$DW$701, DW_AT_data_member_location[DW_OP_plus_uconst 0x22f]
    6042                      .dwattr $C$DW$701, DW_AT_accessibility(DW_ACCESS_public)
    6043              $C$DW$702       .dwtag  DW_TAG_member
    6044                      .dwattr $C$DW$702, DW_AT_type(*$C$DW$T$8)
    6045                      .dwattr $C$DW$702, DW_AT_name("noise_smooth")
    6046                      .dwattr $C$DW$702, DW_AT_TI_symbol_name("_noise_smooth")
    6047                      .dwattr $C$DW$702, DW_AT_data_member_location[DW_OP_plus_uconst 0x230]
    6048                      .dwattr $C$DW$702, DW_AT_accessibility(DW_ACCESS_public)
    6049              $C$DW$703       .dwtag  DW_TAG_member
    6050                      .dwattr $C$DW$703, DW_AT_type(*$C$DW$T$63)
    6051                      .dwattr $C$DW$703, DW_AT_name("ps_noisy_smoothed")
    6052                      .dwattr $C$DW$703, DW_AT_TI_symbol_name("_ps_noisy_smoothed")
    6053                      .dwattr $C$DW$703, DW_AT_data_member_location[DW_OP_plus_uconst 0x231]
    6054                      .dwattr $C$DW$703, DW_AT_accessibility(DW_ACCESS_public)
    6055              $C$DW$704       .dwtag  DW_TAG_member
    6056                      .dwattr $C$DW$704, DW_AT_type(*$C$DW$T$63)
    6057                      .dwattr $C$DW$704, DW_AT_name("noise_floor")
    6058                      .dwattr $C$DW$704, DW_AT_TI_symbol_name("_noise_floor")
    6059                      .dwattr $C$DW$704, DW_AT_data_member_location[DW_OP_plus_uconst 0x2b1]
    6060                      .dwattr $C$DW$704, DW_AT_accessibility(DW_ACCESS_public)
    6061              $C$DW$705       .dwtag  DW_TAG_member
    6062                      .dwattr $C$DW$705, DW_AT_type(*$C$DW$T$8)
    6063                      .dwattr $C$DW$705, DW_AT_name("sm_autoc")
    6064                      .dwattr $C$DW$705, DW_AT_TI_symbol_name("_sm_autoc")
    6065                      .dwattr $C$DW$705, DW_AT_data_member_location[DW_OP_plus_uconst 0x331]
    6066                      .dwattr $C$DW$705, DW_AT_accessibility(DW_ACCESS_public)
    6067              $C$DW$706       .dwtag  DW_TAG_member
    6068                      .dwattr $C$DW$706, DW_AT_type(*$C$DW$T$8)
    6069                      .dwattr $C$DW$706, DW_AT_name("speech_level")
    6070                      .dwattr $C$DW$706, DW_AT_TI_symbol_name("_speech_level")
    6071                      .dwattr $C$DW$706, DW_AT_data_member_location[DW_OP_plus_uconst 0x332]
    6072                      .dwattr $C$DW$706, DW_AT_accessibility(DW_ACCESS_public)
    6073              $C$DW$707       .dwtag  DW_TAG_member
    6074                      .dwattr $C$DW$707, DW_AT_type(*$C$DW$T$8)
    6075                      .dwattr $C$DW$707, DW_AT_name("noise_level")
    6076                      .dwattr $C$DW$707, DW_AT_TI_symbol_name("_noise_level")
    6077                      .dwattr $C$DW$707, DW_AT_data_member_location[DW_OP_plus_uconst 0x333]
    6078                      .dwattr $C$DW$707, DW_AT_accessibility(DW_ACCESS_public)
    6079              $C$DW$708       .dwtag  DW_TAG_member
    6080                      .dwattr $C$DW$708, DW_AT_type(*$C$DW$T$8)
    6081                      .dwattr $C$DW$708, DW_AT_name("uttdet_isspeech")
    6082                      .dwattr $C$DW$708, DW_AT_TI_symbol_name("_uttdet_isspeech")
    6083                      .dwattr $C$DW$708, DW_AT_data_member_location[DW_OP_plus_uconst 0x334]
    6084                      .dwattr $C$DW$708, DW_AT_accessibility(DW_ACCESS_public)
    6085              $C$DW$709       .dwtag  DW_TAG_member
    6086                      .dwattr $C$DW$709, DW_AT_type(*$C$DW$T$12)
    6087                      .dwattr $C$DW$709, DW_AT_name("delta_sum_accum")
    6088                      .dwattr $C$DW$709, DW_AT_TI_symbol_name("_delta_sum_accum")
    6089                      .dwattr $C$DW$709, DW_AT_data_member_location[DW_OP_plus_uconst 0x336]
    6090                      .dwattr $C$DW$709, DW_AT_accessibility(DW_ACCESS_public)
    6091              $C$DW$710       .dwtag  DW_TAG_member
    6092                      .dwattr $C$DW$710, DW_AT_type(*$C$DW$T$8)
    6093                      .dwattr $C$DW$710, DW_AT_name("uttdet_state")
    6094                      .dwattr $C$DW$710, DW_AT_TI_symbol_name("_uttdet_state")
TMS320C55x Assembler PC v4.4.1 Wed Sep 13 16:33:23 2017

Tools Copyright (c) 1996-2012 Texas Instruments Incorporated
C:\Users\a0221074\AppData\Local\Temp\1618010                         PAGE  137

    6095                      .dwattr $C$DW$710, DW_AT_data_member_location[DW_OP_plus_uconst 0x338]
    6096                      .dwattr $C$DW$710, DW_AT_accessibility(DW_ACCESS_public)
    6097              $C$DW$711       .dwtag  DW_TAG_member
    6098                      .dwattr $C$DW$711, DW_AT_type(*$C$DW$T$8)
    6099                      .dwattr $C$DW$711, DW_AT_name("uttdet_beg_frm")
    6100                      .dwattr $C$DW$711, DW_AT_TI_symbol_name("_uttdet_beg_frm")
    6101                      .dwattr $C$DW$711, DW_AT_data_member_location[DW_OP_plus_uconst 0x339]
    6102                      .dwattr $C$DW$711, DW_AT_accessibility(DW_ACCESS_public)
    6103              $C$DW$712       .dwtag  DW_TAG_member
    6104                      .dwattr $C$DW$712, DW_AT_type(*$C$DW$T$8)
    6105                      .dwattr $C$DW$712, DW_AT_name("uttdet_end_frm")
    6106                      .dwattr $C$DW$712, DW_AT_TI_symbol_name("_uttdet_end_frm")
    6107                      .dwattr $C$DW$712, DW_AT_data_member_location[DW_OP_plus_uconst 0x33a]
    6108                      .dwattr $C$DW$712, DW_AT_accessibility(DW_ACCESS_public)
    6109              $C$DW$713       .dwtag  DW_TAG_member
    6110                      .dwattr $C$DW$713, DW_AT_type(*$C$DW$T$8)
    6111                      .dwattr $C$DW$713, DW_AT_name("sr_is_end_of_grammar")
    6112                      .dwattr $C$DW$713, DW_AT_TI_symbol_name("_sr_is_end_of_grammar")
    6113                      .dwattr $C$DW$713, DW_AT_data_member_location[DW_OP_plus_uconst 0x33b]
    6114                      .dwattr $C$DW$713, DW_AT_accessibility(DW_ACCESS_public)
    6115              $C$DW$714       .dwtag  DW_TAG_member
    6116                      .dwattr $C$DW$714, DW_AT_type(*$C$DW$T$8)
    6117                      .dwattr $C$DW$714, DW_AT_name("sr_MAX_END_SYM")
    6118                      .dwattr $C$DW$714, DW_AT_TI_symbol_name("_sr_MAX_END_SYM")
    6119                      .dwattr $C$DW$714, DW_AT_data_member_location[DW_OP_plus_uconst 0x33c]
    6120                      .dwattr $C$DW$714, DW_AT_accessibility(DW_ACCESS_public)
    6121              $C$DW$715       .dwtag  DW_TAG_member
    6122                      .dwattr $C$DW$715, DW_AT_type(*$C$DW$T$8)
    6123                      .dwattr $C$DW$715, DW_AT_name("sr_MIN_END_SYM")
    6124                      .dwattr $C$DW$715, DW_AT_TI_symbol_name("_sr_MIN_END_SYM")
    6125                      .dwattr $C$DW$715, DW_AT_data_member_location[DW_OP_plus_uconst 0x33d]
    6126                      .dwattr $C$DW$715, DW_AT_accessibility(DW_ACCESS_public)
    6127              $C$DW$716       .dwtag  DW_TAG_member
    6128                      .dwattr $C$DW$716, DW_AT_type(*$C$DW$T$8)
    6129                      .dwattr $C$DW$716, DW_AT_name("gbg_end_of_speech")
    6130                      .dwattr $C$DW$716, DW_AT_TI_symbol_name("_gbg_end_of_speech")
    6131                      .dwattr $C$DW$716, DW_AT_data_member_location[DW_OP_plus_uconst 0x33e]
    6132                      .dwattr $C$DW$716, DW_AT_accessibility(DW_ACCESS_public)
    6133              $C$DW$717       .dwtag  DW_TAG_member
    6134                      .dwattr $C$DW$717, DW_AT_type(*$C$DW$T$8)
    6135                      .dwattr $C$DW$717, DW_AT_name("jac_vec_per_frame")
    6136                      .dwattr $C$DW$717, DW_AT_TI_symbol_name("_jac_vec_per_frame")
    6137                      .dwattr $C$DW$717, DW_AT_data_member_location[DW_OP_plus_uconst 0x33f]
    6138                      .dwattr $C$DW$717, DW_AT_accessibility(DW_ACCESS_public)
    6139              $C$DW$718       .dwtag  DW_TAG_member
    6140                      .dwattr $C$DW$718, DW_AT_type(*$C$DW$T$8)
    6141                      .dwattr $C$DW$718, DW_AT_name("jac_component_likelihood")
    6142                      .dwattr $C$DW$718, DW_AT_TI_symbol_name("_jac_component_likelihood")
    6143                      .dwattr $C$DW$718, DW_AT_data_member_location[DW_OP_plus_uconst 0x340]
    6144                      .dwattr $C$DW$718, DW_AT_accessibility(DW_ACCESS_public)
    6145              $C$DW$719       .dwtag  DW_TAG_member
    6146                      .dwattr $C$DW$719, DW_AT_type(*$C$DW$T$8)
    6147                      .dwattr $C$DW$719, DW_AT_name("jac_max_segment_size")
    6148                      .dwattr $C$DW$719, DW_AT_TI_symbol_name("_jac_max_segment_size")
    6149                      .dwattr $C$DW$719, DW_AT_data_member_location[DW_OP_plus_uconst 0x341]
TMS320C55x Assembler PC v4.4.1 Wed Sep 13 16:33:23 2017

Tools Copyright (c) 1996-2012 Texas Instruments Incorporated
C:\Users\a0221074\AppData\Local\Temp\1618010                         PAGE  138

    6150                      .dwattr $C$DW$719, DW_AT_accessibility(DW_ACCESS_public)
    6151              $C$DW$720       .dwtag  DW_TAG_member
    6152                      .dwattr $C$DW$720, DW_AT_type(*$C$DW$T$8)
    6153                      .dwattr $C$DW$720, DW_AT_name("jac_smooth_coef")
    6154                      .dwattr $C$DW$720, DW_AT_TI_symbol_name("_jac_smooth_coef")
    6155                      .dwattr $C$DW$720, DW_AT_data_member_location[DW_OP_plus_uconst 0x342]
    6156                      .dwattr $C$DW$720, DW_AT_accessibility(DW_ACCESS_public)
    6157              $C$DW$721       .dwtag  DW_TAG_member
    6158                      .dwattr $C$DW$721, DW_AT_type(*$C$DW$T$8)
    6159                      .dwattr $C$DW$721, DW_AT_name("jac_discount_factor")
    6160                      .dwattr $C$DW$721, DW_AT_TI_symbol_name("_jac_discount_factor")
    6161                      .dwattr $C$DW$721, DW_AT_data_member_location[DW_OP_plus_uconst 0x343]
    6162                      .dwattr $C$DW$721, DW_AT_accessibility(DW_ACCESS_public)
    6163              $C$DW$722       .dwtag  DW_TAG_member
    6164                      .dwattr $C$DW$722, DW_AT_type(*$C$DW$T$8)
    6165                      .dwattr $C$DW$722, DW_AT_name("jac_deweight_factor")
    6166                      .dwattr $C$DW$722, DW_AT_TI_symbol_name("_jac_deweight_factor")
    6167                      .dwattr $C$DW$722, DW_AT_data_member_location[DW_OP_plus_uconst 0x344]
    6168                      .dwattr $C$DW$722, DW_AT_accessibility(DW_ACCESS_public)
    6169              $C$DW$723       .dwtag  DW_TAG_member
    6170                      .dwattr $C$DW$723, DW_AT_type(*$C$DW$T$8)
    6171                      .dwattr $C$DW$723, DW_AT_name("jac_bayesian_weight")
    6172                      .dwattr $C$DW$723, DW_AT_TI_symbol_name("_jac_bayesian_weight")
    6173                      .dwattr $C$DW$723, DW_AT_data_member_location[DW_OP_plus_uconst 0x345]
    6174                      .dwattr $C$DW$723, DW_AT_accessibility(DW_ACCESS_public)
    6175              $C$DW$724       .dwtag  DW_TAG_member
    6176                      .dwattr $C$DW$724, DW_AT_type(*$C$DW$T$8)
    6177                      .dwattr $C$DW$724, DW_AT_name("sva_var_forget_factor")
    6178                      .dwattr $C$DW$724, DW_AT_TI_symbol_name("_sva_var_forget_factor")
    6179                      .dwattr $C$DW$724, DW_AT_data_member_location[DW_OP_plus_uconst 0x346]
    6180                      .dwattr $C$DW$724, DW_AT_accessibility(DW_ACCESS_public)
    6181              $C$DW$725       .dwtag  DW_TAG_member
    6182                      .dwattr $C$DW$725, DW_AT_type(*$C$DW$T$8)
    6183                      .dwattr $C$DW$725, DW_AT_name("sbc_fgt")
    6184                      .dwattr $C$DW$725, DW_AT_TI_symbol_name("_sbc_fgt")
    6185                      .dwattr $C$DW$725, DW_AT_data_member_location[DW_OP_plus_uconst 0x347]
    6186                      .dwattr $C$DW$725, DW_AT_accessibility(DW_ACCESS_public)
    6187              $C$DW$726       .dwtag  DW_TAG_member
    6188                      .dwattr $C$DW$726, DW_AT_type(*$C$DW$T$64)
    6189                      .dwattr $C$DW$726, DW_AT_name("log_H")
    6190                      .dwattr $C$DW$726, DW_AT_TI_symbol_name("_log_H")
    6191                      .dwattr $C$DW$726, DW_AT_data_member_location[DW_OP_plus_uconst 0x348]
    6192                      .dwattr $C$DW$726, DW_AT_accessibility(DW_ACCESS_public)
    6193              $C$DW$727       .dwtag  DW_TAG_member
    6194                      .dwattr $C$DW$727, DW_AT_type(*$C$DW$T$64)
    6195                      .dwattr $C$DW$727, DW_AT_name("log_N")
    6196                      .dwattr $C$DW$727, DW_AT_TI_symbol_name("_log_N")
    6197                      .dwattr $C$DW$727, DW_AT_data_member_location[DW_OP_plus_uconst 0x362]
    6198                      .dwattr $C$DW$727, DW_AT_accessibility(DW_ACCESS_public)
    6199              $C$DW$728       .dwtag  DW_TAG_member
    6200                      .dwattr $C$DW$728, DW_AT_type(*$C$DW$T$65)
    6201                      .dwattr $C$DW$728, DW_AT_name("accum")
    6202                      .dwattr $C$DW$728, DW_AT_TI_symbol_name("_accum")
    6203                      .dwattr $C$DW$728, DW_AT_data_member_location[DW_OP_plus_uconst 0x37c]
    6204                      .dwattr $C$DW$728, DW_AT_accessibility(DW_ACCESS_public)
TMS320C55x Assembler PC v4.4.1 Wed Sep 13 16:33:23 2017

Tools Copyright (c) 1996-2012 Texas Instruments Incorporated
C:\Users\a0221074\AppData\Local\Temp\1618010                         PAGE  139

    6205              $C$DW$729       .dwtag  DW_TAG_member
    6206                      .dwattr $C$DW$729, DW_AT_type(*$C$DW$T$20)
    6207                      .dwattr $C$DW$729, DW_AT_name("smooth_coef")
    6208                      .dwattr $C$DW$729, DW_AT_TI_symbol_name("_smooth_coef")
    6209                      .dwattr $C$DW$729, DW_AT_data_member_location[DW_OP_plus_uconst 0x44c]
    6210                      .dwattr $C$DW$729, DW_AT_accessibility(DW_ACCESS_public)
    6211              $C$DW$730       .dwtag  DW_TAG_member
    6212                      .dwattr $C$DW$730, DW_AT_type(*$C$DW$T$67)
    6213                      .dwattr $C$DW$730, DW_AT_name("sbcState")
    6214                      .dwattr $C$DW$730, DW_AT_TI_symbol_name("_sbcState")
    6215                      .dwattr $C$DW$730, DW_AT_data_member_location[DW_OP_plus_uconst 0x44e]
    6216                      .dwattr $C$DW$730, DW_AT_accessibility(DW_ACCESS_public)
    6217              $C$DW$731       .dwtag  DW_TAG_member
    6218                      .dwattr $C$DW$731, DW_AT_type(*$C$DW$T$55)
    6219                      .dwattr $C$DW$731, DW_AT_name("mfcc_noise")
    6220                      .dwattr $C$DW$731, DW_AT_TI_symbol_name("_mfcc_noise")
    6221                      .dwattr $C$DW$731, DW_AT_data_member_location[DW_OP_plus_uconst 0x450]
    6222                      .dwattr $C$DW$731, DW_AT_accessibility(DW_ACCESS_public)
    6223              $C$DW$732       .dwtag  DW_TAG_member
    6224                      .dwattr $C$DW$732, DW_AT_type(*$C$DW$T$68)
    6225                      .dwattr $C$DW$732, DW_AT_name("mfcc_noise_init_acc")
    6226                      .dwattr $C$DW$732, DW_AT_TI_symbol_name("_mfcc_noise_init_acc")
    6227                      .dwattr $C$DW$732, DW_AT_data_member_location[DW_OP_plus_uconst 0x460]
    6228                      .dwattr $C$DW$732, DW_AT_accessibility(DW_ACCESS_public)
    6229              $C$DW$733       .dwtag  DW_TAG_member
    6230                      .dwattr $C$DW$733, DW_AT_type(*$C$DW$T$22)
    6231                      .dwattr $C$DW$733, DW_AT_name("hmm_code")
    6232                      .dwattr $C$DW$733, DW_AT_TI_symbol_name("_hmm_code")
    6233                      .dwattr $C$DW$733, DW_AT_data_member_location[DW_OP_plus_uconst 0x480]
    6234                      .dwattr $C$DW$733, DW_AT_accessibility(DW_ACCESS_public)
    6235              $C$DW$734       .dwtag  DW_TAG_member
    6236                      .dwattr $C$DW$734, DW_AT_type(*$C$DW$T$22)
    6237                      .dwattr $C$DW$734, DW_AT_name("stt")
    6238                      .dwattr $C$DW$734, DW_AT_TI_symbol_name("_stt")
    6239                      .dwattr $C$DW$734, DW_AT_data_member_location[DW_OP_plus_uconst 0x482]
    6240                      .dwattr $C$DW$734, DW_AT_accessibility(DW_ACCESS_public)
    6241              $C$DW$735       .dwtag  DW_TAG_member
    6242                      .dwattr $C$DW$735, DW_AT_type(*$C$DW$T$22)
    6243                      .dwattr $C$DW$735, DW_AT_name("stp")
    6244                      .dwattr $C$DW$735, DW_AT_TI_symbol_name("_stp")
    6245                      .dwattr $C$DW$735, DW_AT_data_member_location[DW_OP_plus_uconst 0x484]
    6246                      .dwattr $C$DW$735, DW_AT_accessibility(DW_ACCESS_public)
    6247              $C$DW$736       .dwtag  DW_TAG_member
    6248                      .dwattr $C$DW$736, DW_AT_type(*$C$DW$T$20)
    6249                      .dwattr $C$DW$736, DW_AT_name("nbr_seg")
    6250                      .dwattr $C$DW$736, DW_AT_TI_symbol_name("_nbr_seg")
    6251                      .dwattr $C$DW$736, DW_AT_data_member_location[DW_OP_plus_uconst 0x486]
    6252                      .dwattr $C$DW$736, DW_AT_accessibility(DW_ACCESS_public)
    6253              $C$DW$737       .dwtag  DW_TAG_member
    6254                      .dwattr $C$DW$737, DW_AT_type(*$C$DW$T$20)
    6255                      .dwattr $C$DW$737, DW_AT_name("hmm_dlt")
    6256                      .dwattr $C$DW$737, DW_AT_TI_symbol_name("_hmm_dlt")
    6257                      .dwattr $C$DW$737, DW_AT_data_member_location[DW_OP_plus_uconst 0x487]
    6258                      .dwattr $C$DW$737, DW_AT_accessibility(DW_ACCESS_public)
    6259              $C$DW$738       .dwtag  DW_TAG_member
TMS320C55x Assembler PC v4.4.1 Wed Sep 13 16:33:23 2017

Tools Copyright (c) 1996-2012 Texas Instruments Incorporated
C:\Users\a0221074\AppData\Local\Temp\1618010                         PAGE  140

    6260                      .dwattr $C$DW$738, DW_AT_type(*$C$DW$T$20)
    6261                      .dwattr $C$DW$738, DW_AT_name("max_frame_nbr")
    6262                      .dwattr $C$DW$738, DW_AT_TI_symbol_name("_max_frame_nbr")
    6263                      .dwattr $C$DW$738, DW_AT_data_member_location[DW_OP_plus_uconst 0x488]
    6264                      .dwattr $C$DW$738, DW_AT_accessibility(DW_ACCESS_public)
    6265              $C$DW$739       .dwtag  DW_TAG_member
    6266                      .dwattr $C$DW$739, DW_AT_type(*$C$DW$T$70)
    6267                      .dwattr $C$DW$739, DW_AT_name("symcell_base")
    6268                      .dwattr $C$DW$739, DW_AT_TI_symbol_name("_symcell_base")
    6269                      .dwattr $C$DW$739, DW_AT_data_member_location[DW_OP_plus_uconst 0x48a]
    6270                      .dwattr $C$DW$739, DW_AT_accessibility(DW_ACCESS_public)
    6271              $C$DW$740       .dwtag  DW_TAG_member
    6272                      .dwattr $C$DW$740, DW_AT_type(*$C$DW$T$72)
    6273                      .dwattr $C$DW$740, DW_AT_name("statecell_base")
    6274                      .dwattr $C$DW$740, DW_AT_TI_symbol_name("_statecell_base")
    6275                      .dwattr $C$DW$740, DW_AT_data_member_location[DW_OP_plus_uconst 0x48c]
    6276                      .dwattr $C$DW$740, DW_AT_accessibility(DW_ACCESS_public)
    6277              $C$DW$741       .dwtag  DW_TAG_member
    6278                      .dwattr $C$DW$741, DW_AT_type(*$C$DW$T$74)
    6279                      .dwattr $C$DW$741, DW_AT_name("beam_base")
    6280                      .dwattr $C$DW$741, DW_AT_TI_symbol_name("_beam_base")
    6281                      .dwattr $C$DW$741, DW_AT_data_member_location[DW_OP_plus_uconst 0x48e]
    6282                      .dwattr $C$DW$741, DW_AT_accessibility(DW_ACCESS_public)
    6283              $C$DW$742       .dwtag  DW_TAG_member
    6284                      .dwattr $C$DW$742, DW_AT_type(*$C$DW$T$76)
    6285                      .dwattr $C$DW$742, DW_AT_name("time_base")
    6286                      .dwattr $C$DW$742, DW_AT_TI_symbol_name("_time_base")
    6287                      .dwattr $C$DW$742, DW_AT_data_member_location[DW_OP_plus_uconst 0x490]
    6288                      .dwattr $C$DW$742, DW_AT_accessibility(DW_ACCESS_public)
    6289              $C$DW$743       .dwtag  DW_TAG_member
    6290                      .dwattr $C$DW$743, DW_AT_type(*$C$DW$T$8)
    6291                      .dwattr $C$DW$743, DW_AT_name("bUseNBest")
    6292                      .dwattr $C$DW$743, DW_AT_TI_symbol_name("_bUseNBest")
    6293                      .dwattr $C$DW$743, DW_AT_data_member_location[DW_OP_plus_uconst 0x492]
    6294                      .dwattr $C$DW$743, DW_AT_accessibility(DW_ACCESS_public)
    6295              $C$DW$744       .dwtag  DW_TAG_member
    6296                      .dwattr $C$DW$744, DW_AT_type(*$C$DW$T$11)
    6297                      .dwattr $C$DW$744, DW_AT_name("total_words")
    6298                      .dwattr $C$DW$744, DW_AT_TI_symbol_name("_total_words")
    6299                      .dwattr $C$DW$744, DW_AT_data_member_location[DW_OP_plus_uconst 0x493]
    6300                      .dwattr $C$DW$744, DW_AT_accessibility(DW_ACCESS_public)
    6301              $C$DW$745       .dwtag  DW_TAG_member
    6302                      .dwattr $C$DW$745, DW_AT_type(*$C$DW$T$8)
    6303                      .dwattr $C$DW$745, DW_AT_name("prune")
    6304                      .dwattr $C$DW$745, DW_AT_TI_symbol_name("_prune")
    6305                      .dwattr $C$DW$745, DW_AT_data_member_location[DW_OP_plus_uconst 0x494]
    6306                      .dwattr $C$DW$745, DW_AT_accessibility(DW_ACCESS_public)
    6307              $C$DW$746       .dwtag  DW_TAG_member
    6308                      .dwattr $C$DW$746, DW_AT_type(*$C$DW$T$8)
    6309                      .dwattr $C$DW$746, DW_AT_name("tranwgt")
    6310                      .dwattr $C$DW$746, DW_AT_TI_symbol_name("_tranwgt")
    6311                      .dwattr $C$DW$746, DW_AT_data_member_location[DW_OP_plus_uconst 0x495]
    6312                      .dwattr $C$DW$746, DW_AT_accessibility(DW_ACCESS_public)
    6313              $C$DW$747       .dwtag  DW_TAG_member
    6314                      .dwattr $C$DW$747, DW_AT_type(*$C$DW$T$78)
TMS320C55x Assembler PC v4.4.1 Wed Sep 13 16:33:23 2017

Tools Copyright (c) 1996-2012 Texas Instruments Incorporated
C:\Users\a0221074\AppData\Local\Temp\1618010                         PAGE  141

    6315                      .dwattr $C$DW$747, DW_AT_name("chpr_Model_Dir")
    6316                      .dwattr $C$DW$747, DW_AT_TI_symbol_name("_chpr_Model_Dir")
    6317                      .dwattr $C$DW$747, DW_AT_data_member_location[DW_OP_plus_uconst 0x496]
    6318                      .dwattr $C$DW$747, DW_AT_accessibility(DW_ACCESS_public)
    6319              $C$DW$748       .dwtag  DW_TAG_member
    6320                      .dwattr $C$DW$748, DW_AT_type(*$C$DW$T$80)
    6321                      .dwattr $C$DW$748, DW_AT_name("trans")
    6322                      .dwattr $C$DW$748, DW_AT_TI_symbol_name("_trans")
    6323                      .dwattr $C$DW$748, DW_AT_data_member_location[DW_OP_plus_uconst 0x498]
    6324                      .dwattr $C$DW$748, DW_AT_accessibility(DW_ACCESS_public)
    6325              $C$DW$749       .dwtag  DW_TAG_member
    6326                      .dwattr $C$DW$749, DW_AT_type(*$C$DW$T$21)
    6327                      .dwattr $C$DW$749, DW_AT_name("base_net")
    6328                      .dwattr $C$DW$749, DW_AT_TI_symbol_name("_base_net")
    6329                      .dwattr $C$DW$749, DW_AT_data_member_location[DW_OP_plus_uconst 0x49a]
    6330                      .dwattr $C$DW$749, DW_AT_accessibility(DW_ACCESS_public)
    6331              $C$DW$750       .dwtag  DW_TAG_member
    6332                      .dwattr $C$DW$750, DW_AT_type(*$C$DW$T$35)
    6333                      .dwattr $C$DW$750, DW_AT_name("base_hmms")
    6334                      .dwattr $C$DW$750, DW_AT_TI_symbol_name("_base_hmms")
    6335                      .dwattr $C$DW$750, DW_AT_data_member_location[DW_OP_plus_uconst 0x49c]
    6336                      .dwattr $C$DW$750, DW_AT_accessibility(DW_ACCESS_public)
    6337              $C$DW$751       .dwtag  DW_TAG_member
    6338                      .dwattr $C$DW$751, DW_AT_type(*$C$DW$T$21)
    6339                      .dwattr $C$DW$751, DW_AT_name("base_mu")
    6340                      .dwattr $C$DW$751, DW_AT_TI_symbol_name("_base_mu")
    6341                      .dwattr $C$DW$751, DW_AT_data_member_location[DW_OP_plus_uconst 0x49e]
    6342                      .dwattr $C$DW$751, DW_AT_accessibility(DW_ACCESS_public)
    6343              $C$DW$752       .dwtag  DW_TAG_member
    6344                      .dwattr $C$DW$752, DW_AT_type(*$C$DW$T$21)
    6345                      .dwattr $C$DW$752, DW_AT_name("base_mu_orig")
    6346                      .dwattr $C$DW$752, DW_AT_TI_symbol_name("_base_mu_orig")
    6347                      .dwattr $C$DW$752, DW_AT_data_member_location[DW_OP_plus_uconst 0x4a0]
    6348                      .dwattr $C$DW$752, DW_AT_accessibility(DW_ACCESS_public)
    6349              $C$DW$753       .dwtag  DW_TAG_member
    6350                      .dwattr $C$DW$753, DW_AT_type(*$C$DW$T$21)
    6351                      .dwattr $C$DW$753, DW_AT_name("base_var")
    6352                      .dwattr $C$DW$753, DW_AT_TI_symbol_name("_base_var")
    6353                      .dwattr $C$DW$753, DW_AT_data_member_location[DW_OP_plus_uconst 0x4a2]
    6354                      .dwattr $C$DW$753, DW_AT_accessibility(DW_ACCESS_public)
    6355              $C$DW$754       .dwtag  DW_TAG_member
    6356                      .dwattr $C$DW$754, DW_AT_type(*$C$DW$T$21)
    6357                      .dwattr $C$DW$754, DW_AT_name("base_var_orig")
    6358                      .dwattr $C$DW$754, DW_AT_TI_symbol_name("_base_var_orig")
    6359                      .dwattr $C$DW$754, DW_AT_data_member_location[DW_OP_plus_uconst 0x4a4]
    6360                      .dwattr $C$DW$754, DW_AT_accessibility(DW_ACCESS_public)
    6361              $C$DW$755       .dwtag  DW_TAG_member
    6362                      .dwattr $C$DW$755, DW_AT_type(*$C$DW$T$21)
    6363                      .dwattr $C$DW$755, DW_AT_name("base_tran")
    6364                      .dwattr $C$DW$755, DW_AT_TI_symbol_name("_base_tran")
    6365                      .dwattr $C$DW$755, DW_AT_data_member_location[DW_OP_plus_uconst 0x4a6]
    6366                      .dwattr $C$DW$755, DW_AT_accessibility(DW_ACCESS_public)
    6367              $C$DW$756       .dwtag  DW_TAG_member
    6368                      .dwattr $C$DW$756, DW_AT_type(*$C$DW$T$35)
    6369                      .dwattr $C$DW$756, DW_AT_name("base_pdf")
TMS320C55x Assembler PC v4.4.1 Wed Sep 13 16:33:23 2017

Tools Copyright (c) 1996-2012 Texas Instruments Incorporated
C:\Users\a0221074\AppData\Local\Temp\1618010                         PAGE  142

    6370                      .dwattr $C$DW$756, DW_AT_TI_symbol_name("_base_pdf")
    6371                      .dwattr $C$DW$756, DW_AT_data_member_location[DW_OP_plus_uconst 0x4a8]
    6372                      .dwattr $C$DW$756, DW_AT_accessibility(DW_ACCESS_public)
    6373              $C$DW$757       .dwtag  DW_TAG_member
    6374                      .dwattr $C$DW$757, DW_AT_type(*$C$DW$T$21)
    6375                      .dwattr $C$DW$757, DW_AT_name("base_mixture")
    6376                      .dwattr $C$DW$757, DW_AT_TI_symbol_name("_base_mixture")
    6377                      .dwattr $C$DW$757, DW_AT_data_member_location[DW_OP_plus_uconst 0x4aa]
    6378                      .dwattr $C$DW$757, DW_AT_accessibility(DW_ACCESS_public)
    6379              $C$DW$758       .dwtag  DW_TAG_member
    6380                      .dwattr $C$DW$758, DW_AT_type(*$C$DW$T$21)
    6381                      .dwattr $C$DW$758, DW_AT_name("base_gconst")
    6382                      .dwattr $C$DW$758, DW_AT_TI_symbol_name("_base_gconst")
    6383                      .dwattr $C$DW$758, DW_AT_data_member_location[DW_OP_plus_uconst 0x4ac]
    6384                      .dwattr $C$DW$758, DW_AT_accessibility(DW_ACCESS_public)
    6385              $C$DW$759       .dwtag  DW_TAG_member
    6386                      .dwattr $C$DW$759, DW_AT_type(*$C$DW$T$21)
    6387                      .dwattr $C$DW$759, DW_AT_name("obs_scr")
    6388                      .dwattr $C$DW$759, DW_AT_TI_symbol_name("_obs_scr")
    6389                      .dwattr $C$DW$759, DW_AT_data_member_location[DW_OP_plus_uconst 0x4ae]
    6390                      .dwattr $C$DW$759, DW_AT_accessibility(DW_ACCESS_public)
    6391              $C$DW$760       .dwtag  DW_TAG_member
    6392                      .dwattr $C$DW$760, DW_AT_type(*$C$DW$T$21)
    6393                      .dwattr $C$DW$760, DW_AT_name("gauss_scr")
    6394                      .dwattr $C$DW$760, DW_AT_TI_symbol_name("_gauss_scr")
    6395                      .dwattr $C$DW$760, DW_AT_data_member_location[DW_OP_plus_uconst 0x4b0]
    6396                      .dwattr $C$DW$760, DW_AT_accessibility(DW_ACCESS_public)
    6397              $C$DW$761       .dwtag  DW_TAG_member
    6398                      .dwattr $C$DW$761, DW_AT_type(*$C$DW$T$21)
    6399                      .dwattr $C$DW$761, DW_AT_name("scale_mu")
    6400                      .dwattr $C$DW$761, DW_AT_TI_symbol_name("_scale_mu")
    6401                      .dwattr $C$DW$761, DW_AT_data_member_location[DW_OP_plus_uconst 0x4b2]
    6402                      .dwattr $C$DW$761, DW_AT_accessibility(DW_ACCESS_public)
    6403              $C$DW$762       .dwtag  DW_TAG_member
    6404                      .dwattr $C$DW$762, DW_AT_type(*$C$DW$T$21)
    6405                      .dwattr $C$DW$762, DW_AT_name("scale_var")
    6406                      .dwattr $C$DW$762, DW_AT_TI_symbol_name("_scale_var")
    6407                      .dwattr $C$DW$762, DW_AT_data_member_location[DW_OP_plus_uconst 0x4b4]
    6408                      .dwattr $C$DW$762, DW_AT_accessibility(DW_ACCESS_public)
    6409              $C$DW$763       .dwtag  DW_TAG_member
    6410                      .dwattr $C$DW$763, DW_AT_type(*$C$DW$T$9)
    6411                      .dwattr $C$DW$763, DW_AT_name("n_pdf")
    6412                      .dwattr $C$DW$763, DW_AT_TI_symbol_name("_n_pdf")
    6413                      .dwattr $C$DW$763, DW_AT_data_member_location[DW_OP_plus_uconst 0x4b6]
    6414                      .dwattr $C$DW$763, DW_AT_accessibility(DW_ACCESS_public)
    6415              $C$DW$764       .dwtag  DW_TAG_member
    6416                      .dwattr $C$DW$764, DW_AT_type(*$C$DW$T$9)
    6417                      .dwattr $C$DW$764, DW_AT_name("n_mu")
    6418                      .dwattr $C$DW$764, DW_AT_TI_symbol_name("_n_mu")
    6419                      .dwattr $C$DW$764, DW_AT_data_member_location[DW_OP_plus_uconst 0x4b7]
    6420                      .dwattr $C$DW$764, DW_AT_accessibility(DW_ACCESS_public)
    6421              $C$DW$765       .dwtag  DW_TAG_member
    6422                      .dwattr $C$DW$765, DW_AT_type(*$C$DW$T$9)
    6423                      .dwattr $C$DW$765, DW_AT_name("n_var")
    6424                      .dwattr $C$DW$765, DW_AT_TI_symbol_name("_n_var")
TMS320C55x Assembler PC v4.4.1 Wed Sep 13 16:33:23 2017

Tools Copyright (c) 1996-2012 Texas Instruments Incorporated
C:\Users\a0221074\AppData\Local\Temp\1618010                         PAGE  143

    6425                      .dwattr $C$DW$765, DW_AT_data_member_location[DW_OP_plus_uconst 0x4b8]
    6426                      .dwattr $C$DW$765, DW_AT_accessibility(DW_ACCESS_public)
    6427              $C$DW$766       .dwtag  DW_TAG_member
    6428                      .dwattr $C$DW$766, DW_AT_type(*$C$DW$T$81)
    6429                      .dwattr $C$DW$766, DW_AT_name("vocabulary")
    6430                      .dwattr $C$DW$766, DW_AT_TI_symbol_name("_vocabulary")
    6431                      .dwattr $C$DW$766, DW_AT_data_member_location[DW_OP_plus_uconst 0x4ba]
    6432                      .dwattr $C$DW$766, DW_AT_accessibility(DW_ACCESS_public)
    6433              $C$DW$767       .dwtag  DW_TAG_member
    6434                      .dwattr $C$DW$767, DW_AT_type(*$C$DW$T$21)
    6435                      .dwattr $C$DW$767, DW_AT_name("scale_feat")
    6436                      .dwattr $C$DW$767, DW_AT_TI_symbol_name("_scale_feat")
    6437                      .dwattr $C$DW$767, DW_AT_data_member_location[DW_OP_plus_uconst 0x4bc]
    6438                      .dwattr $C$DW$767, DW_AT_accessibility(DW_ACCESS_public)
    6439              $C$DW$768       .dwtag  DW_TAG_member
    6440                      .dwattr $C$DW$768, DW_AT_type(*$C$DW$T$82)
    6441                      .dwattr $C$DW$768, DW_AT_name("muScaleP2")
    6442                      .dwattr $C$DW$768, DW_AT_TI_symbol_name("_muScaleP2")
    6443                      .dwattr $C$DW$768, DW_AT_data_member_location[DW_OP_plus_uconst 0x4be]
    6444                      .dwattr $C$DW$768, DW_AT_accessibility(DW_ACCESS_public)
    6445              $C$DW$769       .dwtag  DW_TAG_member
    6446                      .dwattr $C$DW$769, DW_AT_type(*$C$DW$T$83)
    6447                      .dwattr $C$DW$769, DW_AT_name("evalstat")
    6448                      .dwattr $C$DW$769, DW_AT_TI_symbol_name("_evalstat")
    6449                      .dwattr $C$DW$769, DW_AT_data_member_location[DW_OP_plus_uconst 0x4de]
    6450                      .dwattr $C$DW$769, DW_AT_accessibility(DW_ACCESS_public)
    6451              $C$DW$770       .dwtag  DW_TAG_member
    6452                      .dwattr $C$DW$770, DW_AT_type(*$C$DW$T$85)
    6453                      .dwattr $C$DW$770, DW_AT_name("eval")
    6454                      .dwattr $C$DW$770, DW_AT_TI_symbol_name("_eval")
    6455                      .dwattr $C$DW$770, DW_AT_data_member_location[DW_OP_plus_uconst 0x4e8]
    6456                      .dwattr $C$DW$770, DW_AT_accessibility(DW_ACCESS_public)
    6457              $C$DW$771       .dwtag  DW_TAG_member
    6458                      .dwattr $C$DW$771, DW_AT_type(*$C$DW$T$86)
    6459                      .dwattr $C$DW$771, DW_AT_name("sym2pos_map")
    6460                      .dwattr $C$DW$771, DW_AT_TI_symbol_name("_sym2pos_map")
    6461                      .dwattr $C$DW$771, DW_AT_data_member_location[DW_OP_plus_uconst 0x4ee]
    6462                      .dwattr $C$DW$771, DW_AT_accessibility(DW_ACCESS_public)
    6463              $C$DW$772       .dwtag  DW_TAG_member
    6464                      .dwattr $C$DW$772, DW_AT_type(*$C$DW$T$8)
    6465                      .dwattr $C$DW$772, DW_AT_name("best_cur_scr")
    6466                      .dwattr $C$DW$772, DW_AT_TI_symbol_name("_best_cur_scr")
    6467                      .dwattr $C$DW$772, DW_AT_data_member_location[DW_OP_plus_uconst 0x4f4]
    6468                      .dwattr $C$DW$772, DW_AT_accessibility(DW_ACCESS_public)
    6469              $C$DW$773       .dwtag  DW_TAG_member
    6470                      .dwattr $C$DW$773, DW_AT_type(*$C$DW$T$8)
    6471                      .dwattr $C$DW$773, DW_AT_name("best_prev_scr")
    6472                      .dwattr $C$DW$773, DW_AT_TI_symbol_name("_best_prev_scr")
    6473                      .dwattr $C$DW$773, DW_AT_data_member_location[DW_OP_plus_uconst 0x4f5]
    6474                      .dwattr $C$DW$773, DW_AT_accessibility(DW_ACCESS_public)
    6475              $C$DW$774       .dwtag  DW_TAG_member
    6476                      .dwattr $C$DW$774, DW_AT_type(*$C$DW$T$12)
    6477                      .dwattr $C$DW$774, DW_AT_name("cum_best_prev_scr")
    6478                      .dwattr $C$DW$774, DW_AT_TI_symbol_name("_cum_best_prev_scr")
    6479                      .dwattr $C$DW$774, DW_AT_data_member_location[DW_OP_plus_uconst 0x4f6]
TMS320C55x Assembler PC v4.4.1 Wed Sep 13 16:33:23 2017

Tools Copyright (c) 1996-2012 Texas Instruments Incorporated
C:\Users\a0221074\AppData\Local\Temp\1618010                         PAGE  144

    6480                      .dwattr $C$DW$774, DW_AT_accessibility(DW_ACCESS_public)
    6481              $C$DW$775       .dwtag  DW_TAG_member
    6482                      .dwattr $C$DW$775, DW_AT_type(*$C$DW$T$9)
    6483                      .dwattr $C$DW$775, DW_AT_name("best_sym")
    6484                      .dwattr $C$DW$775, DW_AT_TI_symbol_name("_best_sym")
    6485                      .dwattr $C$DW$775, DW_AT_data_member_location[DW_OP_plus_uconst 0x4f8]
    6486                      .dwattr $C$DW$775, DW_AT_accessibility(DW_ACCESS_public)
    6487              $C$DW$776       .dwtag  DW_TAG_member
    6488                      .dwattr $C$DW$776, DW_AT_type(*$C$DW$T$9)
    6489                      .dwattr $C$DW$776, DW_AT_name("best_word")
    6490                      .dwattr $C$DW$776, DW_AT_TI_symbol_name("_best_word")
    6491                      .dwattr $C$DW$776, DW_AT_data_member_location[DW_OP_plus_uconst 0x4f9]
    6492                      .dwattr $C$DW$776, DW_AT_accessibility(DW_ACCESS_public)
    6493              $C$DW$777       .dwtag  DW_TAG_member
    6494                      .dwattr $C$DW$777, DW_AT_type(*$C$DW$T$9)
    6495                      .dwattr $C$DW$777, DW_AT_name("best_word_frm")
    6496                      .dwattr $C$DW$777, DW_AT_TI_symbol_name("_best_word_frm")
    6497                      .dwattr $C$DW$777, DW_AT_data_member_location[DW_OP_plus_uconst 0x4fa]
    6498                      .dwattr $C$DW$777, DW_AT_accessibility(DW_ACCESS_public)
    6499              $C$DW$778       .dwtag  DW_TAG_member
    6500                      .dwattr $C$DW$778, DW_AT_type(*$C$DW$T$9)
    6501                      .dwattr $C$DW$778, DW_AT_name("best_word_gender")
    6502                      .dwattr $C$DW$778, DW_AT_TI_symbol_name("_best_word_gender")
    6503                      .dwattr $C$DW$778, DW_AT_data_member_location[DW_OP_plus_uconst 0x4fb]
    6504                      .dwattr $C$DW$778, DW_AT_accessibility(DW_ACCESS_public)
    6505              $C$DW$779       .dwtag  DW_TAG_member
    6506                      .dwattr $C$DW$779, DW_AT_type(*$C$DW$T$87)
    6507                      .dwattr $C$DW$779, DW_AT_name("nbest")
    6508                      .dwattr $C$DW$779, DW_AT_TI_symbol_name("_nbest")
    6509                      .dwattr $C$DW$779, DW_AT_data_member_location[DW_OP_plus_uconst 0x4fc]
    6510                      .dwattr $C$DW$779, DW_AT_accessibility(DW_ACCESS_public)
    6511              $C$DW$780       .dwtag  DW_TAG_member
    6512                      .dwattr $C$DW$780, DW_AT_type(*$C$DW$T$8)
    6513                      .dwattr $C$DW$780, DW_AT_name("need_compact")
    6514                      .dwattr $C$DW$780, DW_AT_TI_symbol_name("_need_compact")
    6515                      .dwattr $C$DW$780, DW_AT_data_member_location[DW_OP_plus_uconst 0x7af]
    6516                      .dwattr $C$DW$780, DW_AT_accessibility(DW_ACCESS_public)
    6517              $C$DW$781       .dwtag  DW_TAG_member
    6518                      .dwattr $C$DW$781, DW_AT_type(*$C$DW$T$8)
    6519                      .dwattr $C$DW$781, DW_AT_name("word_backtrace")
    6520                      .dwattr $C$DW$781, DW_AT_TI_symbol_name("_word_backtrace")
    6521                      .dwattr $C$DW$781, DW_AT_data_member_location[DW_OP_plus_uconst 0x7b0]
    6522                      .dwattr $C$DW$781, DW_AT_accessibility(DW_ACCESS_public)
    6523              $C$DW$782       .dwtag  DW_TAG_member
    6524                      .dwattr $C$DW$782, DW_AT_type(*$C$DW$T$12)
    6525                      .dwattr $C$DW$782, DW_AT_name("best_sym_scr")
    6526                      .dwattr $C$DW$782, DW_AT_TI_symbol_name("_best_sym_scr")
    6527                      .dwattr $C$DW$782, DW_AT_data_member_location[DW_OP_plus_uconst 0x7b2]
    6528                      .dwattr $C$DW$782, DW_AT_accessibility(DW_ACCESS_public)
    6529              $C$DW$783       .dwtag  DW_TAG_member
    6530                      .dwattr $C$DW$783, DW_AT_type(*$C$DW$T$9)
    6531                      .dwattr $C$DW$783, DW_AT_name("next_time")
    6532                      .dwattr $C$DW$783, DW_AT_TI_symbol_name("_next_time")
    6533                      .dwattr $C$DW$783, DW_AT_data_member_location[DW_OP_plus_uconst 0x7b4]
    6534                      .dwattr $C$DW$783, DW_AT_accessibility(DW_ACCESS_public)
TMS320C55x Assembler PC v4.4.1 Wed Sep 13 16:33:23 2017

Tools Copyright (c) 1996-2012 Texas Instruments Incorporated
C:\Users\a0221074\AppData\Local\Temp\1618010                         PAGE  145

    6535              $C$DW$784       .dwtag  DW_TAG_member
    6536                      .dwattr $C$DW$784, DW_AT_type(*$C$DW$T$9)
    6537                      .dwattr $C$DW$784, DW_AT_name("last_beam_cell")
    6538                      .dwattr $C$DW$784, DW_AT_TI_symbol_name("_last_beam_cell")
    6539                      .dwattr $C$DW$784, DW_AT_data_member_location[DW_OP_plus_uconst 0x7b5]
    6540                      .dwattr $C$DW$784, DW_AT_accessibility(DW_ACCESS_public)
    6541              $C$DW$785       .dwtag  DW_TAG_member
    6542                      .dwattr $C$DW$785, DW_AT_type(*$C$DW$T$20)
    6543                      .dwattr $C$DW$785, DW_AT_name("max_state_cell")
    6544                      .dwattr $C$DW$785, DW_AT_TI_symbol_name("_max_state_cell")
    6545                      .dwattr $C$DW$785, DW_AT_data_member_location[DW_OP_plus_uconst 0x7b6]
    6546                      .dwattr $C$DW$785, DW_AT_accessibility(DW_ACCESS_public)
    6547              $C$DW$786       .dwtag  DW_TAG_member
    6548                      .dwattr $C$DW$786, DW_AT_type(*$C$DW$T$20)
    6549                      .dwattr $C$DW$786, DW_AT_name("max_beam_cell")
    6550                      .dwattr $C$DW$786, DW_AT_TI_symbol_name("_max_beam_cell")
    6551                      .dwattr $C$DW$786, DW_AT_data_member_location[DW_OP_plus_uconst 0x7b7]
    6552                      .dwattr $C$DW$786, DW_AT_accessibility(DW_ACCESS_public)
    6553              $C$DW$787       .dwtag  DW_TAG_member
    6554                      .dwattr $C$DW$787, DW_AT_type(*$C$DW$T$20)
    6555                      .dwattr $C$DW$787, DW_AT_name("max_time_cell")
    6556                      .dwattr $C$DW$787, DW_AT_TI_symbol_name("_max_time_cell")
    6557                      .dwattr $C$DW$787, DW_AT_data_member_location[DW_OP_plus_uconst 0x7b8]
    6558                      .dwattr $C$DW$787, DW_AT_accessibility(DW_ACCESS_public)
    6559              $C$DW$788       .dwtag  DW_TAG_member
    6560                      .dwattr $C$DW$788, DW_AT_type(*$C$DW$T$20)
    6561                      .dwattr $C$DW$788, DW_AT_name("max_sym_cell2")
    6562                      .dwattr $C$DW$788, DW_AT_TI_symbol_name("_max_sym_cell2")
    6563                      .dwattr $C$DW$788, DW_AT_data_member_location[DW_OP_plus_uconst 0x7b9]
    6564                      .dwattr $C$DW$788, DW_AT_accessibility(DW_ACCESS_public)
    6565              $C$DW$789       .dwtag  DW_TAG_member
    6566                      .dwattr $C$DW$789, DW_AT_type(*$C$DW$T$88)
    6567                      .dwattr $C$DW$789, DW_AT_name("time_table_idx")
    6568                      .dwattr $C$DW$789, DW_AT_TI_symbol_name("_time_table_idx")
    6569                      .dwattr $C$DW$789, DW_AT_data_member_location[DW_OP_plus_uconst 0x7ba]
    6570                      .dwattr $C$DW$789, DW_AT_accessibility(DW_ACCESS_public)
    6571              $C$DW$790       .dwtag  DW_TAG_member
    6572                      .dwattr $C$DW$790, DW_AT_type(*$C$DW$T$22)
    6573                      .dwattr $C$DW$790, DW_AT_name("answer")
    6574                      .dwattr $C$DW$790, DW_AT_TI_symbol_name("_answer")
    6575                      .dwattr $C$DW$790, DW_AT_data_member_location[DW_OP_plus_uconst 0x7ce]
    6576                      .dwattr $C$DW$790, DW_AT_accessibility(DW_ACCESS_public)
    6577              $C$DW$791       .dwtag  DW_TAG_member
    6578                      .dwattr $C$DW$791, DW_AT_type(*$C$DW$T$20)
    6579                      .dwattr $C$DW$791, DW_AT_name("nbr_ans")
    6580                      .dwattr $C$DW$791, DW_AT_TI_symbol_name("_nbr_ans")
    6581                      .dwattr $C$DW$791, DW_AT_data_member_location[DW_OP_plus_uconst 0x7d0]
    6582                      .dwattr $C$DW$791, DW_AT_accessibility(DW_ACCESS_public)
    6583              $C$DW$792       .dwtag  DW_TAG_member
    6584                      .dwattr $C$DW$792, DW_AT_type(*$C$DW$T$22)
    6585                      .dwattr $C$DW$792, DW_AT_name("mem_feature")
    6586                      .dwattr $C$DW$792, DW_AT_TI_symbol_name("_mem_feature")
    6587                      .dwattr $C$DW$792, DW_AT_data_member_location[DW_OP_plus_uconst 0x7d2]
    6588                      .dwattr $C$DW$792, DW_AT_accessibility(DW_ACCESS_public)
    6589              $C$DW$793       .dwtag  DW_TAG_member
TMS320C55x Assembler PC v4.4.1 Wed Sep 13 16:33:23 2017

Tools Copyright (c) 1996-2012 Texas Instruments Incorporated
C:\Users\a0221074\AppData\Local\Temp\1618010                         PAGE  146

    6590                      .dwattr $C$DW$793, DW_AT_type(*$C$DW$T$89)
    6591                      .dwattr $C$DW$793, DW_AT_name("total_frames")
    6592                      .dwattr $C$DW$793, DW_AT_TI_symbol_name("_total_frames")
    6593                      .dwattr $C$DW$793, DW_AT_data_member_location[DW_OP_plus_uconst 0x7d4]
    6594                      .dwattr $C$DW$793, DW_AT_accessibility(DW_ACCESS_public)
    6595              $C$DW$794       .dwtag  DW_TAG_member
    6596                      .dwattr $C$DW$794, DW_AT_type(*$C$DW$T$8)
    6597                      .dwattr $C$DW$794, DW_AT_name("nbr_loaded_utter")
    6598                      .dwattr $C$DW$794, DW_AT_TI_symbol_name("_nbr_loaded_utter")
    6599                      .dwattr $C$DW$794, DW_AT_data_member_location[DW_OP_plus_uconst 0x7d6]
    6600                      .dwattr $C$DW$794, DW_AT_accessibility(DW_ACCESS_public)
    6601              $C$DW$795       .dwtag  DW_TAG_member
    6602                      .dwattr $C$DW$795, DW_AT_type(*$C$DW$T$20)
    6603                      .dwattr $C$DW$795, DW_AT_name("mem_start_frame")
    6604                      .dwattr $C$DW$795, DW_AT_TI_symbol_name("_mem_start_frame")
    6605                      .dwattr $C$DW$795, DW_AT_data_member_location[DW_OP_plus_uconst 0x7d7]
    6606                      .dwattr $C$DW$795, DW_AT_accessibility(DW_ACCESS_public)
    6607              $C$DW$796       .dwtag  DW_TAG_member
    6608                      .dwattr $C$DW$796, DW_AT_type(*$C$DW$T$21)
    6609                      .dwattr $C$DW$796, DW_AT_name("offline_vq")
    6610                      .dwattr $C$DW$796, DW_AT_TI_symbol_name("_offline_vq")
    6611                      .dwattr $C$DW$796, DW_AT_data_member_location[DW_OP_plus_uconst 0x7d8]
    6612                      .dwattr $C$DW$796, DW_AT_accessibility(DW_ACCESS_public)
    6613              $C$DW$797       .dwtag  DW_TAG_member
    6614                      .dwattr $C$DW$797, DW_AT_type(*$C$DW$T$91)
    6615                      .dwattr $C$DW$797, DW_AT_name("pNss")
    6616                      .dwattr $C$DW$797, DW_AT_TI_symbol_name("_pNss")
    6617                      .dwattr $C$DW$797, DW_AT_data_member_location[DW_OP_plus_uconst 0x7da]
    6618                      .dwattr $C$DW$797, DW_AT_accessibility(DW_ACCESS_public)
    6619              $C$DW$798       .dwtag  DW_TAG_member
    6620                      .dwattr $C$DW$798, DW_AT_type(*$C$DW$T$8)
    6621                      .dwattr $C$DW$798, DW_AT_name("cm_score")
    6622                      .dwattr $C$DW$798, DW_AT_TI_symbol_name("_cm_score")
    6623                      .dwattr $C$DW$798, DW_AT_data_member_location[DW_OP_plus_uconst 0x7dc]
    6624                      .dwattr $C$DW$798, DW_AT_accessibility(DW_ACCESS_public)
    6625              $C$DW$799       .dwtag  DW_TAG_member
    6626                      .dwattr $C$DW$799, DW_AT_type(*$C$DW$T$93)
    6627                      .dwattr $C$DW$799, DW_AT_name("pConf")
    6628                      .dwattr $C$DW$799, DW_AT_TI_symbol_name("_pConf")
    6629                      .dwattr $C$DW$799, DW_AT_data_member_location[DW_OP_plus_uconst 0x7de]
    6630                      .dwattr $C$DW$799, DW_AT_accessibility(DW_ACCESS_public)
    6631              $C$DW$800       .dwtag  DW_TAG_member
    6632                      .dwattr $C$DW$800, DW_AT_type(*$C$DW$T$80)
    6633                      .dwattr $C$DW$800, DW_AT_name("trans_bk")
    6634                      .dwattr $C$DW$800, DW_AT_TI_symbol_name("_trans_bk")
    6635                      .dwattr $C$DW$800, DW_AT_data_member_location[DW_OP_plus_uconst 0x7e0]
    6636                      .dwattr $C$DW$800, DW_AT_accessibility(DW_ACCESS_public)
    6637              $C$DW$801       .dwtag  DW_TAG_member
    6638                      .dwattr $C$DW$801, DW_AT_type(*$C$DW$T$21)
    6639                      .dwattr $C$DW$801, DW_AT_name("base_net_bk")
    6640                      .dwattr $C$DW$801, DW_AT_TI_symbol_name("_base_net_bk")
    6641                      .dwattr $C$DW$801, DW_AT_data_member_location[DW_OP_plus_uconst 0x7e2]
    6642                      .dwattr $C$DW$801, DW_AT_accessibility(DW_ACCESS_public)
    6643              $C$DW$802       .dwtag  DW_TAG_member
    6644                      .dwattr $C$DW$802, DW_AT_type(*$C$DW$T$8)
TMS320C55x Assembler PC v4.4.1 Wed Sep 13 16:33:23 2017

Tools Copyright (c) 1996-2012 Texas Instruments Incorporated
C:\Users\a0221074\AppData\Local\Temp\1618010                         PAGE  147

    6645                      .dwattr $C$DW$802, DW_AT_name("nbr_ans_bk")
    6646                      .dwattr $C$DW$802, DW_AT_TI_symbol_name("_nbr_ans_bk")
    6647                      .dwattr $C$DW$802, DW_AT_data_member_location[DW_OP_plus_uconst 0x7e4]
    6648                      .dwattr $C$DW$802, DW_AT_accessibility(DW_ACCESS_public)
    6649              $C$DW$803       .dwtag  DW_TAG_member
    6650                      .dwattr $C$DW$803, DW_AT_type(*$C$DW$T$88)
    6651                      .dwattr $C$DW$803, DW_AT_name("answer_bk")
    6652                      .dwattr $C$DW$803, DW_AT_TI_symbol_name("_answer_bk")
    6653                      .dwattr $C$DW$803, DW_AT_data_member_location[DW_OP_plus_uconst 0x7e5]
    6654                      .dwattr $C$DW$803, DW_AT_accessibility(DW_ACCESS_public)
    6655              $C$DW$804       .dwtag  DW_TAG_member
    6656                      .dwattr $C$DW$804, DW_AT_type(*$C$DW$T$11)
    6657                      .dwattr $C$DW$804, DW_AT_name("FramesQueued")
    6658                      .dwattr $C$DW$804, DW_AT_TI_symbol_name("_FramesQueued")
    6659                      .dwattr $C$DW$804, DW_AT_data_member_location[DW_OP_plus_uconst 0x7f9]
    6660                      .dwattr $C$DW$804, DW_AT_accessibility(DW_ACCESS_public)
    6661              $C$DW$805       .dwtag  DW_TAG_member
    6662                      .dwattr $C$DW$805, DW_AT_type(*$C$DW$T$11)
    6663                      .dwattr $C$DW$805, DW_AT_name("prev_FramesQueued")
    6664                      .dwattr $C$DW$805, DW_AT_TI_symbol_name("_prev_FramesQueued")
    6665                      .dwattr $C$DW$805, DW_AT_data_member_location[DW_OP_plus_uconst 0x7fa]
    6666                      .dwattr $C$DW$805, DW_AT_accessibility(DW_ACCESS_public)
    6667              $C$DW$806       .dwtag  DW_TAG_member
    6668                      .dwattr $C$DW$806, DW_AT_type(*$C$DW$T$8)
    6669                      .dwattr $C$DW$806, DW_AT_name("guard")
    6670                      .dwattr $C$DW$806, DW_AT_TI_symbol_name("_guard")
    6671                      .dwattr $C$DW$806, DW_AT_data_member_location[DW_OP_plus_uconst 0x7fb]
    6672                      .dwattr $C$DW$806, DW_AT_accessibility(DW_ACCESS_public)
    6673              $C$DW$807       .dwtag  DW_TAG_member
    6674                      .dwattr $C$DW$807, DW_AT_type(*$C$DW$T$8)
    6675                      .dwattr $C$DW$807, DW_AT_name("realtime_th")
    6676                      .dwattr $C$DW$807, DW_AT_TI_symbol_name("_realtime_th")
    6677                      .dwattr $C$DW$807, DW_AT_data_member_location[DW_OP_plus_uconst 0x7fc]
    6678                      .dwattr $C$DW$807, DW_AT_accessibility(DW_ACCESS_public)
    6679              $C$DW$808       .dwtag  DW_TAG_member
    6680                      .dwattr $C$DW$808, DW_AT_type(*$C$DW$T$8)
    6681                      .dwattr $C$DW$808, DW_AT_name("realt_guard")
    6682                      .dwattr $C$DW$808, DW_AT_TI_symbol_name("_realt_guard")
    6683                      .dwattr $C$DW$808, DW_AT_data_member_location[DW_OP_plus_uconst 0x7fd]
    6684                      .dwattr $C$DW$808, DW_AT_accessibility(DW_ACCESS_public)
    6685                      .dwendtag $C$DW$T$94
    6686              
    6687              $C$DW$T$97      .dwtag  DW_TAG_typedef, DW_AT_name("gmhmm_type")
    6688                      .dwattr $C$DW$T$97, DW_AT_type(*$C$DW$T$94)
    6689                      .dwattr $C$DW$T$97, DW_AT_language(DW_LANG_C)
    6690              $C$DW$T$98      .dwtag  DW_TAG_pointer_type
    6691                      .dwattr $C$DW$T$98, DW_AT_type(*$C$DW$T$97)
    6692                      .dwattr $C$DW$T$98, DW_AT_address_class(0x17)
    6693              $C$DW$809       .dwtag  DW_TAG_TI_far_type
    6694                      .dwattr $C$DW$809, DW_AT_type(*$C$DW$T$97)
    6695              $C$DW$T$159     .dwtag  DW_TAG_const_type
    6696                      .dwattr $C$DW$T$159, DW_AT_type(*$C$DW$809)
    6697              $C$DW$T$160     .dwtag  DW_TAG_pointer_type
    6698                      .dwattr $C$DW$T$160, DW_AT_type(*$C$DW$T$159)
    6699                      .dwattr $C$DW$T$160, DW_AT_address_class(0x17)
TMS320C55x Assembler PC v4.4.1 Wed Sep 13 16:33:23 2017

Tools Copyright (c) 1996-2012 Texas Instruments Incorporated
C:\Users\a0221074\AppData\Local\Temp\1618010                         PAGE  148

    6700                      .dwattr $C$DW$CU, DW_AT_language(DW_LANG_C)
    6701              
    6702              ;***************************************************************
    6703              ;* DWARF CIE ENTRIES                                           *
    6704              ;***************************************************************
    6705              
    6706              $C$DW$CIE       .dwcie 91
    6707                      .dwcfi  cfa_register, 36
    6708                      .dwcfi  cfa_offset, 0
    6709                      .dwcfi  undefined, 0
    6710                      .dwcfi  undefined, 1
    6711                      .dwcfi  undefined, 2
    6712                      .dwcfi  undefined, 3
    6713                      .dwcfi  undefined, 4
    6714                      .dwcfi  undefined, 5
    6715                      .dwcfi  undefined, 6
    6716                      .dwcfi  undefined, 7
    6717                      .dwcfi  undefined, 8
    6718                      .dwcfi  undefined, 9
    6719                      .dwcfi  undefined, 10
    6720                      .dwcfi  undefined, 11
    6721                      .dwcfi  undefined, 12
    6722                      .dwcfi  undefined, 13
    6723                      .dwcfi  same_value, 14
    6724                      .dwcfi  same_value, 15
    6725                      .dwcfi  undefined, 16
    6726                      .dwcfi  undefined, 17
    6727                      .dwcfi  undefined, 18
    6728                      .dwcfi  undefined, 19
    6729                      .dwcfi  undefined, 20
    6730                      .dwcfi  undefined, 21
    6731                      .dwcfi  undefined, 22
    6732                      .dwcfi  undefined, 23
    6733                      .dwcfi  undefined, 24
    6734                      .dwcfi  undefined, 25
    6735                      .dwcfi  same_value, 26
    6736                      .dwcfi  same_value, 27
    6737                      .dwcfi  same_value, 28
    6738                      .dwcfi  same_value, 29
    6739                      .dwcfi  same_value, 30
    6740                      .dwcfi  same_value, 31
    6741                      .dwcfi  undefined, 32
    6742                      .dwcfi  undefined, 33
    6743                      .dwcfi  undefined, 34
    6744                      .dwcfi  undefined, 35
    6745                      .dwcfi  undefined, 36
    6746                      .dwcfi  undefined, 37
    6747                      .dwcfi  undefined, 38
    6748                      .dwcfi  undefined, 39
    6749                      .dwcfi  undefined, 40
    6750                      .dwcfi  undefined, 41
    6751                      .dwcfi  undefined, 42
    6752                      .dwcfi  undefined, 43
    6753                      .dwcfi  undefined, 44
    6754                      .dwcfi  undefined, 45
TMS320C55x Assembler PC v4.4.1 Wed Sep 13 16:33:23 2017

Tools Copyright (c) 1996-2012 Texas Instruments Incorporated
C:\Users\a0221074\AppData\Local\Temp\1618010                         PAGE  149

    6755                      .dwcfi  undefined, 46
    6756                      .dwcfi  undefined, 47
    6757                      .dwcfi  undefined, 48
    6758                      .dwcfi  undefined, 49
    6759                      .dwcfi  undefined, 50
    6760                      .dwcfi  undefined, 51
    6761                      .dwcfi  undefined, 52
    6762                      .dwcfi  undefined, 53
    6763                      .dwcfi  undefined, 54
    6764                      .dwcfi  undefined, 55
    6765                      .dwcfi  undefined, 56
    6766                      .dwcfi  undefined, 57
    6767                      .dwcfi  undefined, 58
    6768                      .dwcfi  undefined, 59
    6769                      .dwcfi  undefined, 60
    6770                      .dwcfi  undefined, 61
    6771                      .dwcfi  undefined, 62
    6772                      .dwcfi  undefined, 63
    6773                      .dwcfi  undefined, 64
    6774                      .dwcfi  undefined, 65
    6775                      .dwcfi  undefined, 66
    6776                      .dwcfi  undefined, 67
    6777                      .dwcfi  undefined, 68
    6778                      .dwcfi  undefined, 69
    6779                      .dwcfi  undefined, 70
    6780                      .dwcfi  undefined, 71
    6781                      .dwcfi  undefined, 72
    6782                      .dwcfi  undefined, 73
    6783                      .dwcfi  undefined, 74
    6784                      .dwcfi  undefined, 75
    6785                      .dwcfi  undefined, 76
    6786                      .dwcfi  undefined, 77
    6787                      .dwcfi  undefined, 78
    6788                      .dwcfi  undefined, 79
    6789                      .dwcfi  undefined, 80
    6790                      .dwcfi  undefined, 81
    6791                      .dwcfi  undefined, 82
    6792                      .dwcfi  undefined, 83
    6793                      .dwcfi  undefined, 84
    6794                      .dwcfi  undefined, 85
    6795                      .dwcfi  undefined, 86
    6796                      .dwcfi  undefined, 87
    6797                      .dwcfi  undefined, 88
    6798                      .dwcfi  undefined, 89
    6799                      .dwcfi  undefined, 90
    6800                      .dwcfi  undefined, 91
    6801                      .dwendentry
    6802              
    6803              ;***************************************************************
    6804              ;* DWARF REGISTER MAP                                          *
    6805              ;***************************************************************
    6806              
    6807              $C$DW$810       .dwtag  DW_TAG_TI_assign_register, DW_AT_name("AC0")
    6808                      .dwattr $C$DW$810, DW_AT_location[DW_OP_reg0]
    6809              $C$DW$811       .dwtag  DW_TAG_TI_assign_register, DW_AT_name("AC0")
TMS320C55x Assembler PC v4.4.1 Wed Sep 13 16:33:23 2017

Tools Copyright (c) 1996-2012 Texas Instruments Incorporated
C:\Users\a0221074\AppData\Local\Temp\1618010                         PAGE  150

    6810                      .dwattr $C$DW$811, DW_AT_location[DW_OP_reg1]
    6811              $C$DW$812       .dwtag  DW_TAG_TI_assign_register, DW_AT_name("AC0_G")
    6812                      .dwattr $C$DW$812, DW_AT_location[DW_OP_reg2]
    6813              $C$DW$813       .dwtag  DW_TAG_TI_assign_register, DW_AT_name("AC1")
    6814                      .dwattr $C$DW$813, DW_AT_location[DW_OP_reg3]
    6815              $C$DW$814       .dwtag  DW_TAG_TI_assign_register, DW_AT_name("AC1")
    6816                      .dwattr $C$DW$814, DW_AT_location[DW_OP_reg4]
    6817              $C$DW$815       .dwtag  DW_TAG_TI_assign_register, DW_AT_name("AC1_G")
    6818                      .dwattr $C$DW$815, DW_AT_location[DW_OP_reg5]
    6819              $C$DW$816       .dwtag  DW_TAG_TI_assign_register, DW_AT_name("AC2")
    6820                      .dwattr $C$DW$816, DW_AT_location[DW_OP_reg6]
    6821              $C$DW$817       .dwtag  DW_TAG_TI_assign_register, DW_AT_name("AC2")
    6822                      .dwattr $C$DW$817, DW_AT_location[DW_OP_reg7]
    6823              $C$DW$818       .dwtag  DW_TAG_TI_assign_register, DW_AT_name("AC2_G")
    6824                      .dwattr $C$DW$818, DW_AT_location[DW_OP_reg8]
    6825              $C$DW$819       .dwtag  DW_TAG_TI_assign_register, DW_AT_name("AC3")
    6826                      .dwattr $C$DW$819, DW_AT_location[DW_OP_reg9]
    6827              $C$DW$820       .dwtag  DW_TAG_TI_assign_register, DW_AT_name("AC3")
    6828                      .dwattr $C$DW$820, DW_AT_location[DW_OP_reg10]
    6829              $C$DW$821       .dwtag  DW_TAG_TI_assign_register, DW_AT_name("AC3_G")
    6830                      .dwattr $C$DW$821, DW_AT_location[DW_OP_reg11]
    6831              $C$DW$822       .dwtag  DW_TAG_TI_assign_register, DW_AT_name("T0")
    6832                      .dwattr $C$DW$822, DW_AT_location[DW_OP_reg12]
    6833              $C$DW$823       .dwtag  DW_TAG_TI_assign_register, DW_AT_name("T1")
    6834                      .dwattr $C$DW$823, DW_AT_location[DW_OP_reg13]
    6835              $C$DW$824       .dwtag  DW_TAG_TI_assign_register, DW_AT_name("T2")
    6836                      .dwattr $C$DW$824, DW_AT_location[DW_OP_reg14]
    6837              $C$DW$825       .dwtag  DW_TAG_TI_assign_register, DW_AT_name("T3")
    6838                      .dwattr $C$DW$825, DW_AT_location[DW_OP_reg15]
    6839              $C$DW$826       .dwtag  DW_TAG_TI_assign_register, DW_AT_name("AR0")
    6840                      .dwattr $C$DW$826, DW_AT_location[DW_OP_reg16]
    6841              $C$DW$827       .dwtag  DW_TAG_TI_assign_register, DW_AT_name("XAR0")
    6842                      .dwattr $C$DW$827, DW_AT_location[DW_OP_reg17]
    6843              $C$DW$828       .dwtag  DW_TAG_TI_assign_register, DW_AT_name("AR1")
    6844                      .dwattr $C$DW$828, DW_AT_location[DW_OP_reg18]
    6845              $C$DW$829       .dwtag  DW_TAG_TI_assign_register, DW_AT_name("XAR1")
    6846                      .dwattr $C$DW$829, DW_AT_location[DW_OP_reg19]
    6847              $C$DW$830       .dwtag  DW_TAG_TI_assign_register, DW_AT_name("AR2")
    6848                      .dwattr $C$DW$830, DW_AT_location[DW_OP_reg20]
    6849              $C$DW$831       .dwtag  DW_TAG_TI_assign_register, DW_AT_name("XAR2")
    6850                      .dwattr $C$DW$831, DW_AT_location[DW_OP_reg21]
    6851              $C$DW$832       .dwtag  DW_TAG_TI_assign_register, DW_AT_name("AR3")
    6852                      .dwattr $C$DW$832, DW_AT_location[DW_OP_reg22]
    6853              $C$DW$833       .dwtag  DW_TAG_TI_assign_register, DW_AT_name("XAR3")
    6854                      .dwattr $C$DW$833, DW_AT_location[DW_OP_reg23]
    6855              $C$DW$834       .dwtag  DW_TAG_TI_assign_register, DW_AT_name("AR4")
    6856                      .dwattr $C$DW$834, DW_AT_location[DW_OP_reg24]
    6857              $C$DW$835       .dwtag  DW_TAG_TI_assign_register, DW_AT_name("XAR4")
    6858                      .dwattr $C$DW$835, DW_AT_location[DW_OP_reg25]
    6859              $C$DW$836       .dwtag  DW_TAG_TI_assign_register, DW_AT_name("AR5")
    6860                      .dwattr $C$DW$836, DW_AT_location[DW_OP_reg26]
    6861              $C$DW$837       .dwtag  DW_TAG_TI_assign_register, DW_AT_name("XAR5")
    6862                      .dwattr $C$DW$837, DW_AT_location[DW_OP_reg27]
    6863              $C$DW$838       .dwtag  DW_TAG_TI_assign_register, DW_AT_name("AR6")
    6864                      .dwattr $C$DW$838, DW_AT_location[DW_OP_reg28]
TMS320C55x Assembler PC v4.4.1 Wed Sep 13 16:33:23 2017

Tools Copyright (c) 1996-2012 Texas Instruments Incorporated
C:\Users\a0221074\AppData\Local\Temp\1618010                         PAGE  151

    6865              $C$DW$839       .dwtag  DW_TAG_TI_assign_register, DW_AT_name("XAR6")
    6866                      .dwattr $C$DW$839, DW_AT_location[DW_OP_reg29]
    6867              $C$DW$840       .dwtag  DW_TAG_TI_assign_register, DW_AT_name("AR7")
    6868                      .dwattr $C$DW$840, DW_AT_location[DW_OP_reg30]
    6869              $C$DW$841       .dwtag  DW_TAG_TI_assign_register, DW_AT_name("XAR7")
    6870                      .dwattr $C$DW$841, DW_AT_location[DW_OP_reg31]
    6871              $C$DW$842       .dwtag  DW_TAG_TI_assign_register, DW_AT_name("FP")
    6872                      .dwattr $C$DW$842, DW_AT_location[DW_OP_regx 0x20]
    6873              $C$DW$843       .dwtag  DW_TAG_TI_assign_register, DW_AT_name("XFP")
    6874                      .dwattr $C$DW$843, DW_AT_location[DW_OP_regx 0x21]
    6875              $C$DW$844       .dwtag  DW_TAG_TI_assign_register, DW_AT_name("PC")
    6876                      .dwattr $C$DW$844, DW_AT_location[DW_OP_regx 0x22]
    6877              $C$DW$845       .dwtag  DW_TAG_TI_assign_register, DW_AT_name("SP")
    6878                      .dwattr $C$DW$845, DW_AT_location[DW_OP_regx 0x23]
    6879              $C$DW$846       .dwtag  DW_TAG_TI_assign_register, DW_AT_name("XSP")
    6880                      .dwattr $C$DW$846, DW_AT_location[DW_OP_regx 0x24]
    6881              $C$DW$847       .dwtag  DW_TAG_TI_assign_register, DW_AT_name("BKC")
    6882                      .dwattr $C$DW$847, DW_AT_location[DW_OP_regx 0x25]
    6883              $C$DW$848       .dwtag  DW_TAG_TI_assign_register, DW_AT_name("BK03")
    6884                      .dwattr $C$DW$848, DW_AT_location[DW_OP_regx 0x26]
    6885              $C$DW$849       .dwtag  DW_TAG_TI_assign_register, DW_AT_name("BK47")
    6886                      .dwattr $C$DW$849, DW_AT_location[DW_OP_regx 0x27]
    6887              $C$DW$850       .dwtag  DW_TAG_TI_assign_register, DW_AT_name("ST0")
    6888                      .dwattr $C$DW$850, DW_AT_location[DW_OP_regx 0x28]
    6889              $C$DW$851       .dwtag  DW_TAG_TI_assign_register, DW_AT_name("ST1")
    6890                      .dwattr $C$DW$851, DW_AT_location[DW_OP_regx 0x29]
    6891              $C$DW$852       .dwtag  DW_TAG_TI_assign_register, DW_AT_name("ST2")
    6892                      .dwattr $C$DW$852, DW_AT_location[DW_OP_regx 0x2a]
    6893              $C$DW$853       .dwtag  DW_TAG_TI_assign_register, DW_AT_name("ST3")
    6894                      .dwattr $C$DW$853, DW_AT_location[DW_OP_regx 0x2b]
    6895              $C$DW$854       .dwtag  DW_TAG_TI_assign_register, DW_AT_name("MDP")
    6896                      .dwattr $C$DW$854, DW_AT_location[DW_OP_regx 0x2c]
    6897              $C$DW$855       .dwtag  DW_TAG_TI_assign_register, DW_AT_name("MDP05")
    6898                      .dwattr $C$DW$855, DW_AT_location[DW_OP_regx 0x2d]
    6899              $C$DW$856       .dwtag  DW_TAG_TI_assign_register, DW_AT_name("MDP67")
    6900                      .dwattr $C$DW$856, DW_AT_location[DW_OP_regx 0x2e]
    6901              $C$DW$857       .dwtag  DW_TAG_TI_assign_register, DW_AT_name("BRC0")
    6902                      .dwattr $C$DW$857, DW_AT_location[DW_OP_regx 0x2f]
    6903              $C$DW$858       .dwtag  DW_TAG_TI_assign_register, DW_AT_name("RSA0")
    6904                      .dwattr $C$DW$858, DW_AT_location[DW_OP_regx 0x30]
    6905              $C$DW$859       .dwtag  DW_TAG_TI_assign_register, DW_AT_name("RSA0_H")
    6906                      .dwattr $C$DW$859, DW_AT_location[DW_OP_regx 0x31]
    6907              $C$DW$860       .dwtag  DW_TAG_TI_assign_register, DW_AT_name("REA0")
    6908                      .dwattr $C$DW$860, DW_AT_location[DW_OP_regx 0x32]
    6909              $C$DW$861       .dwtag  DW_TAG_TI_assign_register, DW_AT_name("REA0_H")
    6910                      .dwattr $C$DW$861, DW_AT_location[DW_OP_regx 0x33]
    6911              $C$DW$862       .dwtag  DW_TAG_TI_assign_register, DW_AT_name("BRS1")
    6912                      .dwattr $C$DW$862, DW_AT_location[DW_OP_regx 0x34]
    6913              $C$DW$863       .dwtag  DW_TAG_TI_assign_register, DW_AT_name("BRC1")
    6914                      .dwattr $C$DW$863, DW_AT_location[DW_OP_regx 0x35]
    6915              $C$DW$864       .dwtag  DW_TAG_TI_assign_register, DW_AT_name("RSA1")
    6916                      .dwattr $C$DW$864, DW_AT_location[DW_OP_regx 0x36]
    6917              $C$DW$865       .dwtag  DW_TAG_TI_assign_register, DW_AT_name("RSA1_H")
    6918                      .dwattr $C$DW$865, DW_AT_location[DW_OP_regx 0x37]
    6919              $C$DW$866       .dwtag  DW_TAG_TI_assign_register, DW_AT_name("REA1")
TMS320C55x Assembler PC v4.4.1 Wed Sep 13 16:33:23 2017

Tools Copyright (c) 1996-2012 Texas Instruments Incorporated
C:\Users\a0221074\AppData\Local\Temp\1618010                         PAGE  152

    6920                      .dwattr $C$DW$866, DW_AT_location[DW_OP_regx 0x38]
    6921              $C$DW$867       .dwtag  DW_TAG_TI_assign_register, DW_AT_name("REA1_H")
    6922                      .dwattr $C$DW$867, DW_AT_location[DW_OP_regx 0x39]
    6923              $C$DW$868       .dwtag  DW_TAG_TI_assign_register, DW_AT_name("CSR")
    6924                      .dwattr $C$DW$868, DW_AT_location[DW_OP_regx 0x3a]
    6925              $C$DW$869       .dwtag  DW_TAG_TI_assign_register, DW_AT_name("RPTC")
    6926                      .dwattr $C$DW$869, DW_AT_location[DW_OP_regx 0x3b]
    6927              $C$DW$870       .dwtag  DW_TAG_TI_assign_register, DW_AT_name("CDP")
    6928                      .dwattr $C$DW$870, DW_AT_location[DW_OP_regx 0x3c]
    6929              $C$DW$871       .dwtag  DW_TAG_TI_assign_register, DW_AT_name("XCDP")
    6930                      .dwattr $C$DW$871, DW_AT_location[DW_OP_regx 0x3d]
    6931              $C$DW$872       .dwtag  DW_TAG_TI_assign_register, DW_AT_name("TRN0")
    6932                      .dwattr $C$DW$872, DW_AT_location[DW_OP_regx 0x3e]
    6933              $C$DW$873       .dwtag  DW_TAG_TI_assign_register, DW_AT_name("TRN1")
    6934                      .dwattr $C$DW$873, DW_AT_location[DW_OP_regx 0x3f]
    6935              $C$DW$874       .dwtag  DW_TAG_TI_assign_register, DW_AT_name("BSA01")
    6936                      .dwattr $C$DW$874, DW_AT_location[DW_OP_regx 0x40]
    6937              $C$DW$875       .dwtag  DW_TAG_TI_assign_register, DW_AT_name("BSA23")
    6938                      .dwattr $C$DW$875, DW_AT_location[DW_OP_regx 0x41]
    6939              $C$DW$876       .dwtag  DW_TAG_TI_assign_register, DW_AT_name("BSA45")
    6940                      .dwattr $C$DW$876, DW_AT_location[DW_OP_regx 0x42]
    6941              $C$DW$877       .dwtag  DW_TAG_TI_assign_register, DW_AT_name("BSA67")
    6942                      .dwattr $C$DW$877, DW_AT_location[DW_OP_regx 0x43]
    6943              $C$DW$878       .dwtag  DW_TAG_TI_assign_register, DW_AT_name("BSAC")
    6944                      .dwattr $C$DW$878, DW_AT_location[DW_OP_regx 0x44]
    6945              $C$DW$879       .dwtag  DW_TAG_TI_assign_register, DW_AT_name("CARRY")
    6946                      .dwattr $C$DW$879, DW_AT_location[DW_OP_regx 0x45]
    6947              $C$DW$880       .dwtag  DW_TAG_TI_assign_register, DW_AT_name("TC1")
    6948                      .dwattr $C$DW$880, DW_AT_location[DW_OP_regx 0x46]
    6949              $C$DW$881       .dwtag  DW_TAG_TI_assign_register, DW_AT_name("TC2")
    6950                      .dwattr $C$DW$881, DW_AT_location[DW_OP_regx 0x47]
    6951              $C$DW$882       .dwtag  DW_TAG_TI_assign_register, DW_AT_name("M40")
    6952                      .dwattr $C$DW$882, DW_AT_location[DW_OP_regx 0x48]
    6953              $C$DW$883       .dwtag  DW_TAG_TI_assign_register, DW_AT_name("SXMD")
    6954                      .dwattr $C$DW$883, DW_AT_location[DW_OP_regx 0x49]
    6955              $C$DW$884       .dwtag  DW_TAG_TI_assign_register, DW_AT_name("ARMS")
    6956                      .dwattr $C$DW$884, DW_AT_location[DW_OP_regx 0x4a]
    6957              $C$DW$885       .dwtag  DW_TAG_TI_assign_register, DW_AT_name("C54CM")
    6958                      .dwattr $C$DW$885, DW_AT_location[DW_OP_regx 0x4b]
    6959              $C$DW$886       .dwtag  DW_TAG_TI_assign_register, DW_AT_name("SATA")
    6960                      .dwattr $C$DW$886, DW_AT_location[DW_OP_regx 0x4c]
    6961              $C$DW$887       .dwtag  DW_TAG_TI_assign_register, DW_AT_name("SATD")
    6962                      .dwattr $C$DW$887, DW_AT_location[DW_OP_regx 0x4d]
    6963              $C$DW$888       .dwtag  DW_TAG_TI_assign_register, DW_AT_name("RDM")
    6964                      .dwattr $C$DW$888, DW_AT_location[DW_OP_regx 0x4e]
    6965              $C$DW$889       .dwtag  DW_TAG_TI_assign_register, DW_AT_name("FRCT")
    6966                      .dwattr $C$DW$889, DW_AT_location[DW_OP_regx 0x4f]
    6967              $C$DW$890       .dwtag  DW_TAG_TI_assign_register, DW_AT_name("SMUL")
    6968                      .dwattr $C$DW$890, DW_AT_location[DW_OP_regx 0x50]
    6969              $C$DW$891       .dwtag  DW_TAG_TI_assign_register, DW_AT_name("INTM")
    6970                      .dwattr $C$DW$891, DW_AT_location[DW_OP_regx 0x51]
    6971              $C$DW$892       .dwtag  DW_TAG_TI_assign_register, DW_AT_name("AR0LC")
    6972                      .dwattr $C$DW$892, DW_AT_location[DW_OP_regx 0x52]
    6973              $C$DW$893       .dwtag  DW_TAG_TI_assign_register, DW_AT_name("AR1LC")
    6974                      .dwattr $C$DW$893, DW_AT_location[DW_OP_regx 0x53]
TMS320C55x Assembler PC v4.4.1 Wed Sep 13 16:33:23 2017

Tools Copyright (c) 1996-2012 Texas Instruments Incorporated
C:\Users\a0221074\AppData\Local\Temp\1618010                         PAGE  153

    6975              $C$DW$894       .dwtag  DW_TAG_TI_assign_register, DW_AT_name("AR2LC")
    6976                      .dwattr $C$DW$894, DW_AT_location[DW_OP_regx 0x54]
    6977              $C$DW$895       .dwtag  DW_TAG_TI_assign_register, DW_AT_name("AR3LC")
    6978                      .dwattr $C$DW$895, DW_AT_location[DW_OP_regx 0x55]
    6979              $C$DW$896       .dwtag  DW_TAG_TI_assign_register, DW_AT_name("AR4LC")
    6980                      .dwattr $C$DW$896, DW_AT_location[DW_OP_regx 0x56]
    6981              $C$DW$897       .dwtag  DW_TAG_TI_assign_register, DW_AT_name("AR5LC")
    6982                      .dwattr $C$DW$897, DW_AT_location[DW_OP_regx 0x57]
    6983              $C$DW$898       .dwtag  DW_TAG_TI_assign_register, DW_AT_name("AR6LC")
    6984                      .dwattr $C$DW$898, DW_AT_location[DW_OP_regx 0x58]
    6985              $C$DW$899       .dwtag  DW_TAG_TI_assign_register, DW_AT_name("AR7LC")
    6986                      .dwattr $C$DW$899, DW_AT_location[DW_OP_regx 0x59]
    6987              $C$DW$900       .dwtag  DW_TAG_TI_assign_register, DW_AT_name("CDPLC")
    6988                      .dwattr $C$DW$900, DW_AT_location[DW_OP_regx 0x5a]
    6989              $C$DW$901       .dwtag  DW_TAG_TI_assign_register, DW_AT_name("CIE_RETA")
    6990                      .dwattr $C$DW$901, DW_AT_location[DW_OP_regx 0x5b]
    6991                      .dwendtag $C$DW$CU
    6992              
    6992              
    6992              

No Assembly Errors, No Assembly Warnings
