TMS320C55x Assembler PC v4.4.1 Wed Sep 13 16:33:23 2017

Tools Copyright (c) 1996-2012 Texas Instruments Incorporated
C:\Users\a0221074\AppData\Local\Temp\1618010                         PAGE    1

    6992              ; Temporary Registers Used: None
       1              ;*******************************************************************************
       2              ;* TMS320C55x C/C++ Codegen                                          PC v4.4.1 *
       3              ;* Date/Time created: Wed Sep 13 16:33:19 2017                                 *
       4              ;*******************************************************************************
       5                      .compiler_opts --hll_source=on --mem_model:code=flat --mem_model:data=huge --object_format=coff --sil
       6                      .mmregs
       7                      .cpl_on
       8                      .arms_on
       9                      .c54cm_off
      10                      .asg AR6, FP
      11                      .asg XAR6, XFP
      12                      .asg DPH, MDP
      13                      .model call=c55_std
      14                      .model mem=huge
      15                      .noremark 5002  ; code respects overwrite rules
      16              ;*******************************************************************************
      17              ;* GLOBAL FILE PARAMETERS                                                      *
      18              ;*                                                                             *
      19              ;*   Architecture       : TMS320C55x                                           *
      20              ;*   Optimizing for     : Speed                                                *
      21              ;*   Memory             : Huge Model (23-Bit Data Pointers)                    *
      22              ;*   Calls              : Normal Library ASM calls                             *
      23              ;*   Debug Info         : Standard TI Debug Information                        *
      24              ;*******************************************************************************
      25              
      26              $C$DW$CU        .dwtag  DW_TAG_compile_unit
      27                      .dwattr $C$DW$CU, DW_AT_name("C:/Users/a0221074/Desktop/C5000/IBM_Watson_TIdesign_workarea/CSL_bitbuc
      28                      .dwattr $C$DW$CU, DW_AT_producer("TMS320C55x C/C++ Codegen PC v4.4.1 Copyright (c) 1996-2012 Texas In
      29                      .dwattr $C$DW$CU, DW_AT_TI_version(0x01)
      30                      .dwattr $C$DW$CU, DW_AT_comp_dir("C:\Users\a0221074\Desktop\C5000\IBM_Watson_TIdesign_workarea\CSL_bi
      31              
      32              $C$DW$1 .dwtag  DW_TAG_subprogram, DW_AT_name("search_a_frame")
      33                      .dwattr $C$DW$1, DW_AT_TI_symbol_name("_search_a_frame")
      34                      .dwattr $C$DW$1, DW_AT_type(*$C$DW$T$8)
      35                      .dwattr $C$DW$1, DW_AT_declaration
      36                      .dwattr $C$DW$1, DW_AT_external
      37              $C$DW$2 .dwtag  DW_TAG_formal_parameter
      38                      .dwattr $C$DW$2, DW_AT_type(*$C$DW$T$21)
      39              $C$DW$3 .dwtag  DW_TAG_formal_parameter
      40                      .dwattr $C$DW$3, DW_AT_type(*$C$DW$T$8)
      41              $C$DW$4 .dwtag  DW_TAG_formal_parameter
      42                      .dwattr $C$DW$4, DW_AT_type(*$C$DW$T$9)
      43              $C$DW$5 .dwtag  DW_TAG_formal_parameter
      44                      .dwattr $C$DW$5, DW_AT_type(*$C$DW$T$98)
      45                      .dwendtag $C$DW$1
      46              
      47              
      48              $C$DW$6 .dwtag  DW_TAG_subprogram, DW_AT_name("back_trace_beam")
      49                      .dwattr $C$DW$6, DW_AT_TI_symbol_name("_back_trace_beam")
      50                      .dwattr $C$DW$6, DW_AT_type(*$C$DW$T$96)
      51                      .dwattr $C$DW$6, DW_AT_declaration
      52                      .dwattr $C$DW$6, DW_AT_external
      53              $C$DW$7 .dwtag  DW_TAG_formal_parameter
      54                      .dwattr $C$DW$7, DW_AT_type(*$C$DW$T$8)
TMS320C55x Assembler PC v4.4.1 Wed Sep 13 16:33:23 2017

Tools Copyright (c) 1996-2012 Texas Instruments Incorporated
C:\Users\a0221074\AppData\Local\Temp\1618010                         PAGE    2

      55              $C$DW$8 .dwtag  DW_TAG_formal_parameter
      56                      .dwattr $C$DW$8, DW_AT_type(*$C$DW$T$8)
      57              $C$DW$9 .dwtag  DW_TAG_formal_parameter
      58                      .dwattr $C$DW$9, DW_AT_type(*$C$DW$T$22)
      59              $C$DW$10        .dwtag  DW_TAG_formal_parameter
      60                      .dwattr $C$DW$10, DW_AT_type(*$C$DW$T$22)
      61              $C$DW$11        .dwtag  DW_TAG_formal_parameter
      62                      .dwattr $C$DW$11, DW_AT_type(*$C$DW$T$22)
      63              $C$DW$12        .dwtag  DW_TAG_formal_parameter
      64                      .dwattr $C$DW$12, DW_AT_type(*$C$DW$T$22)
      65              $C$DW$13        .dwtag  DW_TAG_formal_parameter
      66                      .dwattr $C$DW$13, DW_AT_type(*$C$DW$T$22)
      67              $C$DW$14        .dwtag  DW_TAG_formal_parameter
      68                      .dwattr $C$DW$14, DW_AT_type(*$C$DW$T$98)
      69                      .dwendtag $C$DW$6
      70              
      71              
      72              $C$DW$15        .dwtag  DW_TAG_subprogram, DW_AT_name("EM_alpha_t")
      73                      .dwattr $C$DW$15, DW_AT_TI_symbol_name("_EM_alpha_t")
      74                      .dwattr $C$DW$15, DW_AT_type(*$C$DW$T$21)
      75                      .dwattr $C$DW$15, DW_AT_declaration
      76                      .dwattr $C$DW$15, DW_AT_external
      77              $C$DW$16        .dwtag  DW_TAG_formal_parameter
      78                      .dwattr $C$DW$16, DW_AT_type(*$C$DW$T$21)
      79              $C$DW$17        .dwtag  DW_TAG_formal_parameter
      80                      .dwattr $C$DW$17, DW_AT_type(*$C$DW$T$21)
      81              $C$DW$18        .dwtag  DW_TAG_formal_parameter
      82                      .dwattr $C$DW$18, DW_AT_type(*$C$DW$T$20)
      83              $C$DW$19        .dwtag  DW_TAG_formal_parameter
      84                      .dwattr $C$DW$19, DW_AT_type(*$C$DW$T$20)
      85              $C$DW$20        .dwtag  DW_TAG_formal_parameter
      86                      .dwattr $C$DW$20, DW_AT_type(*$C$DW$T$119)
      87              $C$DW$21        .dwtag  DW_TAG_formal_parameter
      88                      .dwattr $C$DW$21, DW_AT_type(*$C$DW$T$21)
      89              $C$DW$22        .dwtag  DW_TAG_formal_parameter
      90                      .dwattr $C$DW$22, DW_AT_type(*$C$DW$T$98)
      91                      .dwendtag $C$DW$15
      92              
      93              
      94              $C$DW$23        .dwtag  DW_TAG_subprogram, DW_AT_name("EM_beta")
      95                      .dwattr $C$DW$23, DW_AT_TI_symbol_name("_EM_beta")
      96                      .dwattr $C$DW$23, DW_AT_type(*$C$DW$T$12)
      97                      .dwattr $C$DW$23, DW_AT_declaration
      98                      .dwattr $C$DW$23, DW_AT_external
      99              $C$DW$24        .dwtag  DW_TAG_formal_parameter
     100                      .dwattr $C$DW$24, DW_AT_type(*$C$DW$T$21)
     101              $C$DW$25        .dwtag  DW_TAG_formal_parameter
     102                      .dwattr $C$DW$25, DW_AT_type(*$C$DW$T$21)
     103              $C$DW$26        .dwtag  DW_TAG_formal_parameter
     104                      .dwattr $C$DW$26, DW_AT_type(*$C$DW$T$20)
     105              $C$DW$27        .dwtag  DW_TAG_formal_parameter
     106                      .dwattr $C$DW$27, DW_AT_type(*$C$DW$T$119)
     107              $C$DW$28        .dwtag  DW_TAG_formal_parameter
     108                      .dwattr $C$DW$28, DW_AT_type(*$C$DW$T$21)
     109              $C$DW$29        .dwtag  DW_TAG_formal_parameter
TMS320C55x Assembler PC v4.4.1 Wed Sep 13 16:33:23 2017

Tools Copyright (c) 1996-2012 Texas Instruments Incorporated
C:\Users\a0221074\AppData\Local\Temp\1618010                         PAGE    3

     110                      .dwattr $C$DW$29, DW_AT_type(*$C$DW$T$98)
     111                      .dwendtag $C$DW$23
     112              
     113              
     114              $C$DW$30        .dwtag  DW_TAG_subprogram, DW_AT_name("hlr_gauss_obs_score_f")
     115                      .dwattr $C$DW$30, DW_AT_TI_symbol_name("_hlr_gauss_obs_score_f")
     116                      .dwattr $C$DW$30, DW_AT_type(*$C$DW$T$8)
     117                      .dwattr $C$DW$30, DW_AT_declaration
     118                      .dwattr $C$DW$30, DW_AT_external
     119              $C$DW$31        .dwtag  DW_TAG_formal_parameter
     120                      .dwattr $C$DW$31, DW_AT_type(*$C$DW$T$58)
     121              $C$DW$32        .dwtag  DW_TAG_formal_parameter
     122                      .dwattr $C$DW$32, DW_AT_type(*$C$DW$T$10)
     123              $C$DW$33        .dwtag  DW_TAG_formal_parameter
     124                      .dwattr $C$DW$33, DW_AT_type(*$C$DW$T$127)
     125              $C$DW$34        .dwtag  DW_TAG_formal_parameter
     126                      .dwattr $C$DW$34, DW_AT_type(*$C$DW$T$21)
     127              $C$DW$35        .dwtag  DW_TAG_formal_parameter
     128                      .dwattr $C$DW$35, DW_AT_type(*$C$DW$T$57)
     129              $C$DW$36        .dwtag  DW_TAG_formal_parameter
     130                      .dwattr $C$DW$36, DW_AT_type(*$C$DW$T$160)
     131                      .dwendtag $C$DW$30
     132              
     133              
     134              $C$DW$37        .dwtag  DW_TAG_subprogram, DW_AT_name("hlr_expn")
     135                      .dwattr $C$DW$37, DW_AT_TI_symbol_name("_hlr_expn")
     136                      .dwattr $C$DW$37, DW_AT_type(*$C$DW$T$9)
     137                      .dwattr $C$DW$37, DW_AT_declaration
     138                      .dwattr $C$DW$37, DW_AT_external
     139              $C$DW$38        .dwtag  DW_TAG_formal_parameter
     140                      .dwattr $C$DW$38, DW_AT_type(*$C$DW$T$8)
     141              $C$DW$39        .dwtag  DW_TAG_formal_parameter
     142                      .dwattr $C$DW$39, DW_AT_type(*$C$DW$T$8)
     143                      .dwendtag $C$DW$37
     144              
     145              
     146              $C$DW$40        .dwtag  DW_TAG_subprogram, DW_AT_name("q15_x")
     147                      .dwattr $C$DW$40, DW_AT_TI_symbol_name("_q15_x")
     148                      .dwattr $C$DW$40, DW_AT_type(*$C$DW$T$12)
     149                      .dwattr $C$DW$40, DW_AT_declaration
     150                      .dwattr $C$DW$40, DW_AT_external
     151              $C$DW$41        .dwtag  DW_TAG_formal_parameter
     152                      .dwattr $C$DW$41, DW_AT_type(*$C$DW$T$20)
     153              $C$DW$42        .dwtag  DW_TAG_formal_parameter
     154                      .dwattr $C$DW$42, DW_AT_type(*$C$DW$T$12)
     155                      .dwendtag $C$DW$40
     156              
     157              
     158              $C$DW$43        .dwtag  DW_TAG_subprogram, DW_AT_name("div32_32")
     159                      .dwattr $C$DW$43, DW_AT_TI_symbol_name("_div32_32")
     160                      .dwattr $C$DW$43, DW_AT_type(*$C$DW$T$12)
     161                      .dwattr $C$DW$43, DW_AT_declaration
     162                      .dwattr $C$DW$43, DW_AT_external
     163              $C$DW$44        .dwtag  DW_TAG_formal_parameter
     164                      .dwattr $C$DW$44, DW_AT_type(*$C$DW$T$12)
TMS320C55x Assembler PC v4.4.1 Wed Sep 13 16:33:23 2017

Tools Copyright (c) 1996-2012 Texas Instruments Incorporated
C:\Users\a0221074\AppData\Local\Temp\1618010                         PAGE    4

     165              $C$DW$45        .dwtag  DW_TAG_formal_parameter
     166                      .dwattr $C$DW$45, DW_AT_type(*$C$DW$T$12)
     167                      .dwendtag $C$DW$43
     168              
     169              
     170              $C$DW$46        .dwtag  DW_TAG_subprogram, DW_AT_name("cos_transform")
     171                      .dwattr $C$DW$46, DW_AT_TI_symbol_name("_cos_transform")
     172                      .dwattr $C$DW$46, DW_AT_declaration
     173                      .dwattr $C$DW$46, DW_AT_external
     174              $C$DW$47        .dwtag  DW_TAG_formal_parameter
     175                      .dwattr $C$DW$47, DW_AT_type(*$C$DW$T$21)
     176              $C$DW$48        .dwtag  DW_TAG_formal_parameter
     177                      .dwattr $C$DW$48, DW_AT_type(*$C$DW$T$21)
     178              $C$DW$49        .dwtag  DW_TAG_formal_parameter
     179                      .dwattr $C$DW$49, DW_AT_type(*$C$DW$T$58)
     180              $C$DW$50        .dwtag  DW_TAG_formal_parameter
     181                      .dwattr $C$DW$50, DW_AT_type(*$C$DW$T$57)
     182              $C$DW$51        .dwtag  DW_TAG_formal_parameter
     183                      .dwattr $C$DW$51, DW_AT_type(*$C$DW$T$57)
     184              $C$DW$52        .dwtag  DW_TAG_formal_parameter
     185                      .dwattr $C$DW$52, DW_AT_type(*$C$DW$T$128)
     186                      .dwendtag $C$DW$46
     187              
     188              
     189              $C$DW$53        .dwtag  DW_TAG_subprogram, DW_AT_name("vector_unpacking")
     190                      .dwattr $C$DW$53, DW_AT_TI_symbol_name("_vector_unpacking")
     191                      .dwattr $C$DW$53, DW_AT_declaration
     192                      .dwattr $C$DW$53, DW_AT_external
     193              $C$DW$54        .dwtag  DW_TAG_formal_parameter
     194                      .dwattr $C$DW$54, DW_AT_type(*$C$DW$T$132)
     195              $C$DW$55        .dwtag  DW_TAG_formal_parameter
     196                      .dwattr $C$DW$55, DW_AT_type(*$C$DW$T$21)
     197              $C$DW$56        .dwtag  DW_TAG_formal_parameter
     198                      .dwattr $C$DW$56, DW_AT_type(*$C$DW$T$58)
     199              $C$DW$57        .dwtag  DW_TAG_formal_parameter
     200                      .dwattr $C$DW$57, DW_AT_type(*$C$DW$T$8)
     201                      .dwendtag $C$DW$53
     202              
     203              
     204              $C$DW$58        .dwtag  DW_TAG_subprogram, DW_AT_name("log_spectral_compensation")
     205                      .dwattr $C$DW$58, DW_AT_TI_symbol_name("_log_spectral_compensation")
     206                      .dwattr $C$DW$58, DW_AT_declaration
     207                      .dwattr $C$DW$58, DW_AT_external
     208              $C$DW$59        .dwtag  DW_TAG_formal_parameter
     209                      .dwattr $C$DW$59, DW_AT_type(*$C$DW$T$21)
     210              $C$DW$60        .dwtag  DW_TAG_formal_parameter
     211                      .dwattr $C$DW$60, DW_AT_type(*$C$DW$T$21)
     212              $C$DW$61        .dwtag  DW_TAG_formal_parameter
     213                      .dwattr $C$DW$61, DW_AT_type(*$C$DW$T$21)
     214              $C$DW$62        .dwtag  DW_TAG_formal_parameter
     215                      .dwattr $C$DW$62, DW_AT_type(*$C$DW$T$21)
     216              $C$DW$63        .dwtag  DW_TAG_formal_parameter
     217                      .dwattr $C$DW$63, DW_AT_type(*$C$DW$T$58)
     218              $C$DW$64        .dwtag  DW_TAG_formal_parameter
     219                      .dwattr $C$DW$64, DW_AT_type(*$C$DW$T$58)
TMS320C55x Assembler PC v4.4.1 Wed Sep 13 16:33:23 2017

Tools Copyright (c) 1996-2012 Texas Instruments Incorporated
C:\Users\a0221074\AppData\Local\Temp\1618010                         PAGE    5

     220              $C$DW$65        .dwtag  DW_TAG_formal_parameter
     221                      .dwattr $C$DW$65, DW_AT_type(*$C$DW$T$8)
     222              $C$DW$66        .dwtag  DW_TAG_formal_parameter
     223                      .dwattr $C$DW$66, DW_AT_type(*$C$DW$T$21)
     224              $C$DW$67        .dwtag  DW_TAG_formal_parameter
     225                      .dwattr $C$DW$67, DW_AT_type(*$C$DW$T$8)
     226                      .dwendtag $C$DW$58
     227              
     228              
     229              $C$DW$68        .dwtag  DW_TAG_subprogram, DW_AT_name("observation_likelihood")
     230                      .dwattr $C$DW$68, DW_AT_TI_symbol_name("_observation_likelihood")
     231                      .dwattr $C$DW$68, DW_AT_declaration
     232                      .dwattr $C$DW$68, DW_AT_external
     233              $C$DW$69        .dwtag  DW_TAG_formal_parameter
     234                      .dwattr $C$DW$69, DW_AT_type(*$C$DW$T$20)
     235              $C$DW$70        .dwtag  DW_TAG_formal_parameter
     236                      .dwattr $C$DW$70, DW_AT_type(*$C$DW$T$8)
     237              $C$DW$71        .dwtag  DW_TAG_formal_parameter
     238                      .dwattr $C$DW$71, DW_AT_type(*$C$DW$T$119)
     239              $C$DW$72        .dwtag  DW_TAG_formal_parameter
     240                      .dwattr $C$DW$72, DW_AT_type(*$C$DW$T$21)
     241              $C$DW$73        .dwtag  DW_TAG_formal_parameter
     242                      .dwattr $C$DW$73, DW_AT_type(*$C$DW$T$8)
     243              $C$DW$74        .dwtag  DW_TAG_formal_parameter
     244                      .dwattr $C$DW$74, DW_AT_type(*$C$DW$T$98)
     245                      .dwendtag $C$DW$68
     246              
     247              
     248              $C$DW$75        .dwtag  DW_TAG_subprogram, DW_AT_name("cm_load")
     249                      .dwattr $C$DW$75, DW_AT_TI_symbol_name("_cm_load")
     250                      .dwattr $C$DW$75, DW_AT_declaration
     251                      .dwattr $C$DW$75, DW_AT_external
     252              $C$DW$76        .dwtag  DW_TAG_formal_parameter
     253                      .dwattr $C$DW$76, DW_AT_type(*$C$DW$T$98)
     254                      .dwendtag $C$DW$75
     255              
     256              
     257              $C$DW$77        .dwtag  DW_TAG_subprogram, DW_AT_name("cm_save")
     258                      .dwattr $C$DW$77, DW_AT_TI_symbol_name("_cm_save")
     259                      .dwattr $C$DW$77, DW_AT_declaration
     260                      .dwattr $C$DW$77, DW_AT_external
     261              $C$DW$78        .dwtag  DW_TAG_formal_parameter
     262                      .dwattr $C$DW$78, DW_AT_type(*$C$DW$T$121)
     263              $C$DW$79        .dwtag  DW_TAG_formal_parameter
     264                      .dwattr $C$DW$79, DW_AT_type(*$C$DW$T$98)
     265                      .dwendtag $C$DW$77
     266              
     267              
     268              $C$DW$80        .dwtag  DW_TAG_subprogram, DW_AT_name("cm_acc_seg_ratio_to_antimodel")
     269                      .dwattr $C$DW$80, DW_AT_TI_symbol_name("_cm_acc_seg_ratio_to_antimodel")
     270                      .dwattr $C$DW$80, DW_AT_declaration
     271                      .dwattr $C$DW$80, DW_AT_external
     272              $C$DW$81        .dwtag  DW_TAG_formal_parameter
     273                      .dwattr $C$DW$81, DW_AT_type(*$C$DW$T$98)
     274              $C$DW$82        .dwtag  DW_TAG_formal_parameter
TMS320C55x Assembler PC v4.4.1 Wed Sep 13 16:33:23 2017

Tools Copyright (c) 1996-2012 Texas Instruments Incorporated
C:\Users\a0221074\AppData\Local\Temp\1618010                         PAGE    6

     275                      .dwattr $C$DW$82, DW_AT_type(*$C$DW$T$20)
     276              $C$DW$83        .dwtag  DW_TAG_formal_parameter
     277                      .dwattr $C$DW$83, DW_AT_type(*$C$DW$T$8)
     278              $C$DW$84        .dwtag  DW_TAG_formal_parameter
     279                      .dwattr $C$DW$84, DW_AT_type(*$C$DW$T$8)
     280              $C$DW$85        .dwtag  DW_TAG_formal_parameter
     281                      .dwattr $C$DW$85, DW_AT_type(*$C$DW$T$12)
     282                      .dwendtag $C$DW$80
     283              
     284              
     285              $C$DW$86        .dwtag  DW_TAG_subprogram, DW_AT_name("cm_freeze")
     286                      .dwattr $C$DW$86, DW_AT_TI_symbol_name("_cm_freeze")
     287                      .dwattr $C$DW$86, DW_AT_declaration
     288                      .dwattr $C$DW$86, DW_AT_external
     289              $C$DW$87        .dwtag  DW_TAG_formal_parameter
     290                      .dwattr $C$DW$87, DW_AT_type(*$C$DW$T$93)
     291                      .dwendtag $C$DW$86
     292              
     293              
     294              $C$DW$88        .dwtag  DW_TAG_subprogram, DW_AT_name("cm_update_status")
     295                      .dwattr $C$DW$88, DW_AT_TI_symbol_name("_cm_update_status")
     296                      .dwattr $C$DW$88, DW_AT_declaration
     297                      .dwattr $C$DW$88, DW_AT_external
     298              $C$DW$89        .dwtag  DW_TAG_formal_parameter
     299                      .dwattr $C$DW$89, DW_AT_type(*$C$DW$T$98)
     300                      .dwendtag $C$DW$88
     301              
     302              
     303              $C$DW$90        .dwtag  DW_TAG_subprogram, DW_AT_name("cm_backup_adp")
     304                      .dwattr $C$DW$90, DW_AT_TI_symbol_name("_cm_backup_adp")
     305                      .dwattr $C$DW$90, DW_AT_declaration
     306                      .dwattr $C$DW$90, DW_AT_external
     307              $C$DW$91        .dwtag  DW_TAG_formal_parameter
     308                      .dwattr $C$DW$91, DW_AT_type(*$C$DW$T$98)
     309                      .dwendtag $C$DW$90
     310              
     311              
     312              $C$DW$92        .dwtag  DW_TAG_subprogram, DW_AT_name("cm_restore_adp")
     313                      .dwattr $C$DW$92, DW_AT_TI_symbol_name("_cm_restore_adp")
     314                      .dwattr $C$DW$92, DW_AT_declaration
     315                      .dwattr $C$DW$92, DW_AT_external
     316              $C$DW$93        .dwtag  DW_TAG_formal_parameter
     317                      .dwattr $C$DW$93, DW_AT_type(*$C$DW$T$98)
     318                      .dwendtag $C$DW$92
     319              
     320              
     321              $C$DW$94        .dwtag  DW_TAG_subprogram, DW_AT_name("my_fwrite")
     322                      .dwattr $C$DW$94, DW_AT_TI_symbol_name("_my_fwrite")
     323                      .dwattr $C$DW$94, DW_AT_type(*$C$DW$T$189)
     324                      .dwattr $C$DW$94, DW_AT_declaration
     325                      .dwattr $C$DW$94, DW_AT_external
     326              $C$DW$95        .dwtag  DW_TAG_formal_parameter
     327                      .dwattr $C$DW$95, DW_AT_type(*$C$DW$T$3)
     328              $C$DW$96        .dwtag  DW_TAG_formal_parameter
     329                      .dwattr $C$DW$96, DW_AT_type(*$C$DW$T$189)
TMS320C55x Assembler PC v4.4.1 Wed Sep 13 16:33:23 2017

Tools Copyright (c) 1996-2012 Texas Instruments Incorporated
C:\Users\a0221074\AppData\Local\Temp\1618010                         PAGE    7

     330              $C$DW$97        .dwtag  DW_TAG_formal_parameter
     331                      .dwattr $C$DW$97, DW_AT_type(*$C$DW$T$189)
     332              $C$DW$98        .dwtag  DW_TAG_formal_parameter
     333                      .dwattr $C$DW$98, DW_AT_type(*$C$DW$T$121)
     334                      .dwendtag $C$DW$94
     335              
     336              
     337              $C$DW$99        .dwtag  DW_TAG_subprogram, DW_AT_name("my_fopen")
     338                      .dwattr $C$DW$99, DW_AT_TI_symbol_name("_my_fopen")
     339                      .dwattr $C$DW$99, DW_AT_type(*$C$DW$T$121)
     340                      .dwattr $C$DW$99, DW_AT_declaration
     341                      .dwattr $C$DW$99, DW_AT_external
     342              $C$DW$100       .dwtag  DW_TAG_formal_parameter
     343                      .dwattr $C$DW$100, DW_AT_type(*$C$DW$T$110)
     344              $C$DW$101       .dwtag  DW_TAG_formal_parameter
     345                      .dwattr $C$DW$101, DW_AT_type(*$C$DW$T$110)
     346                      .dwendtag $C$DW$99
     347              
     348              
     349              $C$DW$102       .dwtag  DW_TAG_subprogram, DW_AT_name("my_fclose")
     350                      .dwattr $C$DW$102, DW_AT_TI_symbol_name("_my_fclose")
     351                      .dwattr $C$DW$102, DW_AT_type(*$C$DW$T$174)
     352                      .dwattr $C$DW$102, DW_AT_declaration
     353                      .dwattr $C$DW$102, DW_AT_external
     354              $C$DW$103       .dwtag  DW_TAG_formal_parameter
     355                      .dwattr $C$DW$103, DW_AT_type(*$C$DW$T$121)
     356                      .dwendtag $C$DW$102
     357              
     358 000000               .sect   ".const"
     359                      .align  1
     360 000000       _VEC_PER_FRAME_DEFAULT:
     361 000000 0050          .field  80,16                   ; _VEC_PER_FRAME_DEFAULT @ 0
     362              
     363              $C$DW$104       .dwtag  DW_TAG_variable, DW_AT_name("VEC_PER_FRAME_DEFAULT")
     364                      .dwattr $C$DW$104, DW_AT_TI_symbol_name("_VEC_PER_FRAME_DEFAULT")
     365                      .dwattr $C$DW$104, DW_AT_type(*$C$DW$T$57)
     366                      .dwattr $C$DW$104, DW_AT_location[DW_OP_addr _VEC_PER_FRAME_DEFAULT]
     367 000001               .sect   ".const"
     368                      .align  1
     369 000001       _COMPONENT_LIKELIHOOD_DEFAULT:
     370 000001 FD65          .field  -667,16                 ; _COMPONENT_LIKELIHOOD_DEFAULT @ 0
     371              
     372              $C$DW$105       .dwtag  DW_TAG_variable, DW_AT_name("COMPONENT_LIKELIHOOD_DEFAULT")
     373                      .dwattr $C$DW$105, DW_AT_TI_symbol_name("_COMPONENT_LIKELIHOOD_DEFAULT")
     374                      .dwattr $C$DW$105, DW_AT_type(*$C$DW$T$57)
     375                      .dwattr $C$DW$105, DW_AT_location[DW_OP_addr _COMPONENT_LIKELIHOOD_DEFAULT]
     376 000002               .sect   ".const"
     377                      .align  1
     378 000002       _MAX_SEG_SIZE_DEFAULT:
     379 000002 000F          .field  15,16                   ; _MAX_SEG_SIZE_DEFAULT @ 0
     380              
     381              $C$DW$106       .dwtag  DW_TAG_variable, DW_AT_name("MAX_SEG_SIZE_DEFAULT")
     382                      .dwattr $C$DW$106, DW_AT_TI_symbol_name("_MAX_SEG_SIZE_DEFAULT")
     383                      .dwattr $C$DW$106, DW_AT_type(*$C$DW$T$57)
     384                      .dwattr $C$DW$106, DW_AT_location[DW_OP_addr _MAX_SEG_SIZE_DEFAULT]
TMS320C55x Assembler PC v4.4.1 Wed Sep 13 16:33:23 2017

Tools Copyright (c) 1996-2012 Texas Instruments Incorporated
C:\Users\a0221074\AppData\Local\Temp\1618010                         PAGE    8

     385 000003               .sect   ".const"
     386                      .align  1
     387 000003       _SMOOTH_COEF_DEFAULT:
     388 000003 4CCC          .field  19660,16                        ; _SMOOTH_COEF_DEFAULT @ 0
     389              
     390              $C$DW$107       .dwtag  DW_TAG_variable, DW_AT_name("SMOOTH_COEF_DEFAULT")
     391                      .dwattr $C$DW$107, DW_AT_TI_symbol_name("_SMOOTH_COEF_DEFAULT")
     392                      .dwattr $C$DW$107, DW_AT_type(*$C$DW$T$57)
     393                      .dwattr $C$DW$107, DW_AT_location[DW_OP_addr _SMOOTH_COEF_DEFAULT]
     394 000004               .sect   ".const"
     395                      .align  1
     396 000004       _DISCOUNT_FACTOR_DEFAULT:
     397 000004 6666          .field  26214,16                        ; _DISCOUNT_FACTOR_DEFAULT @ 0
     398              
     399              $C$DW$108       .dwtag  DW_TAG_variable, DW_AT_name("DISCOUNT_FACTOR_DEFAULT")
     400                      .dwattr $C$DW$108, DW_AT_TI_symbol_name("_DISCOUNT_FACTOR_DEFAULT")
     401                      .dwattr $C$DW$108, DW_AT_type(*$C$DW$T$57)
     402                      .dwattr $C$DW$108, DW_AT_location[DW_OP_addr _DISCOUNT_FACTOR_DEFAULT]
     403 000005               .sect   ".const"
     404                      .align  1
     405 000005       _DEWEIGHT_FACTOR_DEFAULT:
     406 000005 2666          .field  9830,16                 ; _DEWEIGHT_FACTOR_DEFAULT @ 0
     407              
     408              $C$DW$109       .dwtag  DW_TAG_variable, DW_AT_name("DEWEIGHT_FACTOR_DEFAULT")
     409                      .dwattr $C$DW$109, DW_AT_TI_symbol_name("_DEWEIGHT_FACTOR_DEFAULT")
     410                      .dwattr $C$DW$109, DW_AT_type(*$C$DW$T$57)
     411                      .dwattr $C$DW$109, DW_AT_location[DW_OP_addr _DEWEIGHT_FACTOR_DEFAULT]
     412 000006               .sect   ".const"
     413                      .align  1
     414 000006       _BAYESIAN_WEIGHT_DEFAULT:
     415 000006 0147          .field  327,16                  ; _BAYESIAN_WEIGHT_DEFAULT @ 0
     416              
     417              $C$DW$110       .dwtag  DW_TAG_variable, DW_AT_name("BAYESIAN_WEIGHT_DEFAULT")
     418                      .dwattr $C$DW$110, DW_AT_TI_symbol_name("_BAYESIAN_WEIGHT_DEFAULT")
     419                      .dwattr $C$DW$110, DW_AT_type(*$C$DW$T$57)
     420                      .dwattr $C$DW$110, DW_AT_location[DW_OP_addr _BAYESIAN_WEIGHT_DEFAULT]
     421 000000               .sect   ".const:_pPriorChannelInvvar"
     422                      .clink
     423                      .align  2
     424 000000       _pPriorChannelInvvar:
     425 000000 0000          .field  4179,32                 ; _pPriorChannelInvvar[0] @ 0
         000001 1053 
     426 000002 0000          .field  7023,32                 ; _pPriorChannelInvvar[1] @ 32
         000003 1B6F 
     427 000004 0000          .field  8192,32                 ; _pPriorChannelInvvar[2] @ 64
         000005 2000 
     428 000006 0000          .field  7574,32                 ; _pPriorChannelInvvar[3] @ 96
         000007 1D96 
     429 000008 0000          .field  8192,32                 ; _pPriorChannelInvvar[4] @ 128
         000009 2000 
     430 00000a 0000          .field  8888,32                 ; _pPriorChannelInvvar[5] @ 160
         00000b 22B8 
     431 00000c 0000          .field  10579,32                        ; _pPriorChannelInvvar[6] @ 192
         00000d 2953 
     432 00000e 0000          .field  9678,32                 ; _pPriorChannelInvvar[7] @ 224
TMS320C55x Assembler PC v4.4.1 Wed Sep 13 16:33:23 2017

Tools Copyright (c) 1996-2012 Texas Instruments Incorporated
C:\Users\a0221074\AppData\Local\Temp\1618010                         PAGE    9

         00000f 25CE 
     433 000010 0000          .field  8192,32                 ; _pPriorChannelInvvar[8] @ 256
         000011 2000 
     434 000012 0000          .field  8192,32                 ; _pPriorChannelInvvar[9] @ 288
         000013 2000 
     435 000014 0000          .field  12800,32                        ; _pPriorChannelInvvar[10] @ 320
         000015 3200 
     436 000016 0000          .field  12800,32                        ; _pPriorChannelInvvar[11] @ 352
         000017 3200 
     437 000018 0000          .field  12800,32                        ; _pPriorChannelInvvar[12] @ 384
         000019 3200 
     438 00001a 0000          .field  12800,32                        ; _pPriorChannelInvvar[13] @ 416
         00001b 3200 
     439 00001c 0000          .field  14183,32                        ; _pPriorChannelInvvar[14] @ 448
         00001d 3767 
     440 00001e 0000          .field  14183,32                        ; _pPriorChannelInvvar[15] @ 480
         00001f 3767 
     441 000020 0000          .field  8192,32                 ; _pPriorChannelInvvar[16] @ 512
         000021 2000 
     442 000022 0000          .field  17716,32                        ; _pPriorChannelInvvar[17] @ 544
         000023 4534 
     443 000024 0000          .field  10579,32                        ; _pPriorChannelInvvar[18] @ 576
         000025 2953 
     444 000026 0000          .field  7574,32                 ; _pPriorChannelInvvar[19] @ 608
         000027 1D96 
     445 000028 0000          .field  7574,32                 ; _pPriorChannelInvvar[20] @ 640
         000029 1D96 
     446 00002a 0000          .field  9678,32                 ; _pPriorChannelInvvar[21] @ 672
         00002b 25CE 
     447 00002c 0000          .field  10579,32                        ; _pPriorChannelInvvar[22] @ 704
         00002d 2953 
     448 00002e 0000          .field  9678,32                 ; _pPriorChannelInvvar[23] @ 736
         00002f 25CE 
     449 000030 0000          .field  8192,32                 ; _pPriorChannelInvvar[24] @ 768
         000031 2000 
     450 000032 0008          .field  568890,32                       ; _pPriorChannelInvvar[25] @ 800
         000033 AE3A 
     451              
     452              $C$DW$111       .dwtag  DW_TAG_variable, DW_AT_name("pPriorChannelInvvar")
     453                      .dwattr $C$DW$111, DW_AT_TI_symbol_name("_pPriorChannelInvvar")
     454                      .dwattr $C$DW$111, DW_AT_type(*$C$DW$T$185)
     455                      .dwattr $C$DW$111, DW_AT_location[DW_OP_addr _pPriorChannelInvvar]
     456 000007               .sect   ".const"
     457                      .align  1
     458 000007       _VAR_FORGET_FACTOR_DEFAULT:
     459 000007 0004          .field  4,16                    ; _VAR_FORGET_FACTOR_DEFAULT @ 0
     460              
     461              $C$DW$112       .dwtag  DW_TAG_variable, DW_AT_name("VAR_FORGET_FACTOR_DEFAULT")
     462                      .dwattr $C$DW$112, DW_AT_TI_symbol_name("_VAR_FORGET_FACTOR_DEFAULT")
     463                      .dwattr $C$DW$112, DW_AT_type(*$C$DW$T$57)
     464                      .dwattr $C$DW$112, DW_AT_location[DW_OP_addr _VAR_FORGET_FACTOR_DEFAULT]
     465              ;       C:\ti\ccsv7\tools\compiler\c5500_4.4.1\bin\acp55.exe -@C:\\Users\\a0221074\\AppData\\Local\\Temp\\161
     466 000000               .sect   ".text:_ijac_update_t"
     467                      .clink
     468              
TMS320C55x Assembler PC v4.4.1 Wed Sep 13 16:33:23 2017

Tools Copyright (c) 1996-2012 Texas Instruments Incorporated
C:\Users\a0221074\AppData\Local\Temp\1618010                         PAGE   10

     469              $C$DW$113       .dwtag  DW_TAG_subprogram, DW_AT_name("ijac_update_t")
     470                      .dwattr $C$DW$113, DW_AT_low_pc(_ijac_update_t)
     471                      .dwattr $C$DW$113, DW_AT_high_pc(0x00)
     472                      .dwattr $C$DW$113, DW_AT_TI_symbol_name("_ijac_update_t")
     473                      .dwattr $C$DW$113, DW_AT_TI_begin_file("C:/Users/a0221074/Desktop/C5000/IBM_Watson_TIdesign_workarea/
     474                      .dwattr $C$DW$113, DW_AT_TI_begin_line(0x56)
     475                      .dwattr $C$DW$113, DW_AT_TI_begin_column(0x0d)
     476                      .dwattr $C$DW$113, DW_AT_TI_max_frame_size(0x66)
     477                      .dwpsn  file "C:/Users/a0221074/Desktop/C5000/IBM_Watson_TIdesign_workarea/CSL_bitbucket/c55_csl/c55x
     478              
     479                      .dwfde $C$DW$CIE, _ijac_update_t
     480              $C$DW$114       .dwtag  DW_TAG_formal_parameter, DW_AT_name("jac_hmm")
     481                      .dwattr $C$DW$114, DW_AT_TI_symbol_name("_jac_hmm")
     482                      .dwattr $C$DW$114, DW_AT_type(*$C$DW$T$119)
     483                      .dwattr $C$DW$114, DW_AT_location[DW_OP_reg17]
     484              $C$DW$115       .dwtag  DW_TAG_formal_parameter, DW_AT_name("pdfa")
     485                      .dwattr $C$DW$115, DW_AT_TI_symbol_name("_pdfa")
     486                      .dwattr $C$DW$115, DW_AT_type(*$C$DW$T$21)
     487                      .dwattr $C$DW$115, DW_AT_location[DW_OP_reg19]
     488              $C$DW$116       .dwtag  DW_TAG_formal_parameter, DW_AT_name("ap")
     489                      .dwattr $C$DW$116, DW_AT_TI_symbol_name("_ap")
     490                      .dwattr $C$DW$116, DW_AT_type(*$C$DW$T$58)
     491                      .dwattr $C$DW$116, DW_AT_location[DW_OP_reg21]
     492              $C$DW$117       .dwtag  DW_TAG_formal_parameter, DW_AT_name("bp")
     493                      .dwattr $C$DW$117, DW_AT_TI_symbol_name("_bp")
     494                      .dwattr $C$DW$117, DW_AT_type(*$C$DW$T$58)
     495                      .dwattr $C$DW$117, DW_AT_location[DW_OP_reg23]
     496              $C$DW$118       .dwtag  DW_TAG_formal_parameter, DW_AT_name("vec")
     497                      .dwattr $C$DW$118, DW_AT_TI_symbol_name("_vec")
     498                      .dwattr $C$DW$118, DW_AT_type(*$C$DW$T$58)
     499                      .dwattr $C$DW$118, DW_AT_location[DW_OP_reg25]
     500              $C$DW$119       .dwtag  DW_TAG_formal_parameter, DW_AT_name("log_vec")
     501                      .dwattr $C$DW$119, DW_AT_TI_symbol_name("_log_vec")
     502                      .dwattr $C$DW$119, DW_AT_type(*$C$DW$T$58)
     503                      .dwattr $C$DW$119, DW_AT_location[DW_OP_bregx 0x24 102]
     504              $C$DW$120       .dwtag  DW_TAG_formal_parameter, DW_AT_name("T")
     505                      .dwattr $C$DW$120, DW_AT_TI_symbol_name("_T")
     506                      .dwattr $C$DW$120, DW_AT_type(*$C$DW$T$147)
     507                      .dwattr $C$DW$120, DW_AT_location[DW_OP_reg12]
     508              $C$DW$121       .dwtag  DW_TAG_formal_parameter, DW_AT_name("accum")
     509                      .dwattr $C$DW$121, DW_AT_TI_symbol_name("_accum")
     510                      .dwattr $C$DW$121, DW_AT_type(*$C$DW$T$47)
     511                      .dwattr $C$DW$121, DW_AT_location[DW_OP_bregx 0x24 104]
     512              $C$DW$122       .dwtag  DW_TAG_formal_parameter, DW_AT_name("log_H")
     513                      .dwattr $C$DW$122, DW_AT_TI_symbol_name("_log_H")
     514                      .dwattr $C$DW$122, DW_AT_type(*$C$DW$T$58)
     515                      .dwattr $C$DW$122, DW_AT_location[DW_OP_bregx 0x24 106]
     516              $C$DW$123       .dwtag  DW_TAG_formal_parameter, DW_AT_name("log_N")
     517                      .dwattr $C$DW$123, DW_AT_TI_symbol_name("_log_N")
     518                      .dwattr $C$DW$123, DW_AT_type(*$C$DW$T$58)
     519                      .dwattr $C$DW$123, DW_AT_location[DW_OP_bregx 0x24 108]
     520              $C$DW$124       .dwtag  DW_TAG_formal_parameter, DW_AT_name("n_mfcc")
     521                      .dwattr $C$DW$124, DW_AT_TI_symbol_name("_n_mfcc")
     522                      .dwattr $C$DW$124, DW_AT_type(*$C$DW$T$57)
     523                      .dwattr $C$DW$124, DW_AT_location[DW_OP_reg13]
TMS320C55x Assembler PC v4.4.1 Wed Sep 13 16:33:23 2017

Tools Copyright (c) 1996-2012 Texas Instruments Incorporated
C:\Users\a0221074\AppData\Local\Temp\1618010                         PAGE   11

     524              $C$DW$125       .dwtag  DW_TAG_formal_parameter, DW_AT_name("temp_freq")
     525                      .dwattr $C$DW$125, DW_AT_TI_symbol_name("_temp_freq")
     526                      .dwattr $C$DW$125, DW_AT_type(*$C$DW$T$21)
     527                      .dwattr $C$DW$125, DW_AT_location[DW_OP_bregx 0x24 110]
     528              $C$DW$126       .dwtag  DW_TAG_formal_parameter, DW_AT_name("gv")
     529                      .dwattr $C$DW$126, DW_AT_TI_symbol_name("_gv")
     530                      .dwattr $C$DW$126, DW_AT_type(*$C$DW$T$98)
     531                      .dwattr $C$DW$126, DW_AT_location[DW_OP_bregx 0x24 112]
     532              $C$DW$127       .dwtag  DW_TAG_formal_parameter, DW_AT_name("p_transform")
     533                      .dwattr $C$DW$127, DW_AT_TI_symbol_name("_p_transform")
     534                      .dwattr $C$DW$127, DW_AT_type(*$C$DW$T$21)
     535                      .dwattr $C$DW$127, DW_AT_location[DW_OP_bregx 0x24 114]
     536              $C$DW$128       .dwtag  DW_TAG_formal_parameter, DW_AT_name("s_normalization")
     537                      .dwattr $C$DW$128, DW_AT_TI_symbol_name("_s_normalization")
     538                      .dwattr $C$DW$128, DW_AT_type(*$C$DW$T$8)
     539                      .dwattr $C$DW$128, DW_AT_location[DW_OP_bregx 0x24 116]
     540              ;*******************************************************************************
     541              ;* FUNCTION NAME: ijac_update_t                                                *
     542              ;*                                                                             *
     543              ;*   Function Uses Regs : AC0,AC0,AC1,AC1,T0,T1,AR0,XAR0,AR1,XAR1,AR2,XAR2,AR3,*
     544              ;*                        XAR3,AR4,XAR4,SP,CARRY,TC1,M40,SATA,SATD,RDM,FRCT,   *
     545              ;*                        SMUL                                                 *
     546              ;*   Stack Frame        : Compact (No Frame Pointer, w/ debug)                 *
     547              ;*   Total Frame Size   : 102 words                                            *
     548              ;*                        (2 return address/alignment)                         *
     549              ;*                        (4 function parameters)                              *
     550              ;*                        (96 local values)                                    *
     551              ;*   Min System Stack   : 1 word                                               *
     552              ;*******************************************************************************
     553 000000       _ijac_update_t:
     554                      .dwcfi  cfa_offset, 1
     555                      .dwcfi  save_reg_to_mem, 91, -1
     556 000000 4E9B          AADD #-101, SP
     557                      .dwcfi  cfa_offset, 102
     558              $C$DW$129       .dwtag  DW_TAG_variable, DW_AT_name("jac_hmm")
     559                      .dwattr $C$DW$129, DW_AT_TI_symbol_name("_jac_hmm")
     560                      .dwattr $C$DW$129, DW_AT_type(*$C$DW$T$119)
     561                      .dwattr $C$DW$129, DW_AT_location[DW_OP_bregx 0x24 4]
     562              $C$DW$130       .dwtag  DW_TAG_variable, DW_AT_name("pdfa")
     563                      .dwattr $C$DW$130, DW_AT_TI_symbol_name("_pdfa")
     564                      .dwattr $C$DW$130, DW_AT_type(*$C$DW$T$21)
     565                      .dwattr $C$DW$130, DW_AT_location[DW_OP_bregx 0x24 6]
     566              $C$DW$131       .dwtag  DW_TAG_variable, DW_AT_name("ap")
     567                      .dwattr $C$DW$131, DW_AT_TI_symbol_name("_ap")
     568                      .dwattr $C$DW$131, DW_AT_type(*$C$DW$T$58)
     569                      .dwattr $C$DW$131, DW_AT_location[DW_OP_bregx 0x24 8]
     570              $C$DW$132       .dwtag  DW_TAG_variable, DW_AT_name("bp")
     571                      .dwattr $C$DW$132, DW_AT_TI_symbol_name("_bp")
     572                      .dwattr $C$DW$132, DW_AT_type(*$C$DW$T$58)
     573                      .dwattr $C$DW$132, DW_AT_location[DW_OP_bregx 0x24 10]
     574              $C$DW$133       .dwtag  DW_TAG_variable, DW_AT_name("vec")
     575                      .dwattr $C$DW$133, DW_AT_TI_symbol_name("_vec")
     576                      .dwattr $C$DW$133, DW_AT_type(*$C$DW$T$58)
     577                      .dwattr $C$DW$133, DW_AT_location[DW_OP_bregx 0x24 12]
     578              $C$DW$134       .dwtag  DW_TAG_variable, DW_AT_name("T")
TMS320C55x Assembler PC v4.4.1 Wed Sep 13 16:33:23 2017

Tools Copyright (c) 1996-2012 Texas Instruments Incorporated
C:\Users\a0221074\AppData\Local\Temp\1618010                         PAGE   12

     579                      .dwattr $C$DW$134, DW_AT_TI_symbol_name("_T")
     580                      .dwattr $C$DW$134, DW_AT_type(*$C$DW$T$147)
     581                      .dwattr $C$DW$134, DW_AT_location[DW_OP_bregx 0x24 14]
     582              $C$DW$135       .dwtag  DW_TAG_variable, DW_AT_name("n_mfcc")
     583                      .dwattr $C$DW$135, DW_AT_TI_symbol_name("_n_mfcc")
     584                      .dwattr $C$DW$135, DW_AT_type(*$C$DW$T$57)
     585                      .dwattr $C$DW$135, DW_AT_location[DW_OP_bregx 0x24 15]
     586              $C$DW$136       .dwtag  DW_TAG_variable, DW_AT_name("k")
     587                      .dwattr $C$DW$136, DW_AT_TI_symbol_name("_k")
     588                      .dwattr $C$DW$136, DW_AT_type(*$C$DW$T$8)
     589                      .dwattr $C$DW$136, DW_AT_location[DW_OP_bregx 0x24 16]
     590              $C$DW$137       .dwtag  DW_TAG_variable, DW_AT_name("frame")
     591                      .dwattr $C$DW$137, DW_AT_TI_symbol_name("_frame")
     592                      .dwattr $C$DW$137, DW_AT_type(*$C$DW$T$8)
     593                      .dwattr $C$DW$137, DW_AT_location[DW_OP_bregx 0x24 17]
     594              $C$DW$138       .dwtag  DW_TAG_variable, DW_AT_name("d")
     595                      .dwattr $C$DW$138, DW_AT_TI_symbol_name("_d")
     596                      .dwattr $C$DW$138, DW_AT_type(*$C$DW$T$8)
     597                      .dwattr $C$DW$138, DW_AT_location[DW_OP_bregx 0x24 18]
     598              $C$DW$139       .dwtag  DW_TAG_variable, DW_AT_name("j")
     599                      .dwattr $C$DW$139, DW_AT_TI_symbol_name("_j")
     600                      .dwattr $C$DW$139, DW_AT_type(*$C$DW$T$8)
     601                      .dwattr $C$DW$139, DW_AT_location[DW_OP_bregx 0x24 19]
     602              $C$DW$140       .dwtag  DW_TAG_variable, DW_AT_name("indep_k")
     603                      .dwattr $C$DW$140, DW_AT_TI_symbol_name("_indep_k")
     604                      .dwattr $C$DW$140, DW_AT_type(*$C$DW$T$12)
     605                      .dwattr $C$DW$140, DW_AT_location[DW_OP_bregx 0x24 20]
     606              $C$DW$141       .dwtag  DW_TAG_variable, DW_AT_name("temp")
     607                      .dwattr $C$DW$141, DW_AT_TI_symbol_name("_temp")
     608                      .dwattr $C$DW$141, DW_AT_type(*$C$DW$T$12)
     609                      .dwattr $C$DW$141, DW_AT_location[DW_OP_bregx 0x24 22]
     610              $C$DW$142       .dwtag  DW_TAG_variable, DW_AT_name("accum_d")
     611                      .dwattr $C$DW$142, DW_AT_TI_symbol_name("_accum_d")
     612                      .dwattr $C$DW$142, DW_AT_type(*$C$DW$T$47)
     613                      .dwattr $C$DW$142, DW_AT_location[DW_OP_bregx 0x24 24]
     614              $C$DW$143       .dwtag  DW_TAG_variable, DW_AT_name("pdf_i")
     615                      .dwattr $C$DW$143, DW_AT_TI_symbol_name("_pdf_i")
     616                      .dwattr $C$DW$143, DW_AT_type(*$C$DW$T$8)
     617                      .dwattr $C$DW$143, DW_AT_location[DW_OP_bregx 0x24 26]
     618              $C$DW$144       .dwtag  DW_TAG_variable, DW_AT_name("pdf")
     619                      .dwattr $C$DW$144, DW_AT_TI_symbol_name("_pdf")
     620                      .dwattr $C$DW$144, DW_AT_type(*$C$DW$T$21)
     621                      .dwattr $C$DW$144, DW_AT_location[DW_OP_bregx 0x24 28]
     622              $C$DW$145       .dwtag  DW_TAG_variable, DW_AT_name("pmix")
     623                      .dwattr $C$DW$145, DW_AT_TI_symbol_name("_pmix")
     624                      .dwattr $C$DW$145, DW_AT_type(*$C$DW$T$21)
     625                      .dwattr $C$DW$145, DW_AT_location[DW_OP_bregx 0x24 30]
     626              $C$DW$146       .dwtag  DW_TAG_variable, DW_AT_name("mu")
     627                      .dwattr $C$DW$146, DW_AT_TI_symbol_name("_mu")
     628                      .dwattr $C$DW$146, DW_AT_type(*$C$DW$T$21)
     629                      .dwattr $C$DW$146, DW_AT_location[DW_OP_bregx 0x24 32]
     630              $C$DW$147       .dwtag  DW_TAG_variable, DW_AT_name("org_mu")
     631                      .dwattr $C$DW$147, DW_AT_TI_symbol_name("_org_mu")
     632                      .dwattr $C$DW$147, DW_AT_type(*$C$DW$T$21)
     633                      .dwattr $C$DW$147, DW_AT_location[DW_OP_bregx 0x24 34]
TMS320C55x Assembler PC v4.4.1 Wed Sep 13 16:33:23 2017

Tools Copyright (c) 1996-2012 Texas Instruments Incorporated
C:\Users\a0221074\AppData\Local\Temp\1618010                         PAGE   13

     634              $C$DW$148       .dwtag  DW_TAG_variable, DW_AT_name("s3")
     635                      .dwattr $C$DW$148, DW_AT_TI_symbol_name("_s3")
     636                      .dwattr $C$DW$148, DW_AT_type(*$C$DW$T$8)
     637                      .dwattr $C$DW$148, DW_AT_location[DW_OP_bregx 0x24 36]
     638              $C$DW$149       .dwtag  DW_TAG_variable, DW_AT_name("s2")
     639                      .dwattr $C$DW$149, DW_AT_TI_symbol_name("_s2")
     640                      .dwattr $C$DW$149, DW_AT_type(*$C$DW$T$8)
     641                      .dwattr $C$DW$149, DW_AT_location[DW_OP_bregx 0x24 37]
     642              $C$DW$150       .dwtag  DW_TAG_variable, DW_AT_name("gamma_jk")
     643                      .dwattr $C$DW$150, DW_AT_TI_symbol_name("_gamma_jk")
     644                      .dwattr $C$DW$150, DW_AT_type(*$C$DW$T$20)
     645                      .dwattr $C$DW$150, DW_AT_location[DW_OP_bregx 0x24 38]
     646              $C$DW$151       .dwtag  DW_TAG_variable, DW_AT_name("func_d")
     647                      .dwattr $C$DW$151, DW_AT_TI_symbol_name("_func_d")
     648                      .dwattr $C$DW$151, DW_AT_type(*$C$DW$T$21)
     649                      .dwattr $C$DW$151, DW_AT_location[DW_OP_bregx 0x24 40]
     650              $C$DW$152       .dwtag  DW_TAG_variable, DW_AT_name("Lr")
     651                      .dwattr $C$DW$152, DW_AT_TI_symbol_name("_Lr")
     652                      .dwattr $C$DW$152, DW_AT_type(*$C$DW$T$8)
     653                      .dwattr $C$DW$152, DW_AT_location[DW_OP_bregx 0x24 42]
     654              $C$DW$153       .dwtag  DW_TAG_variable, DW_AT_name("noisy_log")
     655                      .dwattr $C$DW$153, DW_AT_TI_symbol_name("_noisy_log")
     656                      .dwattr $C$DW$153, DW_AT_type(*$C$DW$T$64)
     657                      .dwattr $C$DW$153, DW_AT_location[DW_OP_bregx 0x24 43]
     658              $C$DW$154       .dwtag  DW_TAG_variable, DW_AT_name("pmu")
     659                      .dwattr $C$DW$154, DW_AT_TI_symbol_name("_pmu")
     660                      .dwattr $C$DW$154, DW_AT_type(*$C$DW$T$21)
     661                      .dwattr $C$DW$154, DW_AT_location[DW_OP_bregx 0x24 70]
     662              $C$DW$155       .dwtag  DW_TAG_variable, DW_AT_name("sp_log_ps")
     663                      .dwattr $C$DW$155, DW_AT_TI_symbol_name("_sp_log_ps")
     664                      .dwattr $C$DW$155, DW_AT_type(*$C$DW$T$64)
     665                      .dwattr $C$DW$155, DW_AT_location[DW_OP_bregx 0x24 72]
     666              $C$DW$156       .dwtag  DW_TAG_variable, DW_AT_name("pnoisymu")
     667                      .dwattr $C$DW$156, DW_AT_TI_symbol_name("_pnoisymu")
     668                      .dwattr $C$DW$156, DW_AT_type(*$C$DW$T$21)
     669                      .dwattr $C$DW$156, DW_AT_location[DW_OP_bregx 0x24 98]
     670 000002 C51E          MOV T1, *SP(#15) ; |91| 
     671 000004 C41C          MOV T0, *SP(#14) ; |91| 
     672 000006 EB18          MOV XAR4, dbl(*SP(#12))
         000008 C5   
     673 000009 EB14          MOV XAR3, dbl(*SP(#10))
         00000b B5   
     674 00000c EB10          MOV XAR2, dbl(*SP(#8))
         00000e A5   
     675 00000f EB0C          MOV XAR1, dbl(*SP(#6))
         000011 95   
     676 000012 EB08          MOV XAR0, dbl(*SP(#4))
         000014 85   
     677                      .dwpsn  file "C:/Users/a0221074/Desktop/C5000/IBM_Watson_TIdesign_workarea/CSL_bitbucket/c55_csl/c55x
     678 000015 E622          MOV #0, *SP(#17) ; |92| 
         000017 00   
     679                      .dwpsn  file "C:/Users/a0221074/Desktop/C5000/IBM_Watson_TIdesign_workarea/CSL_bitbucket/c55_csl/c55x
     680 000018 EDE0          MOV dbl(*SP(#112)), XAR3
         00001a BF   
     681 00001b DF6D          MOV uns(*AR3(#279)), AC0 ; |93| 
TMS320C55x Assembler PC v4.4.1 Wed Sep 13 16:33:23 2017

Tools Copyright (c) 1996-2012 Texas Instruments Incorporated
C:\Users\a0221074\AppData\Local\Temp\1618010                         PAGE   14

         00001d 0501 
         00001f 17   
     682 000020 EDD0          MOV dbl(*SP(#104)), XAR3
         000022 BF   
     683 000023 5000          SFTL AC0, #1 ; |93| 
     684 000025 900A          MOV AC0, XAR2
     685              
     686 000027 8E30          MOV XAR3, dbl(*SP(#24))
         000029 BB10 
         00002b B5A1 
     687              ||      AADD XAR2, XAR3 ; |93| 
     688              
     689                      .dwpsn  file "C:/Users/a0221074/Desktop/C5000/IBM_Watson_TIdesign_workarea/CSL_bitbucket/c55_csl/c55x
     690 00002d EDDC          MOV dbl(*SP(#110)), XAR3
         00002f BF   
     691 000030 EB50          MOV XAR3, dbl(*SP(#40))
         000032 B5   
     692                      .dwpsn  file "C:/Users/a0221074/Desktop/C5000/IBM_Watson_TIdesign_workarea/CSL_bitbucket/c55_csl/c55x
     693 000033 E626          MOV #0, *SP(#19) ; |108| 
         000035 00   
     694 000036 0602          B $C$L10  ; |108| 
         000038 57   
     695                                                      ; branch occurs ; |108| 
     696 000039       $C$L1:    
     697 000039       $C$DW$L$_ijac_update_t$2$B:
     698                      .dwpsn  file "C:/Users/a0221074/Desktop/C5000/IBM_Watson_TIdesign_workarea/CSL_bitbucket/c55_csl/c55x
     699 000039 A422          MOV *SP(#17), T0 ; |110| 
     700 00003b 22A9          MOV AR2, AR1
     701 00003d ED14          MOV dbl(*SP(#10)), XAR2
         00003f AF   
     702 000040 ED10          MOV dbl(*SP(#8)), XAR3
         000042 BF   
     703              
     704 000045 2394          MOV AR1, T0 ; |110| 
     705 000043 A04B  ||      MOV *AR2(T0), AC0 ; |110| 
     706              
     707 000047 D66B          ADD *AR3(T0), AC0, AC0 ; |110| 
         000049 00   
     708 00004a A422          MOV *SP(#17), T0 ; |110| 
     709 00004c ED0C          MOV dbl(*SP(#6)), XAR3
         00004e BF   
     710 00004f D76B          SUB *AR3(T0), AC0, AC0 ; |110| 
         000051 00   
     711 000052 D7E8          SUB *SP(#116), AC0, AC0 ; |110| 
         000054 00   
     712 000055 EB28          MOV AC0, dbl(*SP(#20)) ; |110| 
         000057 08   
     713                      .dwpsn  file "C:/Users/a0221074/Desktop/C5000/IBM_Watson_TIdesign_workarea/CSL_bitbucket/c55_csl/c55x
     714 000058 A926          MOV *SP(#19), AR1 ; |111| 
     715 00005a ED08          MOV dbl(*SP(#4)), XAR3
         00005c BF   
     716 00005d 1490          AADD AR1, AR3 ; |111| 
         00005f B0   
     717 000060 A973          MOV *AR3(short(#1)), AR1 ; |111| 
     718 000062 C934          MOV AR1, *SP(#26) ; |111| 
TMS320C55x Assembler PC v4.4.1 Wed Sep 13 16:33:23 2017

Tools Copyright (c) 1996-2012 Texas Instruments Incorporated
C:\Users\a0221074\AppData\Local\Temp\1618010                         PAGE   15

     719                      .dwpsn  file "C:/Users/a0221074/Desktop/C5000/IBM_Watson_TIdesign_workarea/CSL_bitbucket/c55_csl/c55x
     720 000064 EDE0          MOV dbl(*SP(#112)), XAR3
         000066 BF   
     721 000067 2294          MOV AR1, T0
     722 000069 ED6D          MOV dbl(*AR3(#1192)), XAR3
         00006b BF04 
         00006d A8   
     723 00006e DF6B          MOV uns(*AR3(T0)), AC0 ; |112| 
         000070 05   
     724 000071 EDE0          MOV dbl(*SP(#112)), XAR3
         000073 BF   
     725 000074 900A          MOV AC0, XAR2
     726 000076 ED6D          MOV dbl(*AR3(#1194)), XAR3
         000078 BF04 
         00007a AA   
     727              
     728 00007b 8E38          MOV XAR3, dbl(*SP(#28))
         00007d BB10 
         00007f B5A1 
     729              ||      AADD XAR2, XAR3 ; |112| 
     730              
     731                      .dwpsn  file "C:/Users/a0221074/Desktop/C5000/IBM_Watson_TIdesign_workarea/CSL_bitbucket/c55_csl/c55x
     732 000081 E620          MOV #0, *SP(#16) ; |113| 
         000083 00   
     733 000084 ED38          MOV dbl(*SP(#28)), XAR3
         000086 BF   
     734 000087 B463          AMAR *AR3+
     735 000089 EB3C          MOV XAR3, dbl(*SP(#30))
         00008b B5   
     736 00008c ED38          MOV dbl(*SP(#28)), XAR3
         00008e BF   
     737 00008f AA20          MOV *SP(#16), AR2 ; |113| 
     738 000091 A961          MOV *AR3, AR1 ; |113| 
     739 000093 12A8          CMP AR2 >= AR1, TC1 ; |113| 
         000095 90   
     740 000096 6D64          BCC $C$L9,TC1 ; |113| 
         000098 01EB 
     741                                                      ; branchcc occurs ; |113| 
     742 00009a       $C$DW$L$_ijac_update_t$2$E:
     743 00009a       $C$L2:    
     744 00009a       $C$DW$L$_ijac_update_t$3$B:
     745                      .dwpsn  file "C:/Users/a0221074/Desktop/C5000/IBM_Watson_TIdesign_workarea/CSL_bitbucket/c55_csl/c55x
     746 00009a EDE0          MOV dbl(*SP(#112)), XAR2
         00009c AF   
     747 00009d ED3C          MOV dbl(*SP(#30)), XAR3
         00009f BF   
     748 0000a0 A54D          MOV *AR2(#278), T1 ; |117| 
         0000a2 0116 
     749 0000a4 D373          MPYM *AR3(short(#1)), T1, AC0 ; |117| 
         0000a6 05   
     750 0000a7 EDE0          MOV dbl(*SP(#112)), XAR3
         0000a9 BF   
     751 0000aa 2209          MOV AC0, AR1 ; |117| 
     752 0000ac ED6D          MOV dbl(*AR3(#1182)), XAR3
         0000ae BF04 
TMS320C55x Assembler PC v4.4.1 Wed Sep 13 16:33:23 2017

Tools Copyright (c) 1996-2012 Texas Instruments Incorporated
C:\Users\a0221074\AppData\Local\Temp\1618010                         PAGE   16

         0000b0 9E   
     753              
     754 0000b1 8E40          MOV XAR3, dbl(*SP(#32))
         0000b3 BB10 
         0000b5 B590 
     755              ||      AADD AR1, AR3 ; |117| 
     756              
     757                      .dwpsn  file "C:/Users/a0221074/Desktop/C5000/IBM_Watson_TIdesign_workarea/CSL_bitbucket/c55_csl/c55x
     758 0000b7 EDE0          MOV dbl(*SP(#112)), XAR3
         0000b9 BF   
     759 0000ba ED6D          MOV dbl(*AR3(#1182)), XAR3
         0000bc BF04 
         0000be 9E   
     760 0000bf 90B1          MOV XAR3, AC1
     761 0000c1 ED40          MOV dbl(*SP(#32)), XAR3
         0000c3 BF   
     762 0000c4 90B0          MOV XAR3, AC0
     763 0000c6 EDE0          MOV dbl(*SP(#112)), XAR3
         0000c8 BF   
     764 0000c9 ED6D          MOV dbl(*AR3(#1184)), XAR2
         0000cb AF04 
         0000cd A0   
     765 0000ce 2610          SUB AC1, AC0 ; |119| 
     766 0000d0 900B          MOV AC0, XAR3
     767              
     768 0000d2 8E44          MOV XAR2, dbl(*SP(#34))
         0000d4 AB10 
         0000d6 A5B1 
     769              ||      AADD XAR3, XAR2 ; |119| 
     770              
     771                      .dwpsn  file "C:/Users/a0221074/Desktop/C5000/IBM_Watson_TIdesign_workarea/CSL_bitbucket/c55_csl/c55x
     772 0000d8 EDE0          MOV dbl(*SP(#112)), XAR3
         0000da BF   
     773 0000db A434          MOV *SP(#26), T0 ; |120| 
     774 0000dd ED18          MOV dbl(*SP(#12)), XAR0
         0000df 8F   
     775 0000e0 EC20          AMAR *SP(#16), XAR1
         0000e2 9E   
     776 0000e3 AA6D          MOV *AR3(#278), AR2 ; |120| 
         0000e5 0116 
     777              $C$DW$157       .dwtag  DW_TAG_TI_branch
     778                      .dwattr $C$DW$157, DW_AT_low_pc(0x00)
     779                      .dwattr $C$DW$157, DW_AT_name("_hlr_gauss_obs_score_f")
     780                      .dwattr $C$DW$157, DW_AT_TI_call
     781              
     782 0000e7 6C00          CALL #_hlr_gauss_obs_score_f ; |120| 
         0000e9 0000!
     783 0000eb 3D25  ||      MOV #2, T1
     784              
     785                                                      ; call occurs [#_hlr_gauss_obs_score_f] ; |120| 
     786 0000ed 2240          MOV T0, AC0
     787 0000ef ED28          ADD dbl(*SP(#20)), AC0, AC0 ; |120| 
         0000f1 00   
     788 0000f2 EB2C          MOV AC0, dbl(*SP(#22)) ; |120| 
         0000f4 08   
TMS320C55x Assembler PC v4.4.1 Wed Sep 13 16:33:23 2017

Tools Copyright (c) 1996-2012 Texas Instruments Incorporated
C:\Users\a0221074\AppData\Local\Temp\1618010                         PAGE   17

     789                      .dwpsn  file "C:/Users/a0221074/Desktop/C5000/IBM_Watson_TIdesign_workarea/CSL_bitbucket/c55_csl/c55x
     790 0000f5 ED2C          MOV dbl(*SP(#22)), AC0 ; |122| 
         0000f7 08   
     791 0000f8 6230          BCC $C$L3,AC0 <= #0 ; |122| 
     792                                                      ; branchcc occurs ; |122| 
     793 0000fa       $C$DW$L$_ijac_update_t$3$E:
     794 0000fa       $C$DW$L$_ijac_update_t$4$B:
     795              
     796 0000fa 4A2E          B $C$L6   ; |122| 
     797 0000fc 3D00  ||      MOV #0, AC0
     798              
     799                                                      ; branch occurs ; |122| 
     800 0000fe       $C$DW$L$_ijac_update_t$4$E:
     801 0000fe       $C$L3:    
     802 0000fe       $C$DW$L$_ijac_update_t$5$B:
     803 0000fe 7680          MOV #-32768, AC0 ; |122| 
         000100 0008 
     804 000102 ED2C          MOV dbl(*SP(#22)), AC1 ; |122| 
         000104 18   
     805 000105 1208          CMP AC1 <= AC0, TC1 ; |122| 
         000107 10   
     806 000108 61E4          BCC $C$L4,TC1 ; |122| 
     807                                                      ; branchcc occurs ; |122| 
     808 00010a       $C$DW$L$_ijac_update_t$5$E:
     809 00010a       $C$DW$L$_ijac_update_t$6$B:
     810 00010a ED2C          MOV dbl(*SP(#22)), AC0 ; |122| 
         00010c 08   
     811 00010d       $C$DW$L$_ijac_update_t$6$E:
     812 00010d       $C$L4:    
     813 00010d       $C$DW$L$_ijac_update_t$7$B:
     814 00010d 767F          MOV #32767, AC1 ; |122| 
         00010f FF18 
     815 000111 1208          CMP AC0 >= AC1, TC1 ; |122| 
         000113 10   
     816 000114 0464          BCC $C$L5,TC1 ; |122| 
         000116 11   
     817                                                      ; branchcc occurs ; |122| 
     818 000117       $C$DW$L$_ijac_update_t$7$E:
     819 000117       $C$DW$L$_ijac_update_t$8$B:
     820 000117 7680          MOV #-32768, AC0 ; |122| 
         000119 0008 
     821 00011b ED2C          MOV dbl(*SP(#22)), AC1 ; |122| 
         00011d 18   
     822 00011e 1208          CMP AC1 <= AC0, TC1 ; |122| 
         000120 10   
     823 000121 64E4          BCC $C$L6,TC1 ; |122| 
     824                                                      ; branchcc occurs ; |122| 
     825 000123       $C$DW$L$_ijac_update_t$8$E:
     826 000123       $C$DW$L$_ijac_update_t$9$B:
     827 000123 ED2C          MOV dbl(*SP(#22)), AC0 ; |122| 
         000125 08   
     828 000126 4A04          B $C$L6   ; |122| 
     829                                                      ; branch occurs ; |122| 
     830 000128       $C$DW$L$_ijac_update_t$9$E:
     831 000128       $C$L5:    
TMS320C55x Assembler PC v4.4.1 Wed Sep 13 16:33:23 2017

Tools Copyright (c) 1996-2012 Texas Instruments Incorporated
C:\Users\a0221074\AppData\Local\Temp\1618010                         PAGE   18

     832 000128       $C$DW$L$_ijac_update_t$10$B:
     833 000128 767F          MOV #32767, AC0 ; |122| 
         00012a FF08 
     834 00012c       $C$DW$L$_ijac_update_t$10$E:
     835 00012c       $C$L6:    
     836 00012c       $C$DW$L$_ijac_update_t$11$B:
     837 00012c C054          MOV AC0, *SP(#42) ; |122| 
     838                      .dwpsn  file "C:/Users/a0221074/Desktop/C5000/IBM_Watson_TIdesign_workarea/CSL_bitbucket/c55_csl/c55x
     839 00012e EDE0          MOV dbl(*SP(#112)), XAR3
         000130 BF   
     840 000131 220A          MOV AC0, AR2 ; |124| 
     841 000133 A96D          MOV *AR3(#832), AR1 ; |124| 
         000135 0340 
     842 000137 1298          CMP AR2 <= AR1, TC1 ; |124| 
         000139 A0   
     843 00013a 6D64          BCC $C$L8,TC1 ; |124| 
         00013c 012C 
     844                                                      ; branchcc occurs ; |124| 
     845 00013e       $C$DW$L$_ijac_update_t$11$E:
     846 00013e       $C$DW$L$_ijac_update_t$12$B:
     847                      .dwpsn  file "C:/Users/a0221074/Desktop/C5000/IBM_Watson_TIdesign_workarea/CSL_bitbucket/c55_csl/c55x
     848 00013e 3C65          MOV #6, T1
     849              $C$DW$158       .dwtag  DW_TAG_TI_branch
     850                      .dwattr $C$DW$158, DW_AT_low_pc(0x00)
     851                      .dwattr $C$DW$158, DW_AT_name("_hlr_expn")
     852                      .dwattr $C$DW$158, DW_AT_TI_call
     853              
     854 000140 6C00          CALL #_hlr_expn ; |125| 
         000142 0000!
     855 000144 23A4  ||      MOV AR2, T0
     856              
     857                                                      ; call occurs [#_hlr_expn] ; |125| 
     858 000146 C44C          MOV T0, *SP(#38) ; |125| 
     859                      .dwpsn  file "C:/Users/a0221074/Desktop/C5000/IBM_Watson_TIdesign_workarea/CSL_bitbucket/c55_csl/c55x
     860 000148 ED44          MOV dbl(*SP(#34)), XAR3
         00014a BF   
     861 00014b EB8C          MOV XAR3, dbl(*SP(#70))
         00014d B5   
     862                      .dwpsn  file "C:/Users/a0221074/Desktop/C5000/IBM_Watson_TIdesign_workarea/CSL_bitbucket/c55_csl/c55x
     863 00014e ED40          MOV dbl(*SP(#32)), XAR3
         000150 BF   
     864 000151 EBC4          MOV XAR3, dbl(*SP(#98))
         000153 B5   
     865                      .dwpsn  file "C:/Users/a0221074/Desktop/C5000/IBM_Watson_TIdesign_workarea/CSL_bitbucket/c55_csl/c55x
     866 000154 EDE0          MOV dbl(*SP(#112)), XAR2
         000156 AF   
     867 000157 EDE0          MOV dbl(*SP(#112)), XAR3
         000159 BF   
     868 00015a EC90          AMAR *SP(#72), XAR1
         00015c 9E   
     869 00015d A41E          MOV *SP(#15), T0 ; |139| 
     870 00015f ED8C          MOV dbl(*SP(#70)), XAR0
         000161 8F   
     871 000162 B44F          AMAR *+AR2(#1214) ; |139| 
         000164 04BE 
TMS320C55x Assembler PC v4.4.1 Wed Sep 13 16:33:23 2017

Tools Copyright (c) 1996-2012 Texas Instruments Incorporated
C:\Users\a0221074\AppData\Local\Temp\1618010                         PAGE   19

     872 000166 A56D          MOV *AR3(#279), T1 ; |139| 
         000168 0117 
     873 00016a B46F          AMAR *+AR3(#520) ; |139| 
         00016c 0208 
     874              $C$DW$159       .dwtag  DW_TAG_TI_branch
     875                      .dwattr $C$DW$159, DW_AT_low_pc(0x00)
     876                      .dwattr $C$DW$159, DW_AT_name("_cos_transform")
     877                      .dwattr $C$DW$159, DW_AT_TI_call
     878 00016e 6C00          CALL #_cos_transform ; |139| 
         000170 0000!
     879                                                      ; call occurs [#_cos_transform] ; |139| 
     880                      .dwpsn  file "C:/Users/a0221074/Desktop/C5000/IBM_Watson_TIdesign_workarea/CSL_bitbucket/c55_csl/c55x
     881 000172 EDD4          MOV dbl(*SP(#106)), XAR3
         000174 BF   
     882 000175 EB00          MOV XAR3, dbl(*SP(#0))
         000177 B5   
     883 000178 ED50          MOV dbl(*SP(#40)), XAR3
         00017a BF   
     884 00017b EB04          MOV XAR3, dbl(*SP(#2))
         00017d B5   
     885 00017e EDE0          MOV dbl(*SP(#112)), XAR3
         000180 BF   
     886 000181 EC31          AMOV #0, XAR1 ; |140| 
         000183 9E00 
         000185 0000 
     887 000187 EC90          AMAR *SP(#72), XAR0
         000189 8E   
     888 00018a EC56          AMAR *SP(#43), XAR2
         00018c AE   
     889 00018d EDD8          MOV dbl(*SP(#108)), XAR4
         00018f CF   
     890 000190 A56D          MOV *AR3(#279), T1 ; |140| 
         000192 0117 
     891 000194 EC31          AMOV #0, XAR3 ; |140| 
         000196 BE00 
         000198 0000 
     892              $C$DW$160       .dwtag  DW_TAG_TI_branch
     893                      .dwattr $C$DW$160, DW_AT_low_pc(0x00)
     894                      .dwattr $C$DW$160, DW_AT_name("_log_spectral_compensation")
     895                      .dwattr $C$DW$160, DW_AT_TI_call
     896              
     897 00019a 6C00          CALL #_log_spectral_compensation ; |140| 
         00019c 0000!
     898 00019e 3D14  ||      MOV #1, T0
     899              
     900                                                      ; call occurs [#_log_spectral_compensation] ; |140| 
     901                      .dwpsn  file "C:/Users/a0221074/Desktop/C5000/IBM_Watson_TIdesign_workarea/CSL_bitbucket/c55_csl/c55x
     902 0001a0 EDE0          MOV dbl(*SP(#112)), XAR3
         0001a2 BF   
     903 0001a3 E624          MOV #0, *SP(#18) ; |142| 
         0001a5 00   
     904 0001a6 AA24          MOV *SP(#18), AR2 ; |142| 
     905 0001a8 A96D          MOV *AR3(#279), AR1 ; |142| 
         0001aa 0117 
     906 0001ac 12A8          CMPU AR2 >= AR1, TC1 ; |142| 
TMS320C55x Assembler PC v4.4.1 Wed Sep 13 16:33:23 2017

Tools Copyright (c) 1996-2012 Texas Instruments Incorporated
C:\Users\a0221074\AppData\Local\Temp\1618010                         PAGE   20

         0001ae 94   
     907 0001af 6D64          BCC $C$L8,TC1 ; |142| 
         0001b1 00B7 
     908                                                      ; branchcc occurs ; |142| 
     909 0001b3       $C$DW$L$_ijac_update_t$12$E:
     910 0001b3       $C$L7:    
     911 0001b3       $C$DW$L$_ijac_update_t$13$B:
     912                      .dwpsn  file "C:/Users/a0221074/Desktop/C5000/IBM_Watson_TIdesign_workarea/CSL_bitbucket/c55_csl/c55x
     913 0001b3 A424          MOV *SP(#18), T0 ; |143| 
     914 0001b5 ED50          MOV dbl(*SP(#40)), XAR3
         0001b7 BF   
     915 0001b8 B04C          MOV *SP(#38) << #16, AC0
     916 0001ba 1007          SFTL AC0, #0, AC0 ; |143| 
         0001bc 00   
     917 0001bd D36B          MPYM *AR3(T0), AC0, AC0 ; |143| 
         0001bf 00   
     918 0001c0 EB2C          MOV AC0, dbl(*SP(#22)) ; |143| 
         0001c2 08   
     919                      .dwpsn  file "C:/Users/a0221074/Desktop/C5000/IBM_Watson_TIdesign_workarea/CSL_bitbucket/c55_csl/c55x
     920 0001c3 7640          MOV #16384, AC0 ; |144| 
         0001c5 0008 
     921 0001c7 ED2C          ADD dbl(*SP(#22)), AC0, AC0 ; |144| 
         0001c9 00   
     922 0001ca 1005          SFTS AC0, #-15, AC0 ; |144| 
         0001cc 31   
     923 0001cd C048          MOV AC0, *SP(#36) ; |144| 
     924                      .dwpsn  file "C:/Users/a0221074/Desktop/C5000/IBM_Watson_TIdesign_workarea/CSL_bitbucket/c55_csl/c55x
     925 0001cf A424          MOV *SP(#18), T0 ; |145| 
     926 0001d1 EDCC          MOV dbl(*SP(#102)), XAR3
         0001d3 BF   
     927 0001d4 A96B          MOV *AR3(T0), AR1 ; |145| 
     928 0001d6 EC56          AMAR *SP(#43), XAR3
         0001d8 BE   
     929 0001d9 D86B          SUB AR1, *AR3(T0), AR1 ; |145| 
         0001db 99   
     930 0001dc C94A          MOV AR1, *SP(#37) ; |145| 
     931                      .dwpsn  file "C:/Users/a0221074/Desktop/C5000/IBM_Watson_TIdesign_workarea/CSL_bitbucket/c55_csl/c55x
     932 0001de 2295          MOV AR1, T1
     933 0001e0 D348          MPYM *SP(#36), T1, AC0 ; |147| 
         0001e2 05   
     934 0001e3 EB2C          MOV AC0, dbl(*SP(#22)) ; |147| 
         0001e5 08   
     935                      .dwpsn  file "C:/Users/a0221074/Desktop/C5000/IBM_Watson_TIdesign_workarea/CSL_bitbucket/c55_csl/c55x
     936 0001e6 EDD0          MOV dbl(*SP(#104)), XAR3
         0001e8 BF   
     937 0001e9 A024          MOV *SP(#18), AC0 ; |148| 
     938 0001eb 5000          SFTL AC0, #1 ; |148| 
     939 0001ed 900A          MOV AC0, XAR2
     940 0001ef 7608          MOV #2048, AC0 ; |148| 
         0001f1 0008 
     941 0001f3 ED2C          ADD dbl(*SP(#22)), AC0, AC0 ; |148| 
         0001f5 00   
     942              
     943 0001f9 1105          SFTS AC0, #-12, AC0 ; |148| 
         0001fb 34   
TMS320C55x Assembler PC v4.4.1 Wed Sep 13 16:33:23 2017

Tools Copyright (c) 1996-2012 Texas Instruments Incorporated
C:\Users\a0221074\AppData\Local\Temp\1618010                         PAGE   21

     944 0001f6 14A1  ||      AADD XAR2, XAR3 ; |148| 
         0001f8 B0   
     945              
     946 0001fc ED61          ADD dbl(*AR3), AC0, AC0 ; |148| 
         0001fe 00   
     947 0001ff EB61          MOV AC0, dbl(*AR3) ; |148| 
         000201 08   
     948                      .dwpsn  file "C:/Users/a0221074/Desktop/C5000/IBM_Watson_TIdesign_workarea/CSL_bitbucket/c55_csl/c55x
     949 000202 A424          MOV *SP(#18), T0 ; |150| 
     950 000204 ED50          MOV dbl(*SP(#40)), XAR3
         000206 BF   
     951 000207 A56B          MOV *AR3(T0), T1 ; |150| 
     952 000209 D34A          MPYM *SP(#37), T1, AC0 ; |150| 
         00020b 05   
     953 00020c EB2C          MOV AC0, dbl(*SP(#22)) ; |150| 
         00020e 08   
     954                      .dwpsn  file "C:/Users/a0221074/Desktop/C5000/IBM_Watson_TIdesign_workarea/CSL_bitbucket/c55_csl/c55x
     955 00020f 7601          MOV #256, AC0 ; |151| 
         000211 0008 
     956 000213 ED2C          ADD dbl(*SP(#22)), AC0, AC0 ; |151| 
         000215 00   
     957 000216 1005          SFTS AC0, #-9, AC0 ; |151| 
         000218 37   
     958 000219 EB2C          MOV AC0, dbl(*SP(#22)) ; |151| 
         00021b 08   
     959                      .dwpsn  file "C:/Users/a0221074/Desktop/C5000/IBM_Watson_TIdesign_workarea/CSL_bitbucket/c55_csl/c55x
     960 00021c A424          MOV *SP(#18), T0 ; |152| 
     961 00021e ED50          MOV dbl(*SP(#40)), XAR3
         000220 BF   
     962 000221 A06B          MOV *AR3(T0), AC0 ; |152| 
     963 000223 ED2C          SUB dbl(*SP(#22)), AC0, AC0 ; |152| 
         000225 02   
     964 000226 7B00          ADD #32, AC0, AC0 ; |152| 
         000228 2000 
     965 00022a 1005          SFTS AC0, #-6, AC0 ; |152| 
         00022c 3A   
     966 00022d D64A          ADD *SP(#37), AC0, AR1 ; |152| 
         00022f 90   
     967 000230 C94A          MOV AR1, *SP(#37) ; |152| 
     968                      .dwpsn  file "C:/Users/a0221074/Desktop/C5000/IBM_Watson_TIdesign_workarea/CSL_bitbucket/c55_csl/c55x
     969 000232 A548          MOV *SP(#36), T1 ; |153| 
     970 000234 D34A          MPYM *SP(#37), T1, AC0 ; |153| 
         000236 05   
     971 000237 EB2C          MOV AC0, dbl(*SP(#22)) ; |153| 
         000239 08   
     972                      .dwpsn  file "C:/Users/a0221074/Desktop/C5000/IBM_Watson_TIdesign_workarea/CSL_bitbucket/c55_csl/c55x
     973 00023a A024          MOV *SP(#18), AC0 ; |154| 
     974 00023c ED30          MOV dbl(*SP(#24)), XAR3
         00023e BF   
     975 00023f 5000          SFTL AC0, #1 ; |154| 
     976 000241 900A          MOV AC0, XAR2
     977 000243 7602          MOV #512, AC0 ; |154| 
         000245 0008 
     978 000247 ED2C          ADD dbl(*SP(#22)), AC0, AC0 ; |154| 
         000249 00   
TMS320C55x Assembler PC v4.4.1 Wed Sep 13 16:33:23 2017

Tools Copyright (c) 1996-2012 Texas Instruments Incorporated
C:\Users\a0221074\AppData\Local\Temp\1618010                         PAGE   22

     979              
     980 00024d 1105          SFTS AC0, #-10, AC0 ; |154| 
         00024f 36   
     981 00024a 14A1  ||      AADD XAR2, XAR3 ; |154| 
         00024c B0   
     982              
     983 000250 ED61          ADD dbl(*AR3), AC0, AC0 ; |154| 
         000252 00   
     984 000253 EB61          MOV AC0, dbl(*AR3) ; |154| 
         000255 08   
     985                      .dwpsn  file "C:/Users/a0221074/Desktop/C5000/IBM_Watson_TIdesign_workarea/CSL_bitbucket/c55_csl/c55x
     986 000256 EDE0          MOV dbl(*SP(#112)), XAR3
         000258 BF   
     987 000259 F724          ADD #1, *SP(#18) ; |142| 
         00025b 0001 
     988 00025d AA24          MOV *SP(#18), AR2 ; |142| 
     989 00025f A96D          MOV *AR3(#279), AR1 ; |142| 
         000261 0117 
     990 000263 12A4          CMPU AR2 < AR1, TC1 ; |142| 
         000265 94   
     991 000266 6D64          BCC $C$L7,TC1 ; |142| 
         000268 FF49 
     992                                                      ; branchcc occurs ; |142| 
     993 00026a       $C$DW$L$_ijac_update_t$13$E:
     994 00026a       $C$L8:    
     995 00026a       $C$DW$L$_ijac_update_t$14$B:
     996                      .dwpsn  file "C:/Users/a0221074/Desktop/C5000/IBM_Watson_TIdesign_workarea/CSL_bitbucket/c55_csl/c55x
     997 00026a F720          ADD #1, *SP(#16) ; |113| 
         00026c 0001 
     998 00026e ED3C          MOV dbl(*SP(#30)), XAR3
         000270 BF   
     999              
    1000 000271 8E3C          MOV XAR3, dbl(*SP(#30))
         000273 BB14 
         000275 B503 
    1001              ||      AADD #3, AR3 ; |113| 
    1002              
    1003 000277 ED38          MOV dbl(*SP(#28)), XAR3
         000279 BF   
    1004 00027a AA20          MOV *SP(#16), AR2 ; |113| 
    1005 00027c A961          MOV *AR3, AR1 ; |113| 
    1006 00027e 12A4          CMP AR2 < AR1, TC1 ; |113| 
         000280 90   
    1007 000281 6D64          BCC $C$L2,TC1 ; |113| 
         000283 FE15 
    1008                                                      ; branchcc occurs ; |113| 
    1009 000285       $C$DW$L$_ijac_update_t$14$E:
    1010 000285       $C$L9:    
    1011 000285       $C$DW$L$_ijac_update_t$15$B:
    1012                      .dwpsn  file "C:/Users/a0221074/Desktop/C5000/IBM_Watson_TIdesign_workarea/CSL_bitbucket/c55_csl/c55x
    1013 000285 A91C          MOV *SP(#14), AR1 ; |204| 
    1014 000287 D622          ADD *SP(#17), AR1, AR1 ; |204| 
         000289 99   
    1015 00028a C922          MOV AR1, *SP(#17) ; |204| 
    1016                      .dwpsn  file "C:/Users/a0221074/Desktop/C5000/IBM_Watson_TIdesign_workarea/CSL_bitbucket/c55_csl/c55x
TMS320C55x Assembler PC v4.4.1 Wed Sep 13 16:33:23 2017

Tools Copyright (c) 1996-2012 Texas Instruments Incorporated
C:\Users\a0221074\AppData\Local\Temp\1618010                         PAGE   23

    1017 00028c F726          ADD #1, *SP(#19) ; |108| 
         00028e 0001 
    1018 000290       $C$DW$L$_ijac_update_t$15$E:
    1019 000290       $C$L10:    
    1020 000290       $C$DW$L$_ijac_update_t$16$B:
    1021 000290 ED08          MOV dbl(*SP(#4)), XAR3
         000292 BF   
    1022 000293 A461          MOV *AR3, T0 ; |108| 
    1023 000295 EDE0          MOV dbl(*SP(#112)), XAR3
         000297 BF   
    1024 000298 ED6D          MOV dbl(*AR3(#1190)), XAR3
         00029a BF04 
         00029c A6   
    1025 00029d A96B          MOV *AR3(T0), AR1 ; |108| 
    1026              
    1027 0002a1 4319          SUB #1, AR1 ; |108| 
    1028 00029f AA26  ||      MOV *SP(#19), AR2 ; |108| 
    1029              
    1030 0002a3 12A4          CMP AR2 < AR1, TC1 ; |108| 
         0002a5 90   
    1031 0002a6 6D64          BCC $C$L1,TC1 ; |108| 
         0002a8 FD8F 
    1032                                                      ; branchcc occurs ; |108| 
    1033 0002aa       $C$DW$L$_ijac_update_t$16$E:
    1034                      .dwpsn  file "C:/Users/a0221074/Desktop/C5000/IBM_Watson_TIdesign_workarea/CSL_bitbucket/c55_csl/c55x
    1035 0002aa 4E65          AADD #101, SP
    1036                      .dwcfi  cfa_offset, 1
    1037              $C$DW$161       .dwtag  DW_TAG_TI_branch
    1038                      .dwattr $C$DW$161, DW_AT_low_pc(0x00)
    1039                      .dwattr $C$DW$161, DW_AT_TI_return
    1040 0002ac 4804          RET
    1041                                                      ; return occurs
    1042              
    1043              $C$DW$162       .dwtag  DW_TAG_TI_loop
    1044                      .dwattr $C$DW$162, DW_AT_name("C:\\Users\\a0221074\\AppData\\Local\\Temp\\1618010:$C$L10:1:1505334800
    1045                      .dwattr $C$DW$162, DW_AT_TI_begin_file("C:/Users/a0221074/Desktop/C5000/IBM_Watson_TIdesign_workarea/
    1046                      .dwattr $C$DW$162, DW_AT_TI_begin_line(0x6c)
    1047                      .dwattr $C$DW$162, DW_AT_TI_end_line(0xcc)
    1048              $C$DW$163       .dwtag  DW_TAG_TI_loop_range
    1049                      .dwattr $C$DW$163, DW_AT_low_pc($C$DW$L$_ijac_update_t$16$B)
    1050                      .dwattr $C$DW$163, DW_AT_high_pc($C$DW$L$_ijac_update_t$16$E)
    1051              $C$DW$164       .dwtag  DW_TAG_TI_loop_range
    1052                      .dwattr $C$DW$164, DW_AT_low_pc($C$DW$L$_ijac_update_t$2$B)
    1053                      .dwattr $C$DW$164, DW_AT_high_pc($C$DW$L$_ijac_update_t$2$E)
    1054              $C$DW$165       .dwtag  DW_TAG_TI_loop_range
    1055                      .dwattr $C$DW$165, DW_AT_low_pc($C$DW$L$_ijac_update_t$15$B)
    1056                      .dwattr $C$DW$165, DW_AT_high_pc($C$DW$L$_ijac_update_t$15$E)
    1057              
    1058              $C$DW$166       .dwtag  DW_TAG_TI_loop
    1059                      .dwattr $C$DW$166, DW_AT_name("C:\\Users\\a0221074\\AppData\\Local\\Temp\\1618010:$C$L2:2:1505334800"
    1060                      .dwattr $C$DW$166, DW_AT_TI_begin_file("C:/Users/a0221074/Desktop/C5000/IBM_Watson_TIdesign_workarea/
    1061                      .dwattr $C$DW$166, DW_AT_TI_begin_line(0x71)
    1062                      .dwattr $C$DW$166, DW_AT_TI_end_line(0xcb)
    1063              $C$DW$167       .dwtag  DW_TAG_TI_loop_range
    1064                      .dwattr $C$DW$167, DW_AT_low_pc($C$DW$L$_ijac_update_t$3$B)
TMS320C55x Assembler PC v4.4.1 Wed Sep 13 16:33:23 2017

Tools Copyright (c) 1996-2012 Texas Instruments Incorporated
C:\Users\a0221074\AppData\Local\Temp\1618010                         PAGE   24

    1065                      .dwattr $C$DW$167, DW_AT_high_pc($C$DW$L$_ijac_update_t$3$E)
    1066              $C$DW$168       .dwtag  DW_TAG_TI_loop_range
    1067                      .dwattr $C$DW$168, DW_AT_low_pc($C$DW$L$_ijac_update_t$5$B)
    1068                      .dwattr $C$DW$168, DW_AT_high_pc($C$DW$L$_ijac_update_t$5$E)
    1069              $C$DW$169       .dwtag  DW_TAG_TI_loop_range
    1070                      .dwattr $C$DW$169, DW_AT_low_pc($C$DW$L$_ijac_update_t$6$B)
    1071                      .dwattr $C$DW$169, DW_AT_high_pc($C$DW$L$_ijac_update_t$6$E)
    1072              $C$DW$170       .dwtag  DW_TAG_TI_loop_range
    1073                      .dwattr $C$DW$170, DW_AT_low_pc($C$DW$L$_ijac_update_t$7$B)
    1074                      .dwattr $C$DW$170, DW_AT_high_pc($C$DW$L$_ijac_update_t$7$E)
    1075              $C$DW$171       .dwtag  DW_TAG_TI_loop_range
    1076                      .dwattr $C$DW$171, DW_AT_low_pc($C$DW$L$_ijac_update_t$4$B)
    1077                      .dwattr $C$DW$171, DW_AT_high_pc($C$DW$L$_ijac_update_t$4$E)
    1078              $C$DW$172       .dwtag  DW_TAG_TI_loop_range
    1079                      .dwattr $C$DW$172, DW_AT_low_pc($C$DW$L$_ijac_update_t$8$B)
    1080                      .dwattr $C$DW$172, DW_AT_high_pc($C$DW$L$_ijac_update_t$8$E)
    1081              $C$DW$173       .dwtag  DW_TAG_TI_loop_range
    1082                      .dwattr $C$DW$173, DW_AT_low_pc($C$DW$L$_ijac_update_t$9$B)
    1083                      .dwattr $C$DW$173, DW_AT_high_pc($C$DW$L$_ijac_update_t$9$E)
    1084              $C$DW$174       .dwtag  DW_TAG_TI_loop_range
    1085                      .dwattr $C$DW$174, DW_AT_low_pc($C$DW$L$_ijac_update_t$10$B)
    1086                      .dwattr $C$DW$174, DW_AT_high_pc($C$DW$L$_ijac_update_t$10$E)
    1087              $C$DW$175       .dwtag  DW_TAG_TI_loop_range
    1088                      .dwattr $C$DW$175, DW_AT_low_pc($C$DW$L$_ijac_update_t$11$B)
    1089                      .dwattr $C$DW$175, DW_AT_high_pc($C$DW$L$_ijac_update_t$11$E)
    1090              $C$DW$176       .dwtag  DW_TAG_TI_loop_range
    1091                      .dwattr $C$DW$176, DW_AT_low_pc($C$DW$L$_ijac_update_t$12$B)
    1092                      .dwattr $C$DW$176, DW_AT_high_pc($C$DW$L$_ijac_update_t$12$E)
    1093              $C$DW$177       .dwtag  DW_TAG_TI_loop_range
    1094                      .dwattr $C$DW$177, DW_AT_low_pc($C$DW$L$_ijac_update_t$14$B)
    1095                      .dwattr $C$DW$177, DW_AT_high_pc($C$DW$L$_ijac_update_t$14$E)
    1096              
    1097              $C$DW$178       .dwtag  DW_TAG_TI_loop
    1098                      .dwattr $C$DW$178, DW_AT_name("C:\\Users\\a0221074\\AppData\\Local\\Temp\\1618010:$C$L7:3:1505334800"
    1099                      .dwattr $C$DW$178, DW_AT_TI_begin_file("C:/Users/a0221074/Desktop/C5000/IBM_Watson_TIdesign_workarea/
    1100                      .dwattr $C$DW$178, DW_AT_TI_begin_line(0x8e)
    1101                      .dwattr $C$DW$178, DW_AT_TI_end_line(0x9b)
    1102              $C$DW$179       .dwtag  DW_TAG_TI_loop_range
    1103                      .dwattr $C$DW$179, DW_AT_low_pc($C$DW$L$_ijac_update_t$13$B)
    1104                      .dwattr $C$DW$179, DW_AT_high_pc($C$DW$L$_ijac_update_t$13$E)
    1105                      .dwendtag $C$DW$178
    1106              
    1107                      .dwendtag $C$DW$166
    1108              
    1109                      .dwendtag $C$DW$162
    1110              
    1111                      .dwattr $C$DW$113, DW_AT_TI_end_file("C:/Users/a0221074/Desktop/C5000/IBM_Watson_TIdesign_workarea/CS
    1112                      .dwattr $C$DW$113, DW_AT_TI_end_line(0xcf)
    1113                      .dwattr $C$DW$113, DW_AT_TI_end_column(0x01)
    1114                      .dwendentry
    1115                      .dwendtag $C$DW$113
    1116              
    1117 000000               .sect   ".text:_update_statistics"
    1118                      .clink
    1119              
TMS320C55x Assembler PC v4.4.1 Wed Sep 13 16:33:23 2017

Tools Copyright (c) 1996-2012 Texas Instruments Incorporated
C:\Users\a0221074\AppData\Local\Temp\1618010                         PAGE   25

    1120              $C$DW$180       .dwtag  DW_TAG_subprogram, DW_AT_name("update_statistics")
    1121                      .dwattr $C$DW$180, DW_AT_low_pc(_update_statistics)
    1122                      .dwattr $C$DW$180, DW_AT_high_pc(0x00)
    1123                      .dwattr $C$DW$180, DW_AT_TI_symbol_name("_update_statistics")
    1124                      .dwattr $C$DW$180, DW_AT_type(*$C$DW$T$8)
    1125                      .dwattr $C$DW$180, DW_AT_TI_begin_file("C:/Users/a0221074/Desktop/C5000/IBM_Watson_TIdesign_workarea/
    1126                      .dwattr $C$DW$180, DW_AT_TI_begin_line(0x137)
    1127                      .dwattr $C$DW$180, DW_AT_TI_begin_column(0x10)
    1128                      .dwattr $C$DW$180, DW_AT_TI_max_frame_size(0x9c)
    1129                      .dwpsn  file "C:/Users/a0221074/Desktop/C5000/IBM_Watson_TIdesign_workarea/CSL_bitbucket/c55_csl/c55x
    1130              
    1131                      .dwfde $C$DW$CIE, _update_statistics
    1132              $C$DW$181       .dwtag  DW_TAG_formal_parameter, DW_AT_name("hmm_code")
    1133                      .dwattr $C$DW$181, DW_AT_TI_symbol_name("_hmm_code")
    1134                      .dwattr $C$DW$181, DW_AT_type(*$C$DW$T$20)
    1135                      .dwattr $C$DW$181, DW_AT_location[DW_OP_reg12]
    1136              $C$DW$182       .dwtag  DW_TAG_formal_parameter, DW_AT_name("jac_hmm")
    1137                      .dwattr $C$DW$182, DW_AT_TI_symbol_name("_jac_hmm")
    1138                      .dwattr $C$DW$182, DW_AT_type(*$C$DW$T$119)
    1139                      .dwattr $C$DW$182, DW_AT_location[DW_OP_reg17]
    1140              $C$DW$183       .dwtag  DW_TAG_formal_parameter, DW_AT_name("pdfa")
    1141                      .dwattr $C$DW$183, DW_AT_TI_symbol_name("_pdfa")
    1142                      .dwattr $C$DW$183, DW_AT_type(*$C$DW$T$21)
    1143                      .dwattr $C$DW$183, DW_AT_location[DW_OP_reg19]
    1144              $C$DW$184       .dwtag  DW_TAG_formal_parameter, DW_AT_name("bp")
    1145                      .dwattr $C$DW$184, DW_AT_TI_symbol_name("_bp")
    1146                      .dwattr $C$DW$184, DW_AT_type(*$C$DW$T$21)
    1147                      .dwattr $C$DW$184, DW_AT_location[DW_OP_reg21]
    1148              $C$DW$185       .dwtag  DW_TAG_formal_parameter, DW_AT_name("token")
    1149                      .dwattr $C$DW$185, DW_AT_TI_symbol_name("_token")
    1150                      .dwattr $C$DW$185, DW_AT_type(*$C$DW$T$20)
    1151                      .dwattr $C$DW$185, DW_AT_location[DW_OP_reg13]
    1152              $C$DW$186       .dwtag  DW_TAG_formal_parameter, DW_AT_name("T")
    1153                      .dwattr $C$DW$186, DW_AT_TI_symbol_name("_T")
    1154                      .dwattr $C$DW$186, DW_AT_type(*$C$DW$T$10)
    1155                      .dwattr $C$DW$186, DW_AT_location[DW_OP_reg22]
    1156              $C$DW$187       .dwtag  DW_TAG_formal_parameter, DW_AT_name("alpha")
    1157                      .dwattr $C$DW$187, DW_AT_TI_symbol_name("_alpha")
    1158                      .dwattr $C$DW$187, DW_AT_type(*$C$DW$T$21)
    1159                      .dwattr $C$DW$187, DW_AT_location[DW_OP_reg25]
    1160              $C$DW$188       .dwtag  DW_TAG_formal_parameter, DW_AT_name("c_t_beta")
    1161                      .dwattr $C$DW$188, DW_AT_TI_symbol_name("_c_t_beta")
    1162                      .dwattr $C$DW$188, DW_AT_type(*$C$DW$T$21)
    1163                      .dwattr $C$DW$188, DW_AT_location[DW_OP_bregx 0x24 156]
    1164              $C$DW$189       .dwtag  DW_TAG_formal_parameter, DW_AT_name("accum")
    1165                      .dwattr $C$DW$189, DW_AT_TI_symbol_name("_accum")
    1166                      .dwattr $C$DW$189, DW_AT_type(*$C$DW$T$47)
    1167                      .dwattr $C$DW$189, DW_AT_location[DW_OP_bregx 0x24 158]
    1168              $C$DW$190       .dwtag  DW_TAG_formal_parameter, DW_AT_name("log_H")
    1169                      .dwattr $C$DW$190, DW_AT_TI_symbol_name("_log_H")
    1170                      .dwattr $C$DW$190, DW_AT_type(*$C$DW$T$21)
    1171                      .dwattr $C$DW$190, DW_AT_location[DW_OP_bregx 0x24 160]
    1172              $C$DW$191       .dwtag  DW_TAG_formal_parameter, DW_AT_name("log_N")
    1173                      .dwattr $C$DW$191, DW_AT_TI_symbol_name("_log_N")
    1174                      .dwattr $C$DW$191, DW_AT_type(*$C$DW$T$21)
TMS320C55x Assembler PC v4.4.1 Wed Sep 13 16:33:23 2017

Tools Copyright (c) 1996-2012 Texas Instruments Incorporated
C:\Users\a0221074\AppData\Local\Temp\1618010                         PAGE   26

    1175                      .dwattr $C$DW$191, DW_AT_location[DW_OP_bregx 0x24 162]
    1176              $C$DW$192       .dwtag  DW_TAG_formal_parameter, DW_AT_name("n_mfcc")
    1177                      .dwattr $C$DW$192, DW_AT_TI_symbol_name("_n_mfcc")
    1178                      .dwattr $C$DW$192, DW_AT_type(*$C$DW$T$8)
    1179                      .dwattr $C$DW$192, DW_AT_location[DW_OP_bregx 0x24 164]
    1180              $C$DW$193       .dwtag  DW_TAG_formal_parameter, DW_AT_name("gv")
    1181                      .dwattr $C$DW$193, DW_AT_TI_symbol_name("_gv")
    1182                      .dwattr $C$DW$193, DW_AT_type(*$C$DW$T$98)
    1183                      .dwattr $C$DW$193, DW_AT_location[DW_OP_bregx 0x24 166]
    1184              ;*******************************************************************************
    1185              ;* FUNCTION NAME: update_statistics                                            *
    1186              ;*                                                                             *
    1187              ;*   Function Uses Regs : AC0,AC0,T0,T1,AR0,XAR0,AR1,XAR1,AR2,XAR2,AR3,XAR3,   *
    1188              ;*                        AR4,XAR4,FP,XFP,SP,CARRY,TC1,M40,SATA,SATD,RDM,FRCT, *
    1189              ;*                        SMUL                                                 *
    1190              ;*   Save On Entry Regs : FP                                                   *
    1191              ;*   Stack Frame        : Full (Frame Pointer in AR6, w/ debug)                *
    1192              ;*   Total Frame Size   : 156 words                                            *
    1193              ;*                        (2 return address/alignment)                         *
    1194              ;*                        (15 function parameters)                             *
    1195              ;*                        (138 local values)                                   *
    1196              ;*                        (1 register save area)                               *
    1197              ;*   Min System Stack   : 2 words                                              *
    1198              ;*******************************************************************************
    1199 000000       _update_statistics:
    1200                      .dwcfi  cfa_offset, 1
    1201                      .dwcfi  save_reg_to_mem, 91, -1
    1202 000000 50E5          PSHBOTH XFP
    1203                      .dwcfi  cfa_offset, 2
    1204                      .dwcfi  save_reg_to_mem, 32, -2
    1205 000002 F79A          ADD #-154, mmap(SP)
         000004 FF66 
         000006 98   
    1206 000007 EC00          AMAR *SP(#0), XFP
         000009 EE   
    1207                      .dwcfi  cfa_offset, 156
    1208              $C$DW$194       .dwtag  DW_TAG_variable, DW_AT_name("hmm_code")
    1209                      .dwattr $C$DW$194, DW_AT_TI_symbol_name("_hmm_code")
    1210                      .dwattr $C$DW$194, DW_AT_type(*$C$DW$T$20)
    1211                      .dwattr $C$DW$194, DW_AT_location[DW_OP_bregx 0x24 15]
    1212              $C$DW$195       .dwtag  DW_TAG_variable, DW_AT_name("jac_hmm")
    1213                      .dwattr $C$DW$195, DW_AT_TI_symbol_name("_jac_hmm")
    1214                      .dwattr $C$DW$195, DW_AT_type(*$C$DW$T$119)
    1215                      .dwattr $C$DW$195, DW_AT_location[DW_OP_bregx 0x24 16]
    1216              $C$DW$196       .dwtag  DW_TAG_variable, DW_AT_name("pdfa")
    1217                      .dwattr $C$DW$196, DW_AT_TI_symbol_name("_pdfa")
    1218                      .dwattr $C$DW$196, DW_AT_type(*$C$DW$T$21)
    1219                      .dwattr $C$DW$196, DW_AT_location[DW_OP_bregx 0x24 18]
    1220              $C$DW$197       .dwtag  DW_TAG_variable, DW_AT_name("bp")
    1221                      .dwattr $C$DW$197, DW_AT_TI_symbol_name("_bp")
    1222                      .dwattr $C$DW$197, DW_AT_type(*$C$DW$T$21)
    1223                      .dwattr $C$DW$197, DW_AT_location[DW_OP_bregx 0x24 20]
    1224              $C$DW$198       .dwtag  DW_TAG_variable, DW_AT_name("token")
    1225                      .dwattr $C$DW$198, DW_AT_TI_symbol_name("_token")
    1226                      .dwattr $C$DW$198, DW_AT_type(*$C$DW$T$20)
TMS320C55x Assembler PC v4.4.1 Wed Sep 13 16:33:23 2017

Tools Copyright (c) 1996-2012 Texas Instruments Incorporated
C:\Users\a0221074\AppData\Local\Temp\1618010                         PAGE   27

    1227                      .dwattr $C$DW$198, DW_AT_location[DW_OP_bregx 0x24 22]
    1228              $C$DW$199       .dwtag  DW_TAG_variable, DW_AT_name("T")
    1229                      .dwattr $C$DW$199, DW_AT_TI_symbol_name("_T")
    1230                      .dwattr $C$DW$199, DW_AT_type(*$C$DW$T$10)
    1231                      .dwattr $C$DW$199, DW_AT_location[DW_OP_bregx 0x24 23]
    1232              $C$DW$200       .dwtag  DW_TAG_variable, DW_AT_name("alpha")
    1233                      .dwattr $C$DW$200, DW_AT_TI_symbol_name("_alpha")
    1234                      .dwattr $C$DW$200, DW_AT_type(*$C$DW$T$21)
    1235                      .dwattr $C$DW$200, DW_AT_location[DW_OP_bregx 0x24 24]
    1236              $C$DW$201       .dwtag  DW_TAG_variable, DW_AT_name("tmp_freq")
    1237                      .dwattr $C$DW$201, DW_AT_TI_symbol_name("_tmp_freq")
    1238                      .dwattr $C$DW$201, DW_AT_type(*$C$DW$T$64)
    1239                      .dwattr $C$DW$201, DW_AT_location[DW_OP_bregx 0x24 26]
    1240              $C$DW$202       .dwtag  DW_TAG_variable, DW_AT_name("t")
    1241                      .dwattr $C$DW$202, DW_AT_TI_symbol_name("_t")
    1242                      .dwattr $C$DW$202, DW_AT_type(*$C$DW$T$20)
    1243                      .dwattr $C$DW$202, DW_AT_location[DW_OP_bregx 0x24 52]
    1244              $C$DW$203       .dwtag  DW_TAG_variable, DW_AT_name("seg")
    1245                      .dwattr $C$DW$203, DW_AT_TI_symbol_name("_seg")
    1246                      .dwattr $C$DW$203, DW_AT_type(*$C$DW$T$20)
    1247                      .dwattr $C$DW$203, DW_AT_location[DW_OP_bregx 0x24 53]
    1248              $C$DW$204       .dwtag  DW_TAG_variable, DW_AT_name("log_e")
    1249                      .dwattr $C$DW$204, DW_AT_TI_symbol_name("_log_e")
    1250                      .dwattr $C$DW$204, DW_AT_type(*$C$DW$T$64)
    1251                      .dwattr $C$DW$204, DW_AT_location[DW_OP_bregx 0x24 54]
    1252              $C$DW$205       .dwtag  DW_TAG_variable, DW_AT_name("alfa_t")
    1253                      .dwattr $C$DW$205, DW_AT_TI_symbol_name("_alfa_t")
    1254                      .dwattr $C$DW$205, DW_AT_type(*$C$DW$T$21)
    1255                      .dwattr $C$DW$205, DW_AT_location[DW_OP_bregx 0x24 80]
    1256              $C$DW$206       .dwtag  DW_TAG_variable, DW_AT_name("beta_t")
    1257                      .dwattr $C$DW$206, DW_AT_TI_symbol_name("_beta_t")
    1258                      .dwattr $C$DW$206, DW_AT_type(*$C$DW$T$21)
    1259                      .dwattr $C$DW$206, DW_AT_location[DW_OP_bregx 0x24 82]
    1260              $C$DW$207       .dwtag  DW_TAG_variable, DW_AT_name("mfcc_feature")
    1261                      .dwattr $C$DW$207, DW_AT_TI_symbol_name("_mfcc_feature")
    1262                      .dwattr $C$DW$207, DW_AT_type(*$C$DW$T$82)
    1263                      .dwattr $C$DW$207, DW_AT_location[DW_OP_bregx 0x24 84]
    1264              $C$DW$208       .dwtag  DW_TAG_variable, DW_AT_name("feat_size")
    1265                      .dwattr $C$DW$208, DW_AT_TI_symbol_name("_feat_size")
    1266                      .dwattr $C$DW$208, DW_AT_type(*$C$DW$T$20)
    1267                      .dwattr $C$DW$208, DW_AT_location[DW_OP_bregx 0x24 116]
    1268              $C$DW$209       .dwtag  DW_TAG_variable, DW_AT_name("p_fea")
    1269                      .dwattr $C$DW$209, DW_AT_TI_symbol_name("_p_fea")
    1270                      .dwattr $C$DW$209, DW_AT_type(*$C$DW$T$21)
    1271                      .dwattr $C$DW$209, DW_AT_location[DW_OP_bregx 0x24 118]
    1272              $C$DW$210       .dwtag  DW_TAG_variable, DW_AT_name("bSucc")
    1273                      .dwattr $C$DW$210, DW_AT_TI_symbol_name("_bSucc")
    1274                      .dwattr $C$DW$210, DW_AT_type(*$C$DW$T$8)
    1275                      .dwattr $C$DW$210, DW_AT_location[DW_OP_bregx 0x24 120]
    1276              $C$DW$211       .dwtag  DW_TAG_variable, DW_AT_name("sbc_bias")
    1277                      .dwattr $C$DW$211, DW_AT_TI_symbol_name("_sbc_bias")
    1278                      .dwattr $C$DW$211, DW_AT_type(*$C$DW$T$82)
    1279                      .dwattr $C$DW$211, DW_AT_location[DW_OP_bregx 0x24 121]
    1280 00000a EB30          MOV XAR4, dbl(*SP(#24))
         00000c C5   
TMS320C55x Assembler PC v4.4.1 Wed Sep 13 16:33:23 2017

Tools Copyright (c) 1996-2012 Texas Instruments Incorporated
C:\Users\a0221074\AppData\Local\Temp\1618010                         PAGE   28

    1281 00000d CB2E          MOV AR3, *SP(#23) ; |319| 
    1282 00000f C52C          MOV T1, *SP(#22) ; |319| 
    1283 000011 EB28          MOV XAR2, dbl(*SP(#20))
         000013 A5   
    1284 000014 EB24          MOV XAR1, dbl(*SP(#18))
         000016 95   
    1285 000017 EB20          MOV XAR0, dbl(*SP(#16))
         000019 85   
    1286 00001a C41E          MOV T0, *SP(#15) ; |319| 
    1287                      .dwpsn  file "C:/Users/a0221074/Desktop/C5000/IBM_Watson_TIdesign_workarea/CSL_bitbucket/c55_csl/c55x
    1288 00001c A9CD          MOV *FP(#164), AR1 ; |327| 
         00001e 00A4 
    1289 000020 C9E8          MOV AR1, *SP(#116) ; |327| 
    1290                      .dwpsn  file "C:/Users/a0221074/Desktop/C5000/IBM_Watson_TIdesign_workarea/CSL_bitbucket/c55_csl/c55x
    1291 000022 E6F0          MOV #1, *SP(#120) ; |334| 
         000024 01   
    1292                      .dwpsn  file "C:/Users/a0221074/Desktop/C5000/IBM_Watson_TIdesign_workarea/CSL_bitbucket/c55_csl/c55x
    1293 000025 A5E8          MOV *SP(#116), T1 ; |345| 
    1294 000027 D32C          MPYM *SP(#22), T1, AC0 ; |345| 
         000029 05   
    1295 00002a C06A          MOV AC0, *SP(#53) ; |345| 
    1296 00002c E668          MOV #0, *SP(#52) ; |345| 
         00002e 00   
    1297                      .dwpsn  file "C:/Users/a0221074/Desktop/C5000/IBM_Watson_TIdesign_workarea/CSL_bitbucket/c55_csl/c55x
    1298 00002f AA68          MOV *SP(#52), AR2 ; |345| 
    1299 000031 A92E          MOV *SP(#23), AR1 ; |345| 
    1300 000033 12A8          CMPU AR2 >= AR1, TC1 ; |345| 
         000035 94   
    1301 000036 6D64          BCC $C$L12,TC1 ; |345| 
         000038 00E9 
    1302                                                      ; branchcc occurs ; |345| 
    1303 00003a       $C$L11:    
    1304 00003a       $C$DW$L$_update_statistics$2$B:
    1305                      .dwpsn  file "C:/Users/a0221074/Desktop/C5000/IBM_Watson_TIdesign_workarea/CSL_bitbucket/c55_csl/c55x
    1306 00003a 2295          MOV AR1, T1
    1307 00003c 22A4          MOV AR2, T0
    1308 00003e ED24          MOV dbl(*SP(#18)), XAR0
         000040 8F   
    1309 000041 EDCD          MOV dbl(*FP(#156)), XAR3
         000043 BF00 
         000045 9C   
    1310 000046 EDCD          MOV dbl(*FP(#166)), XAR4
         000048 CF00 
         00004a A6   
    1311 00004b ED30          MOV dbl(*SP(#24)), XAR1
         00004d 9F   
    1312 00004e ED20          MOV dbl(*SP(#16)), XAR2
         000050 AF   
    1313              $C$DW$212       .dwtag  DW_TAG_TI_branch
    1314                      .dwattr $C$DW$212, DW_AT_low_pc(0x00)
    1315                      .dwattr $C$DW$212, DW_AT_name("_EM_alpha_t")
    1316                      .dwattr $C$DW$212, DW_AT_TI_call
    1317 000051 6C00          CALL #_EM_alpha_t ; |346| 
         000053 0000!
    1318                                                      ; call occurs [#_EM_alpha_t] ; |346| 
TMS320C55x Assembler PC v4.4.1 Wed Sep 13 16:33:23 2017

Tools Copyright (c) 1996-2012 Texas Instruments Incorporated
C:\Users\a0221074\AppData\Local\Temp\1618010                         PAGE   29

    1319 000055 EBA0          MOV XAR0, dbl(*SP(#80))
         000057 85   
    1320                      .dwpsn  file "C:/Users/a0221074/Desktop/C5000/IBM_Watson_TIdesign_workarea/CSL_bitbucket/c55_csl/c55x
    1321 000058 ED28          MOV dbl(*SP(#20)), XAR3
         00005a BF   
    1322 00005b DF68          MOV uns(*SP(#52)), AC0 ; |347| 
         00005d 05   
    1323 00005e 900A          MOV AC0, XAR2
    1324              
    1325 000060 8EA4          MOV XAR3, dbl(*SP(#82))
         000062 BB10 
         000064 B5A1 
    1326              ||      AADD XAR2, XAR3 ; |347| 
    1327              
    1328                      .dwpsn  file "C:/Users/a0221074/Desktop/C5000/IBM_Watson_TIdesign_workarea/CSL_bitbucket/c55_csl/c55x
    1329 000066 EDCD          MOV dbl(*FP(#166)), XAR3
         000068 BF00 
         00006a A6   
    1330 00006b ED6D          MOV dbl(*AR3(#2002)), XAR0
         00006d 8F07 
         00006f D2   
    1331 000070 DF6A          MOV uns(*SP(#53)), AC0 ; |349| 
         000072 05   
    1332 000073 900B          MOV AC0, XAR3
    1333 000075 14B1          AADD XAR3, XAR0 ; |349| 
         000077 80   
    1334 000078 EDCD          MOV dbl(*FP(#166)), XAR3
         00007a BF00 
         00007c A6   
    1335 00007d ECA8          AMAR *SP(#84), XAR1
         00007f 9E   
    1336 000080 A4CD          MOV *FP(#164), T0 ; |349| 
         000082 00A4 
    1337 000084 ED6D          MOV dbl(*AR3(#1212)), XAR2
         000086 AF04 
         000088 BC   
    1338              $C$DW$213       .dwtag  DW_TAG_TI_branch
    1339                      .dwattr $C$DW$213, DW_AT_low_pc(0x00)
    1340                      .dwattr $C$DW$213, DW_AT_name("_vector_unpacking")
    1341                      .dwattr $C$DW$213, DW_AT_TI_call
    1342 000089 6C00          CALL #_vector_unpacking ; |349| 
         00008b 0000!
    1343                                                      ; call occurs [#_vector_unpacking] ; |349| 
    1344                      .dwpsn  file "C:/Users/a0221074/Desktop/C5000/IBM_Watson_TIdesign_workarea/CSL_bitbucket/c55_csl/c55x
    1345 00008d ECA8          AMAR *SP(#84), XAR3
         00008f BE   
    1346 000090 EBEC          MOV XAR3, dbl(*SP(#118))
         000092 B5   
    1347                      .dwpsn  file "C:/Users/a0221074/Desktop/C5000/IBM_Watson_TIdesign_workarea/CSL_bitbucket/c55_csl/c55x
    1348 000093 EDCD          MOV dbl(*FP(#166)), XAR2
         000095 AF00 
         000097 A6   
    1349 000098 EDCD          MOV dbl(*FP(#166)), XAR3
         00009a BF00 
         00009c A6   
TMS320C55x Assembler PC v4.4.1 Wed Sep 13 16:33:23 2017

Tools Copyright (c) 1996-2012 Texas Instruments Incorporated
C:\Users\a0221074\AppData\Local\Temp\1618010                         PAGE   30

    1350 00009d EC6C          AMAR *SP(#54), XAR1
         00009f 9E   
    1351 0000a0 A4CD          MOV *FP(#164), T0 ; |364| 
         0000a2 00A4 
    1352 0000a4 EDEC          MOV dbl(*SP(#118)), XAR0
         0000a6 8F   
    1353 0000a7 B44F          AMAR *+AR2(#1214) ; |364| 
         0000a9 04BE 
    1354 0000ab A56D          MOV *AR3(#279), T1 ; |364| 
         0000ad 0117 
    1355 0000af B46F          AMAR *+AR3(#520) ; |364| 
         0000b1 0208 
    1356              $C$DW$214       .dwtag  DW_TAG_TI_branch
    1357                      .dwattr $C$DW$214, DW_AT_low_pc(0x00)
    1358                      .dwattr $C$DW$214, DW_AT_name("_cos_transform")
    1359                      .dwattr $C$DW$214, DW_AT_TI_call
    1360 0000b3 6C00          CALL #_cos_transform ; |364| 
         0000b5 0000!
    1361                                                      ; call occurs [#_cos_transform] ; |364| 
    1362                      .dwpsn  file "C:/Users/a0221074/Desktop/C5000/IBM_Watson_TIdesign_workarea/CSL_bitbucket/c55_csl/c55x
    1363 0000b7 EC6C          AMAR *SP(#54), XAR3
         0000b9 BE   
    1364 0000ba EB00          MOV XAR3, dbl(*SP(#0))
         0000bc B5   
    1365 0000bd EDCD          MOV dbl(*FP(#158)), XAR3
         0000bf BF00 
         0000c1 9E   
    1366 0000c2 EB04          MOV XAR3, dbl(*SP(#2))
         0000c4 B5   
    1367 0000c5 EDCD          MOV dbl(*FP(#160)), XAR3
         0000c7 BF00 
         0000c9 A0   
    1368 0000ca EB08          MOV XAR3, dbl(*SP(#4))
         0000cc B5   
    1369 0000cd EDCD          MOV dbl(*FP(#162)), XAR3
         0000cf BF00 
         0000d1 A2   
    1370 0000d2 EB0C          MOV XAR3, dbl(*SP(#6))
         0000d4 B5   
    1371 0000d5 EC34          AMAR *SP(#26), XAR3
         0000d7 BE   
    1372 0000d8 EB10          MOV XAR3, dbl(*SP(#8))
         0000da B5   
    1373 0000db EDCD          MOV dbl(*FP(#166)), XAR3
         0000dd BF00 
         0000df A6   
    1374 0000e0 EB14          MOV XAR3, dbl(*SP(#10))
         0000e2 B5   
    1375 0000e3 DF68          MOV uns(*SP(#52)), AC0 ; |365| 
         0000e5 05   
    1376 0000e6 ECF2          AMAR *SP(#121), XAR3
         0000e8 BE   
    1377 0000e9 EB18          MOV XAR3, dbl(*SP(#12))
         0000eb B5   
    1378 0000ec 900B          MOV AC0, XAR3
TMS320C55x Assembler PC v4.4.1 Wed Sep 13 16:33:23 2017

Tools Copyright (c) 1996-2012 Texas Instruments Incorporated
C:\Users\a0221074\AppData\Local\Temp\1618010                         PAGE   31

    1379 0000ee E61C          MOV #0, *SP(#14) ; |365| 
         0000f0 00   
    1380 0000f1 ED24          MOV dbl(*SP(#18)), XAR1
         0000f3 9F   
    1381 0000f4 EDA0          MOV dbl(*SP(#80)), XAR2
         0000f6 AF   
    1382 0000f7 EDEC          MOV dbl(*SP(#118)), XAR4
         0000f9 CF   
    1383 0000fa A5CD          MOV *FP(#164), T1 ; |365| 
         0000fc 00A4 
    1384 0000fe ED20          MOV dbl(*SP(#16)), XAR0
         000100 8F   
    1385              
    1386                      AADD XAR3, XAR1 ; |365| 
    1387 000101 8A2E  ||      MOV *SP(#23), T0 ; |365| 
         000103 9418 
         000105 B1   
    1388              
    1389 000106 EDA4          MOV dbl(*SP(#82)), XAR3
         000108 BF   
    1390              $C$DW$215       .dwtag  DW_TAG_TI_branch
    1391                      .dwattr $C$DW$215, DW_AT_low_pc(0x00)
    1392                      .dwattr $C$DW$215, DW_AT_name("_ijac_update_t")
    1393                      .dwattr $C$DW$215, DW_AT_TI_call
    1394 000109 6C00          CALL #_ijac_update_t ; |365| 
         00010b 0000+
    1395                                                      ; call occurs [#_ijac_update_t] ; |365| 
    1396                      .dwpsn  file "C:/Users/a0221074/Desktop/C5000/IBM_Watson_TIdesign_workarea/CSL_bitbucket/c55_csl/c55x
    1397 00010d A9E8          MOV *SP(#116), AR1 ; |345| 
    1398 00010f F768          ADD #1, *SP(#52) ; |345| 
         000111 0001 
    1399 000113 D66A          ADD *SP(#53), AR1, AR1 ; |345| 
         000115 99   
    1400 000116 C96A          MOV AR1, *SP(#53) ; |345| 
    1401                      .dwpsn  file "C:/Users/a0221074/Desktop/C5000/IBM_Watson_TIdesign_workarea/CSL_bitbucket/c55_csl/c55x
    1402 000118 A92E          MOV *SP(#23), AR1 ; |345| 
    1403 00011a AA68          MOV *SP(#52), AR2 ; |345| 
    1404 00011c 12A4          CMPU AR2 < AR1, TC1 ; |345| 
         00011e 94   
    1405 00011f 6D64          BCC $C$L11,TC1 ; |345| 
         000121 FF17 
    1406                                                      ; branchcc occurs ; |345| 
    1407 000123       $C$DW$L$_update_statistics$2$E:
    1408 000123       $C$L12:    
    1409                      .dwpsn  file "C:/Users/a0221074/Desktop/C5000/IBM_Watson_TIdesign_workarea/CSL_bitbucket/c55_csl/c55x
    1410 000123 A4F0          MOV *SP(#120), T0 ; |378| 
    1411                      .dwpsn  file "C:/Users/a0221074/Desktop/C5000/IBM_Watson_TIdesign_workarea/CSL_bitbucket/c55_csl/c55x
    1412 000125 F79A          ADD #154, mmap(SP)
         000127 009A 
         000129 98   
    1413                      .dwcfi  cfa_offset, 2
    1414 00012a 50E4          POPBOTH XFP
    1415                      .dwcfi  restore_reg, 32
    1416                      .dwcfi  cfa_offset, 1
    1417              $C$DW$216       .dwtag  DW_TAG_TI_branch
TMS320C55x Assembler PC v4.4.1 Wed Sep 13 16:33:23 2017

Tools Copyright (c) 1996-2012 Texas Instruments Incorporated
C:\Users\a0221074\AppData\Local\Temp\1618010                         PAGE   32

    1418                      .dwattr $C$DW$216, DW_AT_low_pc(0x00)
    1419                      .dwattr $C$DW$216, DW_AT_TI_return
    1420 00012c 4804          RET
    1421                                                      ; return occurs
    1422              
    1423              $C$DW$217       .dwtag  DW_TAG_TI_loop
    1424                      .dwattr $C$DW$217, DW_AT_name("C:\\Users\\a0221074\\AppData\\Local\\Temp\\1618010:$C$L11:1:1505334800
    1425                      .dwattr $C$DW$217, DW_AT_TI_begin_file("C:/Users/a0221074/Desktop/C5000/IBM_Watson_TIdesign_workarea/
    1426                      .dwattr $C$DW$217, DW_AT_TI_begin_line(0x159)
    1427                      .dwattr $C$DW$217, DW_AT_TI_end_line(0x178)
    1428              $C$DW$218       .dwtag  DW_TAG_TI_loop_range
    1429                      .dwattr $C$DW$218, DW_AT_low_pc($C$DW$L$_update_statistics$2$B)
    1430                      .dwattr $C$DW$218, DW_AT_high_pc($C$DW$L$_update_statistics$2$E)
    1431                      .dwendtag $C$DW$217
    1432              
    1433                      .dwattr $C$DW$180, DW_AT_TI_end_file("C:/Users/a0221074/Desktop/C5000/IBM_Watson_TIdesign_workarea/CS
    1434                      .dwattr $C$DW$180, DW_AT_TI_end_line(0x17b)
    1435                      .dwattr $C$DW$180, DW_AT_TI_end_column(0x01)
    1436                      .dwendentry
    1437                      .dwendtag $C$DW$180
    1438              
    1439 000000               .sect   ".text:_JAC_clear"
    1440                      .clink
    1441                      .global _JAC_clear
    1442              
    1443              $C$DW$219       .dwtag  DW_TAG_subprogram, DW_AT_name("JAC_clear")
    1444                      .dwattr $C$DW$219, DW_AT_low_pc(_JAC_clear)
    1445                      .dwattr $C$DW$219, DW_AT_high_pc(0x00)
    1446                      .dwattr $C$DW$219, DW_AT_TI_symbol_name("_JAC_clear")
    1447                      .dwattr $C$DW$219, DW_AT_external
    1448                      .dwattr $C$DW$219, DW_AT_type(*$C$DW$T$108)
    1449                      .dwattr $C$DW$219, DW_AT_TI_begin_file("C:/Users/a0221074/Desktop/C5000/IBM_Watson_TIdesign_workarea/
    1450                      .dwattr $C$DW$219, DW_AT_TI_begin_line(0x18a)
    1451                      .dwattr $C$DW$219, DW_AT_TI_begin_column(0x1a)
    1452                      .dwattr $C$DW$219, DW_AT_TI_max_frame_size(0x08)
    1453                      .dwpsn  file "C:/Users/a0221074/Desktop/C5000/IBM_Watson_TIdesign_workarea/CSL_bitbucket/c55_csl/c55x
    1454              
    1455                      .dwfde $C$DW$CIE, _JAC_clear
    1456              $C$DW$220       .dwtag  DW_TAG_formal_parameter, DW_AT_name("gv")
    1457                      .dwattr $C$DW$220, DW_AT_TI_symbol_name("_gv")
    1458                      .dwattr $C$DW$220, DW_AT_type(*$C$DW$T$98)
    1459                      .dwattr $C$DW$220, DW_AT_location[DW_OP_reg17]
    1460              $C$DW$221       .dwtag  DW_TAG_formal_parameter, DW_AT_name("aModelDir")
    1461                      .dwattr $C$DW$221, DW_AT_TI_symbol_name("_aModelDir")
    1462                      .dwattr $C$DW$221, DW_AT_type(*$C$DW$T$110)
    1463                      .dwattr $C$DW$221, DW_AT_location[DW_OP_reg19]
    1464              $C$DW$222       .dwtag  DW_TAG_formal_parameter, DW_AT_name("aTreeFile")
    1465                      .dwattr $C$DW$222, DW_AT_TI_symbol_name("_aTreeFile")
    1466                      .dwattr $C$DW$222, DW_AT_type(*$C$DW$T$110)
    1467                      .dwattr $C$DW$222, DW_AT_location[DW_OP_reg21]
    1468              ;*******************************************************************************
    1469              ;* FUNCTION NAME: JAC_clear                                                    *
    1470              ;*                                                                             *
    1471              ;*   Function Uses Regs : AC0,AC0,T0,AR0,XAR0,AR1,XAR1,AR2,XAR2,AR3,XAR3,SP,   *
    1472              ;*                        CARRY,TC1,M40,SATA,SATD,RDM,FRCT,SMUL                *
TMS320C55x Assembler PC v4.4.1 Wed Sep 13 16:33:23 2017

Tools Copyright (c) 1996-2012 Texas Instruments Incorporated
C:\Users\a0221074\AppData\Local\Temp\1618010                         PAGE   33

    1473              ;*   Stack Frame        : Compact (No Frame Pointer, w/ debug)                 *
    1474              ;*   Total Frame Size   : 8 words                                              *
    1475              ;*                        (1 return address/alignment)                         *
    1476              ;*                        (7 local values)                                     *
    1477              ;*   Min System Stack   : 1 word                                               *
    1478              ;*******************************************************************************
    1479 000000       _JAC_clear:
    1480                      .dwcfi  cfa_offset, 1
    1481                      .dwcfi  save_reg_to_mem, 91, -1
    1482 000000 4EF9          AADD #-7, SP
    1483                      .dwcfi  cfa_offset, 8
    1484              $C$DW$223       .dwtag  DW_TAG_variable, DW_AT_name("gv")
    1485                      .dwattr $C$DW$223, DW_AT_TI_symbol_name("_gv")
    1486                      .dwattr $C$DW$223, DW_AT_type(*$C$DW$T$98)
    1487                      .dwattr $C$DW$223, DW_AT_location[DW_OP_bregx 0x24 0]
    1488              $C$DW$224       .dwtag  DW_TAG_variable, DW_AT_name("aModelDir")
    1489                      .dwattr $C$DW$224, DW_AT_TI_symbol_name("_aModelDir")
    1490                      .dwattr $C$DW$224, DW_AT_type(*$C$DW$T$110)
    1491                      .dwattr $C$DW$224, DW_AT_location[DW_OP_bregx 0x24 2]
    1492              $C$DW$225       .dwtag  DW_TAG_variable, DW_AT_name("aTreeFile")
    1493                      .dwattr $C$DW$225, DW_AT_TI_symbol_name("_aTreeFile")
    1494                      .dwattr $C$DW$225, DW_AT_type(*$C$DW$T$110)
    1495                      .dwattr $C$DW$225, DW_AT_location[DW_OP_bregx 0x24 4]
    1496              $C$DW$226       .dwtag  DW_TAG_variable, DW_AT_name("d")
    1497                      .dwattr $C$DW$226, DW_AT_TI_symbol_name("_d")
    1498                      .dwattr $C$DW$226, DW_AT_type(*$C$DW$T$10)
    1499                      .dwattr $C$DW$226, DW_AT_location[DW_OP_bregx 0x24 6]
    1500 000002 EB08          MOV XAR2, dbl(*SP(#4))
         000004 A5   
    1501 000005 EB04          MOV XAR1, dbl(*SP(#2))
         000007 95   
    1502 000008 EB00          MOV XAR0, dbl(*SP(#0))
         00000a 85   
    1503                      .dwpsn  file "C:/Users/a0221074/Desktop/C5000/IBM_Watson_TIdesign_workarea/CSL_bitbucket/c55_csl/c55x
    1504 00000b ED00          MOV dbl(*SP(#0)), XAR3
         00000d BF   
    1505 00000e DC6D          BTST #1, *AR3(#273), TC1 ; |462| 
         000010 1001 
         000012 11   
    1506 000013 0474          BCC $C$L16,!TC1 ; |462| 
         000015 68   
    1507                                                      ; branchcc occurs ; |462| 
    1508                      .dwpsn  file "C:/Users/a0221074/Desktop/C5000/IBM_Watson_TIdesign_workarea/CSL_bitbucket/c55_csl/c55x
    1509 000016 E60C          MOV #0, *SP(#6) ; |463| 
         000018 00   
    1510 000019 ED00          MOV dbl(*SP(#0)), XAR3
         00001b BF   
    1511 00001c A96D          MOV *AR3(#279), AR1 ; |463| 
         00001e 0117 
    1512 000020 AA0C          MOV *SP(#6), AR2 ; |463| 
    1513 000022 12A8          CMPU AR2 >= AR1, TC1 ; |463| 
         000024 94   
    1514 000025 0464          BCC $C$L14,TC1 ; |463| 
         000027 1D   
    1515                                                      ; branchcc occurs ; |463| 
TMS320C55x Assembler PC v4.4.1 Wed Sep 13 16:33:23 2017

Tools Copyright (c) 1996-2012 Texas Instruments Incorporated
C:\Users\a0221074\AppData\Local\Temp\1618010                         PAGE   34

    1516 000028       $C$L13:    
    1517 000028       $C$DW$L$_JAC_clear$3$B:
    1518                      .dwpsn  file "C:/Users/a0221074/Desktop/C5000/IBM_Watson_TIdesign_workarea/CSL_bitbucket/c55_csl/c55x
    1519 000028 A90C          MOV *SP(#6), AR1 ; |463| 
    1520 00002a 1490          AADD AR1, AR3 ; |463| 
         00002c B0   
    1521 00002d E66D          MOV #0, *AR3(#840) ; |463| 
         00002f 0003 
         000031 48   
    1522                      .dwpsn  file "C:/Users/a0221074/Desktop/C5000/IBM_Watson_TIdesign_workarea/CSL_bitbucket/c55_csl/c55x
    1523 000032 F70C          ADD #1, *SP(#6) ; |463| 
         000034 0001 
    1524 000036 ED00          MOV dbl(*SP(#0)), XAR3
         000038 BF   
    1525 000039 AA0C          MOV *SP(#6), AR2 ; |463| 
    1526 00003b A96D          MOV *AR3(#279), AR1 ; |463| 
         00003d 0117 
    1527 00003f 12A4          CMPU AR2 < AR1, TC1 ; |463| 
         000041 94   
    1528 000042 0464          BCC $C$L13,TC1 ; |463| 
         000044 E3   
    1529                                                      ; branchcc occurs ; |463| 
    1530 000045       $C$DW$L$_JAC_clear$3$E:
    1531 000045       $C$L14:    
    1532                      .dwpsn  file "C:/Users/a0221074/Desktop/C5000/IBM_Watson_TIdesign_workarea/CSL_bitbucket/c55_csl/c55x
    1533 000045 E60C          MOV #0, *SP(#6) ; |466| 
         000047 00   
    1534 000048 ED00          MOV dbl(*SP(#0)), XAR3
         00004a BF   
    1535 00004b A96D          MOV *AR3(#279), AR1 ; |466| 
         00004d 0117 
    1536              
    1537 000051 5190          SFTL AR1, #1 ; |466| 
    1538 00004f AA0C  ||      MOV *SP(#6), AR2 ; |466| 
    1539              
    1540 000053 12A8          CMPU AR2 >= AR1, TC1 ; |466| 
         000055 94   
    1541 000056 0464          BCC $C$L16,TC1 ; |466| 
         000058 25   
    1542                                                      ; branchcc occurs ; |466| 
    1543 000059       $C$L15:    
    1544 000059       $C$DW$L$_JAC_clear$5$B:
    1545                      .dwpsn  file "C:/Users/a0221074/Desktop/C5000/IBM_Watson_TIdesign_workarea/CSL_bitbucket/c55_csl/c55x
    1546 000059 A00C          MOV *SP(#6), AC0 ; |466| 
    1547 00005b 5000          SFTL AC0, #1 ; |466| 
    1548 00005d 900A          MOV AC0, XAR2
    1549              
    1550 00005f 14A1          AADD XAR2, XAR3 ; |466| 
         000061 B0   
    1551 000062 3D00  ||      MOV #0, AC0 ; |466| 
    1552              
    1553 000064 EB6D          MOV AC0, dbl(*AR3(#892)) ; |466| 
         000066 0803 
         000068 7C   
    1554                      .dwpsn  file "C:/Users/a0221074/Desktop/C5000/IBM_Watson_TIdesign_workarea/CSL_bitbucket/c55_csl/c55x
TMS320C55x Assembler PC v4.4.1 Wed Sep 13 16:33:23 2017

Tools Copyright (c) 1996-2012 Texas Instruments Incorporated
C:\Users\a0221074\AppData\Local\Temp\1618010                         PAGE   35

    1555 000069 F70C          ADD #1, *SP(#6) ; |466| 
         00006b 0001 
    1556 00006d ED00          MOV dbl(*SP(#0)), XAR3
         00006f BF   
    1557 000070 A96D          MOV *AR3(#279), AR1 ; |466| 
         000072 0117 
    1558              
    1559 000076 5190          SFTL AR1, #1 ; |466| 
    1560 000074 AA0C  ||      MOV *SP(#6), AR2 ; |466| 
    1561              
    1562 000078 12A4          CMPU AR2 < AR1, TC1 ; |466| 
         00007a 94   
    1563 00007b 0464          BCC $C$L15,TC1 ; |466| 
         00007d DB   
    1564                                                      ; branchcc occurs ; |466| 
    1565 00007e       $C$DW$L$_JAC_clear$5$E:
    1566 00007e       $C$L16:    
    1567                      .dwpsn  file "C:/Users/a0221074/Desktop/C5000/IBM_Watson_TIdesign_workarea/CSL_bitbucket/c55_csl/c55x
    1568 00007e FB6D          MOV #32768, *AR3(#1100) ; |470| 
         000080 8000 
         000082 044C 
    1569                      .dwpsn  file "C:/Users/a0221074/Desktop/C5000/IBM_Watson_TIdesign_workarea/CSL_bitbucket/c55_csl/c55x
    1570 000084 3C04          MOV #0, T0
    1571                      .dwpsn  file "C:/Users/a0221074/Desktop/C5000/IBM_Watson_TIdesign_workarea/CSL_bitbucket/c55_csl/c55x
    1572 000086 4E07          AADD #7, SP
    1573                      .dwcfi  cfa_offset, 1
    1574              $C$DW$227       .dwtag  DW_TAG_TI_branch
    1575                      .dwattr $C$DW$227, DW_AT_low_pc(0x00)
    1576                      .dwattr $C$DW$227, DW_AT_TI_return
    1577 000088 4804          RET
    1578                                                      ; return occurs
    1579              
    1580              $C$DW$228       .dwtag  DW_TAG_TI_loop
    1581                      .dwattr $C$DW$228, DW_AT_name("C:\\Users\\a0221074\\AppData\\Local\\Temp\\1618010:$C$L15:1:1505334800
    1582                      .dwattr $C$DW$228, DW_AT_TI_begin_file("C:/Users/a0221074/Desktop/C5000/IBM_Watson_TIdesign_workarea/
    1583                      .dwattr $C$DW$228, DW_AT_TI_begin_line(0x1d2)
    1584                      .dwattr $C$DW$228, DW_AT_TI_end_line(0x1d2)
    1585              $C$DW$229       .dwtag  DW_TAG_TI_loop_range
    1586                      .dwattr $C$DW$229, DW_AT_low_pc($C$DW$L$_JAC_clear$5$B)
    1587                      .dwattr $C$DW$229, DW_AT_high_pc($C$DW$L$_JAC_clear$5$E)
    1588                      .dwendtag $C$DW$228
    1589              
    1590              
    1591              $C$DW$230       .dwtag  DW_TAG_TI_loop
    1592                      .dwattr $C$DW$230, DW_AT_name("C:\\Users\\a0221074\\AppData\\Local\\Temp\\1618010:$C$L13:1:1505334800
    1593                      .dwattr $C$DW$230, DW_AT_TI_begin_file("C:/Users/a0221074/Desktop/C5000/IBM_Watson_TIdesign_workarea/
    1594                      .dwattr $C$DW$230, DW_AT_TI_begin_line(0x1cf)
    1595                      .dwattr $C$DW$230, DW_AT_TI_end_line(0x1cf)
    1596              $C$DW$231       .dwtag  DW_TAG_TI_loop_range
    1597                      .dwattr $C$DW$231, DW_AT_low_pc($C$DW$L$_JAC_clear$3$B)
    1598                      .dwattr $C$DW$231, DW_AT_high_pc($C$DW$L$_JAC_clear$3$E)
    1599                      .dwendtag $C$DW$230
    1600              
    1601                      .dwattr $C$DW$219, DW_AT_TI_end_file("C:/Users/a0221074/Desktop/C5000/IBM_Watson_TIdesign_workarea/CS
    1602                      .dwattr $C$DW$219, DW_AT_TI_end_line(0x1da)
TMS320C55x Assembler PC v4.4.1 Wed Sep 13 16:33:23 2017

Tools Copyright (c) 1996-2012 Texas Instruments Incorporated
C:\Users\a0221074\AppData\Local\Temp\1618010                         PAGE   36

    1603                      .dwattr $C$DW$219, DW_AT_TI_end_column(0x01)
    1604                      .dwendentry
    1605                      .dwendtag $C$DW$219
    1606              
    1607 000000               .sect   ".text:_MP_JAC_load"
    1608                      .clink
    1609              
    1610              $C$DW$232       .dwtag  DW_TAG_subprogram, DW_AT_name("MP_JAC_load")
    1611                      .dwattr $C$DW$232, DW_AT_low_pc(_MP_JAC_load)
    1612                      .dwattr $C$DW$232, DW_AT_high_pc(0x00)
    1613                      .dwattr $C$DW$232, DW_AT_TI_symbol_name("_MP_JAC_load")
    1614                      .dwattr $C$DW$232, DW_AT_type(*$C$DW$T$108)
    1615                      .dwattr $C$DW$232, DW_AT_TI_begin_file("C:/Users/a0221074/Desktop/C5000/IBM_Watson_TIdesign_workarea/
    1616                      .dwattr $C$DW$232, DW_AT_TI_begin_line(0x1ee)
    1617                      .dwattr $C$DW$232, DW_AT_TI_begin_column(0x1a)
    1618                      .dwattr $C$DW$232, DW_AT_TI_max_frame_size(0x0c)
    1619                      .dwpsn  file "C:/Users/a0221074/Desktop/C5000/IBM_Watson_TIdesign_workarea/CSL_bitbucket/c55_csl/c55x
    1620              
    1621                      .dwfde $C$DW$CIE, _MP_JAC_load
    1622              $C$DW$233       .dwtag  DW_TAG_formal_parameter, DW_AT_name("bias_file")
    1623                      .dwattr $C$DW$233, DW_AT_TI_symbol_name("_bias_file")
    1624                      .dwattr $C$DW$233, DW_AT_type(*$C$DW$T$110)
    1625                      .dwattr $C$DW$233, DW_AT_location[DW_OP_reg17]
    1626              $C$DW$234       .dwtag  DW_TAG_formal_parameter, DW_AT_name("gv")
    1627                      .dwattr $C$DW$234, DW_AT_TI_symbol_name("_gv")
    1628                      .dwattr $C$DW$234, DW_AT_type(*$C$DW$T$98)
    1629                      .dwattr $C$DW$234, DW_AT_location[DW_OP_reg19]
    1630              $C$DW$235       .dwtag  DW_TAG_formal_parameter, DW_AT_name("pNetDir")
    1631                      .dwattr $C$DW$235, DW_AT_TI_symbol_name("_pNetDir")
    1632                      .dwattr $C$DW$235, DW_AT_type(*$C$DW$T$110)
    1633                      .dwattr $C$DW$235, DW_AT_location[DW_OP_reg21]
    1634              $C$DW$236       .dwtag  DW_TAG_formal_parameter, DW_AT_name("p_tree_file")
    1635                      .dwattr $C$DW$236, DW_AT_TI_symbol_name("_p_tree_file")
    1636                      .dwattr $C$DW$236, DW_AT_type(*$C$DW$T$110)
    1637                      .dwattr $C$DW$236, DW_AT_location[DW_OP_reg23]
    1638              $C$DW$237       .dwtag  DW_TAG_formal_parameter, DW_AT_name("bTriphone")
    1639                      .dwattr $C$DW$237, DW_AT_TI_symbol_name("_bTriphone")
    1640                      .dwattr $C$DW$237, DW_AT_type(*$C$DW$T$8)
    1641                      .dwattr $C$DW$237, DW_AT_location[DW_OP_reg12]
    1642              ;*******************************************************************************
    1643              ;* FUNCTION NAME: MP_JAC_load                                                  *
    1644              ;*                                                                             *
    1645              ;*   Function Uses Regs : T0,AR0,XAR0,AR1,XAR1,AR2,XAR2,AR3,XAR3,SP,M40,SATA,  *
    1646              ;*                        SATD,RDM,FRCT,SMUL                                   *
    1647              ;*   Stack Frame        : Compact (No Frame Pointer, w/ debug)                 *
    1648              ;*   Total Frame Size   : 12 words                                             *
    1649              ;*                        (2 return address/alignment)                         *
    1650              ;*                        (10 local values)                                    *
    1651              ;*   Min System Stack   : 1 word                                               *
    1652              ;*******************************************************************************
    1653 000000       _MP_JAC_load:
    1654                      .dwcfi  cfa_offset, 1
    1655                      .dwcfi  save_reg_to_mem, 91, -1
    1656 000000 4EF5          AADD #-11, SP
    1657                      .dwcfi  cfa_offset, 12
TMS320C55x Assembler PC v4.4.1 Wed Sep 13 16:33:23 2017

Tools Copyright (c) 1996-2012 Texas Instruments Incorporated
C:\Users\a0221074\AppData\Local\Temp\1618010                         PAGE   37

    1658              $C$DW$238       .dwtag  DW_TAG_variable, DW_AT_name("bias_file")
    1659                      .dwattr $C$DW$238, DW_AT_TI_symbol_name("_bias_file")
    1660                      .dwattr $C$DW$238, DW_AT_type(*$C$DW$T$110)
    1661                      .dwattr $C$DW$238, DW_AT_location[DW_OP_bregx 0x24 0]
    1662              $C$DW$239       .dwtag  DW_TAG_variable, DW_AT_name("gv")
    1663                      .dwattr $C$DW$239, DW_AT_TI_symbol_name("_gv")
    1664                      .dwattr $C$DW$239, DW_AT_type(*$C$DW$T$98)
    1665                      .dwattr $C$DW$239, DW_AT_location[DW_OP_bregx 0x24 2]
    1666              $C$DW$240       .dwtag  DW_TAG_variable, DW_AT_name("pNetDir")
    1667                      .dwattr $C$DW$240, DW_AT_TI_symbol_name("_pNetDir")
    1668                      .dwattr $C$DW$240, DW_AT_type(*$C$DW$T$110)
    1669                      .dwattr $C$DW$240, DW_AT_location[DW_OP_bregx 0x24 4]
    1670              $C$DW$241       .dwtag  DW_TAG_variable, DW_AT_name("p_tree_file")
    1671                      .dwattr $C$DW$241, DW_AT_TI_symbol_name("_p_tree_file")
    1672                      .dwattr $C$DW$241, DW_AT_type(*$C$DW$T$110)
    1673                      .dwattr $C$DW$241, DW_AT_location[DW_OP_bregx 0x24 6]
    1674              $C$DW$242       .dwtag  DW_TAG_variable, DW_AT_name("bTriphone")
    1675                      .dwattr $C$DW$242, DW_AT_TI_symbol_name("_bTriphone")
    1676                      .dwattr $C$DW$242, DW_AT_type(*$C$DW$T$8)
    1677                      .dwattr $C$DW$242, DW_AT_location[DW_OP_bregx 0x24 8]
    1678              $C$DW$243       .dwtag  DW_TAG_variable, DW_AT_name("eStatus")
    1679                      .dwattr $C$DW$243, DW_AT_TI_symbol_name("_eStatus")
    1680                      .dwattr $C$DW$243, DW_AT_type(*$C$DW$T$108)
    1681                      .dwattr $C$DW$243, DW_AT_location[DW_OP_bregx 0x24 9]
    1682 000002 C410          MOV T0, *SP(#8) ; |497| 
    1683 000004 EB0C          MOV XAR3, dbl(*SP(#6))
         000006 B5   
    1684 000007 EB08          MOV XAR2, dbl(*SP(#4))
         000009 A5   
    1685 00000a EB04          MOV XAR1, dbl(*SP(#2))
         00000c 95   
    1686 00000d EB00          MOV XAR0, dbl(*SP(#0))
         00000f 85   
    1687                      .dwpsn  file "C:/Users/a0221074/Desktop/C5000/IBM_Watson_TIdesign_workarea/CSL_bitbucket/c55_csl/c55x
    1688 000010 ED04          MOV dbl(*SP(#2)), XAR0
         000012 8F   
    1689              $C$DW$244       .dwtag  DW_TAG_TI_branch
    1690                      .dwattr $C$DW$244, DW_AT_low_pc(0x00)
    1691                      .dwattr $C$DW$244, DW_AT_name("_cm_load")
    1692                      .dwattr $C$DW$244, DW_AT_TI_call
    1693 000013 6C00          CALL #_cm_load ; |688| 
         000015 0000!
    1694                                                      ; call occurs [#_cm_load] ; |688| 
    1695                      .dwpsn  file "C:/Users/a0221074/Desktop/C5000/IBM_Watson_TIdesign_workarea/CSL_bitbucket/c55_csl/c55x
    1696 000017 ED08          MOV dbl(*SP(#4)), XAR1
         000019 9F   
    1697 00001a ED0C          MOV dbl(*SP(#6)), XAR2
         00001c AF   
    1698 00001d ED04          MOV dbl(*SP(#2)), XAR0
         00001f 8F   
    1699              $C$DW$245       .dwtag  DW_TAG_TI_branch
    1700                      .dwattr $C$DW$245, DW_AT_low_pc(0x00)
    1701                      .dwattr $C$DW$245, DW_AT_name("_JAC_clear")
    1702                      .dwattr $C$DW$245, DW_AT_TI_call
    1703 000020 6C00          CALL #_JAC_clear ; |691| 
TMS320C55x Assembler PC v4.4.1 Wed Sep 13 16:33:23 2017

Tools Copyright (c) 1996-2012 Texas Instruments Incorporated
C:\Users\a0221074\AppData\Local\Temp\1618010                         PAGE   38

         000022 0000+
    1704                                                      ; call occurs [#_JAC_clear] ; |691| 
    1705 000024 C412          MOV T0, *SP(#9) ; |691| 
    1706                      .dwpsn  file "C:/Users/a0221074/Desktop/C5000/IBM_Watson_TIdesign_workarea/CSL_bitbucket/c55_csl/c55x
    1707                      .dwpsn  file "C:/Users/a0221074/Desktop/C5000/IBM_Watson_TIdesign_workarea/CSL_bitbucket/c55_csl/c55x
    1708 000026 4E0B          AADD #11, SP
    1709                      .dwcfi  cfa_offset, 1
    1710              $C$DW$246       .dwtag  DW_TAG_TI_branch
    1711                      .dwattr $C$DW$246, DW_AT_low_pc(0x00)
    1712                      .dwattr $C$DW$246, DW_AT_TI_return
    1713 000028 4804          RET
    1714                                                      ; return occurs
    1715                      .dwattr $C$DW$232, DW_AT_TI_end_file("C:/Users/a0221074/Desktop/C5000/IBM_Watson_TIdesign_workarea/CS
    1716                      .dwattr $C$DW$232, DW_AT_TI_end_line(0x2b8)
    1717                      .dwattr $C$DW$232, DW_AT_TI_end_column(0x01)
    1718                      .dwendentry
    1719                      .dwendtag $C$DW$232
    1720              
    1721 000000               .sect   ".text:_JAC_load"
    1722                      .clink
    1723                      .global _JAC_load
    1724              
    1725              $C$DW$247       .dwtag  DW_TAG_subprogram, DW_AT_name("JAC_load")
    1726                      .dwattr $C$DW$247, DW_AT_low_pc(_JAC_load)
    1727                      .dwattr $C$DW$247, DW_AT_high_pc(0x00)
    1728                      .dwattr $C$DW$247, DW_AT_TI_symbol_name("_JAC_load")
    1729                      .dwattr $C$DW$247, DW_AT_external
    1730                      .dwattr $C$DW$247, DW_AT_type(*$C$DW$T$108)
    1731                      .dwattr $C$DW$247, DW_AT_TI_begin_file("C:/Users/a0221074/Desktop/C5000/IBM_Watson_TIdesign_workarea/
    1732                      .dwattr $C$DW$247, DW_AT_TI_begin_line(0x2cb)
    1733                      .dwattr $C$DW$247, DW_AT_TI_begin_column(0x1a)
    1734                      .dwattr $C$DW$247, DW_AT_TI_max_frame_size(0x0a)
    1735                      .dwpsn  file "C:/Users/a0221074/Desktop/C5000/IBM_Watson_TIdesign_workarea/CSL_bitbucket/c55_csl/c55x
    1736              
    1737                      .dwfde $C$DW$CIE, _JAC_load
    1738              $C$DW$248       .dwtag  DW_TAG_formal_parameter, DW_AT_name("bias_file")
    1739                      .dwattr $C$DW$248, DW_AT_TI_symbol_name("_bias_file")
    1740                      .dwattr $C$DW$248, DW_AT_type(*$C$DW$T$110)
    1741                      .dwattr $C$DW$248, DW_AT_location[DW_OP_reg17]
    1742              $C$DW$249       .dwtag  DW_TAG_formal_parameter, DW_AT_name("gv")
    1743                      .dwattr $C$DW$249, DW_AT_TI_symbol_name("_gv")
    1744                      .dwattr $C$DW$249, DW_AT_type(*$C$DW$T$98)
    1745                      .dwattr $C$DW$249, DW_AT_location[DW_OP_reg19]
    1746              $C$DW$250       .dwtag  DW_TAG_formal_parameter, DW_AT_name("pNetDir")
    1747                      .dwattr $C$DW$250, DW_AT_TI_symbol_name("_pNetDir")
    1748                      .dwattr $C$DW$250, DW_AT_type(*$C$DW$T$110)
    1749                      .dwattr $C$DW$250, DW_AT_location[DW_OP_reg21]
    1750              $C$DW$251       .dwtag  DW_TAG_formal_parameter, DW_AT_name("p_tree_file")
    1751                      .dwattr $C$DW$251, DW_AT_TI_symbol_name("_p_tree_file")
    1752                      .dwattr $C$DW$251, DW_AT_type(*$C$DW$T$110)
    1753                      .dwattr $C$DW$251, DW_AT_location[DW_OP_reg23]
    1754              ;*******************************************************************************
    1755              ;* FUNCTION NAME: JAC_load                                                     *
    1756              ;*                                                                             *
    1757              ;*   Function Uses Regs : T0,AR0,XAR0,AR1,XAR1,AR2,XAR2,AR3,XAR3,SP,M40,SATA,  *
TMS320C55x Assembler PC v4.4.1 Wed Sep 13 16:33:23 2017

Tools Copyright (c) 1996-2012 Texas Instruments Incorporated
C:\Users\a0221074\AppData\Local\Temp\1618010                         PAGE   39

    1758              ;*                        SATD,RDM,FRCT,SMUL                                   *
    1759              ;*   Stack Frame        : Compact (No Frame Pointer, w/ debug)                 *
    1760              ;*   Total Frame Size   : 10 words                                             *
    1761              ;*                        (1 return address/alignment)                         *
    1762              ;*                        (9 local values)                                     *
    1763              ;*   Min System Stack   : 1 word                                               *
    1764              ;*******************************************************************************
    1765 000000       _JAC_load:
    1766                      .dwcfi  cfa_offset, 1
    1767                      .dwcfi  save_reg_to_mem, 91, -1
    1768 000000 4EF7          AADD #-9, SP
    1769                      .dwcfi  cfa_offset, 10
    1770              $C$DW$252       .dwtag  DW_TAG_variable, DW_AT_name("bias_file")
    1771                      .dwattr $C$DW$252, DW_AT_TI_symbol_name("_bias_file")
    1772                      .dwattr $C$DW$252, DW_AT_type(*$C$DW$T$110)
    1773                      .dwattr $C$DW$252, DW_AT_location[DW_OP_bregx 0x24 0]
    1774              $C$DW$253       .dwtag  DW_TAG_variable, DW_AT_name("gv")
    1775                      .dwattr $C$DW$253, DW_AT_TI_symbol_name("_gv")
    1776                      .dwattr $C$DW$253, DW_AT_type(*$C$DW$T$98)
    1777                      .dwattr $C$DW$253, DW_AT_location[DW_OP_bregx 0x24 2]
    1778              $C$DW$254       .dwtag  DW_TAG_variable, DW_AT_name("pNetDir")
    1779                      .dwattr $C$DW$254, DW_AT_TI_symbol_name("_pNetDir")
    1780                      .dwattr $C$DW$254, DW_AT_type(*$C$DW$T$110)
    1781                      .dwattr $C$DW$254, DW_AT_location[DW_OP_bregx 0x24 4]
    1782              $C$DW$255       .dwtag  DW_TAG_variable, DW_AT_name("p_tree_file")
    1783                      .dwattr $C$DW$255, DW_AT_TI_symbol_name("_p_tree_file")
    1784                      .dwattr $C$DW$255, DW_AT_type(*$C$DW$T$110)
    1785                      .dwattr $C$DW$255, DW_AT_location[DW_OP_bregx 0x24 6]
    1786              $C$DW$256       .dwtag  DW_TAG_variable, DW_AT_name("eStatus")
    1787                      .dwattr $C$DW$256, DW_AT_TI_symbol_name("_eStatus")
    1788                      .dwattr $C$DW$256, DW_AT_type(*$C$DW$T$108)
    1789                      .dwattr $C$DW$256, DW_AT_location[DW_OP_bregx 0x24 8]
    1790 000002 EB0C          MOV XAR3, dbl(*SP(#6))
         000004 B5   
    1791 000005 EB08          MOV XAR2, dbl(*SP(#4))
         000007 A5   
    1792 000008 EB04          MOV XAR1, dbl(*SP(#2))
         00000a 95   
    1793 00000b EB00          MOV XAR0, dbl(*SP(#0))
         00000d 85   
    1794                      .dwpsn  file "C:/Users/a0221074/Desktop/C5000/IBM_Watson_TIdesign_workarea/CSL_bitbucket/c55_csl/c55x
    1795 00000e E610          MOV #0, *SP(#8) ; |732| 
         000010 00   
    1796                      .dwpsn  file "C:/Users/a0221074/Desktop/C5000/IBM_Watson_TIdesign_workarea/CSL_bitbucket/c55_csl/c55x
    1797 000011 ED00          MOV dbl(*SP(#0)), XAR0
         000013 8F   
    1798 000014 ED04          MOV dbl(*SP(#2)), XAR1
         000016 9F   
    1799 000017 ED08          MOV dbl(*SP(#4)), XAR2
         000019 AF   
    1800 00001a ED0C          MOV dbl(*SP(#6)), XAR3
         00001c BF   
    1801              $C$DW$257       .dwtag  DW_TAG_TI_branch
    1802                      .dwattr $C$DW$257, DW_AT_low_pc(0x00)
    1803                      .dwattr $C$DW$257, DW_AT_name("_MP_JAC_load")
TMS320C55x Assembler PC v4.4.1 Wed Sep 13 16:33:23 2017

Tools Copyright (c) 1996-2012 Texas Instruments Incorporated
C:\Users\a0221074\AppData\Local\Temp\1618010                         PAGE   40

    1804                      .dwattr $C$DW$257, DW_AT_TI_call
    1805              
    1806 00001d 6C00          CALL #_MP_JAC_load ; |744| 
         00001f 0000+
    1807 000021 3D14  ||      MOV #1, T0
    1808              
    1809                                                      ; call occurs [#_MP_JAC_load] ; |744| 
    1810 000023 C410          MOV T0, *SP(#8) ; |744| 
    1811                      .dwpsn  file "C:/Users/a0221074/Desktop/C5000/IBM_Watson_TIdesign_workarea/CSL_bitbucket/c55_csl/c55x
    1812                      .dwpsn  file "C:/Users/a0221074/Desktop/C5000/IBM_Watson_TIdesign_workarea/CSL_bitbucket/c55_csl/c55x
    1813 000025 4E09          AADD #9, SP
    1814                      .dwcfi  cfa_offset, 1
    1815              $C$DW$258       .dwtag  DW_TAG_TI_branch
    1816                      .dwattr $C$DW$258, DW_AT_low_pc(0x00)
    1817                      .dwattr $C$DW$258, DW_AT_TI_return
    1818 000027 4804          RET
    1819                                                      ; return occurs
    1820                      .dwattr $C$DW$247, DW_AT_TI_end_file("C:/Users/a0221074/Desktop/C5000/IBM_Watson_TIdesign_workarea/CS
    1821                      .dwattr $C$DW$247, DW_AT_TI_end_line(0x2eb)
    1822                      .dwattr $C$DW$247, DW_AT_TI_end_column(0x01)
    1823                      .dwendentry
    1824                      .dwendtag $C$DW$247
    1825              
    1826 000000               .sect   ".text:_JAC_save"
    1827                      .clink
    1828                      .global _JAC_save
    1829              
    1830              $C$DW$259       .dwtag  DW_TAG_subprogram, DW_AT_name("JAC_save")
    1831                      .dwattr $C$DW$259, DW_AT_low_pc(_JAC_save)
    1832                      .dwattr $C$DW$259, DW_AT_high_pc(0x00)
    1833                      .dwattr $C$DW$259, DW_AT_TI_symbol_name("_JAC_save")
    1834                      .dwattr $C$DW$259, DW_AT_external
    1835                      .dwattr $C$DW$259, DW_AT_type(*$C$DW$T$108)
    1836                      .dwattr $C$DW$259, DW_AT_TI_begin_file("C:/Users/a0221074/Desktop/C5000/IBM_Watson_TIdesign_workarea/
    1837                      .dwattr $C$DW$259, DW_AT_TI_begin_line(0x2f4)
    1838                      .dwattr $C$DW$259, DW_AT_TI_begin_column(0x1a)
    1839                      .dwattr $C$DW$259, DW_AT_TI_max_frame_size(0x0a)
    1840                      .dwpsn  file "C:/Users/a0221074/Desktop/C5000/IBM_Watson_TIdesign_workarea/CSL_bitbucket/c55_csl/c55x
    1841              
    1842                      .dwfde $C$DW$CIE, _JAC_save
    1843              $C$DW$260       .dwtag  DW_TAG_formal_parameter, DW_AT_name("bias_file")
    1844                      .dwattr $C$DW$260, DW_AT_TI_symbol_name("_bias_file")
    1845                      .dwattr $C$DW$260, DW_AT_type(*$C$DW$T$110)
    1846                      .dwattr $C$DW$260, DW_AT_location[DW_OP_reg17]
    1847              $C$DW$261       .dwtag  DW_TAG_formal_parameter, DW_AT_name("gv")
    1848                      .dwattr $C$DW$261, DW_AT_TI_symbol_name("_gv")
    1849                      .dwattr $C$DW$261, DW_AT_type(*$C$DW$T$98)
    1850                      .dwattr $C$DW$261, DW_AT_location[DW_OP_reg19]
    1851              ;*******************************************************************************
    1852              ;* FUNCTION NAME: JAC_save                                                     *
    1853              ;*                                                                             *
    1854              ;*   Function Uses Regs : AC0,AC0,AC1,AC1,T0,AR0,XAR0,AR1,XAR1,AR3,XAR3,SP,    *
    1855              ;*                        CARRY,TC1,M40,SATA,SATD,RDM,FRCT,SMUL                *
    1856              ;*   Stack Frame        : Compact (No Frame Pointer, w/ debug)                 *
    1857              ;*   Total Frame Size   : 10 words                                             *
TMS320C55x Assembler PC v4.4.1 Wed Sep 13 16:33:23 2017

Tools Copyright (c) 1996-2012 Texas Instruments Incorporated
C:\Users\a0221074\AppData\Local\Temp\1618010                         PAGE   41

    1858              ;*                        (2 return address/alignment)                         *
    1859              ;*                        (8 local values)                                     *
    1860              ;*   Min System Stack   : 1 word                                               *
    1861              ;*******************************************************************************
    1862 000000       _JAC_save:
    1863                      .dwcfi  cfa_offset, 1
    1864                      .dwcfi  save_reg_to_mem, 91, -1
    1865 000000 4EF7          AADD #-9, SP
    1866                      .dwcfi  cfa_offset, 10
    1867              $C$DW$262       .dwtag  DW_TAG_variable, DW_AT_name("bias_file")
    1868                      .dwattr $C$DW$262, DW_AT_TI_symbol_name("_bias_file")
    1869                      .dwattr $C$DW$262, DW_AT_type(*$C$DW$T$110)
    1870                      .dwattr $C$DW$262, DW_AT_location[DW_OP_bregx 0x24 0]
    1871              $C$DW$263       .dwtag  DW_TAG_variable, DW_AT_name("gv")
    1872                      .dwattr $C$DW$263, DW_AT_TI_symbol_name("_gv")
    1873                      .dwattr $C$DW$263, DW_AT_type(*$C$DW$T$98)
    1874                      .dwattr $C$DW$263, DW_AT_location[DW_OP_bregx 0x24 2]
    1875              $C$DW$264       .dwtag  DW_TAG_variable, DW_AT_name("numWritten")
    1876                      .dwattr $C$DW$264, DW_AT_TI_symbol_name("_numWritten")
    1877                      .dwattr $C$DW$264, DW_AT_type(*$C$DW$T$189)
    1878                      .dwattr $C$DW$264, DW_AT_location[DW_OP_bregx 0x24 4]
    1879              $C$DW$265       .dwtag  DW_TAG_variable, DW_AT_name("pf")
    1880                      .dwattr $C$DW$265, DW_AT_TI_symbol_name("_pf")
    1881                      .dwattr $C$DW$265, DW_AT_type(*$C$DW$T$121)
    1882                      .dwattr $C$DW$265, DW_AT_location[DW_OP_bregx 0x24 6]
    1883              $C$DW$266       .dwtag  DW_TAG_label, DW_AT_name("Failure"), DW_AT_low_pc($C$L18)
    1884                      .dwattr $C$DW$266, DW_AT_TI_symbol_name("_Failure")
    1885 000002 EB04          MOV XAR1, dbl(*SP(#2))
         000004 95   
    1886 000005 EB00          MOV XAR0, dbl(*SP(#0))
         000007 85   
    1887                      .dwpsn  file "C:/Users/a0221074/Desktop/C5000/IBM_Watson_TIdesign_workarea/CSL_bitbucket/c55_csl/c55x
    1888 000008 EC31          AMOV #$C$FSL1, XAR1 ; |763| 
         00000a 9E00 
         00000c 0000+
    1889              $C$DW$267       .dwtag  DW_TAG_TI_branch
    1890                      .dwattr $C$DW$267, DW_AT_low_pc(0x00)
    1891                      .dwattr $C$DW$267, DW_AT_name("_my_fopen")
    1892                      .dwattr $C$DW$267, DW_AT_TI_call
    1893 00000e 6C00          CALL #_my_fopen ; |763| 
         000010 0000!
    1894                                                      ; call occurs [#_my_fopen] ; |763| 
    1895 000012 EB0C          MOV XAR0, dbl(*SP(#6))
         000014 85   
    1896                      .dwpsn  file "C:/Users/a0221074/Desktop/C5000/IBM_Watson_TIdesign_workarea/CSL_bitbucket/c55_csl/c55x
    1897 000015 ED0C          MOV dbl(*SP(#6)), XAR3
         000017 BF   
    1898 000018 90B0          MOV XAR3, AC0
    1899 00001a 6290          BCC $C$L17,AC0 != #0 ; |765| 
    1900                                                      ; branchcc occurs ; |765| 
    1901                      .dwpsn  file "C:/Users/a0221074/Desktop/C5000/IBM_Watson_TIdesign_workarea/CSL_bitbucket/c55_csl/c55x
    1902 00001c 3C44          MOV #4, T0
    1903 00001e 0600          B $C$L19  ; |768| 
         000020 B7   
    1904                                                      ; branch occurs ; |768| 
TMS320C55x Assembler PC v4.4.1 Wed Sep 13 16:33:23 2017

Tools Copyright (c) 1996-2012 Texas Instruments Incorporated
C:\Users\a0221074\AppData\Local\Temp\1618010                         PAGE   42

    1905 000021       $C$L17:    
    1906                      .dwpsn  file "C:/Users/a0221074/Desktop/C5000/IBM_Watson_TIdesign_workarea/CSL_bitbucket/c55_csl/c55x
    1907 000021 ED04          MOV dbl(*SP(#2)), XAR0
         000023 8F   
    1908 000024 ED0C          MOV dbl(*SP(#6)), XAR1
         000026 9F   
    1909 000027 3C10          MOV #1, AC0 ; |773| 
    1910 000029 B40F          AMAR *+AR0(#279) ; |773| 
         00002b 0117 
    1911              $C$DW$268       .dwtag  DW_TAG_TI_branch
    1912                      .dwattr $C$DW$268, DW_AT_low_pc(0x00)
    1913                      .dwattr $C$DW$268, DW_AT_name("_my_fwrite")
    1914                      .dwattr $C$DW$268, DW_AT_TI_call
    1915              
    1916 00002d 6C00          CALL #_my_fwrite ; |773| 
         00002f 0000!
    1917 000031 3D11  ||      MOV #1, AC1 ; |773| 
    1918              
    1919                                                      ; call occurs [#_my_fwrite] ; |773| 
    1920 000033 EB08          MOV AC0, dbl(*SP(#4)) ; |773| 
         000035 08   
    1921                      .dwpsn  file "C:/Users/a0221074/Desktop/C5000/IBM_Watson_TIdesign_workarea/CSL_bitbucket/c55_csl/c55x
    1922              
    1923 000036 ED08          MOV dbl(*SP(#4)), AC1 ; |774| 
         000038 18   
    1924 000039 3D10  ||      MOV #1, AC0 ; |774| 
    1925              
    1926 00003b 1210          CMPU AC1 == AC0, TC1 ; |774| 
         00003d 04   
    1927 00003e 6D74          BCC $C$L18,!TC1 ; |774| 
         000040 008D 
    1928                                                      ; branchcc occurs ; |774| 
    1929                      .dwpsn  file "C:/Users/a0221074/Desktop/C5000/IBM_Watson_TIdesign_workarea/CSL_bitbucket/c55_csl/c55x
    1930                      .dwpsn  file "C:/Users/a0221074/Desktop/C5000/IBM_Watson_TIdesign_workarea/CSL_bitbucket/c55_csl/c55x
    1931 000042 ED04          MOV dbl(*SP(#2)), XAR0
         000044 8F   
    1932 000045 ED0C          MOV dbl(*SP(#6)), XAR1
         000047 9F   
    1933 000048 B40F          AMAR *+AR0(#278) ; |777| 
         00004a 0116 
    1934              $C$DW$269       .dwtag  DW_TAG_TI_branch
    1935                      .dwattr $C$DW$269, DW_AT_low_pc(0x00)
    1936                      .dwattr $C$DW$269, DW_AT_name("_my_fwrite")
    1937                      .dwattr $C$DW$269, DW_AT_TI_call
    1938              
    1939 00004c 6C00          CALL #_my_fwrite ; |777| 
         00004e 0000!
    1940 000050 3D11  ||      MOV #1, AC1 ; |777| 
    1941              
    1942                                                      ; call occurs [#_my_fwrite] ; |777| 
    1943 000052 EB08          MOV AC0, dbl(*SP(#4)) ; |777| 
         000054 08   
    1944                      .dwpsn  file "C:/Users/a0221074/Desktop/C5000/IBM_Watson_TIdesign_workarea/CSL_bitbucket/c55_csl/c55x
    1945              
    1946 000055 ED08          MOV dbl(*SP(#4)), AC1 ; |778| 
TMS320C55x Assembler PC v4.4.1 Wed Sep 13 16:33:23 2017

Tools Copyright (c) 1996-2012 Texas Instruments Incorporated
C:\Users\a0221074\AppData\Local\Temp\1618010                         PAGE   43

         000057 18   
    1947 000058 3D10  ||      MOV #1, AC0 ; |778| 
    1948              
    1949 00005a 1210          CMPU AC1 == AC0, TC1 ; |778| 
         00005c 04   
    1950 00005d 0474          BCC $C$L18,!TC1 ; |778| 
         00005f 6F   
    1951                                                      ; branchcc occurs ; |778| 
    1952                      .dwpsn  file "C:/Users/a0221074/Desktop/C5000/IBM_Watson_TIdesign_workarea/CSL_bitbucket/c55_csl/c55x
    1953                      .dwpsn  file "C:/Users/a0221074/Desktop/C5000/IBM_Watson_TIdesign_workarea/CSL_bitbucket/c55_csl/c55x
    1954 000060 ED04          MOV dbl(*SP(#2)), XAR3
         000062 BF   
    1955 000063 ED04          MOV dbl(*SP(#2)), XAR0
         000065 8F   
    1956 000066 ED0C          MOV dbl(*SP(#6)), XAR1
         000068 9F   
    1957 000069 DF6D          MOV uns(*AR3(#279)), AC1 ; |781| 
         00006b 1501 
         00006d 17   
    1958 00006e B40F          AMAR *+AR0(#840) ; |781| 
         000070 0348 
    1959              $C$DW$270       .dwtag  DW_TAG_TI_branch
    1960                      .dwattr $C$DW$270, DW_AT_low_pc(0x00)
    1961                      .dwattr $C$DW$270, DW_AT_name("_my_fwrite")
    1962                      .dwattr $C$DW$270, DW_AT_TI_call
    1963 000072 6C00          CALL #_my_fwrite ; |781| 
         000074 0000!
    1964                                                      ; call occurs [#_my_fwrite] ; |781| 
    1965 000076 EB08          MOV AC0, dbl(*SP(#4)) ; |781| 
         000078 08   
    1966                      .dwpsn  file "C:/Users/a0221074/Desktop/C5000/IBM_Watson_TIdesign_workarea/CSL_bitbucket/c55_csl/c55x
    1967 000079 ED04          MOV dbl(*SP(#2)), XAR3
         00007b BF   
    1968 00007c ED08          MOV dbl(*SP(#4)), AC1 ; |782| 
         00007e 18   
    1969 00007f DF6D          MOV uns(*AR3(#279)), AC0 ; |782| 
         000081 0501 
         000083 17   
    1970 000084 1210          CMPU AC1 == AC0, TC1 ; |782| 
         000086 04   
    1971 000087 0474          BCC $C$L18,!TC1 ; |782| 
         000089 45   
    1972                                                      ; branchcc occurs ; |782| 
    1973                      .dwpsn  file "C:/Users/a0221074/Desktop/C5000/IBM_Watson_TIdesign_workarea/CSL_bitbucket/c55_csl/c55x
    1974                      .dwpsn  file "C:/Users/a0221074/Desktop/C5000/IBM_Watson_TIdesign_workarea/CSL_bitbucket/c55_csl/c55x
    1975 00008a ED04          MOV dbl(*SP(#2)), XAR0
         00008c 8F   
    1976 00008d A96D          MOV *AR3(#279), AR1 ; |785| 
         00008f 0117 
    1977 000091 5090          SFTL AR1, #1 ; |785| 
    1978 000093 7DFF          AND #0xffff, AR1, AC1 ; |785| 
         000095 FF19 
    1979 000097 ED0C          MOV dbl(*SP(#6)), XAR1
         000099 9F   
    1980 00009a B40F          AMAR *+AR0(#892) ; |785| 
TMS320C55x Assembler PC v4.4.1 Wed Sep 13 16:33:23 2017

Tools Copyright (c) 1996-2012 Texas Instruments Incorporated
C:\Users\a0221074\AppData\Local\Temp\1618010                         PAGE   44

         00009c 037C 
    1981              $C$DW$271       .dwtag  DW_TAG_TI_branch
    1982                      .dwattr $C$DW$271, DW_AT_low_pc(0x00)
    1983                      .dwattr $C$DW$271, DW_AT_name("_my_fwrite")
    1984                      .dwattr $C$DW$271, DW_AT_TI_call
    1985              
    1986 00009e 6C00          CALL #_my_fwrite ; |785| 
         0000a0 0000!
    1987 0000a2 3D20  ||      MOV #2, AC0 ; |785| 
    1988              
    1989                                                      ; call occurs [#_my_fwrite] ; |785| 
    1990 0000a4 EB08          MOV AC0, dbl(*SP(#4)) ; |785| 
         0000a6 08   
    1991                      .dwpsn  file "C:/Users/a0221074/Desktop/C5000/IBM_Watson_TIdesign_workarea/CSL_bitbucket/c55_csl/c55x
    1992 0000a7 ED04          MOV dbl(*SP(#2)), XAR3
         0000a9 BF   
    1993 0000aa DF6D          MOV uns(*AR3(#279)), AC0 ; |786| 
         0000ac 0501 
         0000ae 17   
    1994              
    1995 0000b2 5100          SFTL AC0, #1 ; |786| 
    1996 0000af ED08  ||      MOV dbl(*SP(#4)), AC1 ; |786| 
         0000b1 18   
    1997              
    1998 0000b4 1210          CMPU AC1 == AC0, TC1 ; |786| 
         0000b6 04   
    1999 0000b7 0474          BCC $C$L18,!TC1 ; |786| 
         0000b9 15   
    2000                                                      ; branchcc occurs ; |786| 
    2001                      .dwpsn  file "C:/Users/a0221074/Desktop/C5000/IBM_Watson_TIdesign_workarea/CSL_bitbucket/c55_csl/c55x
    2002                      .dwpsn  file "C:/Users/a0221074/Desktop/C5000/IBM_Watson_TIdesign_workarea/CSL_bitbucket/c55_csl/c55x
    2003 0000ba ED0C          MOV dbl(*SP(#6)), XAR0
         0000bc 8F   
    2004 0000bd ED04          MOV dbl(*SP(#2)), XAR1
         0000bf 9F   
    2005              $C$DW$272       .dwtag  DW_TAG_TI_branch
    2006                      .dwattr $C$DW$272, DW_AT_low_pc(0x00)
    2007                      .dwattr $C$DW$272, DW_AT_name("_cm_save")
    2008                      .dwattr $C$DW$272, DW_AT_TI_call
    2009 0000c0 6C00          CALL #_cm_save ; |820| 
         0000c2 0000!
    2010                                                      ; call occurs [#_cm_save] ; |820| 
    2011                      .dwpsn  file "C:/Users/a0221074/Desktop/C5000/IBM_Watson_TIdesign_workarea/CSL_bitbucket/c55_csl/c55x
    2012 0000c4 ED0C          MOV dbl(*SP(#6)), XAR0
         0000c6 8F   
    2013              $C$DW$273       .dwtag  DW_TAG_TI_branch
    2014                      .dwattr $C$DW$273, DW_AT_low_pc(0x00)
    2015                      .dwattr $C$DW$273, DW_AT_name("_my_fclose")
    2016                      .dwattr $C$DW$273, DW_AT_TI_call
    2017 0000c7 6C00          CALL #_my_fclose ; |824| 
         0000c9 0000!
    2018                                                      ; call occurs [#_my_fclose] ; |824| 
    2019                      .dwpsn  file "C:/Users/a0221074/Desktop/C5000/IBM_Watson_TIdesign_workarea/CSL_bitbucket/c55_csl/c55x
    2020 0000cb 3C04          MOV #0, T0
    2021 0000cd 4A09          B $C$L19  ; |826| 
TMS320C55x Assembler PC v4.4.1 Wed Sep 13 16:33:23 2017

Tools Copyright (c) 1996-2012 Texas Instruments Incorporated
C:\Users\a0221074\AppData\Local\Temp\1618010                         PAGE   45

    2022                                                      ; branch occurs ; |826| 
    2023 0000cf       $C$L18:    
    2024                      .dwpsn  file "C:/Users/a0221074/Desktop/C5000/IBM_Watson_TIdesign_workarea/CSL_bitbucket/c55_csl/c55x
    2025 0000cf ED0C          MOV dbl(*SP(#6)), XAR0
         0000d1 8F   
    2026              $C$DW$274       .dwtag  DW_TAG_TI_branch
    2027                      .dwattr $C$DW$274, DW_AT_low_pc(0x00)
    2028                      .dwattr $C$DW$274, DW_AT_name("_my_fclose")
    2029                      .dwattr $C$DW$274, DW_AT_TI_call
    2030 0000d2 6C00          CALL #_my_fclose ; |830| 
         0000d4 0000!
    2031                                                      ; call occurs [#_my_fclose] ; |830| 
    2032                      .dwpsn  file "C:/Users/a0221074/Desktop/C5000/IBM_Watson_TIdesign_workarea/CSL_bitbucket/c55_csl/c55x
    2033 0000d6 3C44          MOV #4, T0
    2034 0000d8       $C$L19:    
    2035                      .dwpsn  file "C:/Users/a0221074/Desktop/C5000/IBM_Watson_TIdesign_workarea/CSL_bitbucket/c55_csl/c55x
    2036 0000d8 4E09          AADD #9, SP
    2037                      .dwcfi  cfa_offset, 1
    2038              $C$DW$275       .dwtag  DW_TAG_TI_branch
    2039                      .dwattr $C$DW$275, DW_AT_low_pc(0x00)
    2040                      .dwattr $C$DW$275, DW_AT_TI_return
    2041 0000da 4804          RET
    2042                                                      ; return occurs
    2043                      .dwattr $C$DW$259, DW_AT_TI_end_file("C:/Users/a0221074/Desktop/C5000/IBM_Watson_TIdesign_workarea/CS
    2044                      .dwattr $C$DW$259, DW_AT_TI_end_line(0x340)
    2045                      .dwattr $C$DW$259, DW_AT_TI_end_column(0x01)
    2046                      .dwendentry
    2047                      .dwendtag $C$DW$259
    2048              
    2049 000000               .sect   ".text:_JAC_backup_net"
    2050                      .clink
    2051              
    2052              $C$DW$276       .dwtag  DW_TAG_subprogram, DW_AT_name("JAC_backup_net")
    2053                      .dwattr $C$DW$276, DW_AT_low_pc(_JAC_backup_net)
    2054                      .dwattr $C$DW$276, DW_AT_high_pc(0x00)
    2055                      .dwattr $C$DW$276, DW_AT_TI_symbol_name("_JAC_backup_net")
    2056                      .dwattr $C$DW$276, DW_AT_TI_begin_file("C:/Users/a0221074/Desktop/C5000/IBM_Watson_TIdesign_workarea/
    2057                      .dwattr $C$DW$276, DW_AT_TI_begin_line(0x345)
    2058                      .dwattr $C$DW$276, DW_AT_TI_begin_column(0x0d)
    2059                      .dwattr $C$DW$276, DW_AT_TI_max_frame_size(0x04)
    2060                      .dwpsn  file "C:/Users/a0221074/Desktop/C5000/IBM_Watson_TIdesign_workarea/CSL_bitbucket/c55_csl/c55x
    2061              
    2062                      .dwfde $C$DW$CIE, _JAC_backup_net
    2063              $C$DW$277       .dwtag  DW_TAG_formal_parameter, DW_AT_name("gv")
    2064                      .dwattr $C$DW$277, DW_AT_TI_symbol_name("_gv")
    2065                      .dwattr $C$DW$277, DW_AT_type(*$C$DW$T$98)
    2066                      .dwattr $C$DW$277, DW_AT_location[DW_OP_reg17]
    2067              ;*******************************************************************************
    2068              ;* FUNCTION NAME: JAC_backup_net                                               *
    2069              ;*                                                                             *
    2070              ;*   Function Uses Regs : T0,AR0,XAR0,AR1,AR2,XAR2,AR3,XAR3,SP,CARRY,TC1,M40,  *
    2071              ;*                        SATA,SATD,RDM,FRCT,SMUL                              *
    2072              ;*   Stack Frame        : Compact (No Frame Pointer, w/ debug)                 *
    2073              ;*   Total Frame Size   : 4 words                                              *
    2074              ;*                        (1 return address/alignment)                         *
TMS320C55x Assembler PC v4.4.1 Wed Sep 13 16:33:23 2017

Tools Copyright (c) 1996-2012 Texas Instruments Incorporated
C:\Users\a0221074\AppData\Local\Temp\1618010                         PAGE   46

    2075              ;*                        (3 local values)                                     *
    2076              ;*   Min System Stack   : 1 word                                               *
    2077              ;*******************************************************************************
    2078 000000       _JAC_backup_net:
    2079                      .dwcfi  cfa_offset, 1
    2080                      .dwcfi  save_reg_to_mem, 91, -1
    2081 000000 4EFD          AADD #-3, SP
    2082                      .dwcfi  cfa_offset, 4
    2083              $C$DW$278       .dwtag  DW_TAG_variable, DW_AT_name("gv")
    2084                      .dwattr $C$DW$278, DW_AT_TI_symbol_name("_gv")
    2085                      .dwattr $C$DW$278, DW_AT_type(*$C$DW$T$98)
    2086                      .dwattr $C$DW$278, DW_AT_location[DW_OP_bregx 0x24 0]
    2087              $C$DW$279       .dwtag  DW_TAG_variable, DW_AT_name("i")
    2088                      .dwattr $C$DW$279, DW_AT_TI_symbol_name("_i")
    2089                      .dwattr $C$DW$279, DW_AT_type(*$C$DW$T$8)
    2090                      .dwattr $C$DW$279, DW_AT_location[DW_OP_bregx 0x24 2]
    2091 000002 EB00          MOV XAR0, dbl(*SP(#0))
         000004 85   
    2092                      .dwpsn  file "C:/Users/a0221074/Desktop/C5000/IBM_Watson_TIdesign_workarea/CSL_bitbucket/c55_csl/c55x
    2093 000005 ED00          MOV dbl(*SP(#0)), XAR3
         000007 BF   
    2094 000008 ED00          MOV dbl(*SP(#0)), XAR2
         00000a AF   
    2095 00000b ED6D          MOV dbl(*AR3(#1178)), XAR3
         00000d BF04 
         00000f 9A   
    2096 000010 EB4D          MOV XAR3, dbl(*AR2(#2018))
         000012 B507 
         000014 E2   
    2097                      .dwpsn  file "C:/Users/a0221074/Desktop/C5000/IBM_Watson_TIdesign_workarea/CSL_bitbucket/c55_csl/c55x
    2098 000015 ED00          MOV dbl(*SP(#0)), XAR3
         000017 BF   
    2099 000018 ED00          MOV dbl(*SP(#0)), XAR2
         00001a AF   
    2100 00001b ED6D          MOV dbl(*AR3(#1176)), XAR3
         00001d BF04 
         00001f 98   
    2101 000020 EB4D          MOV XAR3, dbl(*AR2(#2016))
         000022 B507 
         000024 E0   
    2102                      .dwpsn  file "C:/Users/a0221074/Desktop/C5000/IBM_Watson_TIdesign_workarea/CSL_bitbucket/c55_csl/c55x
    2103 000025 E604          MOV #0, *SP(#2) ; |843| 
         000027 00   
    2104                      .dwpsn  file "C:/Users/a0221074/Desktop/C5000/IBM_Watson_TIdesign_workarea/CSL_bitbucket/c55_csl/c55x
    2105 000028 ED00          MOV dbl(*SP(#0)), XAR3
         00002a BF   
    2106 00002b AA04          MOV *SP(#2), AR2 ; |843| 
    2107 00002d A96D          MOV *AR3(#2000), AR1 ; |843| 
         00002f 07D0 
    2108 000031 12A8          CMPU AR2 >= AR1, TC1 ; |843| 
         000033 94   
    2109 000034 0464          BCC $C$L21,TC1 ; |843| 
         000036 28   
    2110                                                      ; branchcc occurs ; |843| 
    2111 000037       $C$L20:    
TMS320C55x Assembler PC v4.4.1 Wed Sep 13 16:33:23 2017

Tools Copyright (c) 1996-2012 Texas Instruments Incorporated
C:\Users\a0221074\AppData\Local\Temp\1618010                         PAGE   47

    2112 000037       $C$DW$L$_JAC_backup_net$2$B:
    2113                      .dwpsn  file "C:/Users/a0221074/Desktop/C5000/IBM_Watson_TIdesign_workarea/CSL_bitbucket/c55_csl/c55x
    2114 000037 A404          MOV *SP(#2), T0 ; |844| 
    2115 000039 ED6D          MOV dbl(*AR3(#1998)), XAR3
         00003b BF07 
         00003d CE   
    2116 00003e 2249          MOV T0, AR1
    2117 000040 AA6B          MOV *AR3(T0), AR2 ; |844| 
    2118 000042 ED00          MOV dbl(*SP(#0)), XAR3
         000044 BF   
    2119 000045 1490          AADD AR1, AR3 ; |844| 
         000047 B0   
    2120 000048 CA6D          MOV AR2, *AR3(#2021) ; |844| 
         00004a 07E5 
    2121                      .dwpsn  file "C:/Users/a0221074/Desktop/C5000/IBM_Watson_TIdesign_workarea/CSL_bitbucket/c55_csl/c55x
    2122 00004c F704          ADD #1, *SP(#2) ; |843| 
         00004e 0001 
    2123                      .dwpsn  file "C:/Users/a0221074/Desktop/C5000/IBM_Watson_TIdesign_workarea/CSL_bitbucket/c55_csl/c55x
    2124 000050 ED00          MOV dbl(*SP(#0)), XAR3
         000052 BF   
    2125 000053 AA04          MOV *SP(#2), AR2 ; |843| 
    2126 000055 A96D          MOV *AR3(#2000), AR1 ; |843| 
         000057 07D0 
    2127 000059 12A4          CMPU AR2 < AR1, TC1 ; |843| 
         00005b 94   
    2128 00005c 0464          BCC $C$L20,TC1 ; |843| 
         00005e D8   
    2129                                                      ; branchcc occurs ; |843| 
    2130 00005f       $C$DW$L$_JAC_backup_net$2$E:
    2131 00005f       $C$L21:    
    2132                      .dwpsn  file "C:/Users/a0221074/Desktop/C5000/IBM_Watson_TIdesign_workarea/CSL_bitbucket/c55_csl/c55x
    2133 00005f A96D          MOV *AR3(#2000), AR1 ; |845| 
         000061 07D0 
    2134 000063 C96D          MOV AR1, *AR3(#2020) ; |845| 
         000065 07E4 
    2135                      .dwpsn  file "C:/Users/a0221074/Desktop/C5000/IBM_Watson_TIdesign_workarea/CSL_bitbucket/c55_csl/c55x
    2136 000067 4E03          AADD #3, SP
    2137                      .dwcfi  cfa_offset, 1
    2138              $C$DW$280       .dwtag  DW_TAG_TI_branch
    2139                      .dwattr $C$DW$280, DW_AT_low_pc(0x00)
    2140                      .dwattr $C$DW$280, DW_AT_TI_return
    2141 000069 4804          RET
    2142                                                      ; return occurs
    2143              
    2144              $C$DW$281       .dwtag  DW_TAG_TI_loop
    2145                      .dwattr $C$DW$281, DW_AT_name("C:\\Users\\a0221074\\AppData\\Local\\Temp\\1618010:$C$L20:1:1505334800
    2146                      .dwattr $C$DW$281, DW_AT_TI_begin_file("C:/Users/a0221074/Desktop/C5000/IBM_Watson_TIdesign_workarea/
    2147                      .dwattr $C$DW$281, DW_AT_TI_begin_line(0x34b)
    2148                      .dwattr $C$DW$281, DW_AT_TI_end_line(0x34c)
    2149              $C$DW$282       .dwtag  DW_TAG_TI_loop_range
    2150                      .dwattr $C$DW$282, DW_AT_low_pc($C$DW$L$_JAC_backup_net$2$B)
    2151                      .dwattr $C$DW$282, DW_AT_high_pc($C$DW$L$_JAC_backup_net$2$E)
    2152                      .dwendtag $C$DW$281
    2153              
    2154                      .dwattr $C$DW$276, DW_AT_TI_end_file("C:/Users/a0221074/Desktop/C5000/IBM_Watson_TIdesign_workarea/CS
TMS320C55x Assembler PC v4.4.1 Wed Sep 13 16:33:23 2017

Tools Copyright (c) 1996-2012 Texas Instruments Incorporated
C:\Users\a0221074\AppData\Local\Temp\1618010                         PAGE   48

    2155                      .dwattr $C$DW$276, DW_AT_TI_end_line(0x34e)
    2156                      .dwattr $C$DW$276, DW_AT_TI_end_column(0x01)
    2157                      .dwendentry
    2158                      .dwendtag $C$DW$276
    2159              
    2160 000000               .sect   ".text:_JAC_recover_backuped_net"
    2161                      .clink
    2162              
    2163              $C$DW$283       .dwtag  DW_TAG_subprogram, DW_AT_name("JAC_recover_backuped_net")
    2164                      .dwattr $C$DW$283, DW_AT_low_pc(_JAC_recover_backuped_net)
    2165                      .dwattr $C$DW$283, DW_AT_high_pc(0x00)
    2166                      .dwattr $C$DW$283, DW_AT_TI_symbol_name("_JAC_recover_backuped_net")
    2167                      .dwattr $C$DW$283, DW_AT_TI_begin_file("C:/Users/a0221074/Desktop/C5000/IBM_Watson_TIdesign_workarea/
    2168                      .dwattr $C$DW$283, DW_AT_TI_begin_line(0x351)
    2169                      .dwattr $C$DW$283, DW_AT_TI_begin_column(0x0d)
    2170                      .dwattr $C$DW$283, DW_AT_TI_max_frame_size(0x04)
    2171                      .dwpsn  file "C:/Users/a0221074/Desktop/C5000/IBM_Watson_TIdesign_workarea/CSL_bitbucket/c55_csl/c55x
    2172              
    2173                      .dwfde $C$DW$CIE, _JAC_recover_backuped_net
    2174              $C$DW$284       .dwtag  DW_TAG_formal_parameter, DW_AT_name("gv")
    2175                      .dwattr $C$DW$284, DW_AT_TI_symbol_name("_gv")
    2176                      .dwattr $C$DW$284, DW_AT_type(*$C$DW$T$98)
    2177                      .dwattr $C$DW$284, DW_AT_location[DW_OP_reg17]
    2178              ;*******************************************************************************
    2179              ;* FUNCTION NAME: JAC_recover_backuped_net                                     *
    2180              ;*                                                                             *
    2181              ;*   Function Uses Regs : T0,AR0,XAR0,AR1,AR2,XAR2,AR3,XAR3,SP,CARRY,TC1,M40,  *
    2182              ;*                        SATA,SATD,RDM,FRCT,SMUL                              *
    2183              ;*   Stack Frame        : Compact (No Frame Pointer, w/ debug)                 *
    2184              ;*   Total Frame Size   : 4 words                                              *
    2185              ;*                        (1 return address/alignment)                         *
    2186              ;*                        (3 local values)                                     *
    2187              ;*   Min System Stack   : 1 word                                               *
    2188              ;*******************************************************************************
    2189 000000       _JAC_recover_backuped_net:
    2190                      .dwcfi  cfa_offset, 1
    2191                      .dwcfi  save_reg_to_mem, 91, -1
    2192 000000 4EFD          AADD #-3, SP
    2193                      .dwcfi  cfa_offset, 4
    2194              $C$DW$285       .dwtag  DW_TAG_variable, DW_AT_name("gv")
    2195                      .dwattr $C$DW$285, DW_AT_TI_symbol_name("_gv")
    2196                      .dwattr $C$DW$285, DW_AT_type(*$C$DW$T$98)
    2197                      .dwattr $C$DW$285, DW_AT_location[DW_OP_bregx 0x24 0]
    2198              $C$DW$286       .dwtag  DW_TAG_variable, DW_AT_name("i")
    2199                      .dwattr $C$DW$286, DW_AT_TI_symbol_name("_i")
    2200                      .dwattr $C$DW$286, DW_AT_type(*$C$DW$T$8)
    2201                      .dwattr $C$DW$286, DW_AT_location[DW_OP_bregx 0x24 2]
    2202 000002 EB00          MOV XAR0, dbl(*SP(#0))
         000004 85   
    2203                      .dwpsn  file "C:/Users/a0221074/Desktop/C5000/IBM_Watson_TIdesign_workarea/CSL_bitbucket/c55_csl/c55x
    2204 000005 ED00          MOV dbl(*SP(#0)), XAR3
         000007 BF   
    2205 000008 ED00          MOV dbl(*SP(#0)), XAR2
         00000a AF   
    2206 00000b ED6D          MOV dbl(*AR3(#2018)), XAR3
TMS320C55x Assembler PC v4.4.1 Wed Sep 13 16:33:23 2017

Tools Copyright (c) 1996-2012 Texas Instruments Incorporated
C:\Users\a0221074\AppData\Local\Temp\1618010                         PAGE   49

         00000d BF07 
         00000f E2   
    2207 000010 EB4D          MOV XAR3, dbl(*AR2(#1178))
         000012 B504 
         000014 9A   
    2208                      .dwpsn  file "C:/Users/a0221074/Desktop/C5000/IBM_Watson_TIdesign_workarea/CSL_bitbucket/c55_csl/c55x
    2209 000015 ED00          MOV dbl(*SP(#0)), XAR3
         000017 BF   
    2210 000018 ED00          MOV dbl(*SP(#0)), XAR2
         00001a AF   
    2211 00001b ED6D          MOV dbl(*AR3(#2016)), XAR3
         00001d BF07 
         00001f E0   
    2212 000020 EB4D          MOV XAR3, dbl(*AR2(#1176))
         000022 B504 
         000024 98   
    2213                      .dwpsn  file "C:/Users/a0221074/Desktop/C5000/IBM_Watson_TIdesign_workarea/CSL_bitbucket/c55_csl/c55x
    2214 000025 ED00          MOV dbl(*SP(#0)), XAR3
         000027 BF   
    2215 000028 A96D          MOV *AR3(#2020), AR1 ; |856| 
         00002a 07E4 
    2216 00002c C96D          MOV AR1, *AR3(#2000) ; |856| 
         00002e 07D0 
    2217                      .dwpsn  file "C:/Users/a0221074/Desktop/C5000/IBM_Watson_TIdesign_workarea/CSL_bitbucket/c55_csl/c55x
    2218 000030 E604          MOV #0, *SP(#2) ; |857| 
         000032 00   
    2219                      .dwpsn  file "C:/Users/a0221074/Desktop/C5000/IBM_Watson_TIdesign_workarea/CSL_bitbucket/c55_csl/c55x
    2220 000033 ED00          MOV dbl(*SP(#0)), XAR3
         000035 BF   
    2221 000036 A96D          MOV *AR3(#2000), AR1 ; |857| 
         000038 07D0 
    2222 00003a AA04          MOV *SP(#2), AR2 ; |857| 
    2223 00003c 12A8          CMPU AR2 >= AR1, TC1 ; |857| 
         00003e 94   
    2224 00003f 0464          BCC $C$L23,TC1 ; |857| 
         000041 28   
    2225                                                      ; branchcc occurs ; |857| 
    2226 000042       $C$L22:    
    2227 000042       $C$DW$L$_JAC_recover_backuped_net$2$B:
    2228                      .dwpsn  file "C:/Users/a0221074/Desktop/C5000/IBM_Watson_TIdesign_workarea/CSL_bitbucket/c55_csl/c55x
    2229 000042 A904          MOV *SP(#2), AR1 ; |858| 
    2230 000044 1490          AADD AR1, AR3 ; |858| 
         000046 B0   
    2231 000047 A96D          MOV *AR3(#2021), AR1 ; |858| 
         000049 07E5 
    2232 00004b ED00          MOV dbl(*SP(#0)), XAR3
         00004d BF   
    2233 00004e A404          MOV *SP(#2), T0 ; |858| 
    2234 000050 ED6D          MOV dbl(*AR3(#1998)), XAR3
         000052 BF07 
         000054 CE   
    2235 000055 C96B          MOV AR1, *AR3(T0) ; |858| 
    2236                      .dwpsn  file "C:/Users/a0221074/Desktop/C5000/IBM_Watson_TIdesign_workarea/CSL_bitbucket/c55_csl/c55x
    2237 000057 F704          ADD #1, *SP(#2) ; |857| 
         000059 0001 
TMS320C55x Assembler PC v4.4.1 Wed Sep 13 16:33:23 2017

Tools Copyright (c) 1996-2012 Texas Instruments Incorporated
C:\Users\a0221074\AppData\Local\Temp\1618010                         PAGE   50

    2238                      .dwpsn  file "C:/Users/a0221074/Desktop/C5000/IBM_Watson_TIdesign_workarea/CSL_bitbucket/c55_csl/c55x
    2239 00005b ED00          MOV dbl(*SP(#0)), XAR3
         00005d BF   
    2240 00005e AA04          MOV *SP(#2), AR2 ; |857| 
    2241 000060 A96D          MOV *AR3(#2000), AR1 ; |857| 
         000062 07D0 
    2242 000064 12A4          CMPU AR2 < AR1, TC1 ; |857| 
         000066 94   
    2243 000067 0464          BCC $C$L22,TC1 ; |857| 
         000069 D8   
    2244                                                      ; branchcc occurs ; |857| 
    2245 00006a       $C$DW$L$_JAC_recover_backuped_net$2$E:
    2246                      .dwpsn  file "C:/Users/a0221074/Desktop/C5000/IBM_Watson_TIdesign_workarea/CSL_bitbucket/c55_csl/c55x
    2247 00006a       $C$L23:    
    2248 00006a 4E03          AADD #3, SP
    2249                      .dwcfi  cfa_offset, 1
    2250              $C$DW$287       .dwtag  DW_TAG_TI_branch
    2251                      .dwattr $C$DW$287, DW_AT_low_pc(0x00)
    2252                      .dwattr $C$DW$287, DW_AT_TI_return
    2253 00006c 4804          RET
    2254                                                      ; return occurs
    2255              
    2256              $C$DW$288       .dwtag  DW_TAG_TI_loop
    2257                      .dwattr $C$DW$288, DW_AT_name("C:\\Users\\a0221074\\AppData\\Local\\Temp\\1618010:$C$L22:1:1505334800
    2258                      .dwattr $C$DW$288, DW_AT_TI_begin_file("C:/Users/a0221074/Desktop/C5000/IBM_Watson_TIdesign_workarea/
    2259                      .dwattr $C$DW$288, DW_AT_TI_begin_line(0x359)
    2260                      .dwattr $C$DW$288, DW_AT_TI_end_line(0x35a)
    2261              $C$DW$289       .dwtag  DW_TAG_TI_loop_range
    2262                      .dwattr $C$DW$289, DW_AT_low_pc($C$DW$L$_JAC_recover_backuped_net$2$B)
    2263                      .dwattr $C$DW$289, DW_AT_high_pc($C$DW$L$_JAC_recover_backuped_net$2$E)
    2264                      .dwendtag $C$DW$288
    2265              
    2266                      .dwattr $C$DW$283, DW_AT_TI_end_file("C:/Users/a0221074/Desktop/C5000/IBM_Watson_TIdesign_workarea/CS
    2267                      .dwattr $C$DW$283, DW_AT_TI_end_line(0x35b)
    2268                      .dwattr $C$DW$283, DW_AT_TI_end_column(0x01)
    2269                      .dwendentry
    2270                      .dwendtag $C$DW$283
    2271              
    2272 000000               .sect   ".text:_cap_in_check"
    2273                      .clink
    2274              
    2275              $C$DW$290       .dwtag  DW_TAG_subprogram, DW_AT_name("cap_in_check")
    2276                      .dwattr $C$DW$290, DW_AT_low_pc(_cap_in_check)
    2277                      .dwattr $C$DW$290, DW_AT_high_pc(0x00)
    2278                      .dwattr $C$DW$290, DW_AT_TI_symbol_name("_cap_in_check")
    2279                      .dwattr $C$DW$290, DW_AT_type(*$C$DW$T$8)
    2280                      .dwattr $C$DW$290, DW_AT_TI_begin_file("C:/Users/a0221074/Desktop/C5000/IBM_Watson_TIdesign_workarea/
    2281                      .dwattr $C$DW$290, DW_AT_TI_begin_line(0x35f)
    2282                      .dwattr $C$DW$290, DW_AT_TI_begin_column(0x0e)
    2283                      .dwattr $C$DW$290, DW_AT_TI_max_frame_size(0x06)
    2284                      .dwpsn  file "C:/Users/a0221074/Desktop/C5000/IBM_Watson_TIdesign_workarea/CSL_bitbucket/c55_csl/c55x
    2285              
    2286                      .dwfde $C$DW$CIE, _cap_in_check
    2287              $C$DW$291       .dwtag  DW_TAG_formal_parameter, DW_AT_name("mesg")
    2288                      .dwattr $C$DW$291, DW_AT_TI_symbol_name("_mesg")
TMS320C55x Assembler PC v4.4.1 Wed Sep 13 16:33:23 2017

Tools Copyright (c) 1996-2012 Texas Instruments Incorporated
C:\Users\a0221074\AppData\Local\Temp\1618010                         PAGE   51

    2289                      .dwattr $C$DW$291, DW_AT_type(*$C$DW$T$78)
    2290                      .dwattr $C$DW$291, DW_AT_location[DW_OP_reg17]
    2291              $C$DW$292       .dwtag  DW_TAG_formal_parameter, DW_AT_name("value")
    2292                      .dwattr $C$DW$292, DW_AT_TI_symbol_name("_value")
    2293                      .dwattr $C$DW$292, DW_AT_type(*$C$DW$T$20)
    2294                      .dwattr $C$DW$292, DW_AT_location[DW_OP_reg12]
    2295              $C$DW$293       .dwtag  DW_TAG_formal_parameter, DW_AT_name("max_mem")
    2296                      .dwattr $C$DW$293, DW_AT_TI_symbol_name("_max_mem")
    2297                      .dwattr $C$DW$293, DW_AT_type(*$C$DW$T$20)
    2298                      .dwattr $C$DW$293, DW_AT_location[DW_OP_reg13]
    2299              ;*******************************************************************************
    2300              ;* FUNCTION NAME: cap_in_check                                                 *
    2301              ;*                                                                             *
    2302              ;*   Function Uses Regs : T0,T1,AR0,XAR0,AR1,AR2,SP,TC1,M40,SATA,SATD,RDM,FRCT,*
    2303              ;*                        SMUL                                                 *
    2304              ;*   Stack Frame        : Compact (No Frame Pointer, w/ debug)                 *
    2305              ;*   Total Frame Size   : 6 words                                              *
    2306              ;*                        (2 return address/alignment)                         *
    2307              ;*                        (4 local values)                                     *
    2308              ;*   Min System Stack   : 1 word                                               *
    2309              ;*******************************************************************************
    2310 000000       _cap_in_check:
    2311                      .dwcfi  cfa_offset, 1
    2312                      .dwcfi  save_reg_to_mem, 91, -1
    2313 000000 4EFB          AADD #-5, SP
    2314                      .dwcfi  cfa_offset, 6
    2315              $C$DW$294       .dwtag  DW_TAG_variable, DW_AT_name("mesg")
    2316                      .dwattr $C$DW$294, DW_AT_TI_symbol_name("_mesg")
    2317                      .dwattr $C$DW$294, DW_AT_type(*$C$DW$T$78)
    2318                      .dwattr $C$DW$294, DW_AT_location[DW_OP_bregx 0x24 0]
    2319              $C$DW$295       .dwtag  DW_TAG_variable, DW_AT_name("value")
    2320                      .dwattr $C$DW$295, DW_AT_TI_symbol_name("_value")
    2321                      .dwattr $C$DW$295, DW_AT_type(*$C$DW$T$20)
    2322                      .dwattr $C$DW$295, DW_AT_location[DW_OP_bregx 0x24 2]
    2323              $C$DW$296       .dwtag  DW_TAG_variable, DW_AT_name("max_mem")
    2324                      .dwattr $C$DW$296, DW_AT_TI_symbol_name("_max_mem")
    2325                      .dwattr $C$DW$296, DW_AT_type(*$C$DW$T$20)
    2326                      .dwattr $C$DW$296, DW_AT_location[DW_OP_bregx 0x24 3]
    2327 000002 C506          MOV T1, *SP(#3) ; |864| 
    2328 000004 C404          MOV T0, *SP(#2) ; |864| 
    2329 000006 EB00          MOV XAR0, dbl(*SP(#0))
         000008 85   
    2330                      .dwpsn  file "C:/Users/a0221074/Desktop/C5000/IBM_Watson_TIdesign_workarea/CSL_bitbucket/c55_csl/c55x
    2331 000009 A906          MOV *SP(#3), AR1 ; |868| 
    2332 00000b AA04          MOV *SP(#2), AR2 ; |868| 
    2333 00000d 1298          CMPU AR2 <= AR1, TC1 ; |868| 
         00000f A4   
    2334 000010 6264          BCC $C$L24,TC1 ; |868| 
    2335                                                      ; branchcc occurs ; |868| 
    2336                      .dwpsn  file "C:/Users/a0221074/Desktop/C5000/IBM_Watson_TIdesign_workarea/CSL_bitbucket/c55_csl/c55x
    2337 000012 3C04          MOV #0, T0
    2338 000014 4A02          B $C$L25  ; |873| 
    2339                                                      ; branch occurs ; |873| 
    2340 000016       $C$L24:    
    2341                      .dwpsn  file "C:/Users/a0221074/Desktop/C5000/IBM_Watson_TIdesign_workarea/CSL_bitbucket/c55_csl/c55x
TMS320C55x Assembler PC v4.4.1 Wed Sep 13 16:33:23 2017

Tools Copyright (c) 1996-2012 Texas Instruments Incorporated
C:\Users\a0221074\AppData\Local\Temp\1618010                         PAGE   52

    2342 000016 3C14          MOV #1, T0
    2343 000018       $C$L25:    
    2344                      .dwpsn  file "C:/Users/a0221074/Desktop/C5000/IBM_Watson_TIdesign_workarea/CSL_bitbucket/c55_csl/c55x
    2345 000018 4E05          AADD #5, SP
    2346                      .dwcfi  cfa_offset, 1
    2347              $C$DW$297       .dwtag  DW_TAG_TI_branch
    2348                      .dwattr $C$DW$297, DW_AT_low_pc(0x00)
    2349                      .dwattr $C$DW$297, DW_AT_TI_return
    2350 00001a 4804          RET
    2351                                                      ; return occurs
    2352                      .dwattr $C$DW$290, DW_AT_TI_end_file("C:/Users/a0221074/Desktop/C5000/IBM_Watson_TIdesign_workarea/CS
    2353                      .dwattr $C$DW$290, DW_AT_TI_end_line(0x36c)
    2354                      .dwattr $C$DW$290, DW_AT_TI_end_column(0x01)
    2355                      .dwendentry
    2356                      .dwendtag $C$DW$290
    2357              
    2358 000000               .sect   ".text:_JAC_make_net"
    2359                      .clink
    2360              
    2361              $C$DW$298       .dwtag  DW_TAG_subprogram, DW_AT_name("JAC_make_net")
    2362                      .dwattr $C$DW$298, DW_AT_low_pc(_JAC_make_net)
    2363                      .dwattr $C$DW$298, DW_AT_high_pc(0x00)
    2364                      .dwattr $C$DW$298, DW_AT_TI_symbol_name("_JAC_make_net")
    2365                      .dwattr $C$DW$298, DW_AT_type(*$C$DW$T$96)
    2366                      .dwattr $C$DW$298, DW_AT_TI_begin_file("C:/Users/a0221074/Desktop/C5000/IBM_Watson_TIdesign_workarea/
    2367                      .dwattr $C$DW$298, DW_AT_TI_begin_line(0x373)
    2368                      .dwattr $C$DW$298, DW_AT_TI_begin_column(0x1e)
    2369                      .dwattr $C$DW$298, DW_AT_TI_max_frame_size(0x16)
    2370                      .dwpsn  file "C:/Users/a0221074/Desktop/C5000/IBM_Watson_TIdesign_workarea/CSL_bitbucket/c55_csl/c55x
    2371              
    2372                      .dwfde $C$DW$CIE, _JAC_make_net
    2373              $C$DW$299       .dwtag  DW_TAG_formal_parameter, DW_AT_name("gv")
    2374                      .dwattr $C$DW$299, DW_AT_TI_symbol_name("_gv")
    2375                      .dwattr $C$DW$299, DW_AT_type(*$C$DW$T$98)
    2376                      .dwattr $C$DW$299, DW_AT_location[DW_OP_reg17]
    2377              $C$DW$300       .dwtag  DW_TAG_formal_parameter, DW_AT_name("n")
    2378                      .dwattr $C$DW$300, DW_AT_TI_symbol_name("_n")
    2379                      .dwattr $C$DW$300, DW_AT_type(*$C$DW$T$20)
    2380                      .dwattr $C$DW$300, DW_AT_location[DW_OP_reg12]
    2381              $C$DW$301       .dwtag  DW_TAG_formal_parameter, DW_AT_name("mem_count")
    2382                      .dwattr $C$DW$301, DW_AT_TI_symbol_name("_mem_count")
    2383                      .dwattr $C$DW$301, DW_AT_type(*$C$DW$T$22)
    2384                      .dwattr $C$DW$301, DW_AT_location[DW_OP_reg19]
    2385              $C$DW$302       .dwtag  DW_TAG_formal_parameter, DW_AT_name("mem_base")
    2386                      .dwattr $C$DW$302, DW_AT_TI_symbol_name("_mem_base")
    2387                      .dwattr $C$DW$302, DW_AT_type(*$C$DW$T$21)
    2388                      .dwattr $C$DW$302, DW_AT_location[DW_OP_reg21]
    2389              $C$DW$303       .dwtag  DW_TAG_formal_parameter, DW_AT_name("max_mem")
    2390                      .dwattr $C$DW$303, DW_AT_TI_symbol_name("_max_mem")
    2391                      .dwattr $C$DW$303, DW_AT_type(*$C$DW$T$20)
    2392                      .dwattr $C$DW$303, DW_AT_location[DW_OP_reg13]
    2393              ;*******************************************************************************
    2394              ;* FUNCTION NAME: JAC_make_net                                                 *
    2395              ;*                                                                             *
    2396              ;*   Function Uses Regs : AC0,AC0,AC1,AC1,T0,T1,AR0,XAR0,AR1,XAR1,AR2,XAR2,AR3,*
TMS320C55x Assembler PC v4.4.1 Wed Sep 13 16:33:23 2017

Tools Copyright (c) 1996-2012 Texas Instruments Incorporated
C:\Users\a0221074\AppData\Local\Temp\1618010                         PAGE   53

    2397              ;*                        XAR3,SP,CARRY,TC1,M40,SATA,SATD,RDM,FRCT,SMUL        *
    2398              ;*   Stack Frame        : Compact (No Frame Pointer, w/ debug)                 *
    2399              ;*   Total Frame Size   : 22 words                                             *
    2400              ;*                        (2 return address/alignment)                         *
    2401              ;*                        (20 local values)                                    *
    2402              ;*   Min System Stack   : 1 word                                               *
    2403              ;*******************************************************************************
    2404 000000       _JAC_make_net:
    2405                      .dwcfi  cfa_offset, 1
    2406                      .dwcfi  save_reg_to_mem, 91, -1
    2407 000000 4EEB          AADD #-21, SP
    2408                      .dwcfi  cfa_offset, 22
    2409              $C$DW$304       .dwtag  DW_TAG_variable, DW_AT_name("gv")
    2410                      .dwattr $C$DW$304, DW_AT_TI_symbol_name("_gv")
    2411                      .dwattr $C$DW$304, DW_AT_type(*$C$DW$T$98)
    2412                      .dwattr $C$DW$304, DW_AT_location[DW_OP_bregx 0x24 0]
    2413              $C$DW$305       .dwtag  DW_TAG_variable, DW_AT_name("n")
    2414                      .dwattr $C$DW$305, DW_AT_TI_symbol_name("_n")
    2415                      .dwattr $C$DW$305, DW_AT_type(*$C$DW$T$20)
    2416                      .dwattr $C$DW$305, DW_AT_location[DW_OP_bregx 0x24 2]
    2417              $C$DW$306       .dwtag  DW_TAG_variable, DW_AT_name("mem_count")
    2418                      .dwattr $C$DW$306, DW_AT_TI_symbol_name("_mem_count")
    2419                      .dwattr $C$DW$306, DW_AT_type(*$C$DW$T$22)
    2420                      .dwattr $C$DW$306, DW_AT_location[DW_OP_bregx 0x24 4]
    2421              $C$DW$307       .dwtag  DW_TAG_variable, DW_AT_name("mem_base")
    2422                      .dwattr $C$DW$307, DW_AT_TI_symbol_name("_mem_base")
    2423                      .dwattr $C$DW$307, DW_AT_type(*$C$DW$T$21)
    2424                      .dwattr $C$DW$307, DW_AT_location[DW_OP_bregx 0x24 6]
    2425              $C$DW$308       .dwtag  DW_TAG_variable, DW_AT_name("max_mem")
    2426                      .dwattr $C$DW$308, DW_AT_TI_symbol_name("_max_mem")
    2427                      .dwattr $C$DW$308, DW_AT_type(*$C$DW$T$20)
    2428                      .dwattr $C$DW$308, DW_AT_location[DW_OP_bregx 0x24 8]
    2429              $C$DW$309       .dwtag  DW_TAG_variable, DW_AT_name("cnt")
    2430                      .dwattr $C$DW$309, DW_AT_TI_symbol_name("_cnt")
    2431                      .dwattr $C$DW$309, DW_AT_type(*$C$DW$T$8)
    2432                      .dwattr $C$DW$309, DW_AT_location[DW_OP_bregx 0x24 9]
    2433              $C$DW$310       .dwtag  DW_TAG_variable, DW_AT_name("i")
    2434                      .dwattr $C$DW$310, DW_AT_TI_symbol_name("_i")
    2435                      .dwattr $C$DW$310, DW_AT_type(*$C$DW$T$8)
    2436                      .dwattr $C$DW$310, DW_AT_location[DW_OP_bregx 0x24 10]
    2437              $C$DW$311       .dwtag  DW_TAG_variable, DW_AT_name("p_cnt")
    2438                      .dwattr $C$DW$311, DW_AT_TI_symbol_name("_p_cnt")
    2439                      .dwattr $C$DW$311, DW_AT_type(*$C$DW$T$22)
    2440                      .dwattr $C$DW$311, DW_AT_location[DW_OP_bregx 0x24 12]
    2441              $C$DW$312       .dwtag  DW_TAG_variable, DW_AT_name("s")
    2442                      .dwattr $C$DW$312, DW_AT_TI_symbol_name("_s")
    2443                      .dwattr $C$DW$312, DW_AT_type(*$C$DW$T$20)
    2444                      .dwattr $C$DW$312, DW_AT_location[DW_OP_bregx 0x24 14]
    2445              $C$DW$313       .dwtag  DW_TAG_variable, DW_AT_name("total_words")
    2446                      .dwattr $C$DW$313, DW_AT_TI_symbol_name("_total_words")
    2447                      .dwattr $C$DW$313, DW_AT_type(*$C$DW$T$20)
    2448                      .dwattr $C$DW$313, DW_AT_location[DW_OP_bregx 0x24 15]
    2449              $C$DW$314       .dwtag  DW_TAG_variable, DW_AT_name("p_sym")
    2450                      .dwattr $C$DW$314, DW_AT_TI_symbol_name("_p_sym")
    2451                      .dwattr $C$DW$314, DW_AT_type(*$C$DW$T$125)
TMS320C55x Assembler PC v4.4.1 Wed Sep 13 16:33:23 2017

Tools Copyright (c) 1996-2012 Texas Instruments Incorporated
C:\Users\a0221074\AppData\Local\Temp\1618010                         PAGE   54

    2452                      .dwattr $C$DW$314, DW_AT_location[DW_OP_bregx 0x24 16]
    2453              $C$DW$315       .dwtag  DW_TAG_variable, DW_AT_name("p_sym0")
    2454                      .dwattr $C$DW$315, DW_AT_TI_symbol_name("_p_sym0")
    2455                      .dwattr $C$DW$315, DW_AT_type(*$C$DW$T$125)
    2456                      .dwattr $C$DW$315, DW_AT_location[DW_OP_bregx 0x24 18]
    2457 000002 C510          MOV T1, *SP(#8) ; |885| 
    2458 000004 EB0C          MOV XAR2, dbl(*SP(#6))
         000006 A5   
    2459 000007 EB08          MOV XAR1, dbl(*SP(#4))
         000009 95   
    2460 00000a C404          MOV T0, *SP(#2) ; |885| 
    2461 00000c EB00          MOV XAR0, dbl(*SP(#0))
         00000e 85   
    2462                      .dwpsn  file "C:/Users/a0221074/Desktop/C5000/IBM_Watson_TIdesign_workarea/CSL_bitbucket/c55_csl/c55x
    2463 00000f ED08          MOV dbl(*SP(#4)), XAR3
         000011 BF   
    2464 000012 DF61          MOV uns(*AR3), AC0 ; |892| 
         000014 05   
    2465 000015 900A          MOV AC0, XAR2
    2466 000017 ED0C          MOV dbl(*SP(#6)), XAR3
         000019 BF   
    2467 00001a 14A1          AADD XAR2, XAR3 ; |892| 
         00001c B0   
    2468 00001d ED00          MOV dbl(*SP(#0)), XAR2
         00001f AF   
    2469 000020 EB4D          MOV XAR3, dbl(*AR2(#1178))
         000022 B504 
         000024 9A   
    2470                      .dwpsn  file "C:/Users/a0221074/Desktop/C5000/IBM_Watson_TIdesign_workarea/CSL_bitbucket/c55_csl/c55x
    2471 000025 ED00          MOV dbl(*SP(#0)), XAR3
         000027 BF   
    2472 000028 ED00          MOV dbl(*SP(#0)), XAR2
         00002a AF   
    2473 00002b ED6D          MOV dbl(*AR3(#1178)), XAR3
         00002d BF04 
         00002f 9A   
    2474 000030 EB4D          MOV XAR3, dbl(*AR2(#1176))
         000032 B504 
         000034 98   
    2475                      .dwpsn  file "C:/Users/a0221074/Desktop/C5000/IBM_Watson_TIdesign_workarea/CSL_bitbucket/c55_csl/c55x
    2476 000035 ED00          MOV dbl(*SP(#0)), XAR3
         000037 BF   
    2477 000038 ED6D          MOV dbl(*AR3(#1176)), XAR3
         00003a BF04 
         00003c 98   
    2478 00003d A904          MOV *SP(#2), AR1 ; |895| 
    2479 00003f 4019          ADD #1, AR1 ; |895| 
    2480 000041 C973          MOV AR1, *AR3(short(#1)) ; |895| 
    2481                      .dwpsn  file "C:/Users/a0221074/Desktop/C5000/IBM_Watson_TIdesign_workarea/CSL_bitbucket/c55_csl/c55x
    2482 000043 ED00          MOV dbl(*SP(#0)), XAR3
         000045 BF   
    2483 000046 ED6D          MOV dbl(*AR3(#1176)), XAR3
         000048 BF04 
         00004a 98   
    2484 00004b A973          MOV *AR3(short(#1)), AR1 ; |897| 
TMS320C55x Assembler PC v4.4.1 Wed Sep 13 16:33:23 2017

Tools Copyright (c) 1996-2012 Texas Instruments Incorporated
C:\Users\a0221074\AppData\Local\Temp\1618010                         PAGE   55

    2485 00004d ED00          MOV dbl(*SP(#0)), XAR3
         00004f BF   
    2486 000050 ED6D          MOV dbl(*AR3(#1176)), XAR3
         000052 BF04 
         000054 98   
    2487 000055 4029          ADD #2, AR1 ; |897| 
    2488 000057 7DFF          AND #0xffff, AR1, AC1 ; |897| 
         000059 FF19 
    2489              
    2490 00005b A973          MOV *AR3(short(#1)), AR1 ; |897| 
    2491 00005d 1117  ||      SFTL AC1, #1, AC0 ; |897| 
         00005f 01   
    2492              
    2493 000060 4219          SUB #1, AR1 ; |897| 
    2494 000062 2510  ||      ADD AC1, AC0 ; |897| 
    2495              
    2496 000064 7DFF          AND #0xffff, AR1, AC1 ; |897| 
         000066 FF19 
    2497 000068 2410          ADD AC1, AC0 ; |897| 
    2498 00006a 4080          ADD #8, AC0 ; |897| 
    2499 00006c C01E          MOV AC0, *SP(#15) ; |897| 
    2500                      .dwpsn  file "C:/Users/a0221074/Desktop/C5000/IBM_Watson_TIdesign_workarea/CSL_bitbucket/c55_csl/c55x
    2501 00006e ED08          MOV dbl(*SP(#4)), XAR3
         000070 BF   
    2502 000071 2209          MOV AC0, AR1
    2503 000073 D661          ADD *AR3, AR1, AR1 ; |898| 
         000075 99   
    2504 000076 C961          MOV AR1, *AR3 ; |898| 
    2505                      .dwpsn  file "C:/Users/a0221074/Desktop/C5000/IBM_Watson_TIdesign_workarea/CSL_bitbucket/c55_csl/c55x
    2506 000078 ED08          MOV dbl(*SP(#4)), XAR3
         00007a BF   
    2507 00007b A510          MOV *SP(#8), T1 ; |902| 
    2508 00007d EC31          AMOV #$C$FSL2, XAR0 ; |902| 
         00007f 8E00 
         000081 0004+
    2509 000083 A461          MOV *AR3, T0 ; |902| 
    2510              $C$DW$316       .dwtag  DW_TAG_TI_branch
    2511                      .dwattr $C$DW$316, DW_AT_low_pc(0x00)
    2512                      .dwattr $C$DW$316, DW_AT_name("_cap_in_check")
    2513                      .dwattr $C$DW$316, DW_AT_TI_call
    2514 000085 6C00          CALL #_cap_in_check ; |902| 
         000087 0000+
    2515                                                      ; call occurs [#_cap_in_check] ; |902| 
    2516 000089 6394          BCC $C$L26,T0 != #0 ; |902| 
    2517                                                      ; branchcc occurs ; |902| 
    2518                      .dwpsn  file "C:/Users/a0221074/Desktop/C5000/IBM_Watson_TIdesign_workarea/CSL_bitbucket/c55_csl/c55x
    2519 00008b 7602          MOV #602, T0 ; |902| 
         00008d 5A48 
    2520 00008f 0601          B $C$L31  ; |902| 
         000091 92   
    2521                                                      ; branch occurs ; |902| 
    2522 000092       $C$L26:    
    2523                      .dwpsn  file "C:/Users/a0221074/Desktop/C5000/IBM_Watson_TIdesign_workarea/CSL_bitbucket/c55_csl/c55x
    2524 000092 ED00          MOV dbl(*SP(#0)), XAR3
         000094 BF   
TMS320C55x Assembler PC v4.4.1 Wed Sep 13 16:33:23 2017

Tools Copyright (c) 1996-2012 Texas Instruments Incorporated
C:\Users\a0221074\AppData\Local\Temp\1618010                         PAGE   56

    2525 000095 ED00          MOV dbl(*SP(#0)), XAR2
         000097 AF   
    2526 000098 ED6D          MOV dbl(*AR3(#2016)), XAR3
         00009a BF07 
         00009c E0   
    2527 00009d ED4D          MOV dbl(*AR2(#1176)), XAR2
         00009f AF04 
         0000a1 98   
    2528 0000a2 8061          MOV *AR3, *AR2 ; |905| 
         0000a4 04   
    2529                      .dwpsn  file "C:/Users/a0221074/Desktop/C5000/IBM_Watson_TIdesign_workarea/CSL_bitbucket/c55_csl/c55x
    2530 0000a5 ED00          MOV dbl(*SP(#0)), XAR3
         0000a7 BF   
    2531 0000a8 ED6D          MOV dbl(*AR3(#1176)), XAR3
         0000aa BF04 
         0000ac 98   
    2532 0000ad E675          MOV #0, *AR3(short(#2)) ; |906| 
         0000af 00   
    2533                      .dwpsn  file "C:/Users/a0221074/Desktop/C5000/IBM_Watson_TIdesign_workarea/CSL_bitbucket/c55_csl/c55x
    2534 0000b0 ED00          MOV dbl(*SP(#0)), XAR3
         0000b2 BF   
    2535 0000b3 ED6D          MOV dbl(*AR3(#2016)), XAR3
         0000b5 BF07 
         0000b7 E0   
    2536 0000b8 A977          MOV *AR3(short(#3)), AR1 ; |907| 
    2537 0000ba ED00          MOV dbl(*SP(#0)), XAR3
         0000bc BF   
    2538 0000bd ED6D          MOV dbl(*AR3(#1176)), XAR3
         0000bf BF04 
         0000c1 98   
    2539 0000c2 C977          MOV AR1, *AR3(short(#3)) ; |907| 
    2540                      .dwpsn  file "C:/Users/a0221074/Desktop/C5000/IBM_Watson_TIdesign_workarea/CSL_bitbucket/c55_csl/c55x
    2541 0000c4 ED00          MOV dbl(*SP(#0)), XAR3
         0000c6 BF   
    2542 0000c7 ED6D          MOV dbl(*AR3(#2016)), XAR3
         0000c9 BF07 
         0000cb E0   
    2543 0000cc A979          MOV *AR3(short(#4)), AR1 ; |908| 
    2544 0000ce ED00          MOV dbl(*SP(#0)), XAR3
         0000d0 BF   
    2545 0000d1 ED6D          MOV dbl(*AR3(#1176)), XAR3
         0000d3 BF04 
         0000d5 98   
    2546 0000d6 C979          MOV AR1, *AR3(short(#4)) ; |908| 
    2547                      .dwpsn  file "C:/Users/a0221074/Desktop/C5000/IBM_Watson_TIdesign_workarea/CSL_bitbucket/c55_csl/c55x
    2548 0000d8 ED00          MOV dbl(*SP(#0)), XAR3
         0000da BF   
    2549 0000db ED6D          MOV dbl(*AR3(#1176)), XAR3
         0000dd BF04 
         0000df 98   
    2550 0000e0 A973          MOV *AR3(short(#1)), AR1 ; |911| 
    2551 0000e2 4079          ADD #7, AR1 ; |911| 
    2552 0000e4 C912          MOV AR1, *SP(#9) ; |911| 
    2553                      .dwpsn  file "C:/Users/a0221074/Desktop/C5000/IBM_Watson_TIdesign_workarea/CSL_bitbucket/c55_csl/c55x
    2554 0000e6 ED00          MOV dbl(*SP(#0)), XAR3
TMS320C55x Assembler PC v4.4.1 Wed Sep 13 16:33:23 2017

Tools Copyright (c) 1996-2012 Texas Instruments Incorporated
C:\Users\a0221074\AppData\Local\Temp\1618010                         PAGE   57

         0000e8 BF   
    2555 0000e9 ED6D          MOV dbl(*AR3(#1176)), XAR3
         0000eb BF04 
         0000ed 98   
    2556 0000ee A912          MOV *SP(#9), AR1 ; |914| 
    2557 0000f0 C97B          MOV AR1, *AR3(short(#5)) ; |914| 
    2558                      .dwpsn  file "C:/Users/a0221074/Desktop/C5000/IBM_Watson_TIdesign_workarea/CSL_bitbucket/c55_csl/c55x
    2559 0000f2 F712          ADD #3, *SP(#9) ; |917| 
         0000f4 0003 
    2560                      .dwpsn  file "C:/Users/a0221074/Desktop/C5000/IBM_Watson_TIdesign_workarea/CSL_bitbucket/c55_csl/c55x
    2561 0000f6 ED00          MOV dbl(*SP(#0)), XAR3
         0000f8 BF   
    2562 0000f9 ED6D          MOV dbl(*AR3(#1176)), XAR3
         0000fb BF04 
         0000fd 98   
    2563 0000fe A912          MOV *SP(#9), AR1 ; |918| 
    2564 000100 C97D          MOV AR1, *AR3(short(#6)) ; |918| 
    2565                      .dwpsn  file "C:/Users/a0221074/Desktop/C5000/IBM_Watson_TIdesign_workarea/CSL_bitbucket/c55_csl/c55x
    2566 000102 F712          ADD #3, *SP(#9) ; |919| 
         000104 0003 
    2567                      .dwpsn  file "C:/Users/a0221074/Desktop/C5000/IBM_Watson_TIdesign_workarea/CSL_bitbucket/c55_csl/c55x
    2568 000106 ED00          MOV dbl(*SP(#0)), XAR3
         000108 BF   
    2569 000109 ED6D          MOV dbl(*AR3(#1176)), XAR3
         00010b BF04 
         00010d 98   
    2570              
    2571 00010e 8E18          MOV XAR3, dbl(*SP(#12))
         000110 BB14 
         000112 B507 
    2572              ||      AADD #7, AR3 ; |921| 
    2573              
    2574 000114 E61C          MOV #0, *SP(#14) ; |921| 
         000116 00   
    2575 000117 4A17          B $C$L28  ; |921| 
    2576                                                      ; branch occurs ; |921| 
    2577 000119       $C$L27:    
    2578 000119       $C$DW$L$_JAC_make_net$4$B:
    2579                      .dwpsn  file "C:/Users/a0221074/Desktop/C5000/IBM_Watson_TIdesign_workarea/CSL_bitbucket/c55_csl/c55x
    2580 000119 ED18          MOV dbl(*SP(#12)), XAR3
         00011b BF   
    2581 00011c A912          MOV *SP(#9), AR1 ; |922| 
    2582 00011e C961          MOV AR1, *AR3 ; |922| 
    2583                      .dwpsn  file "C:/Users/a0221074/Desktop/C5000/IBM_Watson_TIdesign_workarea/CSL_bitbucket/c55_csl/c55x
    2584 000120 F712          ADD #3, *SP(#9) ; |923| 
         000122 0003 
    2585                      .dwpsn  file "C:/Users/a0221074/Desktop/C5000/IBM_Watson_TIdesign_workarea/CSL_bitbucket/c55_csl/c55x
    2586 000124 F71C          ADD #1, *SP(#14) ; |921| 
         000126 0001 
    2587 000128 ED18          MOV dbl(*SP(#12)), XAR3
         00012a BF   
    2588 00012b B463          AMAR *AR3+
    2589 00012d EB18          MOV XAR3, dbl(*SP(#12))
         00012f B5   
    2590 000130       $C$DW$L$_JAC_make_net$4$E:
TMS320C55x Assembler PC v4.4.1 Wed Sep 13 16:33:23 2017

Tools Copyright (c) 1996-2012 Texas Instruments Incorporated
C:\Users\a0221074\AppData\Local\Temp\1618010                         PAGE   58

    2591 000130       $C$L28:    
    2592 000130       $C$DW$L$_JAC_make_net$5$B:
    2593                      .dwpsn  file "C:/Users/a0221074/Desktop/C5000/IBM_Watson_TIdesign_workarea/CSL_bitbucket/c55_csl/c55x
    2594 000130 ED00          MOV dbl(*SP(#0)), XAR3
         000132 BF   
    2595 000133 ED6D          MOV dbl(*AR3(#1176)), XAR3
         000135 BF04 
         000137 98   
    2596 000138 AA1C          MOV *SP(#14), AR2 ; |921| 
    2597 00013a A973          MOV *AR3(short(#1)), AR1 ; |921| 
    2598 00013c 12A4          CMPU AR2 < AR1, TC1 ; |921| 
         00013e 94   
    2599 00013f 0464          BCC $C$L27,TC1 ; |921| 
         000141 D7   
    2600                                                      ; branchcc occurs ; |921| 
    2601 000142       $C$DW$L$_JAC_make_net$5$E:
    2602                      .dwpsn  file "C:/Users/a0221074/Desktop/C5000/IBM_Watson_TIdesign_workarea/CSL_bitbucket/c55_csl/c55x
    2603 000142 ED18          MOV dbl(*SP(#12)), XAR3
         000144 BF   
    2604 000145 EB20          MOV XAR3, dbl(*SP(#16))
         000147 B5   
    2605 000148 EB24          MOV XAR3, dbl(*SP(#18))
         00014a B5   
    2606                      .dwpsn  file "C:/Users/a0221074/Desktop/C5000/IBM_Watson_TIdesign_workarea/CSL_bitbucket/c55_csl/c55x
    2607 00014b ED20          MOV dbl(*SP(#16)), XAR3
         00014d BF   
    2608 00014e E661          MOV #0, *AR3 ; |929| 
         000150 00   
    2609                      .dwpsn  file "C:/Users/a0221074/Desktop/C5000/IBM_Watson_TIdesign_workarea/CSL_bitbucket/c55_csl/c55x
    2610 000151 ED20          MOV dbl(*SP(#16)), XAR3
         000153 BF   
    2611 000154 E673          MOV #1, *AR3(short(#1)) ; |930| 
         000156 01   
    2612                      .dwpsn  file "C:/Users/a0221074/Desktop/C5000/IBM_Watson_TIdesign_workarea/CSL_bitbucket/c55_csl/c55x
    2613 000157 ED20          MOV dbl(*SP(#16)), XAR3
         000159 BF   
    2614 00015a E675          MOV #0, *AR3(short(#2)) ; |931| 
         00015c 00   
    2615                      .dwpsn  file "C:/Users/a0221074/Desktop/C5000/IBM_Watson_TIdesign_workarea/CSL_bitbucket/c55_csl/c55x
    2616 00015d ED20          MOV dbl(*SP(#16)), XAR3
         00015f BF   
    2617              
    2618 000160 8E20          MOV XAR3, dbl(*SP(#16))
         000162 BB14 
         000164 B503 
    2619              ||      AADD #3, AR3 ; |932| 
    2620              
    2621                      .dwpsn  file "C:/Users/a0221074/Desktop/C5000/IBM_Watson_TIdesign_workarea/CSL_bitbucket/c55_csl/c55x
    2622 000166 E661          MOV #0, *AR3 ; |934| 
         000168 00   
    2623                      .dwpsn  file "C:/Users/a0221074/Desktop/C5000/IBM_Watson_TIdesign_workarea/CSL_bitbucket/c55_csl/c55x
    2624 000169 ED20          MOV dbl(*SP(#16)), XAR3
         00016b BF   
    2625 00016c E673          MOV #1, *AR3(short(#1)) ; |935| 
         00016e 01   
TMS320C55x Assembler PC v4.4.1 Wed Sep 13 16:33:23 2017

Tools Copyright (c) 1996-2012 Texas Instruments Incorporated
C:\Users\a0221074\AppData\Local\Temp\1618010                         PAGE   59

    2626                      .dwpsn  file "C:/Users/a0221074/Desktop/C5000/IBM_Watson_TIdesign_workarea/CSL_bitbucket/c55_csl/c55x
    2627 00016f ED00          MOV dbl(*SP(#0)), XAR3
         000171 BF   
    2628 000172 ED6D          MOV dbl(*AR3(#1176)), XAR3
         000174 BF04 
         000176 98   
    2629 000177 A973          MOV *AR3(short(#1)), AR1 ; |936| 
    2630 000179 ED20          MOV dbl(*SP(#16)), XAR3
         00017b BF   
    2631 00017c 4219          SUB #1, AR1 ; |936| 
    2632 00017e C975          MOV AR1, *AR3(short(#2)) ; |936| 
    2633                      .dwpsn  file "C:/Users/a0221074/Desktop/C5000/IBM_Watson_TIdesign_workarea/CSL_bitbucket/c55_csl/c55x
    2634 000180 ED20          MOV dbl(*SP(#16)), XAR3
         000182 BF   
    2635              
    2636 000183 8E20          MOV XAR3, dbl(*SP(#16))
         000185 BB14 
         000187 B503 
    2637              ||      AADD #3, AR3 ; |937| 
    2638              
    2639                      .dwpsn  file "C:/Users/a0221074/Desktop/C5000/IBM_Watson_TIdesign_workarea/CSL_bitbucket/c55_csl/c55x
    2640 000189 ED00          MOV dbl(*SP(#0)), XAR3
         00018b BF   
    2641 00018c A96D          MOV *AR3(#1158), AR1 ; |940| 
         00018e 0486 
    2642 000190 4219          SUB #1, AR1 ; |940| 
    2643 000192 C914          MOV AR1, *SP(#10) ; |940| 
    2644                      .dwpsn  file "C:/Users/a0221074/Desktop/C5000/IBM_Watson_TIdesign_workarea/CSL_bitbucket/c55_csl/c55x
    2645 000194 E61C          MOV #0, *SP(#14) ; |941| 
         000196 00   
    2646 000197 0600          B $C$L30  ; |941| 
         000199 53   
    2647                                                      ; branch occurs ; |941| 
    2648 00019a       $C$L29:    
    2649 00019a       $C$DW$L$_JAC_make_net$7$B:
    2650                      .dwpsn  file "C:/Users/a0221074/Desktop/C5000/IBM_Watson_TIdesign_workarea/CSL_bitbucket/c55_csl/c55x
    2651 00019a DF1C          MOV uns(*SP(#14)), AC1 ; |942| 
         00019c 15   
    2652 00019d 1A00          OR #0, AC1, AC0
         00019f 01   
    2653 0001a0 ED20          MOV dbl(*SP(#16)), XAR3
         0001a2 BF   
    2654 0001a3 1013          ADD AC1 << #1, AC0 ; |942| 
         0001a5 01   
    2655 0001a6 900A          MOV AC0, XAR2
    2656 0001a8 A414          MOV *SP(#10), T0 ; |942| 
    2657 0001aa 7C00          SUB #1, T0, AR1 ; |942| 
         0001ac 0194 
    2658              
    2659                      AADD XAR2, XAR3 ; |942| 
    2660 0001ae 8C14  ||      MOV AR1, *SP(#10) ; |942| 
         0001b0 B910 
         0001b2 A1   
    2661              
    2662 0001b3 ED00          MOV dbl(*SP(#0)), XAR2
TMS320C55x Assembler PC v4.4.1 Wed Sep 13 16:33:23 2017

Tools Copyright (c) 1996-2012 Texas Instruments Incorporated
C:\Users\a0221074\AppData\Local\Temp\1618010                         PAGE   60

         0001b5 AF   
    2663 0001b6 ED4D          MOV dbl(*AR2(#1152)), XAR2
         0001b8 AF04 
         0001ba 80   
    2664 0001bb 805D          MOV *AR2(T0), *AR3 ; |942| 
         0001bd 84   
    2665                      .dwpsn  file "C:/Users/a0221074/Desktop/C5000/IBM_Watson_TIdesign_workarea/CSL_bitbucket/c55_csl/c55x
    2666 0001be ED20          MOV dbl(*SP(#16)), XAR3
         0001c0 BF   
    2667 0001c1 DF1C          MOV uns(*SP(#14)), AC1 ; |944| 
         0001c3 15   
    2668 0001c4 1A00          OR #0, AC1, AC0
         0001c6 01   
    2669 0001c7 1013          ADD AC1 << #1, AC0 ; |944| 
         0001c9 01   
    2670 0001ca 900A          MOV AC0, XAR2
    2671 0001cc 14A1          AADD XAR2, XAR3 ; |944| 
         0001ce B0   
    2672 0001cf E673          MOV #1, *AR3(short(#1)) ; |944| 
         0001d1 01   
    2673                      .dwpsn  file "C:/Users/a0221074/Desktop/C5000/IBM_Watson_TIdesign_workarea/CSL_bitbucket/c55_csl/c55x
    2674 0001d2 DF1C          MOV uns(*SP(#14)), AC1 ; |945| 
         0001d4 15   
    2675 0001d5 ED20          MOV dbl(*SP(#16)), XAR3
         0001d7 BF   
    2676 0001d8 1A00          OR #0, AC1, AC0
         0001da 01   
    2677 0001db 1013          ADD AC1 << #1, AC0 ; |945| 
         0001dd 01   
    2678 0001de 900A          MOV AC0, XAR2
    2679 0001e0 A91C          MOV *SP(#14), AR1 ; |945| 
    2680              
    2681 0001e2 14A1          AADD XAR2, XAR3 ; |945| 
         0001e4 B0   
    2682 0001e5 4119  ||      ADD #1, AR1 ; |945| 
    2683              
    2684 0001e7 C975          MOV AR1, *AR3(short(#2)) ; |945| 
    2685                      .dwpsn  file "C:/Users/a0221074/Desktop/C5000/IBM_Watson_TIdesign_workarea/CSL_bitbucket/c55_csl/c55x
    2686 0001e9 F71C          ADD #1, *SP(#14) ; |941| 
         0001eb 0001 
    2687 0001ed       $C$DW$L$_JAC_make_net$7$E:
    2688 0001ed       $C$L30:    
    2689 0001ed       $C$DW$L$_JAC_make_net$8$B:
    2690                      .dwpsn  file "C:/Users/a0221074/Desktop/C5000/IBM_Watson_TIdesign_workarea/CSL_bitbucket/c55_csl/c55x
    2691 0001ed ED00          MOV dbl(*SP(#0)), XAR3
         0001ef BF   
    2692 0001f0 ED6D          MOV dbl(*AR3(#1176)), XAR3
         0001f2 BF04 
         0001f4 98   
    2693 0001f5 AA1C          MOV *SP(#14), AR2 ; |941| 
    2694 0001f7 A973          MOV *AR3(short(#1)), AR1 ; |941| 
    2695 0001f9 12A4          CMPU AR2 < AR1, TC1 ; |941| 
         0001fb 94   
    2696 0001fc 0464          BCC $C$L29,TC1 ; |941| 
         0001fe 9B   
TMS320C55x Assembler PC v4.4.1 Wed Sep 13 16:33:23 2017

Tools Copyright (c) 1996-2012 Texas Instruments Incorporated
C:\Users\a0221074\AppData\Local\Temp\1618010                         PAGE   61

    2697                                                      ; branchcc occurs ; |941| 
    2698 0001ff       $C$DW$L$_JAC_make_net$8$E:
    2699                      .dwpsn  file "C:/Users/a0221074/Desktop/C5000/IBM_Watson_TIdesign_workarea/CSL_bitbucket/c55_csl/c55x
    2700 0001ff ED00          MOV dbl(*SP(#0)), XAR3
         000201 BF   
    2701 000202 ED6D          MOV dbl(*AR3(#1176)), XAR3
         000204 BF04 
         000206 98   
    2702 000207 A973          MOV *AR3(short(#1)), AR1 ; |947| 
    2703 000209 4219          SUB #1, AR1 ; |947| 
    2704 00020b ED20          MOV dbl(*SP(#16)), XAR3
         00020d BF   
    2705 00020e 7DFF          AND #0xffff, AR1, AC1 ; |947| 
         000210 FF19 
    2706 000212 1A00          OR #0, AC1, AC0
         000214 01   
    2707 000215 1013          ADD AC1 << #1, AC0 ; |947| 
         000217 01   
    2708 000218 900A          MOV AC0, XAR2
    2709 00021a 14A1          AADD XAR2, XAR3 ; |947| 
         00021c B0   
    2710 00021d E673          MOV #0, *AR3(short(#1)) ; |947| 
         00021f 00   
    2711                      .dwpsn  file "C:/Users/a0221074/Desktop/C5000/IBM_Watson_TIdesign_workarea/CSL_bitbucket/c55_csl/c55x
    2712 000220 7600          MOV #100, T0 ; |952| 
         000222 6448 
    2713 000224       $C$L31:    
    2714                      .dwpsn  file "C:/Users/a0221074/Desktop/C5000/IBM_Watson_TIdesign_workarea/CSL_bitbucket/c55_csl/c55x
    2715 000224 4E15          AADD #21, SP
    2716                      .dwcfi  cfa_offset, 1
    2717              $C$DW$317       .dwtag  DW_TAG_TI_branch
    2718                      .dwattr $C$DW$317, DW_AT_low_pc(0x00)
    2719                      .dwattr $C$DW$317, DW_AT_TI_return
    2720 000226 4804          RET
    2721                                                      ; return occurs
    2722              
    2723              $C$DW$318       .dwtag  DW_TAG_TI_loop
    2724                      .dwattr $C$DW$318, DW_AT_name("C:\\Users\\a0221074\\AppData\\Local\\Temp\\1618010:$C$L30:1:1505334800
    2725                      .dwattr $C$DW$318, DW_AT_TI_begin_file("C:/Users/a0221074/Desktop/C5000/IBM_Watson_TIdesign_workarea/
    2726                      .dwattr $C$DW$318, DW_AT_TI_begin_line(0x3ad)
    2727                      .dwattr $C$DW$318, DW_AT_TI_end_line(0x3b1)
    2728              $C$DW$319       .dwtag  DW_TAG_TI_loop_range
    2729                      .dwattr $C$DW$319, DW_AT_low_pc($C$DW$L$_JAC_make_net$8$B)
    2730                      .dwattr $C$DW$319, DW_AT_high_pc($C$DW$L$_JAC_make_net$8$E)
    2731              $C$DW$320       .dwtag  DW_TAG_TI_loop_range
    2732                      .dwattr $C$DW$320, DW_AT_low_pc($C$DW$L$_JAC_make_net$7$B)
    2733                      .dwattr $C$DW$320, DW_AT_high_pc($C$DW$L$_JAC_make_net$7$E)
    2734                      .dwendtag $C$DW$318
    2735              
    2736              
    2737              $C$DW$321       .dwtag  DW_TAG_TI_loop
    2738                      .dwattr $C$DW$321, DW_AT_name("C:\\Users\\a0221074\\AppData\\Local\\Temp\\1618010:$C$L28:1:1505334800
    2739                      .dwattr $C$DW$321, DW_AT_TI_begin_file("C:/Users/a0221074/Desktop/C5000/IBM_Watson_TIdesign_workarea/
    2740                      .dwattr $C$DW$321, DW_AT_TI_begin_line(0x399)
    2741                      .dwattr $C$DW$321, DW_AT_TI_end_line(0x39b)
TMS320C55x Assembler PC v4.4.1 Wed Sep 13 16:33:23 2017

Tools Copyright (c) 1996-2012 Texas Instruments Incorporated
C:\Users\a0221074\AppData\Local\Temp\1618010                         PAGE   62

    2742              $C$DW$322       .dwtag  DW_TAG_TI_loop_range
    2743                      .dwattr $C$DW$322, DW_AT_low_pc($C$DW$L$_JAC_make_net$5$B)
    2744                      .dwattr $C$DW$322, DW_AT_high_pc($C$DW$L$_JAC_make_net$5$E)
    2745              $C$DW$323       .dwtag  DW_TAG_TI_loop_range
    2746                      .dwattr $C$DW$323, DW_AT_low_pc($C$DW$L$_JAC_make_net$4$B)
    2747                      .dwattr $C$DW$323, DW_AT_high_pc($C$DW$L$_JAC_make_net$4$E)
    2748                      .dwendtag $C$DW$321
    2749              
    2750                      .dwattr $C$DW$298, DW_AT_TI_end_file("C:/Users/a0221074/Desktop/C5000/IBM_Watson_TIdesign_workarea/CS
    2751                      .dwattr $C$DW$298, DW_AT_TI_end_line(0x3b9)
    2752                      .dwattr $C$DW$298, DW_AT_TI_end_column(0x01)
    2753                      .dwendentry
    2754                      .dwendtag $C$DW$298
    2755              
    2756 000000               .sect   ".text:_process_a_file_1"
    2757                      .clink
    2758              
    2759              $C$DW$324       .dwtag  DW_TAG_subprogram, DW_AT_name("process_a_file_1")
    2760                      .dwattr $C$DW$324, DW_AT_low_pc(_process_a_file_1)
    2761                      .dwattr $C$DW$324, DW_AT_high_pc(0x00)
    2762                      .dwattr $C$DW$324, DW_AT_TI_symbol_name("_process_a_file_1")
    2763                      .dwattr $C$DW$324, DW_AT_type(*$C$DW$T$96)
    2764                      .dwattr $C$DW$324, DW_AT_TI_begin_file("C:/Users/a0221074/Desktop/C5000/IBM_Watson_TIdesign_workarea/
    2765                      .dwattr $C$DW$324, DW_AT_TI_begin_line(0x3bb)
    2766                      .dwattr $C$DW$324, DW_AT_TI_begin_column(0x1e)
    2767                      .dwattr $C$DW$324, DW_AT_TI_max_frame_size(0x2a)
    2768                      .dwpsn  file "C:/Users/a0221074/Desktop/C5000/IBM_Watson_TIdesign_workarea/CSL_bitbucket/c55_csl/c55x
    2769              
    2770                      .dwfde $C$DW$CIE, _process_a_file_1
    2771              $C$DW$325       .dwtag  DW_TAG_formal_parameter, DW_AT_name("gv")
    2772                      .dwattr $C$DW$325, DW_AT_TI_symbol_name("_gv")
    2773                      .dwattr $C$DW$325, DW_AT_type(*$C$DW$T$98)
    2774                      .dwattr $C$DW$325, DW_AT_location[DW_OP_reg17]
    2775              $C$DW$326       .dwtag  DW_TAG_formal_parameter, DW_AT_name("frm_cnt")
    2776                      .dwattr $C$DW$326, DW_AT_TI_symbol_name("_frm_cnt")
    2777                      .dwattr $C$DW$326, DW_AT_type(*$C$DW$T$20)
    2778                      .dwattr $C$DW$326, DW_AT_location[DW_OP_reg12]
    2779              $C$DW$327       .dwtag  DW_TAG_formal_parameter, DW_AT_name("start_frame")
    2780                      .dwattr $C$DW$327, DW_AT_TI_symbol_name("_start_frame")
    2781                      .dwattr $C$DW$327, DW_AT_type(*$C$DW$T$20)
    2782                      .dwattr $C$DW$327, DW_AT_location[DW_OP_reg13]
    2783              ;*******************************************************************************
    2784              ;* FUNCTION NAME: process_a_file_1                                             *
    2785              ;*                                                                             *
    2786              ;*   Function Uses Regs : AC0,AC0,T0,T1,AR0,XAR0,AR1,XAR1,AR2,XAR2,AR3,XAR3,SP,*
    2787              ;*                        CARRY,TC1,M40,SATA,SATD,RDM,FRCT,SMUL                *
    2788              ;*   Stack Frame        : Compact (No Frame Pointer, w/ debug)                 *
    2789              ;*   Total Frame Size   : 42 words                                             *
    2790              ;*                        (2 return address/alignment)                         *
    2791              ;*                        (40 local values)                                    *
    2792              ;*   Min System Stack   : 1 word                                               *
    2793              ;*******************************************************************************
    2794 000000       _process_a_file_1:
    2795                      .dwcfi  cfa_offset, 1
    2796                      .dwcfi  save_reg_to_mem, 91, -1
TMS320C55x Assembler PC v4.4.1 Wed Sep 13 16:33:23 2017

Tools Copyright (c) 1996-2012 Texas Instruments Incorporated
C:\Users\a0221074\AppData\Local\Temp\1618010                         PAGE   63

    2797 000000 4ED7          AADD #-41, SP
    2798                      .dwcfi  cfa_offset, 42
    2799              $C$DW$328       .dwtag  DW_TAG_variable, DW_AT_name("gv")
    2800                      .dwattr $C$DW$328, DW_AT_TI_symbol_name("_gv")
    2801                      .dwattr $C$DW$328, DW_AT_type(*$C$DW$T$98)
    2802                      .dwattr $C$DW$328, DW_AT_location[DW_OP_bregx 0x24 0]
    2803              $C$DW$329       .dwtag  DW_TAG_variable, DW_AT_name("frm_cnt")
    2804                      .dwattr $C$DW$329, DW_AT_TI_symbol_name("_frm_cnt")
    2805                      .dwattr $C$DW$329, DW_AT_type(*$C$DW$T$20)
    2806                      .dwattr $C$DW$329, DW_AT_location[DW_OP_bregx 0x24 2]
    2807              $C$DW$330       .dwtag  DW_TAG_variable, DW_AT_name("start_frame")
    2808                      .dwattr $C$DW$330, DW_AT_TI_symbol_name("_start_frame")
    2809                      .dwattr $C$DW$330, DW_AT_type(*$C$DW$T$20)
    2810                      .dwattr $C$DW$330, DW_AT_location[DW_OP_bregx 0x24 3]
    2811              $C$DW$331       .dwtag  DW_TAG_variable, DW_AT_name("fm")
    2812                      .dwattr $C$DW$331, DW_AT_TI_symbol_name("_fm")
    2813                      .dwattr $C$DW$331, DW_AT_type(*$C$DW$T$20)
    2814                      .dwattr $C$DW$331, DW_AT_location[DW_OP_bregx 0x24 4]
    2815              $C$DW$332       .dwtag  DW_TAG_variable, DW_AT_name("status")
    2816                      .dwattr $C$DW$332, DW_AT_TI_symbol_name("_status")
    2817                      .dwattr $C$DW$332, DW_AT_type(*$C$DW$T$20)
    2818                      .dwattr $C$DW$332, DW_AT_location[DW_OP_bregx 0x24 5]
    2819              $C$DW$333       .dwtag  DW_TAG_variable, DW_AT_name("mfcc_feature")
    2820                      .dwattr $C$DW$333, DW_AT_TI_symbol_name("_mfcc_feature")
    2821                      .dwattr $C$DW$333, DW_AT_type(*$C$DW$T$82)
    2822                      .dwattr $C$DW$333, DW_AT_location[DW_OP_bregx 0x24 6]
    2823              $C$DW$334       .dwtag  DW_TAG_variable, DW_AT_name("feat")
    2824                      .dwattr $C$DW$334, DW_AT_TI_symbol_name("_feat")
    2825                      .dwattr $C$DW$334, DW_AT_type(*$C$DW$T$22)
    2826                      .dwattr $C$DW$334, DW_AT_location[DW_OP_bregx 0x24 38]
    2827 000002 C506          MOV T1, *SP(#3) ; |957| 
    2828 000004 C404          MOV T0, *SP(#2) ; |957| 
    2829 000006 EB00          MOV XAR0, dbl(*SP(#0))
         000008 85   
    2830                      .dwpsn  file "C:/Users/a0221074/Desktop/C5000/IBM_Watson_TIdesign_workarea/CSL_bitbucket/c55_csl/c55x
    2831 000009 ED00          MOV dbl(*SP(#0)), XAR3
         00000b BF   
    2832 00000c A56D          MOV *AR3(#277), T1 ; |963| 
         00000e 0115 
    2833 000010 D306          MPYM *SP(#3), T1, AC0 ; |963| 
         000012 05   
    2834 000013 7DFF          AND #0xffff, AC0, AC0 ; |963| 
         000015 FF00 
    2835 000017 900A          MOV AC0, XAR2
    2836 000019 ED6D          MOV dbl(*AR3(#2002)), XAR3
         00001b BF07 
         00001d D2   
    2837              
    2838 00001e 8E4C          MOV XAR3, dbl(*SP(#38))
         000020 BB10 
         000022 B5A1 
    2839              ||      AADD XAR2, XAR3 ; |963| 
    2840              
    2841                      .dwpsn  file "C:/Users/a0221074/Desktop/C5000/IBM_Watson_TIdesign_workarea/CSL_bitbucket/c55_csl/c55x
    2842 000024 E608          MOV #0, *SP(#4) ; |968| 
TMS320C55x Assembler PC v4.4.1 Wed Sep 13 16:33:23 2017

Tools Copyright (c) 1996-2012 Texas Instruments Incorporated
C:\Users\a0221074\AppData\Local\Temp\1618010                         PAGE   64

         000026 00   
    2843                      .dwpsn  file "C:/Users/a0221074/Desktop/C5000/IBM_Watson_TIdesign_workarea/CSL_bitbucket/c55_csl/c55x
    2844 000027 A904          MOV *SP(#2), AR1 ; |968| 
    2845 000029 AA08          MOV *SP(#4), AR2 ; |968| 
    2846 00002b 12A8          CMPU AR2 >= AR1, TC1 ; |968| 
         00002d 94   
    2847 00002e 0464          BCC $C$L34,TC1 ; |968| 
         000030 53   
    2848                                                      ; branchcc occurs ; |968| 
    2849 000031       $C$L32:    
    2850 000031       $C$DW$L$_process_a_file_1$2$B:
    2851                      .dwpsn  file "C:/Users/a0221074/Desktop/C5000/IBM_Watson_TIdesign_workarea/CSL_bitbucket/c55_csl/c55x
    2852 000031 ED00          MOV dbl(*SP(#0)), XAR3
         000033 BF   
    2853 000034 ED4C          MOV dbl(*SP(#38)), XAR0
         000036 8F   
    2854 000037 EC0C          AMAR *SP(#6), XAR1
         000039 9E   
    2855 00003a ED6D          MOV dbl(*AR3(#1212)), XAR2
         00003c AF04 
         00003e BC   
    2856 00003f A46D          MOV *AR3(#277), T0 ; |970| 
         000041 0115 
    2857              $C$DW$335       .dwtag  DW_TAG_TI_branch
    2858                      .dwattr $C$DW$335, DW_AT_low_pc(0x00)
    2859                      .dwattr $C$DW$335, DW_AT_name("_vector_unpacking")
    2860                      .dwattr $C$DW$335, DW_AT_TI_call
    2861 000043 6C00          CALL #_vector_unpacking ; |970| 
         000045 0000!
    2862                                                      ; call occurs [#_vector_unpacking] ; |970| 
    2863                      .dwpsn  file "C:/Users/a0221074/Desktop/C5000/IBM_Watson_TIdesign_workarea/CSL_bitbucket/c55_csl/c55x
    2864 000047 A508          MOV *SP(#4), T1 ; |975| 
    2865 000049 EC0C          AMAR *SP(#6), XAR0
         00004b 8E   
    2866 00004c ED00          MOV dbl(*SP(#0)), XAR1
         00004e 9F   
    2867              $C$DW$336       .dwtag  DW_TAG_TI_branch
    2868                      .dwattr $C$DW$336, DW_AT_low_pc(0x00)
    2869                      .dwattr $C$DW$336, DW_AT_name("_search_a_frame")
    2870                      .dwattr $C$DW$336, DW_AT_TI_call
    2871              
    2872 00004f 6C00          CALL #_search_a_frame ; |975| 
         000051 0000!
    2873 000053 3D14  ||      MOV #1, T0
    2874              
    2875                                                      ; call occurs [#_search_a_frame] ; |975| 
    2876 000055 C40A          MOV T0, *SP(#5) ; |975| 
    2877                      .dwpsn  file "C:/Users/a0221074/Desktop/C5000/IBM_Watson_TIdesign_workarea/CSL_bitbucket/c55_csl/c55x
    2878 000057 F00A          CMP *SP(#5) == #100, TC1 ; |976| 
         000059 0064 
    2879 00005b 6364          BCC $C$L33,TC1 ; |976| 
    2880                                                      ; branchcc occurs ; |976| 
    2881 00005d       $C$DW$L$_process_a_file_1$2$E:
    2882                      .dwpsn  file "C:/Users/a0221074/Desktop/C5000/IBM_Watson_TIdesign_workarea/CSL_bitbucket/c55_csl/c55x
    2883 00005d 7601          MOV #401, T0 ; |978| 
TMS320C55x Assembler PC v4.4.1 Wed Sep 13 16:33:23 2017

Tools Copyright (c) 1996-2012 Texas Instruments Incorporated
C:\Users\a0221074\AppData\Local\Temp\1618010                         PAGE   65

         00005f 9148 
    2884 000061 4A25          B $C$L35  ; |978| 
    2885                                                      ; branch occurs ; |978| 
    2886 000063       $C$L33:    
    2887 000063       $C$DW$L$_process_a_file_1$4$B:
    2888                      .dwpsn  file "C:/Users/a0221074/Desktop/C5000/IBM_Watson_TIdesign_workarea/CSL_bitbucket/c55_csl/c55x
    2889 000063 ED00          MOV dbl(*SP(#0)), XAR3
         000065 BF   
    2890 000066 DF6D          MOV uns(*AR3(#277)), AC0 ; |982| 
         000068 0501 
         00006a 15   
    2891 00006b 900A          MOV AC0, XAR2
    2892 00006d ED4C          MOV dbl(*SP(#38)), XAR3
         00006f BF   
    2893              
    2894 000070 8E4C          MOV XAR3, dbl(*SP(#38))
         000072 BB10 
         000074 B5A1 
    2895              ||      AADD XAR2, XAR3 ; |982| 
    2896              
    2897                      .dwpsn  file "C:/Users/a0221074/Desktop/C5000/IBM_Watson_TIdesign_workarea/CSL_bitbucket/c55_csl/c55x
    2898 000076 F708          ADD #1, *SP(#4) ; |968| 
         000078 0001 
    2899                      .dwpsn  file "C:/Users/a0221074/Desktop/C5000/IBM_Watson_TIdesign_workarea/CSL_bitbucket/c55_csl/c55x
    2900 00007a A904          MOV *SP(#2), AR1 ; |968| 
    2901 00007c AA08          MOV *SP(#4), AR2 ; |968| 
    2902 00007e 12A4          CMPU AR2 < AR1, TC1 ; |968| 
         000080 94   
    2903 000081 0464          BCC $C$L32,TC1 ; |968| 
         000083 AD   
    2904                                                      ; branchcc occurs ; |968| 
    2905 000084       $C$DW$L$_process_a_file_1$4$E:
    2906 000084       $C$L34:    
    2907                      .dwpsn  file "C:/Users/a0221074/Desktop/C5000/IBM_Watson_TIdesign_workarea/CSL_bitbucket/c55_csl/c55x
    2908 000084 7600          MOV #100, T0 ; |988| 
         000086 6448 
    2909 000088       $C$L35:    
    2910                      .dwpsn  file "C:/Users/a0221074/Desktop/C5000/IBM_Watson_TIdesign_workarea/CSL_bitbucket/c55_csl/c55x
    2911 000088 4E29          AADD #41, SP
    2912                      .dwcfi  cfa_offset, 1
    2913              $C$DW$337       .dwtag  DW_TAG_TI_branch
    2914                      .dwattr $C$DW$337, DW_AT_low_pc(0x00)
    2915                      .dwattr $C$DW$337, DW_AT_TI_return
    2916 00008a 4804          RET
    2917                                                      ; return occurs
    2918              
    2919              $C$DW$338       .dwtag  DW_TAG_TI_loop
    2920                      .dwattr $C$DW$338, DW_AT_name("C:\\Users\\a0221074\\AppData\\Local\\Temp\\1618010:$C$L32:1:1505334800
    2921                      .dwattr $C$DW$338, DW_AT_TI_begin_file("C:/Users/a0221074/Desktop/C5000/IBM_Watson_TIdesign_workarea/
    2922                      .dwattr $C$DW$338, DW_AT_TI_begin_line(0x3c8)
    2923                      .dwattr $C$DW$338, DW_AT_TI_end_line(0x3db)
    2924              $C$DW$339       .dwtag  DW_TAG_TI_loop_range
    2925                      .dwattr $C$DW$339, DW_AT_low_pc($C$DW$L$_process_a_file_1$2$B)
    2926                      .dwattr $C$DW$339, DW_AT_high_pc($C$DW$L$_process_a_file_1$2$E)
    2927              $C$DW$340       .dwtag  DW_TAG_TI_loop_range
TMS320C55x Assembler PC v4.4.1 Wed Sep 13 16:33:23 2017

Tools Copyright (c) 1996-2012 Texas Instruments Incorporated
C:\Users\a0221074\AppData\Local\Temp\1618010                         PAGE   66

    2928                      .dwattr $C$DW$340, DW_AT_low_pc($C$DW$L$_process_a_file_1$4$B)
    2929                      .dwattr $C$DW$340, DW_AT_high_pc($C$DW$L$_process_a_file_1$4$E)
    2930                      .dwendtag $C$DW$338
    2931              
    2932                      .dwattr $C$DW$324, DW_AT_TI_end_file("C:/Users/a0221074/Desktop/C5000/IBM_Watson_TIdesign_workarea/CS
    2933                      .dwattr $C$DW$324, DW_AT_TI_end_line(0x3dd)
    2934                      .dwattr $C$DW$324, DW_AT_TI_end_column(0x01)
    2935                      .dwendentry
    2936                      .dwendtag $C$DW$324
    2937              
    2938 000000               .sect   ".text:_jac_force_alignment"
    2939                      .clink
    2940              
    2941              $C$DW$341       .dwtag  DW_TAG_subprogram, DW_AT_name("jac_force_alignment")
    2942                      .dwattr $C$DW$341, DW_AT_low_pc(_jac_force_alignment)
    2943                      .dwattr $C$DW$341, DW_AT_high_pc(0x00)
    2944                      .dwattr $C$DW$341, DW_AT_TI_symbol_name("_jac_force_alignment")
    2945                      .dwattr $C$DW$341, DW_AT_type(*$C$DW$T$96)
    2946                      .dwattr $C$DW$341, DW_AT_TI_begin_file("C:/Users/a0221074/Desktop/C5000/IBM_Watson_TIdesign_workarea/
    2947                      .dwattr $C$DW$341, DW_AT_TI_begin_line(0x3df)
    2948                      .dwattr $C$DW$341, DW_AT_TI_begin_column(0x1e)
    2949                      .dwattr $C$DW$341, DW_AT_TI_max_frame_size(0x10a)
    2950                      .dwpsn  file "C:/Users/a0221074/Desktop/C5000/IBM_Watson_TIdesign_workarea/CSL_bitbucket/c55_csl/c55x
    2951              
    2952                      .dwfde $C$DW$CIE, _jac_force_alignment
    2953              $C$DW$342       .dwtag  DW_TAG_formal_parameter, DW_AT_name("gv")
    2954                      .dwattr $C$DW$342, DW_AT_TI_symbol_name("_gv")
    2955                      .dwattr $C$DW$342, DW_AT_type(*$C$DW$T$98)
    2956                      .dwattr $C$DW$342, DW_AT_location[DW_OP_reg17]
    2957              ;*******************************************************************************
    2958              ;* FUNCTION NAME: jac_force_alignment                                          *
    2959              ;*                                                                             *
    2960              ;*   Function Uses Regs : T0,T1,AR0,XAR0,AR1,XAR1,AR2,XAR2,AR3,XAR3,AR4,XAR4,  *
    2961              ;*                        FP,XFP,SP,CARRY,TC1,M40,SATA,SATD,RDM,FRCT,SMUL      *
    2962              ;*   Save On Entry Regs : FP                                                   *
    2963              ;*   Stack Frame        : Full (Frame Pointer in AR6, w/ debug)                *
    2964              ;*   Total Frame Size   : 266 words                                            *
    2965              ;*                        (2 return address/alignment)                         *
    2966              ;*                        (2 function parameters)                              *
    2967              ;*                        (261 local values)                                   *
    2968              ;*                        (1 register save area)                               *
    2969              ;*   Min System Stack   : 2 words                                              *
    2970              ;*******************************************************************************
    2971 000000       _jac_force_alignment:
    2972                      .dwcfi  cfa_offset, 1
    2973                      .dwcfi  save_reg_to_mem, 91, -1
    2974 000000 50E5          PSHBOTH XFP
    2975                      .dwcfi  cfa_offset, 2
    2976                      .dwcfi  save_reg_to_mem, 32, -2
    2977 000002 F79A          ADD #-264, mmap(SP)
         000004 FEF8 
         000006 98   
    2978 000007 EC00          AMAR *SP(#0), XFP
         000009 EE   
    2979                      .dwcfi  cfa_offset, 266
TMS320C55x Assembler PC v4.4.1 Wed Sep 13 16:33:23 2017

Tools Copyright (c) 1996-2012 Texas Instruments Incorporated
C:\Users\a0221074\AppData\Local\Temp\1618010                         PAGE   67

    2980              $C$DW$343       .dwtag  DW_TAG_variable, DW_AT_name("gv")
    2981                      .dwattr $C$DW$343, DW_AT_TI_symbol_name("_gv")
    2982                      .dwattr $C$DW$343, DW_AT_type(*$C$DW$T$98)
    2983                      .dwattr $C$DW$343, DW_AT_location[DW_OP_bregx 0x24 2]
    2984              $C$DW$344       .dwtag  DW_TAG_variable, DW_AT_name("mem_count")
    2985                      .dwattr $C$DW$344, DW_AT_TI_symbol_name("_mem_count")
    2986                      .dwattr $C$DW$344, DW_AT_type(*$C$DW$T$20)
    2987                      .dwattr $C$DW$344, DW_AT_location[DW_OP_bregx 0x24 4]
    2988              $C$DW$345       .dwtag  DW_TAG_variable, DW_AT_name("total_frm")
    2989                      .dwattr $C$DW$345, DW_AT_TI_symbol_name("_total_frm")
    2990                      .dwattr $C$DW$345, DW_AT_type(*$C$DW$T$20)
    2991                      .dwattr $C$DW$345, DW_AT_location[DW_OP_bregx 0x24 5]
    2992              $C$DW$346       .dwtag  DW_TAG_variable, DW_AT_name("mem_base")
    2993                      .dwattr $C$DW$346, DW_AT_TI_symbol_name("_mem_base")
    2994                      .dwattr $C$DW$346, DW_AT_type(*$C$DW$T$54)
    2995                      .dwattr $C$DW$346, DW_AT_location[DW_OP_bregx 0x24 6]
    2996              $C$DW$347       .dwtag  DW_TAG_variable, DW_AT_name("status")
    2997                      .dwattr $C$DW$347, DW_AT_TI_symbol_name("_status")
    2998                      .dwattr $C$DW$347, DW_AT_type(*$C$DW$T$96)
    2999                      .dwattr $C$DW$347, DW_AT_location[DW_OP_bregx 0x24 262]
    3000 00000a EB04          MOV XAR0, dbl(*SP(#2))
         00000c 85   
    3001                      .dwpsn  file "C:/Users/a0221074/Desktop/C5000/IBM_Watson_TIdesign_workarea/CSL_bitbucket/c55_csl/c55x
    3002 00000d E608          MOV #0, *SP(#4) ; |993| 
         00000f 00   
    3003                      .dwpsn  file "C:/Users/a0221074/Desktop/C5000/IBM_Watson_TIdesign_workarea/CSL_bitbucket/c55_csl/c55x
    3004 000010 ED04          MOV dbl(*SP(#2)), XAR3
         000012 BF   
    3005 000013 A96D          MOV *AR3(#268), AR1 ; |993| 
         000015 010C 
    3006 000017 C90A          MOV AR1, *SP(#5) ; |993| 
    3007                      .dwpsn  file "C:/Users/a0221074/Desktop/C5000/IBM_Watson_TIdesign_workarea/CSL_bitbucket/c55_csl/c55x
    3008 000019 ED04          MOV dbl(*SP(#2)), XAR0
         00001b 8F   
    3009              $C$DW$348       .dwtag  DW_TAG_TI_branch
    3010                      .dwattr $C$DW$348, DW_AT_low_pc(0x00)
    3011                      .dwattr $C$DW$348, DW_AT_name("_JAC_backup_net")
    3012                      .dwattr $C$DW$348, DW_AT_TI_call
    3013 00001c 6C00          CALL #_JAC_backup_net ; |998| 
         00001e 0000+
    3014                                                      ; call occurs [#_JAC_backup_net] ; |998| 
    3015                      .dwpsn  file "C:/Users/a0221074/Desktop/C5000/IBM_Watson_TIdesign_workarea/CSL_bitbucket/c55_csl/c55x
    3016 000020 ED04          MOV dbl(*SP(#2)), XAR3
         000022 BF   
    3017 000023 A96D          MOV *AR3(#1158), AR1 ; |1000| 
         000025 0486 
    3018 000027 7C00          SUB #1, AR1, T0 ; |1000| 
         000029 0149 
    3019 00002b 7601          MOV #256, T1 ; |1000| 
         00002d 0058 
    3020 00002f EC0C          AMAR *SP(#6), XAR2
         000031 AE   
    3021 000032 ED04          MOV dbl(*SP(#2)), XAR0
         000034 8F   
    3022 000035 EC08          AMAR *SP(#4), XAR1
TMS320C55x Assembler PC v4.4.1 Wed Sep 13 16:33:23 2017

Tools Copyright (c) 1996-2012 Texas Instruments Incorporated
C:\Users\a0221074\AppData\Local\Temp\1618010                         PAGE   68

         000037 9E   
    3023              $C$DW$349       .dwtag  DW_TAG_TI_branch
    3024                      .dwattr $C$DW$349, DW_AT_low_pc(0x00)
    3025                      .dwattr $C$DW$349, DW_AT_name("_JAC_make_net")
    3026                      .dwattr $C$DW$349, DW_AT_TI_call
    3027 000038 6C00          CALL #_JAC_make_net ; |1000| 
         00003a 0000+
    3028                                                      ; call occurs [#_JAC_make_net] ; |1000| 
    3029 00003c C4CD          MOV T0, *FP(#262) ; |1000| 
         00003e 0106 
    3030                      .dwpsn  file "C:/Users/a0221074/Desktop/C5000/IBM_Watson_TIdesign_workarea/CSL_bitbucket/c55_csl/c55x
    3031 000040 F0CD          CMP *FP(#262) == #100, TC1 ; |1003| 
         000042 0064 
         000044 0106 
    3032 000046 6D74          BCC $C$L39,!TC1 ; |1003| 
         000048 0094 
    3033                                                      ; branchcc occurs ; |1003| 
    3034                      .dwpsn  file "C:/Users/a0221074/Desktop/C5000/IBM_Watson_TIdesign_workarea/CSL_bitbucket/c55_csl/c55x
    3035                      .dwpsn  file "C:/Users/a0221074/Desktop/C5000/IBM_Watson_TIdesign_workarea/CSL_bitbucket/c55_csl/c55x
    3036 00004a ED04          MOV dbl(*SP(#2)), XAR0
         00004c 8F   
    3037 00004d A40A          MOV *SP(#5), T0 ; |1005| 
    3038              $C$DW$350       .dwtag  DW_TAG_TI_branch
    3039                      .dwattr $C$DW$350, DW_AT_low_pc(0x00)
    3040                      .dwattr $C$DW$350, DW_AT_name("_process_a_file_1")
    3041                      .dwattr $C$DW$350, DW_AT_TI_call
    3042              
    3043 00004f 6C00          CALL #_process_a_file_1 ; |1005| 
         000051 0000+
    3044 000053 3D05  ||      MOV #0, T1
    3045              
    3046                                                      ; call occurs [#_process_a_file_1] ; |1005| 
    3047 000055 C4CD          MOV T0, *FP(#262) ; |1005| 
         000057 0106 
    3048                      .dwpsn  file "C:/Users/a0221074/Desktop/C5000/IBM_Watson_TIdesign_workarea/CSL_bitbucket/c55_csl/c55x
    3049 000059 F0CD          CMP *FP(#262) == #100, TC1 ; |1007| 
         00005b 0064 
         00005d 0106 
    3050 00005f 0474          BCC $C$L36,!TC1 ; |1007| 
         000061 15   
    3051                                                      ; branchcc occurs ; |1007| 
    3052                      .dwpsn  file "C:/Users/a0221074/Desktop/C5000/IBM_Watson_TIdesign_workarea/CSL_bitbucket/c55_csl/c55x
    3053 000062 A90A          MOV *SP(#5), AR1 ; |1007| 
    3054 000064 7C00          SUB #1, AR1, T1 ; |1007| 
         000066 0159 
    3055 000068 EC31          AMOV #0, XAR0 ; |1007| 
         00006a 8E00 
         00006c 0000 
    3056 00006e ED04          MOV dbl(*SP(#2)), XAR1
         000070 9F   
    3057              $C$DW$351       .dwtag  DW_TAG_TI_branch
    3058                      .dwattr $C$DW$351, DW_AT_low_pc(0x00)
    3059                      .dwattr $C$DW$351, DW_AT_name("_search_a_frame")
    3060                      .dwattr $C$DW$351, DW_AT_TI_call
    3061              
TMS320C55x Assembler PC v4.4.1 Wed Sep 13 16:33:23 2017

Tools Copyright (c) 1996-2012 Texas Instruments Incorporated
C:\Users\a0221074\AppData\Local\Temp\1618010                         PAGE   69

    3062 000071 6C00          CALL #_search_a_frame ; |1007| 
         000073 0000!
    3063 000075 3D04  ||      MOV #0, T0
    3064              
    3065                                                      ; call occurs [#_search_a_frame] ; |1007| 
    3066 000077       $C$L36:    
    3067                      .dwpsn  file "C:/Users/a0221074/Desktop/C5000/IBM_Watson_TIdesign_workarea/CSL_bitbucket/c55_csl/c55x
    3068 000077 F0CD          CMP *FP(#262) == #100, TC1 ; |1009| 
         000079 0064 
         00007b 0106 
    3069 00007d 0474          BCC $C$L37,!TC1 ; |1009| 
         00007f 45   
    3070                                                      ; branchcc occurs ; |1009| 
    3071 000080 ED04          MOV dbl(*SP(#2)), XAR3
         000082 BF   
    3072 000083 76FF          MOV #65535, AR2 ; |1009| 
         000085 FFA8 
    3073 000087 A96D          MOV *AR3(#1272), AR1 ; |1009| 
         000089 04F8 
    3074 00008b 1290          CMPU AR1 == AR2, TC1 ; |1009| 
         00008d A4   
    3075 00008e 0464          BCC $C$L37,TC1 ; |1009| 
         000090 34   
    3076                                                      ; branchcc occurs ; |1009| 
    3077                      .dwpsn  file "C:/Users/a0221074/Desktop/C5000/IBM_Watson_TIdesign_workarea/CSL_bitbucket/c55_csl/c55x
    3078 000091 EB00          MOV XAR3, dbl(*SP(#0))
         000093 B5   
    3079 000094 ED04          MOV dbl(*SP(#2)), XAR4
         000096 CF   
    3080 000097 ED04          MOV dbl(*SP(#2)), XAR3
         000099 BF   
    3081 00009a A90A          MOV *SP(#5), AR1 ; |1011| 
    3082 00009c 7C00          SUB #1, AR1, T1 ; |1011| 
         00009e 0159 
    3083 0000a0 B48F          AMAR *+AR4(#1159) ; |1011| 
         0000a2 0487 
    3084 0000a4 A46D          MOV *AR3(#1272), T0 ; |1011| 
         0000a6 04F8 
    3085 0000a8 ED6D          MOV dbl(*AR3(#1152)), XAR0
         0000aa 8F04 
         0000ac 80   
    3086 0000ad ED6D          MOV dbl(*AR3(#1156)), XAR2
         0000af AF04 
         0000b1 84   
    3087 0000b2 ED6D          MOV dbl(*AR3(#1154)), XAR1
         0000b4 9F04 
         0000b6 82   
    3088 0000b7 B46F          AMAR *+AR3(#1158) ; |1011| 
         0000b9 0486 
    3089              $C$DW$352       .dwtag  DW_TAG_TI_branch
    3090                      .dwattr $C$DW$352, DW_AT_low_pc(0x00)
    3091                      .dwattr $C$DW$352, DW_AT_name("_back_trace_beam")
    3092                      .dwattr $C$DW$352, DW_AT_TI_call
    3093 0000bb 6C00          CALL #_back_trace_beam ; |1011| 
         0000bd 0000!
TMS320C55x Assembler PC v4.4.1 Wed Sep 13 16:33:23 2017

Tools Copyright (c) 1996-2012 Texas Instruments Incorporated
