TMS320C55x Assembler PC v4.4.1 Wed Sep 13 16:33:27 2017

Tools Copyright (c) 1996-2012 Texas Instruments Incorporated
C:\Users\a0221074\AppData\Local\Temp\1502810                         PAGE    1

    3452              ; Temporary Registers Used: None
       1              ;*******************************************************************************
       2              ;* TMS320C55x C/C++ Codegen                                          PC v4.4.1 *
       3              ;* Date/Time created: Wed Sep 13 16:33:26 2017                                 *
       4              ;*******************************************************************************
       5                      .compiler_opts --hll_source=on --mem_model:code=flat --mem_model:data=huge --object_format=coff --sil
       6                      .mmregs
       7                      .cpl_on
       8                      .arms_on
       9                      .c54cm_off
      10                      .asg AR6, FP
      11                      .asg XAR6, XFP
      12                      .asg DPH, MDP
      13                      .model call=c55_std
      14                      .model mem=huge
      15                      .noremark 5002  ; code respects overwrite rules
      16              ;*******************************************************************************
      17              ;* GLOBAL FILE PARAMETERS                                                      *
      18              ;*                                                                             *
      19              ;*   Architecture       : TMS320C55x                                           *
      20              ;*   Optimizing for     : Speed                                                *
      21              ;*   Memory             : Huge Model (23-Bit Data Pointers)                    *
      22              ;*   Calls              : Normal Library ASM calls                             *
      23              ;*   Debug Info         : Standard TI Debug Information                        *
      24              ;*******************************************************************************
      25              
      26              $C$DW$CU        .dwtag  DW_TAG_compile_unit
      27                      .dwattr $C$DW$CU, DW_AT_name("C:/Users/a0221074/Desktop/C5000/IBM_Watson_TIdesign_workarea/CSL_bitbuc
      28                      .dwattr $C$DW$CU, DW_AT_producer("TMS320C55x C/C++ Codegen PC v4.4.1 Copyright (c) 1996-2012 Texas In
      29                      .dwattr $C$DW$CU, DW_AT_TI_version(0x01)
      30                      .dwattr $C$DW$CU, DW_AT_comp_dir("C:\Users\a0221074\Desktop\C5000\IBM_Watson_TIdesign_workarea\CSL_bi
      31              
      32              $C$DW$1 .dwtag  DW_TAG_subprogram, DW_AT_name("mfcc_a_window")
      33                      .dwattr $C$DW$1, DW_AT_TI_symbol_name("_mfcc_a_window")
      34                      .dwattr $C$DW$1, DW_AT_declaration
      35                      .dwattr $C$DW$1, DW_AT_external
      36              $C$DW$2 .dwtag  DW_TAG_formal_parameter
      37                      .dwattr $C$DW$2, DW_AT_type(*$C$DW$T$22)
      38              $C$DW$3 .dwtag  DW_TAG_formal_parameter
      39                      .dwattr $C$DW$3, DW_AT_type(*$C$DW$T$22)
      40              $C$DW$4 .dwtag  DW_TAG_formal_parameter
      41                      .dwattr $C$DW$4, DW_AT_type(*$C$DW$T$22)
      42              $C$DW$5 .dwtag  DW_TAG_formal_parameter
      43                      .dwattr $C$DW$5, DW_AT_type(*$C$DW$T$54)
      44              $C$DW$6 .dwtag  DW_TAG_formal_parameter
      45                      .dwattr $C$DW$6, DW_AT_type(*$C$DW$T$54)
      46              $C$DW$7 .dwtag  DW_TAG_formal_parameter
      47                      .dwattr $C$DW$7, DW_AT_type(*$C$DW$T$59)
      48              $C$DW$8 .dwtag  DW_TAG_formal_parameter
      49                      .dwattr $C$DW$8, DW_AT_type(*$C$DW$T$105)
      50              $C$DW$9 .dwtag  DW_TAG_formal_parameter
      51                      .dwattr $C$DW$9, DW_AT_type(*$C$DW$T$22)
      52              $C$DW$10        .dwtag  DW_TAG_formal_parameter
      53                      .dwattr $C$DW$10, DW_AT_type(*$C$DW$T$55)
      54              $C$DW$11        .dwtag  DW_TAG_formal_parameter
TMS320C55x Assembler PC v4.4.1 Wed Sep 13 16:33:27 2017

Tools Copyright (c) 1996-2012 Texas Instruments Incorporated
C:\Users\a0221074\AppData\Local\Temp\1502810                         PAGE    2

      55                      .dwattr $C$DW$11, DW_AT_type(*$C$DW$T$104)
      56              $C$DW$12        .dwtag  DW_TAG_formal_parameter
      57                      .dwattr $C$DW$12, DW_AT_type(*$C$DW$T$22)
      58              $C$DW$13        .dwtag  DW_TAG_formal_parameter
      59                      .dwattr $C$DW$13, DW_AT_type(*$C$DW$T$22)
      60                      .dwendtag $C$DW$1
      61              
      62              
      63              $C$DW$14        .dwtag  DW_TAG_subprogram, DW_AT_name("circ_idx")
      64                      .dwattr $C$DW$14, DW_AT_TI_symbol_name("_circ_idx")
      65                      .dwattr $C$DW$14, DW_AT_type(*$C$DW$T$8)
      66                      .dwattr $C$DW$14, DW_AT_declaration
      67                      .dwattr $C$DW$14, DW_AT_external
      68              $C$DW$15        .dwtag  DW_TAG_formal_parameter
      69                      .dwattr $C$DW$15, DW_AT_type(*$C$DW$T$8)
      70                      .dwendtag $C$DW$14
      71              
      72              
      73              $C$DW$16        .dwtag  DW_TAG_subprogram, DW_AT_name("compute_regression")
      74                      .dwattr $C$DW$16, DW_AT_TI_symbol_name("_compute_regression")
      75                      .dwattr $C$DW$16, DW_AT_declaration
      76                      .dwattr $C$DW$16, DW_AT_external
      77              $C$DW$17        .dwtag  DW_TAG_formal_parameter
      78                      .dwattr $C$DW$17, DW_AT_type(*$C$DW$T$8)
      79              $C$DW$18        .dwtag  DW_TAG_formal_parameter
      80                      .dwattr $C$DW$18, DW_AT_type(*$C$DW$T$8)
      81              $C$DW$19        .dwtag  DW_TAG_formal_parameter
      82                      .dwattr $C$DW$19, DW_AT_type(*$C$DW$T$22)
      83              $C$DW$20        .dwtag  DW_TAG_formal_parameter
      84                      .dwattr $C$DW$20, DW_AT_type(*$C$DW$T$8)
      85              $C$DW$21        .dwtag  DW_TAG_formal_parameter
      86                      .dwattr $C$DW$21, DW_AT_type(*$C$DW$T$55)
      87              $C$DW$22        .dwtag  DW_TAG_formal_parameter
      88                      .dwattr $C$DW$22, DW_AT_type(*$C$DW$T$108)
      89                      .dwendtag $C$DW$16
      90              
      91              
      92              $C$DW$23        .dwtag  DW_TAG_subprogram, DW_AT_name("compute_uttdet")
      93                      .dwattr $C$DW$23, DW_AT_TI_symbol_name("_compute_uttdet")
      94                      .dwattr $C$DW$23, DW_AT_declaration
      95                      .dwattr $C$DW$23, DW_AT_external
      96              $C$DW$24        .dwtag  DW_TAG_formal_parameter
      97                      .dwattr $C$DW$24, DW_AT_type(*$C$DW$T$22)
      98              $C$DW$25        .dwtag  DW_TAG_formal_parameter
      99                      .dwattr $C$DW$25, DW_AT_type(*$C$DW$T$8)
     100              $C$DW$26        .dwtag  DW_TAG_formal_parameter
     101                      .dwattr $C$DW$26, DW_AT_type(*$C$DW$T$8)
     102              $C$DW$27        .dwtag  DW_TAG_formal_parameter
     103                      .dwattr $C$DW$27, DW_AT_type(*$C$DW$T$22)
     104              $C$DW$28        .dwtag  DW_TAG_formal_parameter
     105                      .dwattr $C$DW$28, DW_AT_type(*$C$DW$T$95)
     106              $C$DW$29        .dwtag  DW_TAG_formal_parameter
     107                      .dwattr $C$DW$29, DW_AT_type(*$C$DW$T$104)
     108                      .dwendtag $C$DW$23
     109              
TMS320C55x Assembler PC v4.4.1 Wed Sep 13 16:33:27 2017

Tools Copyright (c) 1996-2012 Texas Instruments Incorporated
C:\Users\a0221074\AppData\Local\Temp\1502810                         PAGE    3

     110              
     111              $C$DW$30        .dwtag  DW_TAG_subprogram, DW_AT_name("search_a_frame")
     112                      .dwattr $C$DW$30, DW_AT_TI_symbol_name("_search_a_frame")
     113                      .dwattr $C$DW$30, DW_AT_type(*$C$DW$T$8)
     114                      .dwattr $C$DW$30, DW_AT_declaration
     115                      .dwattr $C$DW$30, DW_AT_external
     116              $C$DW$31        .dwtag  DW_TAG_formal_parameter
     117                      .dwattr $C$DW$31, DW_AT_type(*$C$DW$T$22)
     118              $C$DW$32        .dwtag  DW_TAG_formal_parameter
     119                      .dwattr $C$DW$32, DW_AT_type(*$C$DW$T$8)
     120              $C$DW$33        .dwtag  DW_TAG_formal_parameter
     121                      .dwattr $C$DW$33, DW_AT_type(*$C$DW$T$9)
     122              $C$DW$34        .dwtag  DW_TAG_formal_parameter
     123                      .dwattr $C$DW$34, DW_AT_type(*$C$DW$T$95)
     124                      .dwendtag $C$DW$30
     125              
     126              
     127              $C$DW$35        .dwtag  DW_TAG_subprogram, DW_AT_name("per_frame_jac_compensate")
     128                      .dwattr $C$DW$35, DW_AT_TI_symbol_name("_per_frame_jac_compensate")
     129                      .dwattr $C$DW$35, DW_AT_type(*$C$DW$T$93)
     130                      .dwattr $C$DW$35, DW_AT_declaration
     131                      .dwattr $C$DW$35, DW_AT_external
     132              $C$DW$36        .dwtag  DW_TAG_formal_parameter
     133                      .dwattr $C$DW$36, DW_AT_type(*$C$DW$T$22)
     134              $C$DW$37        .dwtag  DW_TAG_formal_parameter
     135                      .dwattr $C$DW$37, DW_AT_type(*$C$DW$T$95)
     136                      .dwendtag $C$DW$35
     137              
     138              
     139              $C$DW$38        .dwtag  DW_TAG_subprogram, DW_AT_name("vector_packing")
     140                      .dwattr $C$DW$38, DW_AT_TI_symbol_name("_vector_packing")
     141                      .dwattr $C$DW$38, DW_AT_declaration
     142                      .dwattr $C$DW$38, DW_AT_external
     143              $C$DW$39        .dwtag  DW_TAG_formal_parameter
     144                      .dwattr $C$DW$39, DW_AT_type(*$C$DW$T$55)
     145              $C$DW$40        .dwtag  DW_TAG_formal_parameter
     146                      .dwattr $C$DW$40, DW_AT_type(*$C$DW$T$36)
     147              $C$DW$41        .dwtag  DW_TAG_formal_parameter
     148                      .dwattr $C$DW$41, DW_AT_type(*$C$DW$T$55)
     149              $C$DW$42        .dwtag  DW_TAG_formal_parameter
     150                      .dwattr $C$DW$42, DW_AT_type(*$C$DW$T$8)
     151                      .dwendtag $C$DW$38
     152              
     153              ;       C:\ti\ccsv7\tools\compiler\c5500_4.4.1\bin\acp55.exe -@C:\\Users\\a0221074\\AppData\\Local\\Temp\\150
     154 000000               .sect   ".text:_MP_CallEachPass"
     155                      .clink
     156              
     157              $C$DW$43        .dwtag  DW_TAG_subprogram, DW_AT_name("MP_CallEachPass")
     158                      .dwattr $C$DW$43, DW_AT_low_pc(_MP_CallEachPass)
     159                      .dwattr $C$DW$43, DW_AT_high_pc(0x00)
     160                      .dwattr $C$DW$43, DW_AT_TI_symbol_name("_MP_CallEachPass")
     161                      .dwattr $C$DW$43, DW_AT_type(*$C$DW$T$99)
     162                      .dwattr $C$DW$43, DW_AT_TI_begin_file("C:/Users/a0221074/Desktop/C5000/IBM_Watson_TIdesign_workarea/C
     163                      .dwattr $C$DW$43, DW_AT_TI_begin_line(0x48)
     164                      .dwattr $C$DW$43, DW_AT_TI_begin_column(0x01)
TMS320C55x Assembler PC v4.4.1 Wed Sep 13 16:33:27 2017

Tools Copyright (c) 1996-2012 Texas Instruments Incorporated
C:\Users\a0221074\AppData\Local\Temp\1502810                         PAGE    4

     165                      .dwattr $C$DW$43, DW_AT_TI_max_frame_size(0x16e)
     166                      .dwpsn  file "C:/Users/a0221074/Desktop/C5000/IBM_Watson_TIdesign_workarea/CSL_bitbucket/c55_csl/c55x
     167              
     168                      .dwfde $C$DW$CIE, _MP_CallEachPass
     169              $C$DW$44        .dwtag  DW_TAG_formal_parameter, DW_AT_name("sig_frm")
     170                      .dwattr $C$DW$44, DW_AT_TI_symbol_name("_sig_frm")
     171                      .dwattr $C$DW$44, DW_AT_type(*$C$DW$T$22)
     172                      .dwattr $C$DW$44, DW_AT_location[DW_OP_reg17]
     173              $C$DW$45        .dwtag  DW_TAG_formal_parameter, DW_AT_name("gvv")
     174                      .dwattr $C$DW$45, DW_AT_TI_symbol_name("_gvv")
     175                      .dwattr $C$DW$45, DW_AT_type(*$C$DW$T$95)
     176                      .dwattr $C$DW$45, DW_AT_location[DW_OP_reg19]
     177              $C$DW$46        .dwtag  DW_TAG_formal_parameter, DW_AT_name("bDoSearch")
     178                      .dwattr $C$DW$46, DW_AT_TI_symbol_name("_bDoSearch")
     179                      .dwattr $C$DW$46, DW_AT_type(*$C$DW$T$8)
     180                      .dwattr $C$DW$46, DW_AT_location[DW_OP_reg12]
     181              ;*******************************************************************************
     182              ;* FUNCTION NAME: MP_CallEachPass                                              *
     183              ;*                                                                             *
     184              ;*   Function Uses Regs : AC0,AC0,AC1,AC1,T0,T1,AR0,XAR0,AR1,XAR1,AR2,XAR2,AR3,*
     185              ;*                        XAR3,AR4,XAR4,FP,XFP,SP,CARRY,TC1,M40,SATA,SATD,RDM, *
     186              ;*                        FRCT,SMUL                                            *
     187              ;*   Save On Entry Regs : FP                                                   *
     188              ;*   Stack Frame        : Full (Frame Pointer in AR6, w/ debug)                *
     189              ;*   Total Frame Size   : 366 words                                            *
     190              ;*                        (2 return address/alignment)                         *
     191              ;*                        (10 function parameters)                             *
     192              ;*                        (353 local values)                                   *
     193              ;*                        (1 register save area)                               *
     194              ;*   Min System Stack   : 2 words                                              *
     195              ;*******************************************************************************
     196 000000       _MP_CallEachPass:
     197                      .dwcfi  cfa_offset, 1
     198                      .dwcfi  save_reg_to_mem, 91, -1
     199 000000 50E5          PSHBOTH XFP
     200                      .dwcfi  cfa_offset, 2
     201                      .dwcfi  save_reg_to_mem, 32, -2
     202 000002 F79A          ADD #-364, mmap(SP)
         000004 FE94 
         000006 98   
     203 000007 EC00          AMAR *SP(#0), XFP
         000009 EE   
     204                      .dwcfi  cfa_offset, 366
     205              $C$DW$47        .dwtag  DW_TAG_variable, DW_AT_name("sig_frm")
     206                      .dwattr $C$DW$47, DW_AT_TI_symbol_name("_sig_frm")
     207                      .dwattr $C$DW$47, DW_AT_type(*$C$DW$T$22)
     208                      .dwattr $C$DW$47, DW_AT_location[DW_OP_bregx 0x24 10]
     209              $C$DW$48        .dwtag  DW_TAG_variable, DW_AT_name("gvv")
     210                      .dwattr $C$DW$48, DW_AT_TI_symbol_name("_gvv")
     211                      .dwattr $C$DW$48, DW_AT_type(*$C$DW$T$95)
     212                      .dwattr $C$DW$48, DW_AT_location[DW_OP_bregx 0x24 12]
     213              $C$DW$49        .dwtag  DW_TAG_variable, DW_AT_name("bDoSearch")
     214                      .dwattr $C$DW$49, DW_AT_TI_symbol_name("_bDoSearch")
     215                      .dwattr $C$DW$49, DW_AT_type(*$C$DW$T$8)
     216                      .dwattr $C$DW$49, DW_AT_location[DW_OP_bregx 0x24 14]
TMS320C55x Assembler PC v4.4.1 Wed Sep 13 16:33:27 2017

Tools Copyright (c) 1996-2012 Texas Instruments Incorporated
C:\Users\a0221074\AppData\Local\Temp\1502810                         PAGE    5

     217              $C$DW$50        .dwtag  DW_TAG_variable, DW_AT_name("gv")
     218                      .dwattr $C$DW$50, DW_AT_TI_symbol_name("_gv")
     219                      .dwattr $C$DW$50, DW_AT_type(*$C$DW$T$95)
     220                      .dwattr $C$DW$50, DW_AT_location[DW_OP_bregx 0x24 16]
     221              $C$DW$51        .dwtag  DW_TAG_variable, DW_AT_name("a_status")
     222                      .dwattr $C$DW$51, DW_AT_TI_symbol_name("_a_status")
     223                      .dwattr $C$DW$51, DW_AT_type(*$C$DW$T$99)
     224                      .dwattr $C$DW$51, DW_AT_location[DW_OP_bregx 0x24 18]
     225              $C$DW$52        .dwtag  DW_TAG_variable, DW_AT_name("power_spectrum")
     226                      .dwattr $C$DW$52, DW_AT_TI_symbol_name("_power_spectrum")
     227                      .dwattr $C$DW$52, DW_AT_type(*$C$DW$T$51)
     228                      .dwattr $C$DW$52, DW_AT_location[DW_OP_bregx 0x24 19]
     229              $C$DW$53        .dwtag  DW_TAG_variable, DW_AT_name("idx")
     230                      .dwattr $C$DW$53, DW_AT_TI_symbol_name("_idx")
     231                      .dwattr $C$DW$53, DW_AT_type(*$C$DW$T$8)
     232                      .dwattr $C$DW$53, DW_AT_location[DW_OP_bregx 0x24 275]
     233              $C$DW$54        .dwtag  DW_TAG_variable, DW_AT_name("i")
     234                      .dwattr $C$DW$54, DW_AT_TI_symbol_name("_i")
     235                      .dwattr $C$DW$54, DW_AT_type(*$C$DW$T$8)
     236                      .dwattr $C$DW$54, DW_AT_location[DW_OP_bregx 0x24 276]
     237              $C$DW$55        .dwtag  DW_TAG_variable, DW_AT_name("j")
     238                      .dwattr $C$DW$55, DW_AT_TI_symbol_name("_j")
     239                      .dwattr $C$DW$55, DW_AT_type(*$C$DW$T$8)
     240                      .dwattr $C$DW$55, DW_AT_location[DW_OP_bregx 0x24 277]
     241              $C$DW$56        .dwtag  DW_TAG_variable, DW_AT_name("log_mel_energy")
     242                      .dwattr $C$DW$56, DW_AT_TI_symbol_name("_log_mel_energy")
     243                      .dwattr $C$DW$56, DW_AT_type(*$C$DW$T$61)
     244                      .dwattr $C$DW$56, DW_AT_location[DW_OP_bregx 0x24 278]
     245              $C$DW$57        .dwtag  DW_TAG_variable, DW_AT_name("tmp")
     246                      .dwattr $C$DW$57, DW_AT_TI_symbol_name("_tmp")
     247                      .dwattr $C$DW$57, DW_AT_type(*$C$DW$T$12)
     248                      .dwattr $C$DW$57, DW_AT_location[DW_OP_bregx 0x24 304]
     249              $C$DW$58        .dwtag  DW_TAG_variable, DW_AT_name("idx_noise")
     250                      .dwattr $C$DW$58, DW_AT_TI_symbol_name("_idx_noise")
     251                      .dwattr $C$DW$58, DW_AT_type(*$C$DW$T$21)
     252                      .dwattr $C$DW$58, DW_AT_location[DW_OP_bregx 0x24 306]
     253              $C$DW$59        .dwtag  DW_TAG_variable, DW_AT_name("reg_mfcc")
     254                      .dwattr $C$DW$59, DW_AT_TI_symbol_name("_reg_mfcc")
     255                      .dwattr $C$DW$59, DW_AT_type(*$C$DW$T$52)
     256                      .dwattr $C$DW$59, DW_AT_location[DW_OP_bregx 0x24 307]
     257              $C$DW$60        .dwtag  DW_TAG_variable, DW_AT_name("var_norm")
     258                      .dwattr $C$DW$60, DW_AT_TI_symbol_name("_var_norm")
     259                      .dwattr $C$DW$60, DW_AT_type(*$C$DW$T$103)
     260                      .dwattr $C$DW$60, DW_AT_location[DW_OP_bregx 0x24 323]
     261              $C$DW$61        .dwtag  DW_TAG_variable, DW_AT_name("mfcc_feature")
     262                      .dwattr $C$DW$61, DW_AT_TI_symbol_name("_mfcc_feature")
     263                      .dwattr $C$DW$61, DW_AT_type(*$C$DW$T$79)
     264                      .dwattr $C$DW$61, DW_AT_location[DW_OP_bregx 0x24 326]
     265              $C$DW$62        .dwtag  DW_TAG_variable, DW_AT_name("p_sp")
     266                      .dwattr $C$DW$62, DW_AT_TI_symbol_name("_p_sp")
     267                      .dwattr $C$DW$62, DW_AT_type(*$C$DW$T$22)
     268                      .dwattr $C$DW$62, DW_AT_location[DW_OP_bregx 0x24 358]
     269              $C$DW$63        .dwtag  DW_TAG_variable, DW_AT_name("p_fea")
     270                      .dwattr $C$DW$63, DW_AT_TI_symbol_name("_p_fea")
     271                      .dwattr $C$DW$63, DW_AT_type(*$C$DW$T$22)
TMS320C55x Assembler PC v4.4.1 Wed Sep 13 16:33:27 2017

Tools Copyright (c) 1996-2012 Texas Instruments Incorporated
C:\Users\a0221074\AppData\Local\Temp\1502810                         PAGE    6

     272                      .dwattr $C$DW$63, DW_AT_location[DW_OP_bregx 0x24 360]
     273              $C$DW$64        .dwtag  DW_TAG_variable, DW_AT_name("jacStatus")
     274                      .dwattr $C$DW$64, DW_AT_TI_symbol_name("_jacStatus")
     275                      .dwattr $C$DW$64, DW_AT_type(*$C$DW$T$93)
     276                      .dwattr $C$DW$64, DW_AT_location[DW_OP_bregx 0x24 362]
     277 00000a C41C          MOV T0, *SP(#14) ; |73| 
     278 00000c EB18          MOV XAR1, dbl(*SP(#12))
         00000e 95   
     279 00000f EB14          MOV XAR0, dbl(*SP(#10))
         000011 85   
     280                      .dwpsn  file "C:/Users/a0221074/Desktop/C5000/IBM_Watson_TIdesign_workarea/CSL_bitbucket/c55_csl/c55x
     281 000012 ED18          MOV dbl(*SP(#12)), XAR3
         000014 BF   
     282 000015 EB20          MOV XAR3, dbl(*SP(#16))
         000017 B5   
     283                      .dwpsn  file "C:/Users/a0221074/Desktop/C5000/IBM_Watson_TIdesign_workarea/CSL_bitbucket/c55_csl/c55x
     284 000018 E624          MOV #100, *SP(#18) ; |75| 
         00001a 64   
     285                      .dwpsn  file "C:/Users/a0221074/Desktop/C5000/IBM_Watson_TIdesign_workarea/CSL_bitbucket/c55_csl/c55x
     286 00001b EC00          AMAR *SP(#0), XAR3
         00001d BE   
     287 00001e B46F          AMAR *+AR3(#326)
         000020 0146 
     288 000022 EBCD          MOV XAR3, dbl(*FP(#358))
         000024 B501 
         000026 66   
     289                      .dwpsn  file "C:/Users/a0221074/Desktop/C5000/IBM_Watson_TIdesign_workarea/CSL_bitbucket/c55_csl/c55x
     290 000027 EBCD          MOV XAR3, dbl(*FP(#360))
         000029 B501 
         00002b 68   
     291                      .dwpsn  file "C:/Users/a0221074/Desktop/C5000/IBM_Watson_TIdesign_workarea/CSL_bitbucket/c55_csl/c55x
     292 00002c ED18          MOV dbl(*SP(#12)), XAR3
         00002e BF   
     293 00002f E66D          MOV #0, *AR3(#1968) ; |90| 
         000031 0007 
         000033 B0   
     294                      .dwpsn  file "C:/Users/a0221074/Desktop/C5000/IBM_Watson_TIdesign_workarea/CSL_bitbucket/c55_csl/c55x
     295 000034 ED20          MOV dbl(*SP(#16)), XAR3
         000036 BF   
     296 000037 A96D          MOV *AR3(#267), AR1 ; |96| 
         000039 010B 
     297 00003b 0409          BCC $C$L3,AR1 == #0 ; |96| 
         00003d 4F   
     298                                                      ; branchcc occurs ; |96| 
     299                      .dwpsn  file "C:/Users/a0221074/Desktop/C5000/IBM_Watson_TIdesign_workarea/CSL_bitbucket/c55_csl/c55x
     300 00003e E6CD          MOV #0, *FP(#276) ; |98| 
         000040 0001 
         000042 14   
     301                      .dwpsn  file "C:/Users/a0221074/Desktop/C5000/IBM_Watson_TIdesign_workarea/CSL_bitbucket/c55_csl/c55x
     302 000043 7600          MOV #96, AR2 ; |98| 
         000045 60A8 
     303 000047 A9CD          MOV *FP(#276), AR1 ; |98| 
         000049 0114 
     304 00004b 1298          CMP AR1 >= AR2, TC1 ; |98| 
         00004d A0   
TMS320C55x Assembler PC v4.4.1 Wed Sep 13 16:33:27 2017

Tools Copyright (c) 1996-2012 Texas Instruments Incorporated
C:\Users\a0221074\AppData\Local\Temp\1502810                         PAGE    7

     305 00004e 0464          BCC $C$L2,TC1 ; |98| 
         000050 27   
     306                                                      ; branchcc occurs ; |98| 
     307 000051       $C$L1:    
     308 000051       $C$DW$L$_MP_CallEachPass$3$B:
     309                      .dwpsn  file "C:/Users/a0221074/Desktop/C5000/IBM_Watson_TIdesign_workarea/CSL_bitbucket/c55_csl/c55x
     310 000051 7B00          ADD #64, AR1, T0 ; |98| 
         000053 4049 
     311 000055 ED14          MOV dbl(*SP(#10)), XAR3
         000057 BF   
     312 000058 AA6B          MOV *AR3(T0), AR2 ; |98| 
     313 00005a ED20          MOV dbl(*SP(#16)), XAR3
         00005c BF   
     314 00005d 1490          AADD AR1, AR3 ; |98| 
         00005f B0   
     315 000060 CA6D          MOV AR2, *AR3(#9) ; |98| 
         000062 0009 
     316                      .dwpsn  file "C:/Users/a0221074/Desktop/C5000/IBM_Watson_TIdesign_workarea/CSL_bitbucket/c55_csl/c55x
     317 000064 F7CD          ADD #1, *FP(#276) ; |98| 
         000066 0001 
         000068 0114 
     318                      .dwpsn  file "C:/Users/a0221074/Desktop/C5000/IBM_Watson_TIdesign_workarea/CSL_bitbucket/c55_csl/c55x
     319 00006a 7600          MOV #96, AR2 ; |98| 
         00006c 60A8 
     320 00006e A9CD          MOV *FP(#276), AR1 ; |98| 
         000070 0114 
     321 000072 1294          CMP AR1 < AR2, TC1 ; |98| 
         000074 A0   
     322 000075 0464          BCC $C$L1,TC1 ; |98| 
         000077 D9   
     323                                                      ; branchcc occurs ; |98| 
     324 000078       $C$DW$L$_MP_CallEachPass$3$E:
     325 000078       $C$L2:    
     326                      .dwpsn  file "C:/Users/a0221074/Desktop/C5000/IBM_Watson_TIdesign_workarea/CSL_bitbucket/c55_csl/c55x
     327 000078 ED20          MOV dbl(*SP(#16)), XAR3
         00007a BF   
     328 00007b E66D          MOV #0, *AR3(#267) ; |99| 
         00007d 0001 
         00007f 0B   
     329                      .dwpsn  file "C:/Users/a0221074/Desktop/C5000/IBM_Watson_TIdesign_workarea/CSL_bitbucket/c55_csl/c55x
     330 000080 ED20          MOV dbl(*SP(#16)), XAR3
         000082 BF   
     331 000083 E679          MOV #0, *AR3(short(#4)) ; |102| 
         000085 00   
     332                      .dwpsn  file "C:/Users/a0221074/Desktop/C5000/IBM_Watson_TIdesign_workarea/CSL_bitbucket/c55_csl/c55x
     333 000086 7600          MOV #100, T0 ; |104| 
         000088 6448 
     334 00008a 0604          B $C$L27  ; |104| 
         00008c B8   
     335                                                      ; branch occurs ; |104| 
     336 00008d       $C$L3:    
     337                      .dwpsn  file "C:/Users/a0221074/Desktop/C5000/IBM_Watson_TIdesign_workarea/CSL_bitbucket/c55_csl/c55x
     338 00008d E6CD          MOV #0, *FP(#276) ; |108| 
         00008f 0001 
         000091 14   
TMS320C55x Assembler PC v4.4.1 Wed Sep 13 16:33:27 2017

Tools Copyright (c) 1996-2012 Texas Instruments Incorporated
C:\Users\a0221074\AppData\Local\Temp\1502810                         PAGE    8

     339                      .dwpsn  file "C:/Users/a0221074/Desktop/C5000/IBM_Watson_TIdesign_workarea/CSL_bitbucket/c55_csl/c55x
     340 000092 7600          MOV #160, AR2 ; |108| 
         000094 A0A8 
     341 000096 A9CD          MOV *FP(#276), AR1 ; |108| 
         000098 0114 
     342 00009a 1298          CMP AR1 >= AR2, TC1 ; |108| 
         00009c A0   
     343 00009d 0464          BCC $C$L5,TC1 ; |108| 
         00009f 29   
     344                                                      ; branchcc occurs ; |108| 
     345 0000a0       $C$L4:    
     346 0000a0       $C$DW$L$_MP_CallEachPass$6$B:
     347                      .dwpsn  file "C:/Users/a0221074/Desktop/C5000/IBM_Watson_TIdesign_workarea/CSL_bitbucket/c55_csl/c55x
     348 0000a0 2294          MOV AR1, T0
     349 0000a2 ED14          MOV dbl(*SP(#10)), XAR3
         0000a4 BF   
     350 0000a5 7B00          ADD #96, AR1, AR1 ; |108| 
         0000a7 6099 
     351 0000a9 AA6B          MOV *AR3(T0), AR2 ; |108| 
     352 0000ab ED20          MOV dbl(*SP(#16)), XAR3
         0000ad BF   
     353 0000ae 1490          AADD AR1, AR3 ; |108| 
         0000b0 B0   
     354 0000b1 CA6D          MOV AR2, *AR3(#9) ; |108| 
         0000b3 0009 
     355                      .dwpsn  file "C:/Users/a0221074/Desktop/C5000/IBM_Watson_TIdesign_workarea/CSL_bitbucket/c55_csl/c55x
     356 0000b5 F7CD          ADD #1, *FP(#276) ; |108| 
         0000b7 0001 
         0000b9 0114 
     357                      .dwpsn  file "C:/Users/a0221074/Desktop/C5000/IBM_Watson_TIdesign_workarea/CSL_bitbucket/c55_csl/c55x
     358 0000bb 7600          MOV #160, AR2 ; |108| 
         0000bd A0A8 
     359 0000bf A9CD          MOV *FP(#276), AR1 ; |108| 
         0000c1 0114 
     360 0000c3 1294          CMP AR1 < AR2, TC1 ; |108| 
         0000c5 A0   
     361 0000c6 0464          BCC $C$L4,TC1 ; |108| 
         0000c8 D7   
     362                                                      ; branchcc occurs ; |108| 
     363 0000c9       $C$DW$L$_MP_CallEachPass$6$E:
     364 0000c9       $C$L5:    
     365                      .dwpsn  file "C:/Users/a0221074/Desktop/C5000/IBM_Watson_TIdesign_workarea/CSL_bitbucket/c55_csl/c55x
     366 0000c9 EC26          AMAR *SP(#19), XAR3
         0000cb BE   
     367 0000cc EB00          MOV XAR3, dbl(*SP(#0))
         0000ce B5   
     368 0000cf ED20          MOV dbl(*SP(#16)), XAR3
         0000d1 BF   
     369 0000d2 B46F          AMAR *+AR3(#1214) ; |118| 
         0000d4 04BE 
     370 0000d6 EB04          MOV XAR3, dbl(*SP(#2))
         0000d8 B5   
     371 0000d9 EC00          AMAR *SP(#0), XAR3
         0000db BE   
     372 0000dc B46F          AMAR *+AR3(#323)
TMS320C55x Assembler PC v4.4.1 Wed Sep 13 16:33:27 2017

Tools Copyright (c) 1996-2012 Texas Instruments Incorporated
C:\Users\a0221074\AppData\Local\Temp\1502810                         PAGE    9

         0000de 0143 
     373 0000e0 EB08          MOV XAR3, dbl(*SP(#4))
         0000e2 B5   
     374 0000e3 ED20          MOV dbl(*SP(#16)), XAR3
         0000e5 BF   
     375              
     376 0000e6 8E0C          MOV XAR3, dbl(*SP(#6))
         0000e8 BB14 
         0000ea B508 
     377              ||      AADD #8, AR3 ; |118| 
     378              
     379 0000ec ED20          MOV dbl(*SP(#16)), XAR3
         0000ee BF   
     380 0000ef ED6D          MOV dbl(*AR3(#2010)), XAR3
         0000f1 BF07 
         0000f3 DA   
     381 0000f4 EB10          MOV XAR3, dbl(*SP(#8))
         0000f6 B5   
     382 0000f7 ED20          MOV dbl(*SP(#16)), XAR3
         0000f9 BF   
     383 0000fa ED20          MOV dbl(*SP(#16)), XAR1
         0000fc 9F   
     384 0000fd A079          MOV *AR3(short(#4)), AC0 ; |118| 
     385 0000ff 1005          SFTS AC0, #4, AC0 ; |118| 
         000101 04   
     386 000102 900B          MOV AC0, XAR3
     387 000104 ED20          MOV dbl(*SP(#16)), XAR4
         000106 CF   
     388 000107 ED20          MOV dbl(*SP(#16)), XAR0
         000109 8F   
     389 00010a EC00          AMAR *SP(#0), XAR2
         00010c AE   
     390 00010d 14B1          AADD XAR3, XAR1 ; |118| 
         00010f 90   
     391 000110 ED20          MOV dbl(*SP(#16)), XAR3
         000112 BF   
     392 000113 B44F          AMAR *+AR2(#278)
         000115 0116 
     393 000117 B48F          AMAR *+AR4(#520) ; |118| 
         000119 0208 
     394 00011b 1409          AADD #9, AR0 ; |118| 
         00011d 84   
     395 00011e B42F          AMAR *+AR1(#280) ; |118| 
         000120 0118 
     396 000122 A46D          MOV *AR3(#277), T0 ; |118| 
         000124 0115 
     397 000126 A56D          MOV *AR3(#279), T1 ; |118| 
         000128 0117 
     398 00012a ED6D          MOV dbl(*AR3(#552)), XAR3
         00012c BF02 
         00012e 28   
     399              $C$DW$65        .dwtag  DW_TAG_TI_branch
     400                      .dwattr $C$DW$65, DW_AT_low_pc(0x00)
     401                      .dwattr $C$DW$65, DW_AT_name("_mfcc_a_window")
     402                      .dwattr $C$DW$65, DW_AT_TI_call
TMS320C55x Assembler PC v4.4.1 Wed Sep 13 16:33:27 2017

Tools Copyright (c) 1996-2012 Texas Instruments Incorporated
C:\Users\a0221074\AppData\Local\Temp\1502810                         PAGE   10

     403 00012f 6C00          CALL #_mfcc_a_window ; |118| 
         000131 0000!
     404                                                      ; call occurs [#_mfcc_a_window] ; |118| 
     405                      .dwpsn  file "C:/Users/a0221074/Desktop/C5000/IBM_Watson_TIdesign_workarea/CSL_bitbucket/c55_csl/c55x
     406 000133 ED20          MOV dbl(*SP(#16)), XAR3
         000135 BF   
     407 000136 A977          MOV *AR3(short(#3)), AR1 ; |125| 
     408 000138 A079          MOV *AR3(short(#4)), AC0 ; |125| 
     409 00013a 7B00          ADD #1, AR1, T1 ; |125| 
         00013c 0159 
     410 00013e ED20          MOV dbl(*SP(#16)), XAR1
         000140 9F   
     411              
     412 000143 1105          SFTS AC0, #4, AC0 ; |125| 
         000145 04   
     413 000141 A477  ||      MOV *AR3(short(#3)), T0 ; |125| 
     414              
     415 000146 900B          MOV AC0, XAR3
     416 000148 EC26          AMAR *SP(#19), XAR0
         00014a 8E   
     417 00014b ED20          MOV dbl(*SP(#16)), XAR2
         00014d AF   
     418 00014e 14B1          AADD XAR3, XAR1 ; |125| 
         000150 90   
     419 000151 B42F          AMAR *+AR1(#280) ; |125| 
         000153 0118 
     420 000155 EC00          AMAR *SP(#0), XAR3
         000157 BE   
     421 000158 B46F          AMAR *+AR3(#323)
         00015a 0143 
     422              $C$DW$66        .dwtag  DW_TAG_TI_branch
     423                      .dwattr $C$DW$66, DW_AT_low_pc(0x00)
     424                      .dwattr $C$DW$66, DW_AT_name("_compute_uttdet")
     425                      .dwattr $C$DW$66, DW_AT_TI_call
     426 00015c 6C00          CALL #_compute_uttdet ; |125| 
         00015e 0000!
     427                                                      ; call occurs [#_compute_uttdet] ; |125| 
     428                      .dwpsn  file "C:/Users/a0221074/Desktop/C5000/IBM_Watson_TIdesign_workarea/CSL_bitbucket/c55_csl/c55x
     429 000160 ED20          MOV dbl(*SP(#16)), XAR3
         000162 BF   
     430 000163 DC6D          BTST #0, *AR3(#273), TC1 ; |126| 
         000165 0001 
         000167 11   
     431 000168 0474          BCC $C$L7,!TC1 ; |126| 
         00016a 51   
     432                                                      ; branchcc occurs ; |126| 
     433                      .dwpsn  file "C:/Users/a0221074/Desktop/C5000/IBM_Watson_TIdesign_workarea/CSL_bitbucket/c55_csl/c55x
     434 00016b E6CD          MOV #0, *FP(#276) ; |127| 
         00016d 0001 
         00016f 14   
     435                      .dwpsn  file "C:/Users/a0221074/Desktop/C5000/IBM_Watson_TIdesign_workarea/CSL_bitbucket/c55_csl/c55x
     436 000170 ED20          MOV dbl(*SP(#16)), XAR3
         000172 BF   
     437 000173 AACD          MOV *FP(#276), AR2 ; |127| 
         000175 0114 
TMS320C55x Assembler PC v4.4.1 Wed Sep 13 16:33:27 2017

Tools Copyright (c) 1996-2012 Texas Instruments Incorporated
C:\Users\a0221074\AppData\Local\Temp\1502810                         PAGE   11

     438 000177 A96D          MOV *AR3(#277), AR1 ; |127| 
         000179 0115 
     439 00017b 12A8          CMPU AR2 >= AR1, TC1 ; |127| 
         00017d 94   
     440 00017e 0464          BCC $C$L7,TC1 ; |127| 
         000180 3B   
     441                                                      ; branchcc occurs ; |127| 
     442 000181       $C$L6:    
     443 000181       $C$DW$L$_MP_CallEachPass$9$B:
     444                      .dwpsn  file "C:/Users/a0221074/Desktop/C5000/IBM_Watson_TIdesign_workarea/CSL_bitbucket/c55_csl/c55x
     445 000181 A079          MOV *AR3(short(#4)), AC0 ; |127| 
     446 000183 1005          SFTS AC0, #4, AC0 ; |127| 
         000185 04   
     447 000186 900A          MOV AC0, XAR2
     448 000188 A9CD          MOV *FP(#276), AR1 ; |127| 
         00018a 0114 
     449 00018c 14A1          AADD XAR2, XAR3 ; |127| 
         00018e B0   
     450 00018f ED20          MOV dbl(*SP(#16)), XAR2
         000191 AF   
     451 000192 1490          AADD AR1, AR3 ; |127| 
         000194 B0   
     452 000195 B46F          AMAR *+AR3(#280) ; |127| 
         000197 0118 
     453 000199 1490          AADD AR1, AR2 ; |127| 
         00019b A0   
     454 00019c A94D          MOV *AR2(#504), AR1 ; |127| 
         00019e 01F8 
     455 0001a0 D861          SUB AR1, *AR3, AR1 ; |127| 
         0001a2 99   
     456 0001a3 C961          MOV AR1, *AR3 ; |127| 
     457                      .dwpsn  file "C:/Users/a0221074/Desktop/C5000/IBM_Watson_TIdesign_workarea/CSL_bitbucket/c55_csl/c55x
     458 0001a5 F7CD          ADD #1, *FP(#276) ; |127| 
         0001a7 0001 
         0001a9 0114 
     459                      .dwpsn  file "C:/Users/a0221074/Desktop/C5000/IBM_Watson_TIdesign_workarea/CSL_bitbucket/c55_csl/c55x
     460 0001ab ED20          MOV dbl(*SP(#16)), XAR3
         0001ad BF   
     461 0001ae AACD          MOV *FP(#276), AR2 ; |127| 
         0001b0 0114 
     462 0001b2 A96D          MOV *AR3(#277), AR1 ; |127| 
         0001b4 0115 
     463 0001b6 12A4          CMPU AR2 < AR1, TC1 ; |127| 
         0001b8 94   
     464 0001b9 0464          BCC $C$L6,TC1 ; |127| 
         0001bb C5   
     465                                                      ; branchcc occurs ; |127| 
     466 0001bc       $C$DW$L$_MP_CallEachPass$9$E:
     467 0001bc       $C$L7:    
     468                      .dwpsn  file "C:/Users/a0221074/Desktop/C5000/IBM_Watson_TIdesign_workarea/CSL_bitbucket/c55_csl/c55x
     469 0001bc A977          MOV *AR3(short(#3)), AR1 ; |131| 
     470 0001be 0419          BCC $C$L11,AR1 != #0 ; |131| 
         0001c0 7F   
     471                                                      ; branchcc occurs ; |131| 
     472                      .dwpsn  file "C:/Users/a0221074/Desktop/C5000/IBM_Watson_TIdesign_workarea/CSL_bitbucket/c55_csl/c55x
TMS320C55x Assembler PC v4.4.1 Wed Sep 13 16:33:27 2017

Tools Copyright (c) 1996-2012 Texas Instruments Incorporated
C:\Users\a0221074\AppData\Local\Temp\1502810                         PAGE   12

     473 0001c1 E6CD          MOV #0, *FP(#276) ; |133| 
         0001c3 0001 
         0001c5 14   
     474                      .dwpsn  file "C:/Users/a0221074/Desktop/C5000/IBM_Watson_TIdesign_workarea/CSL_bitbucket/c55_csl/c55x
     475 0001c6 ED20          MOV dbl(*SP(#16)), XAR3
         0001c8 BF   
     476 0001c9 A96D          MOV *AR3(#277), AR1 ; |133| 
         0001cb 0115 
     477 0001cd AACD          MOV *FP(#276), AR2 ; |133| 
         0001cf 0114 
     478 0001d1 12A8          CMPU AR2 >= AR1, TC1 ; |133| 
         0001d3 94   
     479 0001d4 0464          BCC $C$L11,TC1 ; |133| 
         0001d6 69   
     480                                                      ; branchcc occurs ; |133| 
     481 0001d7       $C$L8:    
     482 0001d7       $C$DW$L$_MP_CallEachPass$12$B:
     483                      .dwpsn  file "C:/Users/a0221074/Desktop/C5000/IBM_Watson_TIdesign_workarea/CSL_bitbucket/c55_csl/c55x
     484 0001d7 A9CD          MOV *FP(#276), AR1 ; |135| 
         0001d9 0114 
     485 0001db 1490          AADD AR1, AR3 ; |135| 
         0001dd B0   
     486 0001de AA6D          MOV *AR3(#280), AR2 ; |135| 
         0001e0 0118 
     487 0001e2 ED20          MOV dbl(*SP(#16)), XAR3
         0001e4 BF   
     488 0001e5 1490          AADD AR1, AR3 ; |135| 
         0001e7 B0   
     489 0001e8 CA6D          MOV AR2, *AR3(#1104) ; |135| 
         0001ea 0450 
     490                      .dwpsn  file "C:/Users/a0221074/Desktop/C5000/IBM_Watson_TIdesign_workarea/CSL_bitbucket/c55_csl/c55x
     491 0001ec E6CD          MOV #13, *FP(#277) ; |137| 
         0001ee 0D01 
         0001f0 15   
     492                      .dwpsn  file "C:/Users/a0221074/Desktop/C5000/IBM_Watson_TIdesign_workarea/CSL_bitbucket/c55_csl/c55x
     493 0001f1 A9CD          MOV *FP(#277), AR1 ; |137| 
         0001f3 0115 
     494 0001f5 0439          BCC $C$L10,AR1 <= #0 ; |137| 
         0001f7 31   
     495                                                      ; branchcc occurs ; |137| 
     496 0001f8       $C$DW$L$_MP_CallEachPass$12$E:
     497 0001f8       $C$L9:    
     498 0001f8       $C$DW$L$_MP_CallEachPass$13$B:
     499                      .dwpsn  file "C:/Users/a0221074/Desktop/C5000/IBM_Watson_TIdesign_workarea/CSL_bitbucket/c55_csl/c55x
     500 0001f8 ED20          MOV dbl(*SP(#16)), XAR3
         0001fa BF   
     501 0001fb A0CD          MOV *FP(#277), AC0 ; |138| 
         0001fd 0115 
     502 0001ff 1005          SFTS AC0, #4, AC0 ; |138| 
         000201 04   
     503 000202 900A          MOV AC0, XAR2
     504 000204 A9CD          MOV *FP(#276), AR1 ; |138| 
         000206 0114 
     505 000208 14A1          AADD XAR2, XAR3 ; |138| 
         00020a B0   
TMS320C55x Assembler PC v4.4.1 Wed Sep 13 16:33:27 2017

Tools Copyright (c) 1996-2012 Texas Instruments Incorporated
C:\Users\a0221074\AppData\Local\Temp\1502810                         PAGE   13

     506 00020b ED20          MOV dbl(*SP(#16)), XAR2
         00020d AF   
     507              
     508 00020e 1490          AADD AR1, AR2 ; |138| 
         000210 A0   
     509 000211 1590  ||      AADD AR1, AR3 ; |138| 
         000213 B8   
     510              
     511 000214 A94D          MOV *AR2(#280), AR1 ; |138| 
         000216 0118 
     512 000218 C96D          MOV AR1, *AR3(#280) ; |138| 
         00021a 0118 
     513                      .dwpsn  file "C:/Users/a0221074/Desktop/C5000/IBM_Watson_TIdesign_workarea/CSL_bitbucket/c55_csl/c55x
     514 00021c F7CD          SUB #1, *FP(#277) ; |137| 
         00021e FFFF 
         000220 0115 
     515                      .dwpsn  file "C:/Users/a0221074/Desktop/C5000/IBM_Watson_TIdesign_workarea/CSL_bitbucket/c55_csl/c55x
     516 000222 A9CD          MOV *FP(#277), AR1 ; |137| 
         000224 0115 
     517 000226 0449          BCC $C$L9,AR1 > #0 ; |137| 
         000228 CF   
     518                                                      ; branchcc occurs ; |137| 
     519 000229       $C$DW$L$_MP_CallEachPass$13$E:
     520 000229       $C$L10:    
     521 000229       $C$DW$L$_MP_CallEachPass$14$B:
     522                      .dwpsn  file "C:/Users/a0221074/Desktop/C5000/IBM_Watson_TIdesign_workarea/CSL_bitbucket/c55_csl/c55x
     523 000229 F7CD          ADD #1, *FP(#276) ; |133| 
         00022b 0001 
         00022d 0114 
     524                      .dwpsn  file "C:/Users/a0221074/Desktop/C5000/IBM_Watson_TIdesign_workarea/CSL_bitbucket/c55_csl/c55x
     525 00022f ED20          MOV dbl(*SP(#16)), XAR3
         000231 BF   
     526 000232 A96D          MOV *AR3(#277), AR1 ; |133| 
         000234 0115 
     527 000236 AACD          MOV *FP(#276), AR2 ; |133| 
         000238 0114 
     528 00023a 12A4          CMPU AR2 < AR1, TC1 ; |133| 
         00023c 94   
     529 00023d 0464          BCC $C$L8,TC1 ; |133| 
         00023f 97   
     530                                                      ; branchcc occurs ; |133| 
     531 000240       $C$DW$L$_MP_CallEachPass$14$E:
     532 000240       $C$L11:    
     533                      .dwpsn  file "C:/Users/a0221074/Desktop/C5000/IBM_Watson_TIdesign_workarea/CSL_bitbucket/c55_csl/c55x
     534 000240 A97B          MOV *AR3(short(#5)), AR1 ; |144| 
     535 000242 0419          BCC $C$L12,AR1 != #0 ; |144| 
         000244 47   
     536                                                      ; branchcc occurs ; |144| 
     537 000245 F06D          CMP *AR3(#824) == #2, TC1 ; |144| 
         000247 0002 
         000249 0338 
     538 00024b 0474          BCC $C$L12,!TC1 ; |144| 
         00024d 3E   
     539                                                      ; branchcc occurs ; |144| 
     540                      .dwpsn  file "C:/Users/a0221074/Desktop/C5000/IBM_Watson_TIdesign_workarea/CSL_bitbucket/c55_csl/c55x
TMS320C55x Assembler PC v4.4.1 Wed Sep 13 16:33:27 2017

Tools Copyright (c) 1996-2012 Texas Instruments Incorporated
C:\Users\a0221074\AppData\Local\Temp\1502810                         PAGE   14

     541 00024e E67B          MOV #1, *AR3(short(#5)) ; |146| 
         000250 01   
     542                      .dwpsn  file "C:/Users/a0221074/Desktop/C5000/IBM_Watson_TIdesign_workarea/CSL_bitbucket/c55_csl/c55x
     543 000251 ED20          MOV dbl(*SP(#16)), XAR3
         000253 BF   
     544 000254 A979          MOV *AR3(short(#4)), AR1 ; |149| 
     545 000256 7C00          SUB #8, AR1, T0 ; |149| 
         000258 0849 
     546              $C$DW$67        .dwtag  DW_TAG_TI_branch
     547                      .dwattr $C$DW$67, DW_AT_low_pc(0x00)
     548                      .dwattr $C$DW$67, DW_AT_name("_circ_idx")
     549                      .dwattr $C$DW$67, DW_AT_TI_call
     550 00025a 6C00          CALL #_circ_idx ; |149| 
         00025c 0000!
     551                                                      ; call occurs [#_circ_idx] ; |149| 
     552 00025e C4CD          MOV T0, *FP(#306) ; |149| 
         000260 0132 
     553                      .dwpsn  file "C:/Users/a0221074/Desktop/C5000/IBM_Watson_TIdesign_workarea/CSL_bitbucket/c55_csl/c55x
     554 000262 ED20          MOV dbl(*SP(#16)), XAR0
         000264 8F   
     555 000265 DFCD          MOV uns(*FP(#306)), AC0 ; |151| 
         000267 0501 
         000269 32   
     556 00026a 1005          SFTS AC0, #4, AC0 ; |151| 
         00026c 04   
     557 00026d 900B          MOV AC0, XAR3
     558 00026f ED20          MOV dbl(*SP(#16)), XAR1
         000271 9F   
     559 000272 14B1          AADD XAR3, XAR0 ; |151| 
         000274 80   
     560 000275 B40F          AMAR *+AR0(#280) ; |151| 
         000277 0118 
     561              $C$DW$68        .dwtag  DW_TAG_TI_branch
     562                      .dwattr $C$DW$68, DW_AT_low_pc(0x00)
     563                      .dwattr $C$DW$68, DW_AT_name("_per_frame_jac_compensate")
     564                      .dwattr $C$DW$68, DW_AT_TI_call
     565 000279 6C00          CALL #_per_frame_jac_compensate ; |151| 
         00027b 0000!
     566                                                      ; call occurs [#_per_frame_jac_compensate] ; |151| 
     567 00027d C4CD          MOV T0, *FP(#362) ; |151| 
         00027f 016A 
     568                      .dwpsn  file "C:/Users/a0221074/Desktop/C5000/IBM_Watson_TIdesign_workarea/CSL_bitbucket/c55_csl/c55x
     569 000281 2249          MOV T0, AR1
     570 000283 6389          BCC $C$L12,AR1 == #0 ; |152| 
     571                                                      ; branchcc occurs ; |152| 
     572                      .dwpsn  file "C:/Users/a0221074/Desktop/C5000/IBM_Watson_TIdesign_workarea/CSL_bitbucket/c55_csl/c55x
     573 000285 7600          MOV #207, T0 ; |153| 
         000287 CF48 
     574 000289 0602          B $C$L27  ; |153| 
         00028b B9   
     575                                                      ; branch occurs ; |153| 
     576 00028c       $C$L12:    
     577                      .dwpsn  file "C:/Users/a0221074/Desktop/C5000/IBM_Watson_TIdesign_workarea/CSL_bitbucket/c55_csl/c55x
     578 00028c ED20          MOV dbl(*SP(#16)), XAR3
         00028e BF   
TMS320C55x Assembler PC v4.4.1 Wed Sep 13 16:33:27 2017

Tools Copyright (c) 1996-2012 Texas Instruments Incorporated
C:\Users\a0221074\AppData\Local\Temp\1502810                         PAGE   15

     579 00028f A97B          MOV *AR3(short(#5)), AR1 ; |164| 
     580 000291 0409          BCC $C$L14,AR1 == #0 ; |164| 
         000293 73   
     581                                                      ; branchcc occurs ; |164| 
     582                      .dwpsn  file "C:/Users/a0221074/Desktop/C5000/IBM_Watson_TIdesign_workarea/CSL_bitbucket/c55_csl/c55x
     583 000294 DC6D          BTST #0, *AR3(#273), TC1 ; |165| 
         000296 0001 
         000298 11   
     584 000299 6D74          BCC $C$L15,!TC1 ; |165| 
         00029b 00AA 
     585                                                      ; branchcc occurs ; |165| 
     586                      .dwpsn  file "C:/Users/a0221074/Desktop/C5000/IBM_Watson_TIdesign_workarea/CSL_bitbucket/c55_csl/c55x
     587 00029d E6CD          MOV #0, *FP(#276) ; |166| 
         00029f 0001 
         0002a1 14   
     588                      .dwpsn  file "C:/Users/a0221074/Desktop/C5000/IBM_Watson_TIdesign_workarea/CSL_bitbucket/c55_csl/c55x
     589 0002a2 ED20          MOV dbl(*SP(#16)), XAR3
         0002a4 BF   
     590 0002a5 AACD          MOV *FP(#276), AR2 ; |166| 
         0002a7 0114 
     591 0002a9 A96D          MOV *AR3(#277), AR1 ; |166| 
         0002ab 0115 
     592 0002ad 12A8          CMPU AR2 >= AR1, TC1 ; |166| 
         0002af 94   
     593 0002b0 6D64          BCC $C$L15,TC1 ; |166| 
         0002b2 0093 
     594                                                      ; branchcc occurs ; |166| 
     595 0002b4       $C$L13:    
     596 0002b4       $C$DW$L$_MP_CallEachPass$22$B:
     597                      .dwpsn  file "C:/Users/a0221074/Desktop/C5000/IBM_Watson_TIdesign_workarea/CSL_bitbucket/c55_csl/c55x
     598 0002b4 A079          MOV *AR3(short(#4)), AC0 ; |167| 
     599 0002b6 1005          SFTS AC0, #4, AC0 ; |167| 
         0002b8 04   
     600 0002b9 900A          MOV AC0, XAR2
     601 0002bb A9CD          MOV *FP(#276), AR1 ; |167| 
         0002bd 0114 
     602 0002bf 14A1          AADD XAR2, XAR3 ; |167| 
         0002c1 B0   
     603 0002c2 1490          AADD AR1, AR3 ; |167| 
         0002c4 B0   
     604 0002c5 A06D          MOV *AR3(#280), AC0 ; |167| 
         0002c7 0118 
     605 0002c9 ED20          MOV dbl(*SP(#16)), XAR3
         0002cb BF   
     606 0002cc 1490          AADD AR1, AR3 ; |167| 
         0002ce B0   
     607 0002cf A16D          MOV *AR3(#504), AC1 ; |167| 
         0002d1 01F8 
     608 0002d3 1013          ADD AC1 << #7, AC0 ; |167| 
         0002d5 07   
     609 0002d6 EBCD          MOV AC0, dbl(*FP(#304)) ; |167| 
         0002d8 0801 
         0002da 30   
     610                      .dwpsn  file "C:/Users/a0221074/Desktop/C5000/IBM_Watson_TIdesign_workarea/CSL_bitbucket/c55_csl/c55x
     611 0002db ED20          MOV dbl(*SP(#16)), XAR3
TMS320C55x Assembler PC v4.4.1 Wed Sep 13 16:33:27 2017

Tools Copyright (c) 1996-2012 Texas Instruments Incorporated
C:\Users\a0221074\AppData\Local\Temp\1502810                         PAGE   16

         0002dd BF   
     612 0002de EDCD          MOV dbl(*FP(#304)), AC0 ; |168| 
         0002e0 0801 
         0002e2 30   
     613              
     614 0002e3 1490          AADD AR1, AR3 ; |168| 
         0002e5 B0   
     615 0002e6 1105  ||      SFTS AC0, #-7, AC0 ; |168| 
         0002e8 39   
     616              
     617 0002e9 C06D          MOV AC0, *AR3(#504) ; |168| 
         0002eb 01F8 
     618                      .dwpsn  file "C:/Users/a0221074/Desktop/C5000/IBM_Watson_TIdesign_workarea/CSL_bitbucket/c55_csl/c55x
     619 0002ed F7CD          ADD #1, *FP(#276) ; |166| 
         0002ef 0001 
         0002f1 0114 
     620                      .dwpsn  file "C:/Users/a0221074/Desktop/C5000/IBM_Watson_TIdesign_workarea/CSL_bitbucket/c55_csl/c55x
     621 0002f3 ED20          MOV dbl(*SP(#16)), XAR3
         0002f5 BF   
     622 0002f6 AACD          MOV *FP(#276), AR2 ; |166| 
         0002f8 0114 
     623 0002fa A96D          MOV *AR3(#277), AR1 ; |166| 
         0002fc 0115 
     624 0002fe 12A4          CMPU AR2 < AR1, TC1 ; |166| 
         000300 94   
     625 000301 0464          BCC $C$L13,TC1 ; |166| 
         000303 B0   
     626                                                      ; branchcc occurs ; |166| 
     627 000304       $C$DW$L$_MP_CallEachPass$22$E:
     628                      .dwpsn  file "C:/Users/a0221074/Desktop/C5000/IBM_Watson_TIdesign_workarea/CSL_bitbucket/c55_csl/c55x
     629 000304 0600          B $C$L15  ; |170| 
         000306 40   
     630                                                      ; branch occurs ; |170| 
     631 000307       $C$L14:    
     632                      .dwpsn  file "C:/Users/a0221074/Desktop/C5000/IBM_Watson_TIdesign_workarea/CSL_bitbucket/c55_csl/c55x
     633 000307 DC6D          BTST #1, *AR3(#273), TC1 ; |172| 
         000309 1001 
         00030b 11   
     634 00030c 0474          BCC $C$L15,!TC1 ; |172| 
         00030e 38   
     635                                                      ; branchcc occurs ; |172| 
     636                      .dwpsn  file "C:/Users/a0221074/Desktop/C5000/IBM_Watson_TIdesign_workarea/CSL_bitbucket/c55_csl/c55x
     637 00030f A979          MOV *AR3(short(#4)), AR1 ; |174| 
     638 000311 7C00          SUB #8, AR1, T0 ; |174| 
         000313 0849 
     639              $C$DW$69        .dwtag  DW_TAG_TI_branch
     640                      .dwattr $C$DW$69, DW_AT_low_pc(0x00)
     641                      .dwattr $C$DW$69, DW_AT_name("_circ_idx")
     642                      .dwattr $C$DW$69, DW_AT_TI_call
     643 000315 6C00          CALL #_circ_idx ; |174| 
         000317 0000!
     644                                                      ; call occurs [#_circ_idx] ; |174| 
     645 000319 C4CD          MOV T0, *FP(#306) ; |174| 
         00031b 0132 
     646                      .dwpsn  file "C:/Users/a0221074/Desktop/C5000/IBM_Watson_TIdesign_workarea/CSL_bitbucket/c55_csl/c55x
TMS320C55x Assembler PC v4.4.1 Wed Sep 13 16:33:27 2017

Tools Copyright (c) 1996-2012 Texas Instruments Incorporated
C:\Users\a0221074\AppData\Local\Temp\1502810                         PAGE   17

     647 00031d ED20          MOV dbl(*SP(#16)), XAR0
         00031f 8F   
     648 000320 DFCD          MOV uns(*FP(#306)), AC0 ; |185| 
         000322 0501 
         000324 32   
     649 000325 1005          SFTS AC0, #4, AC0 ; |185| 
         000327 04   
     650 000328 900B          MOV AC0, XAR3
     651 00032a ED20          MOV dbl(*SP(#16)), XAR1
         00032c 9F   
     652 00032d 14B1          AADD XAR3, XAR0 ; |185| 
         00032f 80   
     653 000330 B40F          AMAR *+AR0(#280) ; |185| 
         000332 0118 
     654              $C$DW$70        .dwtag  DW_TAG_TI_branch
     655                      .dwattr $C$DW$70, DW_AT_low_pc(0x00)
     656                      .dwattr $C$DW$70, DW_AT_name("_per_frame_jac_compensate")
     657                      .dwattr $C$DW$70, DW_AT_TI_call
     658 000334 6C00          CALL #_per_frame_jac_compensate ; |185| 
         000336 0000!
     659                                                      ; call occurs [#_per_frame_jac_compensate] ; |185| 
     660 000338 C4CD          MOV T0, *FP(#362) ; |185| 
         00033a 016A 
     661                      .dwpsn  file "C:/Users/a0221074/Desktop/C5000/IBM_Watson_TIdesign_workarea/CSL_bitbucket/c55_csl/c55x
     662 00033c 2249          MOV T0, AR1
     663 00033e 6389          BCC $C$L15,AR1 == #0 ; |186| 
     664                                                      ; branchcc occurs ; |186| 
     665                      .dwpsn  file "C:/Users/a0221074/Desktop/C5000/IBM_Watson_TIdesign_workarea/CSL_bitbucket/c55_csl/c55x
     666 000340 7600          MOV #207, T0 ; |187| 
         000342 CF48 
     667 000344 0601          B $C$L27  ; |187| 
         000346 FE   
     668                                                      ; branch occurs ; |187| 
     669 000347       $C$L15:    
     670                      .dwpsn  file "C:/Users/a0221074/Desktop/C5000/IBM_Watson_TIdesign_workarea/CSL_bitbucket/c55_csl/c55x
     671 000347 ED20          MOV dbl(*SP(#16)), XAR3
         000349 BF   
     672 00034a A97B          MOV *AR3(short(#5)), AR1 ; |205| 
     673 00034c 6D09          BCC $C$L21,AR1 == #0 ; |205| 
         00034e 012F 
     674                                                      ; branchcc occurs ; |205| 
     675 000350 A91C          MOV *SP(#14), AR1 ; |205| 
     676 000352 6D09          BCC $C$L21,AR1 == #0 ; |205| 
         000354 0129 
     677                                                      ; branchcc occurs ; |205| 
     678                      .dwpsn  file "C:/Users/a0221074/Desktop/C5000/IBM_Watson_TIdesign_workarea/CSL_bitbucket/c55_csl/c55x
     679 000356 767F          MOV #32767, AR2 ; |210| 
         000358 FFA8 
     680 00035a A96D          MOV *AR3(#268), AR1 ; |210| 
         00035c 010C 
     681 00035e 1298          CMP AR1 >= AR2, TC1 ; |210| 
         000360 A0   
     682 000361 6D64          BCC $C$L20,TC1 ; |210| 
         000363 0116 
     683                                                      ; branchcc occurs ; |210| 
TMS320C55x Assembler PC v4.4.1 Wed Sep 13 16:33:27 2017

Tools Copyright (c) 1996-2012 Texas Instruments Incorporated
C:\Users\a0221074\AppData\Local\Temp\1502810                         PAGE   18

     684                      .dwpsn  file "C:/Users/a0221074/Desktop/C5000/IBM_Watson_TIdesign_workarea/CSL_bitbucket/c55_csl/c55x
     685 000365 A979          MOV *AR3(short(#4)), AR1 ; |214| 
     686 000367 7C00          SUB #11, AR1, T0 ; |214| 
         000369 0B49 
     687              $C$DW$71        .dwtag  DW_TAG_TI_branch
     688                      .dwattr $C$DW$71, DW_AT_low_pc(0x00)
     689                      .dwattr $C$DW$71, DW_AT_name("_circ_idx")
     690                      .dwattr $C$DW$71, DW_AT_TI_call
     691 00036b 6C00          CALL #_circ_idx ; |214| 
         00036d 0000!
     692                                                      ; call occurs [#_circ_idx] ; |214| 
     693 00036f C4CD          MOV T0, *FP(#275) ; |214| 
         000371 0113 
     694                      .dwpsn  file "C:/Users/a0221074/Desktop/C5000/IBM_Watson_TIdesign_workarea/CSL_bitbucket/c55_csl/c55x
     695 000373 ED20          MOV dbl(*SP(#16)), XAR2
         000375 AF   
     696 000376 ED20          MOV dbl(*SP(#16)), XAR3
         000378 BF   
     697 000379 EC00          AMAR *SP(#0), XAR0
         00037b 8E   
     698 00037c B40F          AMAR *+AR0(#307)
         00037e 0133 
     699 000380 B44F          AMAR *+AR2(#1214) ; |218| 
         000382 04BE 
     700 000384 A96D          MOV *AR3(#277), AR1 ; |218| 
         000386 0115 
     701 000388 B46F          AMAR *+AR3(#280) ; |218| 
         00038a 0118 
     702              $C$DW$72        .dwtag  DW_TAG_TI_branch
     703                      .dwattr $C$DW$72, DW_AT_low_pc(0x00)
     704                      .dwattr $C$DW$72, DW_AT_name("_compute_regression")
     705                      .dwattr $C$DW$72, DW_AT_TI_call
     706              
     707 00038c 6C00          CALL #_compute_regression ; |218| 
         00038e 0000!
     708 000390 3D15  ||      MOV #1, T1
     709              
     710                                                      ; call occurs [#_compute_regression] ; |218| 
     711                      .dwpsn  file "C:/Users/a0221074/Desktop/C5000/IBM_Watson_TIdesign_workarea/CSL_bitbucket/c55_csl/c55x
     712 000392 E6CD          MOV #0, *FP(#276) ; |220| 
         000394 0001 
         000396 14   
     713                      .dwpsn  file "C:/Users/a0221074/Desktop/C5000/IBM_Watson_TIdesign_workarea/CSL_bitbucket/c55_csl/c55x
     714 000397 ED20          MOV dbl(*SP(#16)), XAR3
         000399 BF   
     715 00039a AACD          MOV *FP(#276), AR2 ; |220| 
         00039c 0114 
     716 00039e A96D          MOV *AR3(#277), AR1 ; |220| 
         0003a0 0115 
     717 0003a2 12A8          CMPU AR2 >= AR1, TC1 ; |220| 
         0003a4 94   
     718 0003a5 0464          BCC $C$L17,TC1 ; |220| 
         0003a7 65   
     719                                                      ; branchcc occurs ; |220| 
     720 0003a8       $C$L16:    
TMS320C55x Assembler PC v4.4.1 Wed Sep 13 16:33:27 2017

Tools Copyright (c) 1996-2012 Texas Instruments Incorporated
C:\Users\a0221074\AppData\Local\Temp\1502810                         PAGE   19

     721 0003a8       $C$DW$L$_MP_CallEachPass$31$B:
     722                      .dwpsn  file "C:/Users/a0221074/Desktop/C5000/IBM_Watson_TIdesign_workarea/CSL_bitbucket/c55_csl/c55x
     723 0003a8 A0CD          MOV *FP(#275), AC0 ; |222| 
         0003aa 0113 
     724 0003ac 1005          SFTS AC0, #4, AC0 ; |222| 
         0003ae 04   
     725 0003af 900A          MOV AC0, XAR2
     726 0003b1 A9CD          MOV *FP(#276), AR1 ; |222| 
         0003b3 0114 
     727 0003b5 A4CD          MOV *FP(#276), T0 ; |222| 
         0003b7 0114 
     728 0003b9 14A1          AADD XAR2, XAR3 ; |222| 
         0003bb B0   
     729 0003bc 1490          AADD AR1, AR3 ; |222| 
         0003be B0   
     730 0003bf A96D          MOV *AR3(#280), AR1 ; |222| 
         0003c1 0118 
     731 0003c3 EC00          AMAR *SP(#0), XAR3
         0003c5 BE   
     732 0003c6 B46F          AMAR *+AR3(#326)
         0003c8 0146 
     733 0003ca C96B          MOV AR1, *AR3(T0) ; |222| 
     734                      .dwpsn  file "C:/Users/a0221074/Desktop/C5000/IBM_Watson_TIdesign_workarea/CSL_bitbucket/c55_csl/c55x
     735 0003cc ED20          MOV dbl(*SP(#16)), XAR3
         0003ce BF   
     736 0003cf A96D          MOV *AR3(#277), AR1 ; |223| 
         0003d1 0115 
     737 0003d3 D6CD          ADD *FP(#276), AR1, AR1 ; |223| 
         0003d5 9901 
         0003d7 14   
     738 0003d8 7DFF          AND #0xffff, AR1, AC0 ; |223| 
         0003da FF09 
     739 0003dc 900A          MOV AC0, XAR2
     740 0003de A4CD          MOV *FP(#276), T0 ; |223| 
         0003e0 0114 
     741 0003e2 EC00          AMAR *SP(#0), XAR3
         0003e4 BE   
     742 0003e5 B46F          AMAR *+AR3(#326)
         0003e7 0146 
     743 0003e9 14A1          AADD XAR2, XAR3 ; |223| 
         0003eb B0   
     744 0003ec EC00          AMAR *SP(#0), XAR2
         0003ee AE   
     745 0003ef B44F          AMAR *+AR2(#307)
         0003f1 0133 
     746 0003f3 805D          MOV *AR2(T0), *AR3 ; |223| 
         0003f5 84   
     747                      .dwpsn  file "C:/Users/a0221074/Desktop/C5000/IBM_Watson_TIdesign_workarea/CSL_bitbucket/c55_csl/c55x
     748 0003f6 F7CD          ADD #1, *FP(#276) ; |220| 
         0003f8 0001 
         0003fa 0114 
     749                      .dwpsn  file "C:/Users/a0221074/Desktop/C5000/IBM_Watson_TIdesign_workarea/CSL_bitbucket/c55_csl/c55x
     750 0003fc ED20          MOV dbl(*SP(#16)), XAR3
         0003fe BF   
     751 0003ff AACD          MOV *FP(#276), AR2 ; |220| 
TMS320C55x Assembler PC v4.4.1 Wed Sep 13 16:33:27 2017

Tools Copyright (c) 1996-2012 Texas Instruments Incorporated
C:\Users\a0221074\AppData\Local\Temp\1502810                         PAGE   20

         000401 0114 
     752 000403 A96D          MOV *AR3(#277), AR1 ; |220| 
         000405 0115 
     753 000407 12A4          CMPU AR2 < AR1, TC1 ; |220| 
         000409 94   
     754 00040a 0464          BCC $C$L16,TC1 ; |220| 
         00040c 9B   
     755                                                      ; branchcc occurs ; |220| 
     756 00040d       $C$DW$L$_MP_CallEachPass$31$E:
     757 00040d       $C$L17:    
     758                      .dwpsn  file "C:/Users/a0221074/Desktop/C5000/IBM_Watson_TIdesign_workarea/CSL_bitbucket/c55_csl/c55x
     759 00040d A96D          MOV *AR3(#1160), AR1 ; |246| 
         00040f 0488 
     760 000411 AA6D          MOV *AR3(#268), AR2 ; |246| 
         000413 010C 
     761 000415 12A8          CMPU AR2 >= AR1, TC1 ; |246| 
         000417 94   
     762 000418 0464          BCC $C$L19,TC1 ; |246| 
         00041a 3E   
     763                                                      ; branchcc occurs ; |246| 
     764                      .dwpsn  file "C:/Users/a0221074/Desktop/C5000/IBM_Watson_TIdesign_workarea/CSL_bitbucket/c55_csl/c55x
     765 00041b ED6D          MOV dbl(*AR3(#2002)), XAR3
         00041d BF07 
         00041f D2   
     766 000420 90B0          MOV XAR3, AC0
     767 000422 0400          BCC $C$L18,AC0 == #0 ; |249| 
         000424 25   
     768                                                      ; branchcc occurs ; |249| 
     769                      .dwpsn  file "C:/Users/a0221074/Desktop/C5000/IBM_Watson_TIdesign_workarea/CSL_bitbucket/c55_csl/c55x
     770 000425 ED20          MOV dbl(*SP(#16)), XAR3
         000427 BF   
     771 000428 ED6D          MOV dbl(*AR3(#2002)), XAR1
         00042a 9F07 
         00042c D2   
     772 00042d DF7D          MOV uns(*AR3(short(#6))), AC0 ; |250| 
         00042f 05   
     773 000430 900B          MOV AC0, XAR3
     774 000432 14B1          AADD XAR3, XAR1 ; |250| 
         000434 90   
     775 000435 ED20          MOV dbl(*SP(#16)), XAR3
         000437 BF   
     776 000438 EDCD          MOV dbl(*FP(#360)), XAR0
         00043a 8F01 
         00043c 68   
     777 00043d ED6D          MOV dbl(*AR3(#1212)), XAR2
         00043f AF04 
         000441 BC   
     778 000442 A46D          MOV *AR3(#277), T0 ; |250| 
         000444 0115 
     779              $C$DW$73        .dwtag  DW_TAG_TI_branch
     780                      .dwattr $C$DW$73, DW_AT_low_pc(0x00)
     781                      .dwattr $C$DW$73, DW_AT_name("_vector_packing")
     782                      .dwattr $C$DW$73, DW_AT_TI_call
     783 000446 6C00          CALL #_vector_packing ; |250| 
         000448 0000!
TMS320C55x Assembler PC v4.4.1 Wed Sep 13 16:33:27 2017

Tools Copyright (c) 1996-2012 Texas Instruments Incorporated
C:\Users\a0221074\AppData\Local\Temp\1502810                         PAGE   21

     784                                                      ; call occurs [#_vector_packing] ; |250| 
     785 00044a       $C$L18:    
     786                      .dwpsn  file "C:/Users/a0221074/Desktop/C5000/IBM_Watson_TIdesign_workarea/CSL_bitbucket/c55_csl/c55x
     787 00044a ED20          MOV dbl(*SP(#16)), XAR2
         00044c AF   
     788 00044d ED20          MOV dbl(*SP(#16)), XAR3
         00044f BF   
     789 000450 A94D          MOV *AR2(#277), AR1 ; |266| 
         000452 0115 
     790 000454 D67D          ADD *AR3(short(#6)), AR1, AR1 ; |266| 
         000456 99   
     791 000457 C97D          MOV AR1, *AR3(short(#6)) ; |266| 
     792 000459       $C$L19:    
     793                      .dwpsn  file "C:/Users/a0221074/Desktop/C5000/IBM_Watson_TIdesign_workarea/CSL_bitbucket/c55_csl/c55x
     794 000459 ED20          MOV dbl(*SP(#16)), XAR3
         00045b BF   
     795 00045c EDCD          MOV dbl(*FP(#360)), XAR0
         00045e 8F01 
         000460 68   
     796 000461 ED20          MOV dbl(*SP(#16)), XAR1
         000463 9F   
     797 000464 A56D          MOV *AR3(#268), T1 ; |270| 
         000466 010C 
     798              $C$DW$74        .dwtag  DW_TAG_TI_branch
     799                      .dwattr $C$DW$74, DW_AT_low_pc(0x00)
     800                      .dwattr $C$DW$74, DW_AT_name("_search_a_frame")
     801                      .dwattr $C$DW$74, DW_AT_TI_call
     802              
     803 000468 6C00          CALL #_search_a_frame ; |270| 
         00046a 0000!
     804 00046c 3D14  ||      MOV #1, T0
     805              
     806                                                      ; call occurs [#_search_a_frame] ; |270| 
     807 00046e C424          MOV T0, *SP(#18) ; |270| 
     808                      .dwpsn  file "C:/Users/a0221074/Desktop/C5000/IBM_Watson_TIdesign_workarea/CSL_bitbucket/c55_csl/c55x
     809 000470 ED20          MOV dbl(*SP(#16)), XAR3
         000472 BF   
     810 000473 F76D          ADD #1, *AR3(#268) ; |271| 
         000475 0001 
         000477 010C 
     811                      .dwpsn  file "C:/Users/a0221074/Desktop/C5000/IBM_Watson_TIdesign_workarea/CSL_bitbucket/c55_csl/c55x
     812 000479 4A04          B $C$L21  ; |281| 
     813                                                      ; branch occurs ; |281| 
     814 00047b       $C$L20:    
     815                      .dwpsn  file "C:/Users/a0221074/Desktop/C5000/IBM_Watson_TIdesign_workarea/CSL_bitbucket/c55_csl/c55x
     816 00047b FB24          MOV #305, *SP(#18) ; |285| 
         00047d 0131 
     817 00047f       $C$L21:    
     818                      .dwpsn  file "C:/Users/a0221074/Desktop/C5000/IBM_Watson_TIdesign_workarea/CSL_bitbucket/c55_csl/c55x
     819 00047f ED20          MOV dbl(*SP(#16)), XAR3
         000481 BF   
     820 000482 76FF          MOV #65534, AR2 ; |290| 
         000484 FEA8 
     821 000486 A977          MOV *AR3(short(#3)), AR1 ; |290| 
     822 000488 1298          CMPU AR1 >= AR2, TC1 ; |290| 
TMS320C55x Assembler PC v4.4.1 Wed Sep 13 16:33:27 2017

Tools Copyright (c) 1996-2012 Texas Instruments Incorporated
C:\Users\a0221074\AppData\Local\Temp\1502810                         PAGE   22

         00048a A4   
     823 00048b 6264          BCC $C$L22,TC1 ; |290| 
     824                                                      ; branchcc occurs ; |290| 
     825                      .dwpsn  file "C:/Users/a0221074/Desktop/C5000/IBM_Watson_TIdesign_workarea/CSL_bitbucket/c55_csl/c55x
     826 00048d F777          ADD #1, *AR3(short(#3)) ; |291| 
         00048f 0001 
     827 000491       $C$L22:    
     828                      .dwpsn  file "C:/Users/a0221074/Desktop/C5000/IBM_Watson_TIdesign_workarea/CSL_bitbucket/c55_csl/c55x
     829 000491 ED20          MOV dbl(*SP(#16)), XAR3
         000493 BF   
     830 000494 A979          MOV *AR3(short(#4)), AR1 ; |293| 
     831 000496 7B00          ADD #1, AR1, T0 ; |293| 
         000498 0149 
     832 00049a C479          MOV T0, *AR3(short(#4)) ; |293| 
     833              $C$DW$75        .dwtag  DW_TAG_TI_branch
     834                      .dwattr $C$DW$75, DW_AT_low_pc(0x00)
     835                      .dwattr $C$DW$75, DW_AT_name("_circ_idx")
     836                      .dwattr $C$DW$75, DW_AT_TI_call
     837 00049c 6C00          CALL #_circ_idx ; |293| 
         00049e 0000!
     838                                                      ; call occurs [#_circ_idx] ; |293| 
     839 0004a0 ED20          MOV dbl(*SP(#16)), XAR3
         0004a2 BF   
     840 0004a3 C479          MOV T0, *AR3(short(#4)) ; |293| 
     841                      .dwpsn  file "C:/Users/a0221074/Desktop/C5000/IBM_Watson_TIdesign_workarea/CSL_bitbucket/c55_csl/c55x
     842 0004a5 E6CD          MOV #0, *FP(#276) ; |297| 
         0004a7 0001 
         0004a9 14   
     843                      .dwpsn  file "C:/Users/a0221074/Desktop/C5000/IBM_Watson_TIdesign_workarea/CSL_bitbucket/c55_csl/c55x
     844 0004aa 7600          MOV #96, AR2 ; |297| 
         0004ac 60A8 
     845 0004ae A9CD          MOV *FP(#276), AR1 ; |297| 
         0004b0 0114 
     846 0004b2 1298          CMP AR1 >= AR2, TC1 ; |297| 
         0004b4 A0   
     847 0004b5 6D64          BCC $C$L26,TC1 ; |297| 
         0004b7 008A 
     848                                                      ; branchcc occurs ; |297| 
     849 0004b9       $C$L23:    
     850 0004b9       $C$DW$L$_MP_CallEachPass$41$B:
     851                      .dwpsn  file "C:/Users/a0221074/Desktop/C5000/IBM_Watson_TIdesign_workarea/CSL_bitbucket/c55_csl/c55x
     852 0004b9 7B00          ADD #160, AR1, AR1 ; |299| 
         0004bb A099 
     853 0004bd ED20          MOV dbl(*SP(#16)), XAR3
         0004bf BF   
     854 0004c0 1490          AADD AR1, AR3 ; |299| 
         0004c2 B0   
     855 0004c3 A9CD          MOV *FP(#276), AR1 ; |299| 
         0004c5 0114 
     856 0004c7 AA6D          MOV *AR3(#9), AR2 ; |299| 
         0004c9 0009 
     857 0004cb ED20          MOV dbl(*SP(#16)), XAR3
         0004cd BF   
     858 0004ce 1490          AADD AR1, AR3 ; |299| 
         0004d0 B0   
TMS320C55x Assembler PC v4.4.1 Wed Sep 13 16:33:27 2017

Tools Copyright (c) 1996-2012 Texas Instruments Incorporated
C:\Users\a0221074\AppData\Local\Temp\1502810                         PAGE   23

     859 0004d1 CA6D          MOV AR2, *AR3(#9) ; |299| 
         0004d3 0009 
     860                      .dwpsn  file "C:/Users/a0221074/Desktop/C5000/IBM_Watson_TIdesign_workarea/CSL_bitbucket/c55_csl/c55x
     861 0004d5 A9CD          MOV *FP(#276), AR1 ; |302| 
         0004d7 0114 
     862 0004d9 ED20          MOV dbl(*SP(#16)), XAR3
         0004db BF   
     863 0004dc 1490          AADD AR1, AR3 ; |302| 
         0004de B0   
     864 0004df A96D          MOV *AR3(#9), AR1 ; |302| 
         0004e1 0009 
     865 0004e3 ED20          MOV dbl(*SP(#16)), XAR3
         0004e5 BF   
     866 0004e6 AA6D          MOV *AR3(#265), AR2 ; |302| 
         0004e8 0109 
     867 0004ea 12A8          CMP AR1 <= AR2, TC1 ; |302| 
         0004ec 90   
     868 0004ed 0464          BCC $C$L24,TC1 ; |302| 
         0004ef 14   
     869                                                      ; branchcc occurs ; |302| 
     870 0004f0       $C$DW$L$_MP_CallEachPass$41$E:
     871 0004f0       $C$DW$L$_MP_CallEachPass$42$B:
     872                      .dwpsn  file "C:/Users/a0221074/Desktop/C5000/IBM_Watson_TIdesign_workarea/CSL_bitbucket/c55_csl/c55x
     873 0004f0 A9CD          MOV *FP(#276), AR1 ; |302| 
         0004f2 0114 
     874 0004f4 1490          AADD AR1, AR3 ; |302| 
         0004f6 B0   
     875 0004f7 A96D          MOV *AR3(#9), AR1 ; |302| 
         0004f9 0009 
     876 0004fb ED20          MOV dbl(*SP(#16)), XAR3
         0004fd BF   
     877 0004fe C96D          MOV AR1, *AR3(#265) ; |302| 
         000500 0109 
     878 000502 4A2A          B $C$L25  ; |302| 
     879                                                      ; branch occurs ; |302| 
     880 000504       $C$DW$L$_MP_CallEachPass$42$E:
     881 000504       $C$L24:    
     882 000504       $C$DW$L$_MP_CallEachPass$43$B:
     883                      .dwpsn  file "C:/Users/a0221074/Desktop/C5000/IBM_Watson_TIdesign_workarea/CSL_bitbucket/c55_csl/c55x
     884 000504 A9CD          MOV *FP(#276), AR1 ; |303| 
         000506 0114 
     885 000508 1490          AADD AR1, AR3 ; |303| 
         00050a B0   
     886 00050b A96D          MOV *AR3(#9), AR1 ; |303| 
         00050d 0009 
     887 00050f ED20          MOV dbl(*SP(#16)), XAR3
         000511 BF   
     888 000512 AA6D          MOV *AR3(#266), AR2 ; |303| 
         000514 010A 
     889 000516 1298          CMP AR1 >= AR2, TC1 ; |303| 
         000518 A0   
     890 000519 0464          BCC $C$L25,TC1 ; |303| 
         00051b 12   
     891                                                      ; branchcc occurs ; |303| 
     892 00051c       $C$DW$L$_MP_CallEachPass$43$E:
TMS320C55x Assembler PC v4.4.1 Wed Sep 13 16:33:27 2017

Tools Copyright (c) 1996-2012 Texas Instruments Incorporated
C:\Users\a0221074\AppData\Local\Temp\1502810                         PAGE   24

     893 00051c       $C$DW$L$_MP_CallEachPass$44$B:
     894                      .dwpsn  file "C:/Users/a0221074/Desktop/C5000/IBM_Watson_TIdesign_workarea/CSL_bitbucket/c55_csl/c55x
     895 00051c A9CD          MOV *FP(#276), AR1 ; |303| 
         00051e 0114 
     896 000520 1490          AADD AR1, AR3 ; |303| 
         000522 B0   
     897 000523 A96D          MOV *AR3(#9), AR1 ; |303| 
         000525 0009 
     898 000527 ED20          MOV dbl(*SP(#16)), XAR3
         000529 BF   
     899 00052a C96D          MOV AR1, *AR3(#266) ; |303| 
         00052c 010A 
     900 00052e       $C$DW$L$_MP_CallEachPass$44$E:
     901 00052e       $C$L25:    
     902 00052e       $C$DW$L$_MP_CallEachPass$45$B:
     903                      .dwpsn  file "C:/Users/a0221074/Desktop/C5000/IBM_Watson_TIdesign_workarea/CSL_bitbucket/c55_csl/c55x
     904 00052e F7CD          ADD #1, *FP(#276) ; |297| 
         000530 0001 
         000532 0114 
     905                      .dwpsn  file "C:/Users/a0221074/Desktop/C5000/IBM_Watson_TIdesign_workarea/CSL_bitbucket/c55_csl/c55x
     906 000534 7600          MOV #96, AR2 ; |297| 
         000536 60A8 
     907 000538 A9CD          MOV *FP(#276), AR1 ; |297| 
         00053a 0114 
     908 00053c 1294          CMP AR1 < AR2, TC1 ; |297| 
         00053e A0   
     909 00053f 6D64          BCC $C$L23,TC1 ; |297| 
         000541 FF76 
     910                                                      ; branchcc occurs ; |297| 
     911 000543       $C$DW$L$_MP_CallEachPass$45$E:
     912 000543       $C$L26:    
     913                      .dwpsn  file "C:/Users/a0221074/Desktop/C5000/IBM_Watson_TIdesign_workarea/CSL_bitbucket/c55_csl/c55x
     914 000543 A424          MOV *SP(#18), T0 ; |307| 
     915 000545       $C$L27:    
     916                      .dwpsn  file "C:/Users/a0221074/Desktop/C5000/IBM_Watson_TIdesign_workarea/CSL_bitbucket/c55_csl/c55x
     917 000545 F79A          ADD #364, mmap(SP)
         000547 016C 
         000549 98   
     918                      .dwcfi  cfa_offset, 2
     919 00054a 50E4          POPBOTH XFP
     920                      .dwcfi  restore_reg, 32
     921                      .dwcfi  cfa_offset, 1
     922              $C$DW$76        .dwtag  DW_TAG_TI_branch
     923                      .dwattr $C$DW$76, DW_AT_low_pc(0x00)
     924                      .dwattr $C$DW$76, DW_AT_TI_return
     925 00054c 4804          RET
     926                                                      ; return occurs
     927              
     928              $C$DW$77        .dwtag  DW_TAG_TI_loop
     929                      .dwattr $C$DW$77, DW_AT_name("C:\\Users\\a0221074\\AppData\\Local\\Temp\\1502810:$C$L23:1:1505334806"
     930                      .dwattr $C$DW$77, DW_AT_TI_begin_file("C:/Users/a0221074/Desktop/C5000/IBM_Watson_TIdesign_workarea/C
     931                      .dwattr $C$DW$77, DW_AT_TI_begin_line(0x129)
     932                      .dwattr $C$DW$77, DW_AT_TI_end_line(0x132)
     933              $C$DW$78        .dwtag  DW_TAG_TI_loop_range
     934                      .dwattr $C$DW$78, DW_AT_low_pc($C$DW$L$_MP_CallEachPass$41$B)
TMS320C55x Assembler PC v4.4.1 Wed Sep 13 16:33:27 2017

Tools Copyright (c) 1996-2012 Texas Instruments Incorporated
C:\Users\a0221074\AppData\Local\Temp\1502810                         PAGE   25

     935                      .dwattr $C$DW$78, DW_AT_high_pc($C$DW$L$_MP_CallEachPass$41$E)
     936              $C$DW$79        .dwtag  DW_TAG_TI_loop_range
     937                      .dwattr $C$DW$79, DW_AT_low_pc($C$DW$L$_MP_CallEachPass$42$B)
     938                      .dwattr $C$DW$79, DW_AT_high_pc($C$DW$L$_MP_CallEachPass$42$E)
     939              $C$DW$80        .dwtag  DW_TAG_TI_loop_range
     940                      .dwattr $C$DW$80, DW_AT_low_pc($C$DW$L$_MP_CallEachPass$43$B)
     941                      .dwattr $C$DW$80, DW_AT_high_pc($C$DW$L$_MP_CallEachPass$43$E)
     942              $C$DW$81        .dwtag  DW_TAG_TI_loop_range
     943                      .dwattr $C$DW$81, DW_AT_low_pc($C$DW$L$_MP_CallEachPass$44$B)
     944                      .dwattr $C$DW$81, DW_AT_high_pc($C$DW$L$_MP_CallEachPass$44$E)
     945              $C$DW$82        .dwtag  DW_TAG_TI_loop_range
     946                      .dwattr $C$DW$82, DW_AT_low_pc($C$DW$L$_MP_CallEachPass$45$B)
     947                      .dwattr $C$DW$82, DW_AT_high_pc($C$DW$L$_MP_CallEachPass$45$E)
     948                      .dwendtag $C$DW$77
     949              
     950              
     951              $C$DW$83        .dwtag  DW_TAG_TI_loop
     952                      .dwattr $C$DW$83, DW_AT_name("C:\\Users\\a0221074\\AppData\\Local\\Temp\\1502810:$C$L16:1:1505334806"
     953                      .dwattr $C$DW$83, DW_AT_TI_begin_file("C:/Users/a0221074/Desktop/C5000/IBM_Watson_TIdesign_workarea/C
     954                      .dwattr $C$DW$83, DW_AT_TI_begin_line(0xdc)
     955                      .dwattr $C$DW$83, DW_AT_TI_end_line(0xe0)
     956              $C$DW$84        .dwtag  DW_TAG_TI_loop_range
     957                      .dwattr $C$DW$84, DW_AT_low_pc($C$DW$L$_MP_CallEachPass$31$B)
     958                      .dwattr $C$DW$84, DW_AT_high_pc($C$DW$L$_MP_CallEachPass$31$E)
     959                      .dwendtag $C$DW$83
     960              
     961              
     962              $C$DW$85        .dwtag  DW_TAG_TI_loop
     963                      .dwattr $C$DW$85, DW_AT_name("C:\\Users\\a0221074\\AppData\\Local\\Temp\\1502810:$C$L13:1:1505334806"
     964                      .dwattr $C$DW$85, DW_AT_TI_begin_file("C:/Users/a0221074/Desktop/C5000/IBM_Watson_TIdesign_workarea/C
     965                      .dwattr $C$DW$85, DW_AT_TI_begin_line(0xa6)
     966                      .dwattr $C$DW$85, DW_AT_TI_end_line(0xa9)
     967              $C$DW$86        .dwtag  DW_TAG_TI_loop_range
     968                      .dwattr $C$DW$86, DW_AT_low_pc($C$DW$L$_MP_CallEachPass$22$B)
     969                      .dwattr $C$DW$86, DW_AT_high_pc($C$DW$L$_MP_CallEachPass$22$E)
     970                      .dwendtag $C$DW$85
     971              
     972              
     973              $C$DW$87        .dwtag  DW_TAG_TI_loop
     974                      .dwattr $C$DW$87, DW_AT_name("C:\\Users\\a0221074\\AppData\\Local\\Temp\\1502810:$C$L8:1:1505334806")
     975                      .dwattr $C$DW$87, DW_AT_TI_begin_file("C:/Users/a0221074/Desktop/C5000/IBM_Watson_TIdesign_workarea/C
     976                      .dwattr $C$DW$87, DW_AT_TI_begin_line(0x85)
     977                      .dwattr $C$DW$87, DW_AT_TI_end_line(0x8b)
     978              $C$DW$88        .dwtag  DW_TAG_TI_loop_range
     979                      .dwattr $C$DW$88, DW_AT_low_pc($C$DW$L$_MP_CallEachPass$12$B)
     980                      .dwattr $C$DW$88, DW_AT_high_pc($C$DW$L$_MP_CallEachPass$12$E)
     981              $C$DW$89        .dwtag  DW_TAG_TI_loop_range
     982                      .dwattr $C$DW$89, DW_AT_low_pc($C$DW$L$_MP_CallEachPass$14$B)
     983                      .dwattr $C$DW$89, DW_AT_high_pc($C$DW$L$_MP_CallEachPass$14$E)
     984              
     985              $C$DW$90        .dwtag  DW_TAG_TI_loop
     986                      .dwattr $C$DW$90, DW_AT_name("C:\\Users\\a0221074\\AppData\\Local\\Temp\\1502810:$C$L9:2:1505334806")
     987                      .dwattr $C$DW$90, DW_AT_TI_begin_file("C:/Users/a0221074/Desktop/C5000/IBM_Watson_TIdesign_workarea/C
     988                      .dwattr $C$DW$90, DW_AT_TI_begin_line(0x89)
     989                      .dwattr $C$DW$90, DW_AT_TI_end_line(0x8a)
TMS320C55x Assembler PC v4.4.1 Wed Sep 13 16:33:27 2017

Tools Copyright (c) 1996-2012 Texas Instruments Incorporated
C:\Users\a0221074\AppData\Local\Temp\1502810                         PAGE   26

     990              $C$DW$91        .dwtag  DW_TAG_TI_loop_range
     991                      .dwattr $C$DW$91, DW_AT_low_pc($C$DW$L$_MP_CallEachPass$13$B)
     992                      .dwattr $C$DW$91, DW_AT_high_pc($C$DW$L$_MP_CallEachPass$13$E)
     993                      .dwendtag $C$DW$90
     994              
     995                      .dwendtag $C$DW$87
     996              
     997              
     998              $C$DW$92        .dwtag  DW_TAG_TI_loop
     999                      .dwattr $C$DW$92, DW_AT_name("C:\\Users\\a0221074\\AppData\\Local\\Temp\\1502810:$C$L6:1:1505334806")
    1000                      .dwattr $C$DW$92, DW_AT_TI_begin_file("C:/Users/a0221074/Desktop/C5000/IBM_Watson_TIdesign_workarea/C
    1001                      .dwattr $C$DW$92, DW_AT_TI_begin_line(0x7f)
    1002                      .dwattr $C$DW$92, DW_AT_TI_end_line(0x7f)
    1003              $C$DW$93        .dwtag  DW_TAG_TI_loop_range
    1004                      .dwattr $C$DW$93, DW_AT_low_pc($C$DW$L$_MP_CallEachPass$9$B)
    1005                      .dwattr $C$DW$93, DW_AT_high_pc($C$DW$L$_MP_CallEachPass$9$E)
    1006                      .dwendtag $C$DW$92
    1007              
    1008              
    1009              $C$DW$94        .dwtag  DW_TAG_TI_loop
    1010                      .dwattr $C$DW$94, DW_AT_name("C:\\Users\\a0221074\\AppData\\Local\\Temp\\1502810:$C$L4:1:1505334806")
    1011                      .dwattr $C$DW$94, DW_AT_TI_begin_file("C:/Users/a0221074/Desktop/C5000/IBM_Watson_TIdesign_workarea/C
    1012                      .dwattr $C$DW$94, DW_AT_TI_begin_line(0x6c)
    1013                      .dwattr $C$DW$94, DW_AT_TI_end_line(0x6c)
    1014              $C$DW$95        .dwtag  DW_TAG_TI_loop_range
    1015                      .dwattr $C$DW$95, DW_AT_low_pc($C$DW$L$_MP_CallEachPass$6$B)
    1016                      .dwattr $C$DW$95, DW_AT_high_pc($C$DW$L$_MP_CallEachPass$6$E)
    1017                      .dwendtag $C$DW$94
    1018              
    1019              
    1020              $C$DW$96        .dwtag  DW_TAG_TI_loop
    1021                      .dwattr $C$DW$96, DW_AT_name("C:\\Users\\a0221074\\AppData\\Local\\Temp\\1502810:$C$L1:1:1505334806")
    1022                      .dwattr $C$DW$96, DW_AT_TI_begin_file("C:/Users/a0221074/Desktop/C5000/IBM_Watson_TIdesign_workarea/C
    1023                      .dwattr $C$DW$96, DW_AT_TI_begin_line(0x62)
    1024                      .dwattr $C$DW$96, DW_AT_TI_end_line(0x62)
    1025              $C$DW$97        .dwtag  DW_TAG_TI_loop_range
    1026                      .dwattr $C$DW$97, DW_AT_low_pc($C$DW$L$_MP_CallEachPass$3$B)
    1027                      .dwattr $C$DW$97, DW_AT_high_pc($C$DW$L$_MP_CallEachPass$3$E)
    1028                      .dwendtag $C$DW$96
    1029              
    1030                      .dwattr $C$DW$43, DW_AT_TI_end_file("C:/Users/a0221074/Desktop/C5000/IBM_Watson_TIdesign_workarea/CSL
    1031                      .dwattr $C$DW$43, DW_AT_TI_end_line(0x134)
    1032                      .dwattr $C$DW$43, DW_AT_TI_end_column(0x01)
    1033                      .dwendentry
    1034                      .dwendtag $C$DW$43
    1035              
    1036 000000               .sect   ".text:_CallSearchEngine"
    1037                      .clink
    1038                      .global _CallSearchEngine
    1039              
    1040              $C$DW$98        .dwtag  DW_TAG_subprogram, DW_AT_name("CallSearchEngine")
    1041                      .dwattr $C$DW$98, DW_AT_low_pc(_CallSearchEngine)
    1042                      .dwattr $C$DW$98, DW_AT_high_pc(0x00)
    1043                      .dwattr $C$DW$98, DW_AT_TI_symbol_name("_CallSearchEngine")
    1044                      .dwattr $C$DW$98, DW_AT_external
TMS320C55x Assembler PC v4.4.1 Wed Sep 13 16:33:27 2017

Tools Copyright (c) 1996-2012 Texas Instruments Incorporated
C:\Users\a0221074\AppData\Local\Temp\1502810                         PAGE   27

    1045                      .dwattr $C$DW$98, DW_AT_type(*$C$DW$T$99)
    1046                      .dwattr $C$DW$98, DW_AT_TI_begin_file("C:/Users/a0221074/Desktop/C5000/IBM_Watson_TIdesign_workarea/C
    1047                      .dwattr $C$DW$98, DW_AT_TI_begin_line(0x142)
    1048                      .dwattr $C$DW$98, DW_AT_TI_begin_column(0x17)
    1049                      .dwattr $C$DW$98, DW_AT_TI_max_frame_size(0x08)
    1050                      .dwpsn  file "C:/Users/a0221074/Desktop/C5000/IBM_Watson_TIdesign_workarea/CSL_bitbucket/c55_csl/c55x
    1051              
    1052                      .dwfde $C$DW$CIE, _CallSearchEngine
    1053              $C$DW$99        .dwtag  DW_TAG_formal_parameter, DW_AT_name("sig_frm")
    1054                      .dwattr $C$DW$99, DW_AT_TI_symbol_name("_sig_frm")
    1055                      .dwattr $C$DW$99, DW_AT_type(*$C$DW$T$22)
    1056                      .dwattr $C$DW$99, DW_AT_location[DW_OP_reg17]
    1057              $C$DW$100       .dwtag  DW_TAG_formal_parameter, DW_AT_name("gvv")
    1058                      .dwattr $C$DW$100, DW_AT_TI_symbol_name("_gvv")
    1059                      .dwattr $C$DW$100, DW_AT_type(*$C$DW$T$95)
    1060                      .dwattr $C$DW$100, DW_AT_location[DW_OP_reg19]
    1061              $C$DW$101       .dwtag  DW_TAG_formal_parameter, DW_AT_name("aFramesQueued")
    1062                      .dwattr $C$DW$101, DW_AT_TI_symbol_name("_aFramesQueued")
    1063                      .dwattr $C$DW$101, DW_AT_type(*$C$DW$T$11)
    1064                      .dwattr $C$DW$101, DW_AT_location[DW_OP_reg12]
    1065              $C$DW$102       .dwtag  DW_TAG_formal_parameter, DW_AT_name("aDoSearch")
    1066                      .dwattr $C$DW$102, DW_AT_TI_symbol_name("_aDoSearch")
    1067                      .dwattr $C$DW$102, DW_AT_type(*$C$DW$T$8)
    1068                      .dwattr $C$DW$102, DW_AT_location[DW_OP_reg13]
    1069              ;*******************************************************************************
    1070              ;* FUNCTION NAME: CallSearchEngine                                             *
    1071              ;*                                                                             *
    1072              ;*   Function Uses Regs : T0,T1,AR0,XAR0,AR1,XAR1,AR3,XAR3,SP,M40,SATA,SATD,   *
    1073              ;*                        RDM,FRCT,SMUL                                        *
    1074              ;*   Stack Frame        : Compact (No Frame Pointer, w/ debug)                 *
    1075              ;*   Total Frame Size   : 8 words                                              *
    1076              ;*                        (1 return address/alignment)                         *
    1077              ;*                        (7 local values)                                     *
    1078              ;*   Min System Stack   : 1 word                                               *
    1079              ;*******************************************************************************
    1080 000000       _CallSearchEngine:
    1081                      .dwcfi  cfa_offset, 1
    1082                      .dwcfi  save_reg_to_mem, 91, -1
    1083 000000 4EF9          AADD #-7, SP
    1084                      .dwcfi  cfa_offset, 8
    1085              $C$DW$103       .dwtag  DW_TAG_variable, DW_AT_name("sig_frm")
    1086                      .dwattr $C$DW$103, DW_AT_TI_symbol_name("_sig_frm")
    1087                      .dwattr $C$DW$103, DW_AT_type(*$C$DW$T$22)
    1088                      .dwattr $C$DW$103, DW_AT_location[DW_OP_bregx 0x24 0]
    1089              $C$DW$104       .dwtag  DW_TAG_variable, DW_AT_name("gvv")
    1090                      .dwattr $C$DW$104, DW_AT_TI_symbol_name("_gvv")
    1091                      .dwattr $C$DW$104, DW_AT_type(*$C$DW$T$95)
    1092                      .dwattr $C$DW$104, DW_AT_location[DW_OP_bregx 0x24 2]
    1093              $C$DW$105       .dwtag  DW_TAG_variable, DW_AT_name("aFramesQueued")
    1094                      .dwattr $C$DW$105, DW_AT_TI_symbol_name("_aFramesQueued")
    1095                      .dwattr $C$DW$105, DW_AT_type(*$C$DW$T$11)
    1096                      .dwattr $C$DW$105, DW_AT_location[DW_OP_bregx 0x24 4]
    1097              $C$DW$106       .dwtag  DW_TAG_variable, DW_AT_name("aDoSearch")
    1098                      .dwattr $C$DW$106, DW_AT_TI_symbol_name("_aDoSearch")
    1099                      .dwattr $C$DW$106, DW_AT_type(*$C$DW$T$8)
TMS320C55x Assembler PC v4.4.1 Wed Sep 13 16:33:27 2017

Tools Copyright (c) 1996-2012 Texas Instruments Incorporated
C:\Users\a0221074\AppData\Local\Temp\1502810                         PAGE   28

    1100                      .dwattr $C$DW$106, DW_AT_location[DW_OP_bregx 0x24 5]
    1101              $C$DW$107       .dwtag  DW_TAG_variable, DW_AT_name("a_status")
    1102                      .dwattr $C$DW$107, DW_AT_TI_symbol_name("_a_status")
    1103                      .dwattr $C$DW$107, DW_AT_type(*$C$DW$T$99)
    1104                      .dwattr $C$DW$107, DW_AT_location[DW_OP_bregx 0x24 6]
    1105 000002 C50A          MOV T1, *SP(#5) ; |325| 
    1106 000004 C408          MOV T0, *SP(#4) ; |325| 
    1107 000006 EB04          MOV XAR1, dbl(*SP(#2))
         000008 95   
    1108 000009 EB00          MOV XAR0, dbl(*SP(#0))
         00000b 85   
    1109                      .dwpsn  file "C:/Users/a0221074/Desktop/C5000/IBM_Watson_TIdesign_workarea/CSL_bitbucket/c55_csl/c55x
    1110 00000c E60C          MOV #100, *SP(#6) ; |326| 
         00000e 64   
    1111                      .dwpsn  file "C:/Users/a0221074/Desktop/C5000/IBM_Watson_TIdesign_workarea/CSL_bitbucket/c55_csl/c55x
    1112 00000f ED04          MOV dbl(*SP(#2)), XAR3
         000011 BF   
    1113 000012 A908          MOV *SP(#4), AR1 ; |327| 
    1114 000014 C96D          MOV AR1, *AR3(#2041) ; |327| 
         000016 07F9 
    1115                      .dwpsn  file "C:/Users/a0221074/Desktop/C5000/IBM_Watson_TIdesign_workarea/CSL_bitbucket/c55_csl/c55x
    1116 000018 A40A          MOV *SP(#5), T0 ; |335| 
    1117 00001a ED00          MOV dbl(*SP(#0)), XAR0
         00001c 8F   
    1118 00001d ED04          MOV dbl(*SP(#2)), XAR1
         00001f 9F   
    1119              $C$DW$108       .dwtag  DW_TAG_TI_branch
    1120                      .dwattr $C$DW$108, DW_AT_low_pc(0x00)
    1121                      .dwattr $C$DW$108, DW_AT_name("_MP_CallEachPass")
    1122                      .dwattr $C$DW$108, DW_AT_TI_call
    1123 000020 6C00          CALL #_MP_CallEachPass ; |335| 
         000022 0000+
    1124                                                      ; call occurs [#_MP_CallEachPass] ; |335| 
    1125 000024 C40C          MOV T0, *SP(#6) ; |335| 
    1126                      .dwpsn  file "C:/Users/a0221074/Desktop/C5000/IBM_Watson_TIdesign_workarea/CSL_bitbucket/c55_csl/c55x
    1127                      .dwpsn  file "C:/Users/a0221074/Desktop/C5000/IBM_Watson_TIdesign_workarea/CSL_bitbucket/c55_csl/c55x
    1128 000026 4E07          AADD #7, SP
    1129                      .dwcfi  cfa_offset, 1
    1130              $C$DW$109       .dwtag  DW_TAG_TI_branch
    1131                      .dwattr $C$DW$109, DW_AT_low_pc(0x00)
    1132                      .dwattr $C$DW$109, DW_AT_TI_return
    1133 000028 4804          RET
    1134                                                      ; return occurs
    1135                      .dwattr $C$DW$98, DW_AT_TI_end_file("C:/Users/a0221074/Desktop/C5000/IBM_Watson_TIdesign_workarea/CSL
    1136                      .dwattr $C$DW$98, DW_AT_TI_end_line(0x153)
    1137                      .dwattr $C$DW$98, DW_AT_TI_end_column(0x01)
    1138                      .dwendentry
    1139                      .dwendtag $C$DW$98
    1140              
    1141              ;******************************************************************************
    1142              ;* UNDEFINED EXTERNAL REFERENCES                                              *
    1143              ;******************************************************************************
    1144                      .global _mfcc_a_window
    1145                      .global _circ_idx
    1146                      .global _compute_regression
TMS320C55x Assembler PC v4.4.1 Wed Sep 13 16:33:27 2017

Tools Copyright (c) 1996-2012 Texas Instruments Incorporated
C:\Users\a0221074\AppData\Local\Temp\1502810                         PAGE   29

    1147                      .global _compute_uttdet
    1148                      .global _search_a_frame
    1149                      .global _per_frame_jac_compensate
    1150                      .global _vector_packing
    1151              
    1152              ;*******************************************************************************
    1153              ;* TYPE INFORMATION                                                            *
    1154              ;*******************************************************************************
    1155              
    1156              $C$DW$T$92      .dwtag  DW_TAG_enumeration_type
    1157                      .dwattr $C$DW$T$92, DW_AT_byte_size(0x01)
    1158              $C$DW$110       .dwtag  DW_TAG_enumerator, DW_AT_name("eTIesrEngineJACSuccess"), DW_AT_const_value(0x00)
    1159              $C$DW$111       .dwtag  DW_TAG_enumerator, DW_AT_name("eTIesrEngineJACMemoryFail"), DW_AT_const_value(0x01)
    1160              $C$DW$112       .dwtag  DW_TAG_enumerator, DW_AT_name("eTIesrEngineJACLoadFail"), DW_AT_const_value(0x02)
    1161              $C$DW$113       .dwtag  DW_TAG_enumerator, DW_AT_name("eTIesrEngineJACReset"), DW_AT_const_value(0x03)
    1162              $C$DW$114       .dwtag  DW_TAG_enumerator, DW_AT_name("eTIesrEngineJACSaveFail"), DW_AT_const_value(0x04)
    1163              $C$DW$115       .dwtag  DW_TAG_enumerator, DW_AT_name("eTIesrEngineJACSBCInitFail"), DW_AT_const_value(0x05)
    1164              $C$DW$116       .dwtag  DW_TAG_enumerator, DW_AT_name("eTIesrEngineJACSBCLoadFail"), DW_AT_const_value(0x06)
    1165              $C$DW$117       .dwtag  DW_TAG_enumerator, DW_AT_name("eTIesrEngineJACSVAFail"), DW_AT_const_value(0x07)
    1166              $C$DW$118       .dwtag  DW_TAG_enumerator, DW_AT_name("eTIesrEngineJACFail"), DW_AT_const_value(0x08)
    1167              $C$DW$119       .dwtag  DW_TAG_enumerator, DW_AT_name("eTIesrEngineJACNoAlignment"), DW_AT_const_value(0x09)
    1168              $C$DW$120       .dwtag  DW_TAG_enumerator, DW_AT_name("eTIesrEngineJACRJLoadFail"), DW_AT_const_value(0x0a)
    1169                      .dwendtag $C$DW$T$92
    1170              
    1171              $C$DW$T$93      .dwtag  DW_TAG_typedef, DW_AT_name("TIesrEngineJACStatusType")
    1172                      .dwattr $C$DW$T$93, DW_AT_type(*$C$DW$T$92)
    1173                      .dwattr $C$DW$T$93, DW_AT_language(DW_LANG_C)
    1174              
    1175              $C$DW$T$98      .dwtag  DW_TAG_enumeration_type
    1176                      .dwattr $C$DW$T$98, DW_AT_byte_size(0x01)
    1177              $C$DW$121       .dwtag  DW_TAG_enumerator, DW_AT_name("eTIesrEngineSuccess"), DW_AT_const_value(0x64)
    1178              $C$DW$122       .dwtag  DW_TAG_enumerator, DW_AT_name("eTIesrEngineEvalCellOverflow"), DW_AT_const_value(0x65
    1179              $C$DW$123       .dwtag  DW_TAG_enumerator, DW_AT_name("eTIesrEngineBeamCellOverflow"), DW_AT_const_value(0x66
    1180              $C$DW$124       .dwtag  DW_TAG_enumerator, DW_AT_name("eTIesrEngineTimeCellOverflow"), DW_AT_const_value(0x67
    1181              $C$DW$125       .dwtag  DW_TAG_enumerator, DW_AT_name("eTIesrEngineSearchSpace"), DW_AT_const_value(0xc8)
    1182              $C$DW$126       .dwtag  DW_TAG_enumerator, DW_AT_name("eTIesrEngineSearchMemoryLimit"), DW_AT_const_value(0xc
    1183              $C$DW$127       .dwtag  DW_TAG_enumerator, DW_AT_name("eTIesrEngineSearchMemorySize"), DW_AT_const_value(0xca
    1184              $C$DW$128       .dwtag  DW_TAG_enumerator, DW_AT_name("eTIesrEngineVQHMMMemorySize"), DW_AT_const_value(0xcb)
    1185              $C$DW$129       .dwtag  DW_TAG_enumerator, DW_AT_name("eTIesrEngineVQHMMGarbage"), DW_AT_const_value(0xcc)
    1186              $C$DW$130       .dwtag  DW_TAG_enumerator, DW_AT_name("eTIesrEngineVQHMMSave"), DW_AT_const_value(0xcd)
    1187              $C$DW$131       .dwtag  DW_TAG_enumerator, DW_AT_name("eTIesrEngineVQHMMLoad"), DW_AT_const_value(0xce)
    1188              $C$DW$132       .dwtag  DW_TAG_enumerator, DW_AT_name("eTIesrEngineCompFail"), DW_AT_const_value(0xcf)
    1189              $C$DW$133       .dwtag  DW_TAG_enumerator, DW_AT_name("eTIesrEngineFeatureMemoryOut"), DW_AT_const_value(0x12
    1190              $C$DW$134       .dwtag  DW_TAG_enumerator, DW_AT_name("eTIesrEngineSegmentMemoryOut"), DW_AT_const_value(0x12
    1191              $C$DW$135       .dwtag  DW_TAG_enumerator, DW_AT_name("eTIesrEngineMuSpaceMemoryOut"), DW_AT_const_value(0x12
    1192              $C$DW$136       .dwtag  DW_TAG_enumerator, DW_AT_name("eTIesrEngineFeatureFrameOut"), DW_AT_const_value(0x12f
    1193              $C$DW$137       .dwtag  DW_TAG_enumerator, DW_AT_name("eTIesrEngineAnswerMemoryOut"), DW_AT_const_value(0x130
    1194              $C$DW$138       .dwtag  DW_TAG_enumerator, DW_AT_name("eTIesrEngineTimeOut"), DW_AT_const_value(0x131)
    1195              $C$DW$139       .dwtag  DW_TAG_enumerator, DW_AT_name("eTIesrEngineNBestMem"), DW_AT_const_value(0x132)
    1196              $C$DW$140       .dwtag  DW_TAG_enumerator, DW_AT_name("eTIesrEngineModelLoadFail"), DW_AT_const_value(0x190)
    1197              $C$DW$141       .dwtag  DW_TAG_enumerator, DW_AT_name("eTIesrEngineAlignmentFail"), DW_AT_const_value(0x191)
    1198              $C$DW$142       .dwtag  DW_TAG_enumerator, DW_AT_name("eTIesrEngineMemorySizeFail"), DW_AT_const_value(0x192)
    1199              $C$DW$143       .dwtag  DW_TAG_enumerator, DW_AT_name("eTIesrEngineFailedJAC"), DW_AT_const_value(0x1a9)
    1200              $C$DW$144       .dwtag  DW_TAG_enumerator, DW_AT_name("eTIesrEngineFeatureDimensionFail"), DW_AT_const_value(
    1201              $C$DW$145       .dwtag  DW_TAG_enumerator, DW_AT_name("eTIesrEngineSegmentSizeCheckFail"), DW_AT_const_value(
TMS320C55x Assembler PC v4.4.1 Wed Sep 13 16:33:27 2017

Tools Copyright (c) 1996-2012 Texas Instruments Incorporated
C:\Users\a0221074\AppData\Local\Temp\1502810                         PAGE   30

    1202              $C$DW$146       .dwtag  DW_TAG_enumerator, DW_AT_name("eTIesrEngineModelFileFail"), DW_AT_const_value(0x1c4)
    1203              $C$DW$147       .dwtag  DW_TAG_enumerator, DW_AT_name("eTIesrEngineSaveFail"), DW_AT_const_value(0x1c5)
    1204              $C$DW$148       .dwtag  DW_TAG_enumerator, DW_AT_name("eTIesrEngineEnrollLoadFail"), DW_AT_const_value(0x1c6)
    1205              $C$DW$149       .dwtag  DW_TAG_enumerator, DW_AT_name("eTIesrEngineBackgoundCreationFail"), DW_AT_const_value
    1206              $C$DW$150       .dwtag  DW_TAG_enumerator, DW_AT_name("eTIesrEngineStateMemoryOut"), DW_AT_const_value(0x1f4)
    1207              $C$DW$151       .dwtag  DW_TAG_enumerator, DW_AT_name("eTIesrEngineSearchMemoryOut"), DW_AT_const_value(0x1f5
    1208              $C$DW$152       .dwtag  DW_TAG_enumerator, DW_AT_name("eTIesrEngineModelMemorySize"), DW_AT_const_value(0x258
    1209              $C$DW$153       .dwtag  DW_TAG_enumerator, DW_AT_name("eTIesrEngineFeatureMemorySize"), DW_AT_const_value(0x2
    1210              $C$DW$154       .dwtag  DW_TAG_enumerator, DW_AT_name("eTIesrEngineNetworkMemorySize"), DW_AT_const_value(0x2
    1211              $C$DW$155       .dwtag  DW_TAG_enumerator, DW_AT_name("eTIesrEngineModelSize"), DW_AT_const_value(0x25b)
    1212              $C$DW$156       .dwtag  DW_TAG_enumerator, DW_AT_name("eTIesrEngineBackTrackMemorySize"), DW_AT_const_value(0
    1213              $C$DW$157       .dwtag  DW_TAG_enumerator, DW_AT_name("eTIesrEngineCMMemorySize"), DW_AT_const_value(0x25d)
    1214              $C$DW$158       .dwtag  DW_TAG_enumerator, DW_AT_name("eTIesrEngineVALTreeMemorySize"), DW_AT_const_value(0x2
    1215              $C$DW$159       .dwtag  DW_TAG_enumerator, DW_AT_name("eTIesrEngineSym2PosMapSize"), DW_AT_const_value(0x25f)
    1216              $C$DW$160       .dwtag  DW_TAG_enumerator, DW_AT_name("eTIesrEngineShortUtterance"), DW_AT_const_value(0x2bc)
    1217              $C$DW$161       .dwtag  DW_TAG_enumerator, DW_AT_name("eTIesrTTSLoadHMM2Phone"), DW_AT_const_value(0x320)
    1218              $C$DW$162       .dwtag  DW_TAG_enumerator, DW_AT_name("eTIesrTTSNoSilencePhone"), DW_AT_const_value(0x321)
    1219              $C$DW$163       .dwtag  DW_TAG_enumerator, DW_AT_name("eTIesrTTSLoadPhone2Voicing"), DW_AT_const_value(0x322)
    1220              $C$DW$164       .dwtag  DW_TAG_enumerator, DW_AT_name("eTIesrTTSLoadPhoneDuration"), DW_AT_const_value(0x323)
    1221              $C$DW$165       .dwtag  DW_TAG_enumerator, DW_AT_name("eTIesrTTSPhoneMismatch"), DW_AT_const_value(0x324)
    1222              $C$DW$166       .dwtag  DW_TAG_enumerator, DW_AT_name("eTIesrTTSPhoneMissWord"), DW_AT_const_value(0x325)
    1223              $C$DW$167       .dwtag  DW_TAG_enumerator, DW_AT_name("eTIesrTTSPhoneDuration"), DW_AT_const_value(0x326)
    1224              $C$DW$168       .dwtag  DW_TAG_enumerator, DW_AT_name("eTIesrTTSPhoneWord"), DW_AT_const_value(0x327)
    1225              $C$DW$169       .dwtag  DW_TAG_enumerator, DW_AT_name("eTIesrTTSSaveTTSMean"), DW_AT_const_value(0x328)
    1226              $C$DW$170       .dwtag  DW_TAG_enumerator, DW_AT_name("eTIesrTTSSaveVoicing"), DW_AT_const_value(0x329)
    1227              $C$DW$171       .dwtag  DW_TAG_enumerator, DW_AT_name("eTIesrTTSSaveDuration"), DW_AT_const_value(0x32a)
    1228              $C$DW$172       .dwtag  DW_TAG_enumerator, DW_AT_name("eTIesrTTSTTS"), DW_AT_const_value(0x32b)
    1229              $C$DW$173       .dwtag  DW_TAG_enumerator, DW_AT_name("eTIesrTTSPhoneList"), DW_AT_const_value(0x32c)
    1230              $C$DW$174       .dwtag  DW_TAG_enumerator, DW_AT_name("eTIesrTTSNumPhones"), DW_AT_const_value(0x32d)
    1231              $C$DW$175       .dwtag  DW_TAG_enumerator, DW_AT_name("eTIesrTTSNumWords"), DW_AT_const_value(0x32e)
    1232              $C$DW$176       .dwtag  DW_TAG_enumerator, DW_AT_name("eTIesrTTSOutputFile"), DW_AT_const_value(0x32f)
    1233              $C$DW$177       .dwtag  DW_TAG_enumerator, DW_AT_name("eTIesrTTSInputMFCC"), DW_AT_const_value(0x330)
    1234              $C$DW$178       .dwtag  DW_TAG_enumerator, DW_AT_name("eTIesrTTSInputDuration"), DW_AT_const_value(0x331)
    1235              $C$DW$179       .dwtag  DW_TAG_enumerator, DW_AT_name("eTIesrTTSInputVoicing"), DW_AT_const_value(0x332)
    1236              $C$DW$180       .dwtag  DW_TAG_enumerator, DW_AT_name("eTIesrTTSNotFound"), DW_AT_const_value(0x333)
    1237              $C$DW$181       .dwtag  DW_TAG_enumerator, DW_AT_name("eTIesrTTSOutputMeanSize"), DW_AT_const_value(0x334)
    1238              $C$DW$182       .dwtag  DW_TAG_enumerator, DW_AT_name("eTIesrTTSOutput"), DW_AT_const_value(0x335)
    1239                      .dwendtag $C$DW$T$98
    1240              
    1241              $C$DW$T$99      .dwtag  DW_TAG_typedef, DW_AT_name("TIesrEngineStatusType")
    1242                      .dwattr $C$DW$T$99, DW_AT_type(*$C$DW$T$98)
    1243                      .dwattr $C$DW$T$99, DW_AT_language(DW_LANG_C)
    1244              
    1245              $C$DW$T$19      .dwtag  DW_TAG_structure_type
    1246                      .dwattr $C$DW$T$19, DW_AT_byte_size(0x03)
    1247              $C$DW$183       .dwtag  DW_TAG_member
    1248                      .dwattr $C$DW$183, DW_AT_type(*$C$DW$T$8)
    1249                      .dwattr $C$DW$183, DW_AT_name("num")
    1250                      .dwattr $C$DW$183, DW_AT_TI_symbol_name("_num")
    1251                      .dwattr $C$DW$183, DW_AT_data_member_location[DW_OP_plus_uconst 0x0]
    1252                      .dwattr $C$DW$183, DW_AT_accessibility(DW_ACCESS_public)
    1253              $C$DW$184       .dwtag  DW_TAG_member
    1254                      .dwattr $C$DW$184, DW_AT_type(*$C$DW$T$8)
    1255                      .dwattr $C$DW$184, DW_AT_name("x1")
    1256                      .dwattr $C$DW$184, DW_AT_TI_symbol_name("_x1")
TMS320C55x Assembler PC v4.4.1 Wed Sep 13 16:33:27 2017

Tools Copyright (c) 1996-2012 Texas Instruments Incorporated
C:\Users\a0221074\AppData\Local\Temp\1502810                         PAGE   31

    1257                      .dwattr $C$DW$184, DW_AT_data_member_location[DW_OP_plus_uconst 0x1]
    1258                      .dwattr $C$DW$184, DW_AT_accessibility(DW_ACCESS_public)
    1259              $C$DW$185       .dwtag  DW_TAG_member
    1260                      .dwattr $C$DW$185, DW_AT_type(*$C$DW$T$8)
    1261                      .dwattr $C$DW$185, DW_AT_name("x2")
    1262                      .dwattr $C$DW$185, DW_AT_TI_symbol_name("_x2")
    1263                      .dwattr $C$DW$185, DW_AT_data_member_location[DW_OP_plus_uconst 0x2]
    1264                      .dwattr $C$DW$185, DW_AT_accessibility(DW_ACCESS_public)
    1265                      .dwendtag $C$DW$T$19
    1266              
    1267              $C$DW$T$57      .dwtag  DW_TAG_typedef, DW_AT_name("mel_filter_type")
    1268                      .dwattr $C$DW$T$57, DW_AT_type(*$C$DW$T$19)
    1269                      .dwattr $C$DW$T$57, DW_AT_language(DW_LANG_C)
    1270              $C$DW$186       .dwtag  DW_TAG_TI_far_type
    1271                      .dwattr $C$DW$186, DW_AT_type(*$C$DW$T$57)
    1272              $C$DW$T$58      .dwtag  DW_TAG_const_type
    1273                      .dwattr $C$DW$T$58, DW_AT_type(*$C$DW$186)
    1274              $C$DW$T$59      .dwtag  DW_TAG_pointer_type
    1275                      .dwattr $C$DW$T$59, DW_AT_type(*$C$DW$T$58)
    1276                      .dwattr $C$DW$T$59, DW_AT_address_class(0x17)
    1277              
    1278              $C$DW$T$20      .dwtag  DW_TAG_structure_type
    1279                      .dwattr $C$DW$T$20, DW_AT_byte_size(0x03)
    1280              $C$DW$187       .dwtag  DW_TAG_member
    1281                      .dwattr $C$DW$187, DW_AT_type(*$C$DW$T$8)
    1282                      .dwattr $C$DW$187, DW_AT_name("norm0")
    1283                      .dwattr $C$DW$187, DW_AT_TI_symbol_name("_norm0")
    1284                      .dwattr $C$DW$187, DW_AT_data_member_location[DW_OP_plus_uconst 0x0]
    1285                      .dwattr $C$DW$187, DW_AT_accessibility(DW_ACCESS_public)
    1286              $C$DW$188       .dwtag  DW_TAG_member
    1287                      .dwattr $C$DW$188, DW_AT_type(*$C$DW$T$8)
    1288                      .dwattr $C$DW$188, DW_AT_name("norm1")
    1289                      .dwattr $C$DW$188, DW_AT_TI_symbol_name("_norm1")
    1290                      .dwattr $C$DW$188, DW_AT_data_member_location[DW_OP_plus_uconst 0x1]
    1291                      .dwattr $C$DW$188, DW_AT_accessibility(DW_ACCESS_public)
    1292              $C$DW$189       .dwtag  DW_TAG_member
    1293                      .dwattr $C$DW$189, DW_AT_type(*$C$DW$T$8)
    1294                      .dwattr $C$DW$189, DW_AT_name("norm2")
    1295                      .dwattr $C$DW$189, DW_AT_TI_symbol_name("_norm2")
    1296                      .dwattr $C$DW$189, DW_AT_data_member_location[DW_OP_plus_uconst 0x2]
    1297                      .dwattr $C$DW$189, DW_AT_accessibility(DW_ACCESS_public)
    1298                      .dwendtag $C$DW$T$20
    1299              
    1300              $C$DW$T$103     .dwtag  DW_TAG_typedef, DW_AT_name("NormType")
    1301                      .dwattr $C$DW$T$103, DW_AT_type(*$C$DW$T$20)
    1302                      .dwattr $C$DW$T$103, DW_AT_language(DW_LANG_C)
    1303              $C$DW$T$104     .dwtag  DW_TAG_pointer_type
    1304                      .dwattr $C$DW$T$104, DW_AT_type(*$C$DW$T$103)
    1305                      .dwattr $C$DW$T$104, DW_AT_address_class(0x17)
    1306              
    1307              $C$DW$T$24      .dwtag  DW_TAG_structure_type
    1308                      .dwattr $C$DW$T$24, DW_AT_byte_size(0x18)
    1309              $C$DW$190       .dwtag  DW_TAG_member
    1310                      .dwattr $C$DW$190, DW_AT_type(*$C$DW$T$21)
    1311                      .dwattr $C$DW$190, DW_AT_name("max_mem_usage")
TMS320C55x Assembler PC v4.4.1 Wed Sep 13 16:33:27 2017

Tools Copyright (c) 1996-2012 Texas Instruments Incorporated
C:\Users\a0221074\AppData\Local\Temp\1502810                         PAGE   32

    1312                      .dwattr $C$DW$190, DW_AT_TI_symbol_name("_max_mem_usage")
    1313                      .dwattr $C$DW$190, DW_AT_data_member_location[DW_OP_plus_uconst 0x0]
    1314                      .dwattr $C$DW$190, DW_AT_accessibility(DW_ACCESS_public)
    1315              $C$DW$191       .dwtag  DW_TAG_member
    1316                      .dwattr $C$DW$191, DW_AT_type(*$C$DW$T$21)
    1317                      .dwattr $C$DW$191, DW_AT_name("n_terminals")
    1318                      .dwattr $C$DW$191, DW_AT_TI_symbol_name("_n_terminals")
    1319                      .dwattr $C$DW$191, DW_AT_data_member_location[DW_OP_plus_uconst 0x1]
    1320                      .dwattr $C$DW$191, DW_AT_accessibility(DW_ACCESS_public)
    1321              $C$DW$192       .dwtag  DW_TAG_member
    1322                      .dwattr $C$DW$192, DW_AT_type(*$C$DW$T$21)
    1323                      .dwattr $C$DW$192, DW_AT_name("n_monophones")
    1324                      .dwattr $C$DW$192, DW_AT_TI_symbol_name("_n_monophones")
    1325                      .dwattr $C$DW$192, DW_AT_data_member_location[DW_OP_plus_uconst 0x2]
    1326                      .dwattr $C$DW$192, DW_AT_accessibility(DW_ACCESS_public)
    1327              $C$DW$193       .dwtag  DW_TAG_member
    1328                      .dwattr $C$DW$193, DW_AT_type(*$C$DW$T$22)
    1329                      .dwattr $C$DW$193, DW_AT_name("hlrTreeBase")
    1330                      .dwattr $C$DW$193, DW_AT_TI_symbol_name("_hlrTreeBase")
    1331                      .dwattr $C$DW$193, DW_AT_data_member_location[DW_OP_plus_uconst 0x4]
    1332                      .dwattr $C$DW$193, DW_AT_accessibility(DW_ACCESS_public)
    1333              $C$DW$194       .dwtag  DW_TAG_member
    1334                      .dwattr $C$DW$194, DW_AT_type(*$C$DW$T$23)
    1335                      .dwattr $C$DW$194, DW_AT_name("hlrTerminal")
    1336                      .dwattr $C$DW$194, DW_AT_TI_symbol_name("_hlrTerminal")
    1337                      .dwattr $C$DW$194, DW_AT_data_member_location[DW_OP_plus_uconst 0x6]
    1338                      .dwattr $C$DW$194, DW_AT_accessibility(DW_ACCESS_public)
    1339              $C$DW$195       .dwtag  DW_TAG_member
    1340                      .dwattr $C$DW$195, DW_AT_type(*$C$DW$T$22)
    1341                      .dwattr $C$DW$195, DW_AT_name("pHMM2phone")
    1342                      .dwattr $C$DW$195, DW_AT_TI_symbol_name("_pHMM2phone")
    1343                      .dwattr $C$DW$195, DW_AT_data_member_location[DW_OP_plus_uconst 0x8]
    1344                      .dwattr $C$DW$195, DW_AT_accessibility(DW_ACCESS_public)
    1345              $C$DW$196       .dwtag  DW_TAG_member
    1346                      .dwattr $C$DW$196, DW_AT_type(*$C$DW$T$23)
    1347                      .dwattr $C$DW$196, DW_AT_name("hlrTransformIndex")
    1348                      .dwattr $C$DW$196, DW_AT_TI_symbol_name("_hlrTransformIndex")
    1349                      .dwattr $C$DW$196, DW_AT_data_member_location[DW_OP_plus_uconst 0xa]
    1350                      .dwattr $C$DW$196, DW_AT_accessibility(DW_ACCESS_public)
    1351              $C$DW$197       .dwtag  DW_TAG_member
    1352                      .dwattr $C$DW$197, DW_AT_type(*$C$DW$T$21)
    1353                      .dwattr $C$DW$197, DW_AT_name("hlr_TRANSFORM_SIZE")
    1354                      .dwattr $C$DW$197, DW_AT_TI_symbol_name("_hlr_TRANSFORM_SIZE")
    1355                      .dwattr $C$DW$197, DW_AT_data_member_location[DW_OP_plus_uconst 0xc]
    1356                      .dwattr $C$DW$197, DW_AT_accessibility(DW_ACCESS_public)
    1357              $C$DW$198       .dwtag  DW_TAG_member
    1358                      .dwattr $C$DW$198, DW_AT_type(*$C$DW$T$22)
    1359                      .dwattr $C$DW$198, DW_AT_name("hlrTransforms")
    1360                      .dwattr $C$DW$198, DW_AT_TI_symbol_name("_hlrTransforms")
    1361                      .dwattr $C$DW$198, DW_AT_data_member_location[DW_OP_plus_uconst 0xe]
    1362                      .dwattr $C$DW$198, DW_AT_accessibility(DW_ACCESS_public)
    1363              $C$DW$199       .dwtag  DW_TAG_member
    1364                      .dwattr $C$DW$199, DW_AT_type(*$C$DW$T$22)
    1365                      .dwattr $C$DW$199, DW_AT_name("pSegStat_dif1")
    1366                      .dwattr $C$DW$199, DW_AT_TI_symbol_name("_pSegStat_dif1")
TMS320C55x Assembler PC v4.4.1 Wed Sep 13 16:33:27 2017

Tools Copyright (c) 1996-2012 Texas Instruments Incorporated
C:\Users\a0221074\AppData\Local\Temp\1502810                         PAGE   33

    1367                      .dwattr $C$DW$199, DW_AT_data_member_location[DW_OP_plus_uconst 0x10]
    1368                      .dwattr $C$DW$199, DW_AT_accessibility(DW_ACCESS_public)
    1369              $C$DW$200       .dwtag  DW_TAG_member
    1370                      .dwattr $C$DW$200, DW_AT_type(*$C$DW$T$22)
    1371                      .dwattr $C$DW$200, DW_AT_name("pSegStat_dif2")
    1372                      .dwattr $C$DW$200, DW_AT_TI_symbol_name("_pSegStat_dif2")
    1373                      .dwattr $C$DW$200, DW_AT_data_member_location[DW_OP_plus_uconst 0x12]
    1374                      .dwattr $C$DW$200, DW_AT_accessibility(DW_ACCESS_public)
    1375              $C$DW$201       .dwtag  DW_TAG_member
    1376                      .dwattr $C$DW$201, DW_AT_type(*$C$DW$T$22)
    1377                      .dwattr $C$DW$201, DW_AT_name("pEnhanced")
    1378                      .dwattr $C$DW$201, DW_AT_TI_symbol_name("_pEnhanced")
    1379                      .dwattr $C$DW$201, DW_AT_data_member_location[DW_OP_plus_uconst 0x14]
    1380                      .dwattr $C$DW$201, DW_AT_accessibility(DW_ACCESS_public)
    1381              $C$DW$202       .dwtag  DW_TAG_member
    1382                      .dwattr $C$DW$202, DW_AT_type(*$C$DW$T$22)
    1383                      .dwattr $C$DW$202, DW_AT_name("bk_node_cnt")
    1384                      .dwattr $C$DW$202, DW_AT_TI_symbol_name("_bk_node_cnt")
    1385                      .dwattr $C$DW$202, DW_AT_data_member_location[DW_OP_plus_uconst 0x16]
    1386                      .dwattr $C$DW$202, DW_AT_accessibility(DW_ACCESS_public)
    1387                      .dwendtag $C$DW$T$24
    1388              
    1389              $C$DW$T$63      .dwtag  DW_TAG_typedef, DW_AT_name("FeaHLRAccType")
    1390                      .dwattr $C$DW$T$63, DW_AT_type(*$C$DW$T$24)
    1391                      .dwattr $C$DW$T$63, DW_AT_language(DW_LANG_C)
    1392              $C$DW$T$64      .dwtag  DW_TAG_pointer_type
    1393                      .dwattr $C$DW$T$64, DW_AT_type(*$C$DW$T$63)
    1394                      .dwattr $C$DW$T$64, DW_AT_address_class(0x17)
    1395              
    1396              $C$DW$T$25      .dwtag  DW_TAG_structure_type
    1397                      .dwattr $C$DW$T$25, DW_AT_byte_size(0x03)
    1398              $C$DW$203       .dwtag  DW_TAG_member
    1399                      .dwattr $C$DW$203, DW_AT_type(*$C$DW$T$9)
    1400                      .dwattr $C$DW$203, DW_AT_name("sym_code")
    1401                      .dwattr $C$DW$203, DW_AT_TI_symbol_name("_sym_code")
    1402                      .dwattr $C$DW$203, DW_AT_data_member_location[DW_OP_plus_uconst 0x0]
    1403                      .dwattr $C$DW$203, DW_AT_accessibility(DW_ACCESS_public)
    1404              $C$DW$204       .dwtag  DW_TAG_member
    1405                      .dwattr $C$DW$204, DW_AT_type(*$C$DW$T$9)
    1406                      .dwattr $C$DW$204, DW_AT_name("start_cell")
    1407                      .dwattr $C$DW$204, DW_AT_TI_symbol_name("_start_cell")
    1408                      .dwattr $C$DW$204, DW_AT_data_member_location[DW_OP_plus_uconst 0x1]
    1409                      .dwattr $C$DW$204, DW_AT_accessibility(DW_ACCESS_public)
    1410              $C$DW$205       .dwtag  DW_TAG_member
    1411                      .dwattr $C$DW$205, DW_AT_type(*$C$DW$T$9)
    1412                      .dwattr $C$DW$205, DW_AT_name("depth")
    1413                      .dwattr $C$DW$205, DW_AT_TI_symbol_name("_depth")
    1414                      .dwattr $C$DW$205, DW_AT_data_member_location[DW_OP_plus_uconst 0x2]
    1415                      .dwattr $C$DW$205, DW_AT_accessibility(DW_ACCESS_public)
    1416                      .dwendtag $C$DW$T$25
    1417              
    1418              $C$DW$T$66      .dwtag  DW_TAG_typedef, DW_AT_name("SymCell")
    1419                      .dwattr $C$DW$T$66, DW_AT_type(*$C$DW$T$25)
    1420                      .dwattr $C$DW$T$66, DW_AT_language(DW_LANG_C)
    1421              $C$DW$T$67      .dwtag  DW_TAG_pointer_type
TMS320C55x Assembler PC v4.4.1 Wed Sep 13 16:33:27 2017

Tools Copyright (c) 1996-2012 Texas Instruments Incorporated
C:\Users\a0221074\AppData\Local\Temp\1502810                         PAGE   34

    1422                      .dwattr $C$DW$T$67, DW_AT_type(*$C$DW$T$66)
    1423                      .dwattr $C$DW$T$67, DW_AT_address_class(0x17)
    1424              
    1425              $C$DW$T$26      .dwtag  DW_TAG_structure_type
    1426                      .dwattr $C$DW$T$26, DW_AT_byte_size(0x03)
    1427              $C$DW$206       .dwtag  DW_TAG_member
    1428                      .dwattr $C$DW$206, DW_AT_type(*$C$DW$T$8)
    1429                      .dwattr $C$DW$206, DW_AT_name("scr")
    1430                      .dwattr $C$DW$206, DW_AT_TI_symbol_name("_scr")
    1431                      .dwattr $C$DW$206, DW_AT_data_member_location[DW_OP_plus_uconst 0x0]
    1432                      .dwattr $C$DW$206, DW_AT_accessibility(DW_ACCESS_public)
    1433              $C$DW$207       .dwtag  DW_TAG_member
    1434                      .dwattr $C$DW$207, DW_AT_type(*$C$DW$T$9)
    1435                      .dwattr $C$DW$207, DW_AT_name("sym")
    1436                      .dwattr $C$DW$207, DW_AT_TI_symbol_name("_sym")
    1437                      .dwattr $C$DW$207, DW_AT_data_member_location[DW_OP_plus_uconst 0x1]
    1438                      .dwattr $C$DW$207, DW_AT_accessibility(DW_ACCESS_public)
    1439              $C$DW$208       .dwtag  DW_TAG_member
    1440                      .dwattr $C$DW$208, DW_AT_type(*$C$DW$T$9)
    1441                      .dwattr $C$DW$208, DW_AT_name("frm")
    1442                      .dwattr $C$DW$208, DW_AT_TI_symbol_name("_frm")
    1443                      .dwattr $C$DW$208, DW_AT_data_member_location[DW_OP_plus_uconst 0x2]
    1444                      .dwattr $C$DW$208, DW_AT_accessibility(DW_ACCESS_public)
    1445                      .dwendtag $C$DW$T$26
    1446              
    1447              $C$DW$T$68      .dwtag  DW_TAG_typedef, DW_AT_name("StateCell")
    1448                      .dwattr $C$DW$T$68, DW_AT_type(*$C$DW$T$26)
    1449                      .dwattr $C$DW$T$68, DW_AT_language(DW_LANG_C)
    1450              $C$DW$T$69      .dwtag  DW_TAG_pointer_type
    1451                      .dwattr $C$DW$T$69, DW_AT_type(*$C$DW$T$68)
    1452                      .dwattr $C$DW$T$69, DW_AT_address_class(0x17)
    1453              
    1454              $C$DW$T$27      .dwtag  DW_TAG_structure_type
    1455                      .dwattr $C$DW$T$27, DW_AT_byte_size(0x02)
    1456              $C$DW$209       .dwtag  DW_TAG_member
    1457                      .dwattr $C$DW$209, DW_AT_type(*$C$DW$T$9)
    1458                      .dwattr $C$DW$209, DW_AT_name("frm")
    1459                      .dwattr $C$DW$209, DW_AT_TI_symbol_name("_frm")
    1460                      .dwattr $C$DW$209, DW_AT_data_member_location[DW_OP_plus_uconst 0x0]
    1461                      .dwattr $C$DW$209, DW_AT_accessibility(DW_ACCESS_public)
    1462              $C$DW$210       .dwtag  DW_TAG_member
    1463                      .dwattr $C$DW$210, DW_AT_type(*$C$DW$T$9)
    1464                      .dwattr $C$DW$210, DW_AT_name("beam_idx")
    1465                      .dwattr $C$DW$210, DW_AT_TI_symbol_name("_beam_idx")
    1466                      .dwattr $C$DW$210, DW_AT_data_member_location[DW_OP_plus_uconst 0x1]
    1467                      .dwattr $C$DW$210, DW_AT_accessibility(DW_ACCESS_public)
    1468                      .dwendtag $C$DW$T$27
    1469              
    1470              $C$DW$T$72      .dwtag  DW_TAG_typedef, DW_AT_name("TimeType")
    1471                      .dwattr $C$DW$T$72, DW_AT_type(*$C$DW$T$27)
    1472                      .dwattr $C$DW$T$72, DW_AT_language(DW_LANG_C)
    1473              $C$DW$T$73      .dwtag  DW_TAG_pointer_type
    1474                      .dwattr $C$DW$T$73, DW_AT_type(*$C$DW$T$72)
    1475                      .dwattr $C$DW$T$73, DW_AT_address_class(0x17)
    1476              
TMS320C55x Assembler PC v4.4.1 Wed Sep 13 16:33:27 2017

Tools Copyright (c) 1996-2012 Texas Instruments Incorporated
C:\Users\a0221074\AppData\Local\Temp\1502810                         PAGE   35

    1477              $C$DW$T$29      .dwtag  DW_TAG_structure_type
    1478                      .dwattr $C$DW$T$29, DW_AT_byte_size(0x08)
    1479              $C$DW$211       .dwtag  DW_TAG_member
    1480                      .dwattr $C$DW$211, DW_AT_type(*$C$DW$T$9)
    1481                      .dwattr $C$DW$211, DW_AT_name("n_hmm")
    1482                      .dwattr $C$DW$211, DW_AT_TI_symbol_name("_n_hmm")
    1483                      .dwattr $C$DW$211, DW_AT_data_member_location[DW_OP_plus_uconst 0x0]
    1484                      .dwattr $C$DW$211, DW_AT_accessibility(DW_ACCESS_public)
    1485              $C$DW$212       .dwtag  DW_TAG_member
    1486                      .dwattr $C$DW$212, DW_AT_type(*$C$DW$T$9)
    1487                      .dwattr $C$DW$212, DW_AT_name("n_sym")
    1488                      .dwattr $C$DW$212, DW_AT_TI_symbol_name("_n_sym")
    1489                      .dwattr $C$DW$212, DW_AT_data_member_location[DW_OP_plus_uconst 0x1]
    1490                      .dwattr $C$DW$212, DW_AT_accessibility(DW_ACCESS_public)
    1491              $C$DW$213       .dwtag  DW_TAG_member
    1492                      .dwattr $C$DW$213, DW_AT_type(*$C$DW$T$9)
    1493                      .dwattr $C$DW$213, DW_AT_name("n_word")
    1494                      .dwattr $C$DW$213, DW_AT_TI_symbol_name("_n_word")
    1495                      .dwattr $C$DW$213, DW_AT_data_member_location[DW_OP_plus_uconst 0x2]
    1496                      .dwattr $C$DW$213, DW_AT_accessibility(DW_ACCESS_public)
    1497              $C$DW$214       .dwtag  DW_TAG_member
    1498                      .dwattr $C$DW$214, DW_AT_type(*$C$DW$T$9)
    1499                      .dwattr $C$DW$214, DW_AT_name("n_set")
    1500                      .dwattr $C$DW$214, DW_AT_TI_symbol_name("_n_set")
    1501                      .dwattr $C$DW$214, DW_AT_data_member_location[DW_OP_plus_uconst 0x3]
    1502                      .dwattr $C$DW$214, DW_AT_accessibility(DW_ACCESS_public)
    1503              $C$DW$215       .dwtag  DW_TAG_member
    1504                      .dwattr $C$DW$215, DW_AT_type(*$C$DW$T$9)
    1505                      .dwattr $C$DW$215, DW_AT_name("n_hmm_set")
    1506                      .dwattr $C$DW$215, DW_AT_TI_symbol_name("_n_hmm_set")
    1507                      .dwattr $C$DW$215, DW_AT_data_member_location[DW_OP_plus_uconst 0x4]
    1508                      .dwattr $C$DW$215, DW_AT_accessibility(DW_ACCESS_public)
    1509              $C$DW$216       .dwtag  DW_TAG_member
    1510                      .dwattr $C$DW$216, DW_AT_type(*$C$DW$T$9)
    1511                      .dwattr $C$DW$216, DW_AT_name("start")
    1512                      .dwattr $C$DW$216, DW_AT_TI_symbol_name("_start")
    1513                      .dwattr $C$DW$216, DW_AT_data_member_location[DW_OP_plus_uconst 0x5]
    1514                      .dwattr $C$DW$216, DW_AT_accessibility(DW_ACCESS_public)
    1515              $C$DW$217       .dwtag  DW_TAG_member
    1516                      .dwattr $C$DW$217, DW_AT_type(*$C$DW$T$9)
    1517                      .dwattr $C$DW$217, DW_AT_name("stop")
    1518                      .dwattr $C$DW$217, DW_AT_TI_symbol_name("_stop")
    1519                      .dwattr $C$DW$217, DW_AT_data_member_location[DW_OP_plus_uconst 0x6]
    1520                      .dwattr $C$DW$217, DW_AT_accessibility(DW_ACCESS_public)
    1521              $C$DW$218       .dwtag  DW_TAG_member
    1522                      .dwattr $C$DW$218, DW_AT_type(*$C$DW$T$28)
    1523                      .dwattr $C$DW$218, DW_AT_name("symlist")
    1524                      .dwattr $C$DW$218, DW_AT_TI_symbol_name("_symlist")
    1525                      .dwattr $C$DW$218, DW_AT_data_member_location[DW_OP_plus_uconst 0x7]
    1526                      .dwattr $C$DW$218, DW_AT_accessibility(DW_ACCESS_public)
    1527                      .dwendtag $C$DW$T$29
    1528              
    1529              $C$DW$T$76      .dwtag  DW_TAG_typedef, DW_AT_name("TransType")
    1530                      .dwattr $C$DW$T$76, DW_AT_type(*$C$DW$T$29)
    1531                      .dwattr $C$DW$T$76, DW_AT_language(DW_LANG_C)
TMS320C55x Assembler PC v4.4.1 Wed Sep 13 16:33:27 2017

Tools Copyright (c) 1996-2012 Texas Instruments Incorporated
C:\Users\a0221074\AppData\Local\Temp\1502810                         PAGE   36

    1532              $C$DW$T$77      .dwtag  DW_TAG_pointer_type
    1533                      .dwattr $C$DW$T$77, DW_AT_type(*$C$DW$T$76)
    1534                      .dwattr $C$DW$T$77, DW_AT_address_class(0x17)
    1535              
    1536              $C$DW$T$30      .dwtag  DW_TAG_structure_type
    1537                      .dwattr $C$DW$T$30, DW_AT_byte_size(0x02)
    1538              $C$DW$219       .dwtag  DW_TAG_member
    1539                      .dwattr $C$DW$219, DW_AT_type(*$C$DW$T$9)
    1540                      .dwattr $C$DW$219, DW_AT_name("high_pos")
    1541                      .dwattr $C$DW$219, DW_AT_TI_symbol_name("_high_pos")
    1542                      .dwattr $C$DW$219, DW_AT_data_member_location[DW_OP_plus_uconst 0x0]
    1543                      .dwattr $C$DW$219, DW_AT_accessibility(DW_ACCESS_public)
    1544              $C$DW$220       .dwtag  DW_TAG_member
    1545                      .dwattr $C$DW$220, DW_AT_type(*$C$DW$T$9)
    1546                      .dwattr $C$DW$220, DW_AT_name("cur_pos")
    1547                      .dwattr $C$DW$220, DW_AT_TI_symbol_name("_cur_pos")
    1548                      .dwattr $C$DW$220, DW_AT_data_member_location[DW_OP_plus_uconst 0x1]
    1549                      .dwattr $C$DW$220, DW_AT_accessibility(DW_ACCESS_public)
    1550                      .dwendtag $C$DW$T$30
    1551              
    1552              $C$DW$T$31      .dwtag  DW_TAG_typedef, DW_AT_name("PosType")
    1553                      .dwattr $C$DW$T$31, DW_AT_type(*$C$DW$T$30)
    1554                      .dwattr $C$DW$T$31, DW_AT_language(DW_LANG_C)
    1555              
    1556              $C$DW$T$32      .dwtag  DW_TAG_array_type
    1557                      .dwattr $C$DW$T$32, DW_AT_type(*$C$DW$T$31)
    1558                      .dwattr $C$DW$T$32, DW_AT_language(DW_LANG_C)
    1559                      .dwattr $C$DW$T$32, DW_AT_byte_size(0x04)
    1560              $C$DW$221       .dwtag  DW_TAG_subrange_type
    1561                      .dwattr $C$DW$221, DW_AT_upper_bound(0x01)
    1562                      .dwendtag $C$DW$T$32
    1563              
    1564              
    1565              $C$DW$T$33      .dwtag  DW_TAG_structure_type
    1566                      .dwattr $C$DW$T$33, DW_AT_byte_size(0x0a)
    1567              $C$DW$222       .dwtag  DW_TAG_member
    1568                      .dwattr $C$DW$222, DW_AT_type(*$C$DW$T$31)
    1569                      .dwattr $C$DW$222, DW_AT_name("state")
    1570                      .dwattr $C$DW$222, DW_AT_TI_symbol_name("_state")
    1571                      .dwattr $C$DW$222, DW_AT_data_member_location[DW_OP_plus_uconst 0x0]
    1572                      .dwattr $C$DW$222, DW_AT_accessibility(DW_ACCESS_public)
    1573              $C$DW$223       .dwtag  DW_TAG_member
    1574                      .dwattr $C$DW$223, DW_AT_type(*$C$DW$T$32)
    1575                      .dwattr $C$DW$223, DW_AT_name("sym")
    1576                      .dwattr $C$DW$223, DW_AT_TI_symbol_name("_sym")
    1577                      .dwattr $C$DW$223, DW_AT_data_member_location[DW_OP_plus_uconst 0x2]
    1578                      .dwattr $C$DW$223, DW_AT_accessibility(DW_ACCESS_public)
    1579              $C$DW$224       .dwtag  DW_TAG_member
    1580                      .dwattr $C$DW$224, DW_AT_type(*$C$DW$T$31)
    1581                      .dwattr $C$DW$224, DW_AT_name("beam")
    1582                      .dwattr $C$DW$224, DW_AT_TI_symbol_name("_beam")
    1583                      .dwattr $C$DW$224, DW_AT_data_member_location[DW_OP_plus_uconst 0x6]
    1584                      .dwattr $C$DW$224, DW_AT_accessibility(DW_ACCESS_public)
    1585              $C$DW$225       .dwtag  DW_TAG_member
    1586                      .dwattr $C$DW$225, DW_AT_type(*$C$DW$T$31)
TMS320C55x Assembler PC v4.4.1 Wed Sep 13 16:33:27 2017

Tools Copyright (c) 1996-2012 Texas Instruments Incorporated
C:\Users\a0221074\AppData\Local\Temp\1502810                         PAGE   37

    1587                      .dwattr $C$DW$225, DW_AT_name("time")
    1588                      .dwattr $C$DW$225, DW_AT_TI_symbol_name("_time")
    1589                      .dwattr $C$DW$225, DW_AT_data_member_location[DW_OP_plus_uconst 0x8]
    1590                      .dwattr $C$DW$225, DW_AT_accessibility(DW_ACCESS_public)
    1591                      .dwendtag $C$DW$T$33
    1592              
    1593              $C$DW$T$80      .dwtag  DW_TAG_typedef, DW_AT_name("EvalStat")
    1594                      .dwattr $C$DW$T$80, DW_AT_type(*$C$DW$T$33)
    1595                      .dwattr $C$DW$T$80, DW_AT_language(DW_LANG_C)
    1596              
    1597              $C$DW$T$35      .dwtag  DW_TAG_structure_type
    1598                      .dwattr $C$DW$T$35, DW_AT_byte_size(0x03)
    1599              $C$DW$226       .dwtag  DW_TAG_member
    1600                      .dwattr $C$DW$226, DW_AT_type(*$C$DW$T$34)
    1601                      .dwattr $C$DW$226, DW_AT_name("cur_sym")
    1602                      .dwattr $C$DW$226, DW_AT_TI_symbol_name("_cur_sym")
    1603                      .dwattr $C$DW$226, DW_AT_data_member_location[DW_OP_plus_uconst 0x0]
    1604                      .dwattr $C$DW$226, DW_AT_accessibility(DW_ACCESS_public)
    1605              $C$DW$227       .dwtag  DW_TAG_member
    1606                      .dwattr $C$DW$227, DW_AT_type(*$C$DW$T$9)
    1607                      .dwattr $C$DW$227, DW_AT_name("cur_state")
    1608                      .dwattr $C$DW$227, DW_AT_TI_symbol_name("_cur_state")
    1609                      .dwattr $C$DW$227, DW_AT_data_member_location[DW_OP_plus_uconst 0x2]
    1610                      .dwattr $C$DW$227, DW_AT_accessibility(DW_ACCESS_public)
    1611                      .dwendtag $C$DW$T$35
    1612              
    1613              $C$DW$T$81      .dwtag  DW_TAG_typedef, DW_AT_name("EvalIdx")
    1614                      .dwattr $C$DW$T$81, DW_AT_type(*$C$DW$T$35)
    1615                      .dwattr $C$DW$T$81, DW_AT_language(DW_LANG_C)
    1616              
    1617              $C$DW$T$82      .dwtag  DW_TAG_array_type
    1618                      .dwattr $C$DW$T$82, DW_AT_type(*$C$DW$T$81)
    1619                      .dwattr $C$DW$T$82, DW_AT_language(DW_LANG_C)
    1620                      .dwattr $C$DW$T$82, DW_AT_byte_size(0x06)
    1621              $C$DW$228       .dwtag  DW_TAG_subrange_type
    1622                      .dwattr $C$DW$228, DW_AT_upper_bound(0x01)
    1623                      .dwendtag $C$DW$T$82
    1624              
    1625              
    1626              $C$DW$T$37      .dwtag  DW_TAG_structure_type
    1627                      .dwattr $C$DW$T$37, DW_AT_byte_size(0x06)
    1628              $C$DW$229       .dwtag  DW_TAG_member
    1629                      .dwattr $C$DW$229, DW_AT_type(*$C$DW$T$9)
    1630                      .dwattr $C$DW$229, DW_AT_name("max_nbr_syms")
    1631                      .dwattr $C$DW$229, DW_AT_TI_symbol_name("_max_nbr_syms")
    1632                      .dwattr $C$DW$229, DW_AT_data_member_location[DW_OP_plus_uconst 0x0]
    1633                      .dwattr $C$DW$229, DW_AT_accessibility(DW_ACCESS_public)
    1634              $C$DW$230       .dwtag  DW_TAG_member
    1635                      .dwattr $C$DW$230, DW_AT_type(*$C$DW$T$8)
    1636                      .dwattr $C$DW$230, DW_AT_name("nbr_syms")
    1637                      .dwattr $C$DW$230, DW_AT_TI_symbol_name("_nbr_syms")
    1638                      .dwattr $C$DW$230, DW_AT_data_member_location[DW_OP_plus_uconst 0x1]
    1639                      .dwattr $C$DW$230, DW_AT_accessibility(DW_ACCESS_public)
    1640              $C$DW$231       .dwtag  DW_TAG_member
    1641                      .dwattr $C$DW$231, DW_AT_type(*$C$DW$T$22)
TMS320C55x Assembler PC v4.4.1 Wed Sep 13 16:33:27 2017

Tools Copyright (c) 1996-2012 Texas Instruments Incorporated
C:\Users\a0221074\AppData\Local\Temp\1502810                         PAGE   38

    1642                      .dwattr $C$DW$231, DW_AT_name("sym2pos")
    1643                      .dwattr $C$DW$231, DW_AT_TI_symbol_name("_sym2pos")
    1644                      .dwattr $C$DW$231, DW_AT_data_member_location[DW_OP_plus_uconst 0x2]
    1645                      .dwattr $C$DW$231, DW_AT_accessibility(DW_ACCESS_public)
    1646              $C$DW$232       .dwtag  DW_TAG_member
    1647                      .dwattr $C$DW$232, DW_AT_type(*$C$DW$T$36)
    1648                      .dwattr $C$DW$232, DW_AT_name("syms")
    1649                      .dwattr $C$DW$232, DW_AT_TI_symbol_name("_syms")
    1650                      .dwattr $C$DW$232, DW_AT_data_member_location[DW_OP_plus_uconst 0x4]
    1651                      .dwattr $C$DW$232, DW_AT_accessibility(DW_ACCESS_public)
    1652                      .dwendtag $C$DW$T$37
    1653              
    1654              $C$DW$T$83      .dwtag  DW_TAG_typedef, DW_AT_name("Sym2PosType")
    1655                      .dwattr $C$DW$T$83, DW_AT_type(*$C$DW$T$37)
    1656                      .dwattr $C$DW$T$83, DW_AT_language(DW_LANG_C)
    1657              
    1658              $C$DW$T$39      .dwtag  DW_TAG_structure_type
    1659                      .dwattr $C$DW$T$39, DW_AT_byte_size(0x16)
    1660              $C$DW$233       .dwtag  DW_TAG_member
    1661                      .dwattr $C$DW$233, DW_AT_type(*$C$DW$T$8)
    1662                      .dwattr $C$DW$233, DW_AT_name("scr")
    1663                      .dwattr $C$DW$233, DW_AT_TI_symbol_name("_scr")
    1664                      .dwattr $C$DW$233, DW_AT_data_member_location[DW_OP_plus_uconst 0x0]
    1665                      .dwattr $C$DW$233, DW_AT_accessibility(DW_ACCESS_public)
    1666              $C$DW$234       .dwtag  DW_TAG_member
    1667                      .dwattr $C$DW$234, DW_AT_type(*$C$DW$T$8)
    1668                      .dwattr $C$DW$234, DW_AT_name("n_ans")
    1669                      .dwattr $C$DW$234, DW_AT_TI_symbol_name("_n_ans")
    1670                      .dwattr $C$DW$234, DW_AT_data_member_location[DW_OP_plus_uconst 0x1]
    1671                      .dwattr $C$DW$234, DW_AT_accessibility(DW_ACCESS_public)
    1672              $C$DW$235       .dwtag  DW_TAG_member
    1673                      .dwattr $C$DW$235, DW_AT_type(*$C$DW$T$38)
    1674                      .dwattr $C$DW$235, DW_AT_name("answers")
    1675                      .dwattr $C$DW$235, DW_AT_TI_symbol_name("_answers")
    1676                      .dwattr $C$DW$235, DW_AT_data_member_location[DW_OP_plus_uconst 0x2]
    1677                      .dwattr $C$DW$235, DW_AT_accessibility(DW_ACCESS_public)
    1678                      .dwendtag $C$DW$T$39
    1679              
    1680              $C$DW$T$41      .dwtag  DW_TAG_typedef, DW_AT_name("NB_element")
    1681                      .dwattr $C$DW$T$41, DW_AT_type(*$C$DW$T$39)
    1682                      .dwattr $C$DW$T$41, DW_AT_language(DW_LANG_C)
    1683              
    1684              $C$DW$T$42      .dwtag  DW_TAG_array_type
    1685                      .dwattr $C$DW$T$42, DW_AT_type(*$C$DW$T$41)
    1686                      .dwattr $C$DW$T$42, DW_AT_language(DW_LANG_C)
    1687                      .dwattr $C$DW$T$42, DW_AT_byte_size(0x294)
    1688              $C$DW$236       .dwtag  DW_TAG_subrange_type
    1689                      .dwattr $C$DW$236, DW_AT_upper_bound(0x1d)
    1690                      .dwendtag $C$DW$T$42
    1691              
    1692              
    1693              $C$DW$T$43      .dwtag  DW_TAG_structure_type
    1694                      .dwattr $C$DW$T$43, DW_AT_byte_size(0x2b3)
    1695              $C$DW$237       .dwtag  DW_TAG_member
    1696                      .dwattr $C$DW$237, DW_AT_type(*$C$DW$T$8)
TMS320C55x Assembler PC v4.4.1 Wed Sep 13 16:33:27 2017

Tools Copyright (c) 1996-2012 Texas Instruments Incorporated
C:\Users\a0221074\AppData\Local\Temp\1502810                         PAGE   39

    1697                      .dwattr $C$DW$237, DW_AT_name("n_bests")
    1698                      .dwattr $C$DW$237, DW_AT_TI_symbol_name("_n_bests")
    1699                      .dwattr $C$DW$237, DW_AT_data_member_location[DW_OP_plus_uconst 0x0]
    1700                      .dwattr $C$DW$237, DW_AT_accessibility(DW_ACCESS_public)
    1701              $C$DW$238       .dwtag  DW_TAG_member
    1702                      .dwattr $C$DW$238, DW_AT_type(*$C$DW$T$40)
    1703                      .dwattr $C$DW$238, DW_AT_name("best_idx")
    1704                      .dwattr $C$DW$238, DW_AT_TI_symbol_name("_best_idx")
    1705                      .dwattr $C$DW$238, DW_AT_data_member_location[DW_OP_plus_uconst 0x1]
    1706                      .dwattr $C$DW$238, DW_AT_accessibility(DW_ACCESS_public)
    1707              $C$DW$239       .dwtag  DW_TAG_member
    1708                      .dwattr $C$DW$239, DW_AT_type(*$C$DW$T$42)
    1709                      .dwattr $C$DW$239, DW_AT_name("elem")
    1710                      .dwattr $C$DW$239, DW_AT_TI_symbol_name("_elem")
    1711                      .dwattr $C$DW$239, DW_AT_data_member_location[DW_OP_plus_uconst 0x1f]
    1712                      .dwattr $C$DW$239, DW_AT_accessibility(DW_ACCESS_public)
    1713                      .dwendtag $C$DW$T$43
    1714              
    1715              $C$DW$T$84      .dwtag  DW_TAG_typedef, DW_AT_name("NB_words")
    1716                      .dwattr $C$DW$T$84, DW_AT_type(*$C$DW$T$43)
    1717                      .dwattr $C$DW$T$84, DW_AT_language(DW_LANG_C)
    1718              
    1719              $C$DW$T$44      .dwtag  DW_TAG_structure_type
    1720                      .dwattr $C$DW$T$44, DW_AT_byte_size(0x14)
    1721              $C$DW$240       .dwtag  DW_TAG_member
    1722                      .dwattr $C$DW$240, DW_AT_type(*$C$DW$T$21)
    1723                      .dwattr $C$DW$240, DW_AT_name("alpha_p")
    1724                      .dwattr $C$DW$240, DW_AT_TI_symbol_name("_alpha_p")
    1725                      .dwattr $C$DW$240, DW_AT_data_member_location[DW_OP_plus_uconst 0x0]
    1726                      .dwattr $C$DW$240, DW_AT_accessibility(DW_ACCESS_public)
    1727              $C$DW$241       .dwtag  DW_TAG_member
    1728                      .dwattr $C$DW$241, DW_AT_type(*$C$DW$T$21)
    1729                      .dwattr $C$DW$241, DW_AT_name("sAlpha")
    1730                      .dwattr $C$DW$241, DW_AT_TI_symbol_name("_sAlpha")
    1731                      .dwattr $C$DW$241, DW_AT_data_member_location[DW_OP_plus_uconst 0x1]
    1732                      .dwattr $C$DW$241, DW_AT_accessibility(DW_ACCESS_public)
    1733              $C$DW$242       .dwtag  DW_TAG_member
    1734                      .dwattr $C$DW$242, DW_AT_type(*$C$DW$T$8)
    1735                      .dwattr $C$DW$242, DW_AT_name("sBeta")
    1736                      .dwattr $C$DW$242, DW_AT_TI_symbol_name("_sBeta")
    1737                      .dwattr $C$DW$242, DW_AT_data_member_location[DW_OP_plus_uconst 0x2]
    1738                      .dwattr $C$DW$242, DW_AT_accessibility(DW_ACCESS_public)
    1739              $C$DW$243       .dwtag  DW_TAG_member
    1740                      .dwattr $C$DW$243, DW_AT_type(*$C$DW$T$8)
    1741                      .dwattr $C$DW$243, DW_AT_name("lambdaLTEhigherE")
    1742                      .dwattr $C$DW$243, DW_AT_TI_symbol_name("_lambdaLTEhigherE")
    1743                      .dwattr $C$DW$243, DW_AT_data_member_location[DW_OP_plus_uconst 0x3]
    1744                      .dwattr $C$DW$243, DW_AT_accessibility(DW_ACCESS_public)
    1745              $C$DW$244       .dwtag  DW_TAG_member
    1746                      .dwattr $C$DW$244, DW_AT_type(*$C$DW$T$8)
    1747                      .dwattr $C$DW$244, DW_AT_name("frm_count")
    1748                      .dwattr $C$DW$244, DW_AT_TI_symbol_name("_frm_count")
    1749                      .dwattr $C$DW$244, DW_AT_data_member_location[DW_OP_plus_uconst 0x4]
    1750                      .dwattr $C$DW$244, DW_AT_accessibility(DW_ACCESS_public)
    1751              $C$DW$245       .dwtag  DW_TAG_member
TMS320C55x Assembler PC v4.4.1 Wed Sep 13 16:33:27 2017

Tools Copyright (c) 1996-2012 Texas Instruments Incorporated
C:\Users\a0221074\AppData\Local\Temp\1502810                         PAGE   40

    1752                      .dwattr $C$DW$245, DW_AT_type(*$C$DW$T$21)
    1753                      .dwattr $C$DW$245, DW_AT_name("prob_sp")
    1754                      .dwattr $C$DW$245, DW_AT_TI_symbol_name("_prob_sp")
    1755                      .dwattr $C$DW$245, DW_AT_data_member_location[DW_OP_plus_uconst 0x5]
    1756                      .dwattr $C$DW$245, DW_AT_accessibility(DW_ACCESS_public)
    1757              $C$DW$246       .dwtag  DW_TAG_member
    1758                      .dwattr $C$DW$246, DW_AT_type(*$C$DW$T$22)
    1759                      .dwattr $C$DW$246, DW_AT_name("s_noise_floor")
    1760                      .dwattr $C$DW$246, DW_AT_TI_symbol_name("_s_noise_floor")
    1761                      .dwattr $C$DW$246, DW_AT_data_member_location[DW_OP_plus_uconst 0x6]
    1762                      .dwattr $C$DW$246, DW_AT_accessibility(DW_ACCESS_public)
    1763              $C$DW$247       .dwtag  DW_TAG_member
    1764                      .dwattr $C$DW$247, DW_AT_type(*$C$DW$T$22)
    1765                      .dwattr $C$DW$247, DW_AT_name("snr")
    1766                      .dwattr $C$DW$247, DW_AT_TI_symbol_name("_snr")
    1767                      .dwattr $C$DW$247, DW_AT_data_member_location[DW_OP_plus_uconst 0x8]
    1768                      .dwattr $C$DW$247, DW_AT_accessibility(DW_ACCESS_public)
    1769              $C$DW$248       .dwtag  DW_TAG_member
    1770                      .dwattr $C$DW$248, DW_AT_type(*$C$DW$T$22)
    1771                      .dwattr $C$DW$248, DW_AT_name("ps_long_term_noise")
    1772                      .dwattr $C$DW$248, DW_AT_TI_symbol_name("_ps_long_term_noise")
    1773                      .dwattr $C$DW$248, DW_AT_data_member_location[DW_OP_plus_uconst 0xa]
    1774                      .dwattr $C$DW$248, DW_AT_accessibility(DW_ACCESS_public)
    1775              $C$DW$249       .dwtag  DW_TAG_member
    1776                      .dwattr $C$DW$249, DW_AT_type(*$C$DW$T$8)
    1777                      .dwattr $C$DW$249, DW_AT_name("frmEn")
    1778                      .dwattr $C$DW$249, DW_AT_TI_symbol_name("_frmEn")
    1779                      .dwattr $C$DW$249, DW_AT_data_member_location[DW_OP_plus_uconst 0xc]
    1780                      .dwattr $C$DW$249, DW_AT_accessibility(DW_ACCESS_public)
    1781              $C$DW$250       .dwtag  DW_TAG_member
    1782                      .dwattr $C$DW$250, DW_AT_type(*$C$DW$T$8)
    1783                      .dwattr $C$DW$250, DW_AT_name("meanEn")
    1784                      .dwattr $C$DW$250, DW_AT_TI_symbol_name("_meanEn")
    1785                      .dwattr $C$DW$250, DW_AT_data_member_location[DW_OP_plus_uconst 0xd]
    1786                      .dwattr $C$DW$250, DW_AT_accessibility(DW_ACCESS_public)
    1787              $C$DW$251       .dwtag  DW_TAG_member
    1788                      .dwattr $C$DW$251, DW_AT_type(*$C$DW$T$8)
    1789                      .dwattr $C$DW$251, DW_AT_name("prevMeanEn")
    1790                      .dwattr $C$DW$251, DW_AT_TI_symbol_name("_prevMeanEn")
    1791                      .dwattr $C$DW$251, DW_AT_data_member_location[DW_OP_plus_uconst 0xe]
    1792                      .dwattr $C$DW$251, DW_AT_accessibility(DW_ACCESS_public)
    1793              $C$DW$252       .dwtag  DW_TAG_member
    1794                      .dwattr $C$DW$252, DW_AT_type(*$C$DW$T$8)
    1795                      .dwattr $C$DW$252, DW_AT_name("noiselvl")
    1796                      .dwattr $C$DW$252, DW_AT_TI_symbol_name("_noiselvl")
    1797                      .dwattr $C$DW$252, DW_AT_data_member_location[DW_OP_plus_uconst 0xf]
    1798                      .dwattr $C$DW$252, DW_AT_accessibility(DW_ACCESS_public)
    1799              $C$DW$253       .dwtag  DW_TAG_member
    1800                      .dwattr $C$DW$253, DW_AT_type(*$C$DW$T$8)
    1801                      .dwattr $C$DW$253, DW_AT_name("lambdaLTE")
    1802                      .dwattr $C$DW$253, DW_AT_TI_symbol_name("_lambdaLTE")
    1803                      .dwattr $C$DW$253, DW_AT_data_member_location[DW_OP_plus_uconst 0x10]
    1804                      .dwattr $C$DW$253, DW_AT_accessibility(DW_ACCESS_public)
    1805              $C$DW$254       .dwtag  DW_TAG_member
    1806                      .dwattr $C$DW$254, DW_AT_type(*$C$DW$T$8)
TMS320C55x Assembler PC v4.4.1 Wed Sep 13 16:33:27 2017

Tools Copyright (c) 1996-2012 Texas Instruments Incorporated
C:\Users\a0221074\AppData\Local\Temp\1502810                         PAGE   41

    1807                      .dwattr $C$DW$254, DW_AT_name("nbSpeechFrame")
    1808                      .dwattr $C$DW$254, DW_AT_TI_symbol_name("_nbSpeechFrame")
    1809                      .dwattr $C$DW$254, DW_AT_data_member_location[DW_OP_plus_uconst 0x11]
    1810                      .dwattr $C$DW$254, DW_AT_accessibility(DW_ACCESS_public)
    1811              $C$DW$255       .dwtag  DW_TAG_member
    1812                      .dwattr $C$DW$255, DW_AT_type(*$C$DW$T$8)
    1813                      .dwattr $C$DW$255, DW_AT_name("hangOver")
    1814                      .dwattr $C$DW$255, DW_AT_TI_symbol_name("_hangOver")
    1815                      .dwattr $C$DW$255, DW_AT_data_member_location[DW_OP_plus_uconst 0x12]
    1816                      .dwattr $C$DW$255, DW_AT_accessibility(DW_ACCESS_public)
    1817                      .dwendtag $C$DW$T$44
    1818              
    1819              $C$DW$T$87      .dwtag  DW_TAG_typedef, DW_AT_name("NssType")
    1820                      .dwattr $C$DW$T$87, DW_AT_type(*$C$DW$T$44)
    1821                      .dwattr $C$DW$T$87, DW_AT_language(DW_LANG_C)
    1822              $C$DW$T$88      .dwtag  DW_TAG_pointer_type
    1823                      .dwattr $C$DW$T$88, DW_AT_type(*$C$DW$T$87)
    1824                      .dwattr $C$DW$T$88, DW_AT_address_class(0x17)
    1825              
    1826              $C$DW$T$45      .dwtag  DW_TAG_structure_type
    1827                      .dwattr $C$DW$T$45, DW_AT_byte_size(0x03)
    1828              $C$DW$256       .dwtag  DW_TAG_member
    1829                      .dwattr $C$DW$256, DW_AT_type(*$C$DW$T$8)
    1830                      .dwattr $C$DW$256, DW_AT_name("mean")
    1831                      .dwattr $C$DW$256, DW_AT_TI_symbol_name("_mean")
    1832                      .dwattr $C$DW$256, DW_AT_data_member_location[DW_OP_plus_uconst 0x0]
    1833                      .dwattr $C$DW$256, DW_AT_accessibility(DW_ACCESS_public)
    1834              $C$DW$257       .dwtag  DW_TAG_member
    1835                      .dwattr $C$DW$257, DW_AT_type(*$C$DW$T$8)
    1836                      .dwattr $C$DW$257, DW_AT_name("inv")
    1837                      .dwattr $C$DW$257, DW_AT_TI_symbol_name("_inv")
    1838                      .dwattr $C$DW$257, DW_AT_data_member_location[DW_OP_plus_uconst 0x1]
    1839                      .dwattr $C$DW$257, DW_AT_accessibility(DW_ACCESS_public)
    1840              $C$DW$258       .dwtag  DW_TAG_member
    1841                      .dwattr $C$DW$258, DW_AT_type(*$C$DW$T$8)
    1842                      .dwattr $C$DW$258, DW_AT_name("gconst")
    1843                      .dwattr $C$DW$258, DW_AT_TI_symbol_name("_gconst")
    1844                      .dwattr $C$DW$258, DW_AT_data_member_location[DW_OP_plus_uconst 0x2]
    1845                      .dwattr $C$DW$258, DW_AT_accessibility(DW_ACCESS_public)
    1846                      .dwendtag $C$DW$T$45
    1847              
    1848              $C$DW$T$47      .dwtag  DW_TAG_typedef, DW_AT_name("CM_hypo")
    1849                      .dwattr $C$DW$T$47, DW_AT_type(*$C$DW$T$45)
    1850                      .dwattr $C$DW$T$47, DW_AT_language(DW_LANG_C)
    1851              
    1852              $C$DW$T$49      .dwtag  DW_TAG_structure_type
    1853                      .dwattr $C$DW$T$49, DW_AT_byte_size(0x544)
    1854              $C$DW$259       .dwtag  DW_TAG_member
    1855                      .dwattr $C$DW$259, DW_AT_type(*$C$DW$T$46)
    1856                      .dwattr $C$DW$259, DW_AT_name("base_mem")
    1857                      .dwattr $C$DW$259, DW_AT_TI_symbol_name("_base_mem")
    1858                      .dwattr $C$DW$259, DW_AT_data_member_location[DW_OP_plus_uconst 0x0]
    1859                      .dwattr $C$DW$259, DW_AT_accessibility(DW_ACCESS_public)
    1860              $C$DW$260       .dwtag  DW_TAG_member
    1861                      .dwattr $C$DW$260, DW_AT_type(*$C$DW$T$21)
TMS320C55x Assembler PC v4.4.1 Wed Sep 13 16:33:27 2017

Tools Copyright (c) 1996-2012 Texas Instruments Incorporated
C:\Users\a0221074\AppData\Local\Temp\1502810                         PAGE   42

    1862                      .dwattr $C$DW$260, DW_AT_name("mem_count")
    1863                      .dwattr $C$DW$260, DW_AT_TI_symbol_name("_mem_count")
    1864                      .dwattr $C$DW$260, DW_AT_data_member_location[DW_OP_plus_uconst 0x514]
    1865                      .dwattr $C$DW$260, DW_AT_accessibility(DW_ACCESS_public)
    1866              $C$DW$261       .dwtag  DW_TAG_member
    1867                      .dwattr $C$DW$261, DW_AT_type(*$C$DW$T$23)
    1868                      .dwattr $C$DW$261, DW_AT_name("answers")
    1869                      .dwattr $C$DW$261, DW_AT_TI_symbol_name("_answers")
    1870                      .dwattr $C$DW$261, DW_AT_data_member_location[DW_OP_plus_uconst 0x516]
    1871                      .dwattr $C$DW$261, DW_AT_accessibility(DW_ACCESS_public)
    1872              $C$DW$262       .dwtag  DW_TAG_member
    1873                      .dwattr $C$DW$262, DW_AT_type(*$C$DW$T$23)
    1874                      .dwattr $C$DW$262, DW_AT_name("uStp")
    1875                      .dwattr $C$DW$262, DW_AT_TI_symbol_name("_uStp")
    1876                      .dwattr $C$DW$262, DW_AT_data_member_location[DW_OP_plus_uconst 0x518]
    1877                      .dwattr $C$DW$262, DW_AT_accessibility(DW_ACCESS_public)
    1878              $C$DW$263       .dwtag  DW_TAG_member
    1879                      .dwattr $C$DW$263, DW_AT_type(*$C$DW$T$21)
    1880                      .dwattr $C$DW$263, DW_AT_name("nWords")
    1881                      .dwattr $C$DW$263, DW_AT_TI_symbol_name("_nWords")
    1882                      .dwattr $C$DW$263, DW_AT_data_member_location[DW_OP_plus_uconst 0x51a]
    1883                      .dwattr $C$DW$263, DW_AT_accessibility(DW_ACCESS_public)
    1884              $C$DW$264       .dwtag  DW_TAG_member
    1885                      .dwattr $C$DW$264, DW_AT_type(*$C$DW$T$8)
    1886                      .dwattr $C$DW$264, DW_AT_name("nS")
    1887                      .dwattr $C$DW$264, DW_AT_TI_symbol_name("_nS")
    1888                      .dwattr $C$DW$264, DW_AT_data_member_location[DW_OP_plus_uconst 0x51b]
    1889                      .dwattr $C$DW$264, DW_AT_accessibility(DW_ACCESS_public)
    1890              $C$DW$265       .dwtag  DW_TAG_member
    1891                      .dwattr $C$DW$265, DW_AT_type(*$C$DW$T$22)
    1892                      .dwattr $C$DW$265, DW_AT_name("cm_scr")
    1893                      .dwattr $C$DW$265, DW_AT_TI_symbol_name("_cm_scr")
    1894                      .dwattr $C$DW$265, DW_AT_data_member_location[DW_OP_plus_uconst 0x51c]
    1895                      .dwattr $C$DW$265, DW_AT_accessibility(DW_ACCESS_public)
    1896              $C$DW$266       .dwtag  DW_TAG_member
    1897                      .dwattr $C$DW$266, DW_AT_type(*$C$DW$T$8)
    1898                      .dwattr $C$DW$266, DW_AT_name("bNeedUpdate")
    1899                      .dwattr $C$DW$266, DW_AT_TI_symbol_name("_bNeedUpdate")
    1900                      .dwattr $C$DW$266, DW_AT_data_member_location[DW_OP_plus_uconst 0x51e]
    1901                      .dwattr $C$DW$266, DW_AT_accessibility(DW_ACCESS_public)
    1902              $C$DW$267       .dwtag  DW_TAG_member
    1903                      .dwattr $C$DW$267, DW_AT_type(*$C$DW$T$22)
    1904                      .dwattr $C$DW$267, DW_AT_name("cm_anti_scr")
    1905                      .dwattr $C$DW$267, DW_AT_TI_symbol_name("_cm_anti_scr")
    1906                      .dwattr $C$DW$267, DW_AT_data_member_location[DW_OP_plus_uconst 0x520]
    1907                      .dwattr $C$DW$267, DW_AT_accessibility(DW_ACCESS_public)
    1908              $C$DW$268       .dwtag  DW_TAG_member
    1909                      .dwattr $C$DW$268, DW_AT_type(*$C$DW$T$12)
    1910                      .dwattr $C$DW$268, DW_AT_name("cm_fg_scr")
    1911                      .dwattr $C$DW$268, DW_AT_TI_symbol_name("_cm_fg_scr")
    1912                      .dwattr $C$DW$268, DW_AT_data_member_location[DW_OP_plus_uconst 0x522]
    1913                      .dwattr $C$DW$268, DW_AT_accessibility(DW_ACCESS_public)
    1914              $C$DW$269       .dwtag  DW_TAG_member
    1915                      .dwattr $C$DW$269, DW_AT_type(*$C$DW$T$12)
    1916                      .dwattr $C$DW$269, DW_AT_name("cm_bk_scr")
TMS320C55x Assembler PC v4.4.1 Wed Sep 13 16:33:27 2017

Tools Copyright (c) 1996-2012 Texas Instruments Incorporated
C:\Users\a0221074\AppData\Local\Temp\1502810                         PAGE   43

    1917                      .dwattr $C$DW$269, DW_AT_TI_symbol_name("_cm_bk_scr")
    1918                      .dwattr $C$DW$269, DW_AT_data_member_location[DW_OP_plus_uconst 0x524]
    1919                      .dwattr $C$DW$269, DW_AT_accessibility(DW_ACCESS_public)
    1920              $C$DW$270       .dwtag  DW_TAG_member
    1921                      .dwattr $C$DW$270, DW_AT_type(*$C$DW$T$8)
    1922                      .dwattr $C$DW$270, DW_AT_name("th_nbest")
    1923                      .dwattr $C$DW$270, DW_AT_TI_symbol_name("_th_nbest")
    1924                      .dwattr $C$DW$270, DW_AT_data_member_location[DW_OP_plus_uconst 0x526]
    1925                      .dwattr $C$DW$270, DW_AT_accessibility(DW_ACCESS_public)
    1926              $C$DW$271       .dwtag  DW_TAG_member
    1927                      .dwattr $C$DW$271, DW_AT_type(*$C$DW$T$8)
    1928                      .dwattr $C$DW$271, DW_AT_name("nSpeech")
    1929                      .dwattr $C$DW$271, DW_AT_TI_symbol_name("_nSpeech")
    1930                      .dwattr $C$DW$271, DW_AT_data_member_location[DW_OP_plus_uconst 0x527]
    1931                      .dwattr $C$DW$271, DW_AT_accessibility(DW_ACCESS_public)
    1932              $C$DW$272       .dwtag  DW_TAG_member
    1933                      .dwattr $C$DW$272, DW_AT_type(*$C$DW$T$8)
    1934                      .dwattr $C$DW$272, DW_AT_name("nNoise")
    1935                      .dwattr $C$DW$272, DW_AT_TI_symbol_name("_nNoise")
    1936                      .dwattr $C$DW$272, DW_AT_data_member_location[DW_OP_plus_uconst 0x528]
    1937                      .dwattr $C$DW$272, DW_AT_accessibility(DW_ACCESS_public)
    1938              $C$DW$273       .dwtag  DW_TAG_member
    1939                      .dwattr $C$DW$273, DW_AT_type(*$C$DW$T$12)
    1940                      .dwattr $C$DW$273, DW_AT_name("speech_power")
    1941                      .dwattr $C$DW$273, DW_AT_TI_symbol_name("_speech_power")
    1942                      .dwattr $C$DW$273, DW_AT_data_member_location[DW_OP_plus_uconst 0x52a]
    1943                      .dwattr $C$DW$273, DW_AT_accessibility(DW_ACCESS_public)
    1944              $C$DW$274       .dwtag  DW_TAG_member
    1945                      .dwattr $C$DW$274, DW_AT_type(*$C$DW$T$12)
    1946                      .dwattr $C$DW$274, DW_AT_name("noise_power")
    1947                      .dwattr $C$DW$274, DW_AT_TI_symbol_name("_noise_power")
    1948                      .dwattr $C$DW$274, DW_AT_data_member_location[DW_OP_plus_uconst 0x52c]
    1949                      .dwattr $C$DW$274, DW_AT_accessibility(DW_ACCESS_public)
    1950              $C$DW$275       .dwtag  DW_TAG_member
    1951                      .dwattr $C$DW$275, DW_AT_type(*$C$DW$T$12)
    1952                      .dwattr $C$DW$275, DW_AT_name("noise_power_sqr")
    1953                      .dwattr $C$DW$275, DW_AT_TI_symbol_name("_noise_power_sqr")
    1954                      .dwattr $C$DW$275, DW_AT_data_member_location[DW_OP_plus_uconst 0x52e]
    1955                      .dwattr $C$DW$275, DW_AT_accessibility(DW_ACCESS_public)
    1956              $C$DW$276       .dwtag  DW_TAG_member
    1957                      .dwattr $C$DW$276, DW_AT_type(*$C$DW$T$8)
    1958                      .dwattr $C$DW$276, DW_AT_name("NSNR")
    1959                      .dwattr $C$DW$276, DW_AT_TI_symbol_name("_NSNR")
    1960                      .dwattr $C$DW$276, DW_AT_data_member_location[DW_OP_plus_uconst 0x530]
    1961                      .dwattr $C$DW$276, DW_AT_accessibility(DW_ACCESS_public)
    1962              $C$DW$277       .dwtag  DW_TAG_member
    1963                      .dwattr $C$DW$277, DW_AT_type(*$C$DW$T$47)
    1964                      .dwattr $C$DW$277, DW_AT_name("H0")
    1965                      .dwattr $C$DW$277, DW_AT_TI_symbol_name("_H0")
    1966                      .dwattr $C$DW$277, DW_AT_data_member_location[DW_OP_plus_uconst 0x531]
    1967                      .dwattr $C$DW$277, DW_AT_accessibility(DW_ACCESS_public)
    1968              $C$DW$278       .dwtag  DW_TAG_member
    1969                      .dwattr $C$DW$278, DW_AT_type(*$C$DW$T$47)
    1970                      .dwattr $C$DW$278, DW_AT_name("H1")
    1971                      .dwattr $C$DW$278, DW_AT_TI_symbol_name("_H1")
TMS320C55x Assembler PC v4.4.1 Wed Sep 13 16:33:27 2017

Tools Copyright (c) 1996-2012 Texas Instruments Incorporated
C:\Users\a0221074\AppData\Local\Temp\1502810                         PAGE   44

    1972                      .dwattr $C$DW$278, DW_AT_data_member_location[DW_OP_plus_uconst 0x534]
    1973                      .dwattr $C$DW$278, DW_AT_accessibility(DW_ACCESS_public)
    1974              $C$DW$279       .dwtag  DW_TAG_member
    1975                      .dwattr $C$DW$279, DW_AT_type(*$C$DW$T$22)
    1976                      .dwattr $C$DW$279, DW_AT_name("lgBeta")
    1977                      .dwattr $C$DW$279, DW_AT_TI_symbol_name("_lgBeta")
    1978                      .dwattr $C$DW$279, DW_AT_data_member_location[DW_OP_plus_uconst 0x538]
    1979                      .dwattr $C$DW$279, DW_AT_accessibility(DW_ACCESS_public)
    1980              $C$DW$280       .dwtag  DW_TAG_member
    1981                      .dwattr $C$DW$280, DW_AT_type(*$C$DW$T$48)
    1982                      .dwattr $C$DW$280, DW_AT_name("acc_dif2_beta")
    1983                      .dwattr $C$DW$280, DW_AT_TI_symbol_name("_acc_dif2_beta")
    1984                      .dwattr $C$DW$280, DW_AT_data_member_location[DW_OP_plus_uconst 0x53a]
    1985                      .dwattr $C$DW$280, DW_AT_accessibility(DW_ACCESS_public)
    1986              $C$DW$281       .dwtag  DW_TAG_member
    1987                      .dwattr $C$DW$281, DW_AT_type(*$C$DW$T$8)
    1988                      .dwattr $C$DW$281, DW_AT_name("bCalced")
    1989                      .dwattr $C$DW$281, DW_AT_TI_symbol_name("_bCalced")
    1990                      .dwattr $C$DW$281, DW_AT_data_member_location[DW_OP_plus_uconst 0x53c]
    1991                      .dwattr $C$DW$281, DW_AT_accessibility(DW_ACCESS_public)
    1992              $C$DW$282       .dwtag  DW_TAG_member
    1993                      .dwattr $C$DW$282, DW_AT_type(*$C$DW$T$22)
    1994                      .dwattr $C$DW$282, DW_AT_name("sCH")
    1995                      .dwattr $C$DW$282, DW_AT_TI_symbol_name("_sCH")
    1996                      .dwattr $C$DW$282, DW_AT_data_member_location[DW_OP_plus_uconst 0x53e]
    1997                      .dwattr $C$DW$282, DW_AT_accessibility(DW_ACCESS_public)
    1998              $C$DW$283       .dwtag  DW_TAG_member
    1999                      .dwattr $C$DW$283, DW_AT_type(*$C$DW$T$48)
    2000                      .dwattr $C$DW$283, DW_AT_name("lAccum")
    2001                      .dwattr $C$DW$283, DW_AT_TI_symbol_name("_lAccum")
    2002                      .dwattr $C$DW$283, DW_AT_data_member_location[DW_OP_plus_uconst 0x540]
    2003                      .dwattr $C$DW$283, DW_AT_accessibility(DW_ACCESS_public)
    2004              $C$DW$284       .dwtag  DW_TAG_member
    2005                      .dwattr $C$DW$284, DW_AT_type(*$C$DW$T$8)
    2006                      .dwattr $C$DW$284, DW_AT_name("adp_th")
    2007                      .dwattr $C$DW$284, DW_AT_TI_symbol_name("_adp_th")
    2008                      .dwattr $C$DW$284, DW_AT_data_member_location[DW_OP_plus_uconst 0x542]
    2009                      .dwattr $C$DW$284, DW_AT_accessibility(DW_ACCESS_public)
    2010                      .dwendtag $C$DW$T$49
    2011              
    2012              $C$DW$T$89      .dwtag  DW_TAG_typedef, DW_AT_name("ConfType")
    2013                      .dwattr $C$DW$T$89, DW_AT_type(*$C$DW$T$49)
    2014                      .dwattr $C$DW$T$89, DW_AT_language(DW_LANG_C)
    2015              $C$DW$T$90      .dwtag  DW_TAG_pointer_type
    2016                      .dwattr $C$DW$T$90, DW_AT_type(*$C$DW$T$89)
    2017                      .dwattr $C$DW$T$90, DW_AT_address_class(0x17)
    2018              $C$DW$T$4       .dwtag  DW_TAG_base_type
    2019                      .dwattr $C$DW$T$4, DW_AT_encoding(DW_ATE_boolean)
    2020                      .dwattr $C$DW$T$4, DW_AT_name("bool")
    2021                      .dwattr $C$DW$T$4, DW_AT_byte_size(0x01)
    2022              $C$DW$T$5       .dwtag  DW_TAG_base_type
    2023                      .dwattr $C$DW$T$5, DW_AT_encoding(DW_ATE_signed_char)
    2024                      .dwattr $C$DW$T$5, DW_AT_name("signed char")
    2025                      .dwattr $C$DW$T$5, DW_AT_byte_size(0x01)
    2026              $C$DW$T$6       .dwtag  DW_TAG_base_type
TMS320C55x Assembler PC v4.4.1 Wed Sep 13 16:33:27 2017

Tools Copyright (c) 1996-2012 Texas Instruments Incorporated
C:\Users\a0221074\AppData\Local\Temp\1502810                         PAGE   45

    2027                      .dwattr $C$DW$T$6, DW_AT_encoding(DW_ATE_unsigned_char)
    2028                      .dwattr $C$DW$T$6, DW_AT_name("unsigned char")
    2029                      .dwattr $C$DW$T$6, DW_AT_byte_size(0x01)
    2030              $C$DW$T$7       .dwtag  DW_TAG_base_type
    2031                      .dwattr $C$DW$T$7, DW_AT_encoding(DW_ATE_signed_char)
    2032                      .dwattr $C$DW$T$7, DW_AT_name("wchar_t")
    2033                      .dwattr $C$DW$T$7, DW_AT_byte_size(0x01)
    2034              $C$DW$T$8       .dwtag  DW_TAG_base_type
    2035                      .dwattr $C$DW$T$8, DW_AT_encoding(DW_ATE_signed)
    2036                      .dwattr $C$DW$T$8, DW_AT_name("short")
    2037                      .dwattr $C$DW$T$8, DW_AT_byte_size(0x01)
    2038              $C$DW$T$22      .dwtag  DW_TAG_pointer_type
    2039                      .dwattr $C$DW$T$22, DW_AT_type(*$C$DW$T$8)
    2040                      .dwattr $C$DW$T$22, DW_AT_address_class(0x17)
    2041              
    2042              $C$DW$T$40      .dwtag  DW_TAG_array_type
    2043                      .dwattr $C$DW$T$40, DW_AT_type(*$C$DW$T$8)
    2044                      .dwattr $C$DW$T$40, DW_AT_language(DW_LANG_C)
    2045                      .dwattr $C$DW$T$40, DW_AT_byte_size(0x1e)
    2046              $C$DW$285       .dwtag  DW_TAG_subrange_type
    2047                      .dwattr $C$DW$285, DW_AT_upper_bound(0x1d)
    2048                      .dwendtag $C$DW$T$40
    2049              
    2050              
    2051              $C$DW$T$46      .dwtag  DW_TAG_array_type
    2052                      .dwattr $C$DW$T$46, DW_AT_type(*$C$DW$T$8)
    2053                      .dwattr $C$DW$T$46, DW_AT_language(DW_LANG_C)
    2054                      .dwattr $C$DW$T$46, DW_AT_byte_size(0x514)
    2055              $C$DW$286       .dwtag  DW_TAG_subrange_type
    2056                      .dwattr $C$DW$286, DW_AT_upper_bound(0x513)
    2057                      .dwendtag $C$DW$T$46
    2058              
    2059              
    2060              $C$DW$T$51      .dwtag  DW_TAG_array_type
    2061                      .dwattr $C$DW$T$51, DW_AT_type(*$C$DW$T$8)
    2062                      .dwattr $C$DW$T$51, DW_AT_language(DW_LANG_C)
    2063                      .dwattr $C$DW$T$51, DW_AT_byte_size(0x100)
    2064              $C$DW$287       .dwtag  DW_TAG_subrange_type
    2065                      .dwattr $C$DW$287, DW_AT_upper_bound(0xff)
    2066                      .dwendtag $C$DW$T$51
    2067              
    2068              
    2069              $C$DW$T$52      .dwtag  DW_TAG_array_type
    2070                      .dwattr $C$DW$T$52, DW_AT_type(*$C$DW$T$8)
    2071                      .dwattr $C$DW$T$52, DW_AT_language(DW_LANG_C)
    2072                      .dwattr $C$DW$T$52, DW_AT_byte_size(0x10)
    2073              $C$DW$288       .dwtag  DW_TAG_subrange_type
    2074                      .dwattr $C$DW$288, DW_AT_upper_bound(0x0f)
    2075                      .dwendtag $C$DW$T$52
    2076              
    2077              
    2078              $C$DW$T$53      .dwtag  DW_TAG_array_type
    2079                      .dwattr $C$DW$T$53, DW_AT_type(*$C$DW$T$8)
    2080                      .dwattr $C$DW$T$53, DW_AT_language(DW_LANG_C)
    2081                      .dwattr $C$DW$T$53, DW_AT_byte_size(0xe0)
TMS320C55x Assembler PC v4.4.1 Wed Sep 13 16:33:27 2017

Tools Copyright (c) 1996-2012 Texas Instruments Incorporated
C:\Users\a0221074\AppData\Local\Temp\1502810                         PAGE   46

    2082              $C$DW$289       .dwtag  DW_TAG_subrange_type
    2083                      .dwattr $C$DW$289, DW_AT_upper_bound(0x0d)
    2084              $C$DW$290       .dwtag  DW_TAG_subrange_type
    2085                      .dwattr $C$DW$290, DW_AT_upper_bound(0x0f)
    2086                      .dwendtag $C$DW$T$53
    2087              
    2088              $C$DW$T$108     .dwtag  DW_TAG_pointer_type
    2089                      .dwattr $C$DW$T$108, DW_AT_type(*$C$DW$T$52)
    2090                      .dwattr $C$DW$T$108, DW_AT_address_class(0x17)
    2091              $C$DW$291       .dwtag  DW_TAG_TI_far_type
    2092                      .dwattr $C$DW$291, DW_AT_type(*$C$DW$T$8)
    2093              $C$DW$T$54      .dwtag  DW_TAG_const_type
    2094                      .dwattr $C$DW$T$54, DW_AT_type(*$C$DW$291)
    2095              $C$DW$T$55      .dwtag  DW_TAG_pointer_type
    2096                      .dwattr $C$DW$T$55, DW_AT_type(*$C$DW$T$54)
    2097                      .dwattr $C$DW$T$55, DW_AT_address_class(0x17)
    2098              
    2099              $C$DW$T$56      .dwtag  DW_TAG_array_type
    2100                      .dwattr $C$DW$T$56, DW_AT_type(*$C$DW$T$55)
    2101                      .dwattr $C$DW$T$56, DW_AT_language(DW_LANG_C)
    2102                      .dwattr $C$DW$T$56, DW_AT_byte_size(0x20)
    2103              $C$DW$292       .dwtag  DW_TAG_subrange_type
    2104                      .dwattr $C$DW$292, DW_AT_upper_bound(0x0f)
    2105                      .dwendtag $C$DW$T$56
    2106              
    2107              $C$DW$T$105     .dwtag  DW_TAG_pointer_type
    2108                      .dwattr $C$DW$T$105, DW_AT_type(*$C$DW$T$55)
    2109                      .dwattr $C$DW$T$105, DW_AT_address_class(0x17)
    2110              
    2111              $C$DW$T$60      .dwtag  DW_TAG_array_type
    2112                      .dwattr $C$DW$T$60, DW_AT_type(*$C$DW$T$8)
    2113                      .dwattr $C$DW$T$60, DW_AT_language(DW_LANG_C)
    2114                      .dwattr $C$DW$T$60, DW_AT_byte_size(0x80)
    2115              $C$DW$293       .dwtag  DW_TAG_subrange_type
    2116                      .dwattr $C$DW$293, DW_AT_upper_bound(0x7f)
    2117                      .dwendtag $C$DW$T$60
    2118              
    2119              
    2120              $C$DW$T$61      .dwtag  DW_TAG_array_type
    2121                      .dwattr $C$DW$T$61, DW_AT_type(*$C$DW$T$8)
    2122                      .dwattr $C$DW$T$61, DW_AT_language(DW_LANG_C)
    2123                      .dwattr $C$DW$T$61, DW_AT_byte_size(0x1a)
    2124              $C$DW$294       .dwtag  DW_TAG_subrange_type
    2125                      .dwattr $C$DW$294, DW_AT_upper_bound(0x19)
    2126                      .dwendtag $C$DW$T$61
    2127              
    2128              
    2129              $C$DW$T$79      .dwtag  DW_TAG_array_type
    2130                      .dwattr $C$DW$T$79, DW_AT_type(*$C$DW$T$8)
    2131                      .dwattr $C$DW$T$79, DW_AT_language(DW_LANG_C)
    2132                      .dwattr $C$DW$T$79, DW_AT_byte_size(0x20)
    2133              $C$DW$295       .dwtag  DW_TAG_subrange_type
    2134                      .dwattr $C$DW$295, DW_AT_upper_bound(0x1f)
    2135                      .dwendtag $C$DW$T$79
    2136              
TMS320C55x Assembler PC v4.4.1 Wed Sep 13 16:33:27 2017

Tools Copyright (c) 1996-2012 Texas Instruments Incorporated
C:\Users\a0221074\AppData\Local\Temp\1502810                         PAGE   47

    2137              
    2138              $C$DW$T$85      .dwtag  DW_TAG_array_type
    2139                      .dwattr $C$DW$T$85, DW_AT_type(*$C$DW$T$8)
    2140                      .dwattr $C$DW$T$85, DW_AT_language(DW_LANG_C)
    2141                      .dwattr $C$DW$T$85, DW_AT_byte_size(0x14)
    2142              $C$DW$296       .dwtag  DW_TAG_subrange_type
    2143                      .dwattr $C$DW$296, DW_AT_upper_bound(0x13)
    2144                      .dwendtag $C$DW$T$85
    2145              
    2146              $C$DW$T$9       .dwtag  DW_TAG_base_type
    2147                      .dwattr $C$DW$T$9, DW_AT_encoding(DW_ATE_unsigned)
    2148                      .dwattr $C$DW$T$9, DW_AT_name("unsigned short")
    2149                      .dwattr $C$DW$T$9, DW_AT_byte_size(0x01)
    2150              
    2151              $C$DW$T$28      .dwtag  DW_TAG_array_type
    2152                      .dwattr $C$DW$T$28, DW_AT_type(*$C$DW$T$9)
    2153                      .dwattr $C$DW$T$28, DW_AT_language(DW_LANG_C)
    2154                      .dwattr $C$DW$T$28, DW_AT_byte_size(0x01)
    2155              $C$DW$297       .dwtag  DW_TAG_subrange_type
    2156                      .dwattr $C$DW$297, DW_AT_upper_bound(0x00)
    2157                      .dwendtag $C$DW$T$28
    2158              
    2159              
    2160              $C$DW$T$34      .dwtag  DW_TAG_array_type
    2161                      .dwattr $C$DW$T$34, DW_AT_type(*$C$DW$T$9)
    2162                      .dwattr $C$DW$T$34, DW_AT_language(DW_LANG_C)
    2163                      .dwattr $C$DW$T$34, DW_AT_byte_size(0x02)
    2164              $C$DW$298       .dwtag  DW_TAG_subrange_type
    2165                      .dwattr $C$DW$298, DW_AT_upper_bound(0x01)
    2166                      .dwendtag $C$DW$T$34
    2167              
    2168              $C$DW$T$36      .dwtag  DW_TAG_pointer_type
    2169                      .dwattr $C$DW$T$36, DW_AT_type(*$C$DW$T$9)
    2170                      .dwattr $C$DW$T$36, DW_AT_address_class(0x17)
    2171              $C$DW$T$21      .dwtag  DW_TAG_typedef, DW_AT_name("ushort")
    2172                      .dwattr $C$DW$T$21, DW_AT_type(*$C$DW$T$9)
    2173                      .dwattr $C$DW$T$21, DW_AT_language(DW_LANG_C)
    2174              $C$DW$T$23      .dwtag  DW_TAG_pointer_type
    2175                      .dwattr $C$DW$T$23, DW_AT_type(*$C$DW$T$21)
    2176                      .dwattr $C$DW$T$23, DW_AT_address_class(0x17)
    2177              
    2178              $C$DW$T$38      .dwtag  DW_TAG_array_type
    2179                      .dwattr $C$DW$T$38, DW_AT_type(*$C$DW$T$21)
    2180                      .dwattr $C$DW$T$38, DW_AT_language(DW_LANG_C)
    2181                      .dwattr $C$DW$T$38, DW_AT_byte_size(0x14)
    2182              $C$DW$299       .dwtag  DW_TAG_subrange_type
    2183                      .dwattr $C$DW$299, DW_AT_upper_bound(0x13)
    2184                      .dwendtag $C$DW$T$38
    2185              
    2186              
    2187              $C$DW$T$86      .dwtag  DW_TAG_array_type
    2188                      .dwattr $C$DW$T$86, DW_AT_type(*$C$DW$T$21)
    2189                      .dwattr $C$DW$T$86, DW_AT_language(DW_LANG_C)
    2190                      .dwattr $C$DW$T$86, DW_AT_byte_size(0x02)
    2191              $C$DW$300       .dwtag  DW_TAG_subrange_type
TMS320C55x Assembler PC v4.4.1 Wed Sep 13 16:33:27 2017

Tools Copyright (c) 1996-2012 Texas Instruments Incorporated
C:\Users\a0221074\AppData\Local\Temp\1502810                         PAGE   48

    2192                      .dwattr $C$DW$300, DW_AT_upper_bound(0x01)
    2193                      .dwendtag $C$DW$T$86
    2194              
    2195              $C$DW$T$10      .dwtag  DW_TAG_base_type
    2196                      .dwattr $C$DW$T$10, DW_AT_encoding(DW_ATE_signed)
    2197                      .dwattr $C$DW$T$10, DW_AT_name("int")
    2198                      .dwattr $C$DW$T$10, DW_AT_byte_size(0x01)
    2199              $C$DW$T$11      .dwtag  DW_TAG_base_type
    2200                      .dwattr $C$DW$T$11, DW_AT_encoding(DW_ATE_unsigned)
    2201                      .dwattr $C$DW$T$11, DW_AT_name("unsigned int")
    2202                      .dwattr $C$DW$T$11, DW_AT_byte_size(0x01)
    2203              $C$DW$T$12      .dwtag  DW_TAG_base_type
    2204                      .dwattr $C$DW$T$12, DW_AT_encoding(DW_ATE_signed)
    2205                      .dwattr $C$DW$T$12, DW_AT_name("long")
    2206                      .dwattr $C$DW$T$12, DW_AT_byte_size(0x02)
    2207              $C$DW$T$48      .dwtag  DW_TAG_pointer_type
    2208                      .dwattr $C$DW$T$48, DW_AT_type(*$C$DW$T$12)
    2209                      .dwattr $C$DW$T$48, DW_AT_address_class(0x17)
    2210              
    2211              $C$DW$T$62      .dwtag  DW_TAG_array_type
    2212                      .dwattr $C$DW$T$62, DW_AT_type(*$C$DW$T$12)
    2213                      .dwattr $C$DW$T$62, DW_AT_language(DW_LANG_C)
    2214                      .dwattr $C$DW$T$62, DW_AT_byte_size(0xd0)
    2215              $C$DW$301       .dwtag  DW_TAG_subrange_type
    2216                      .dwattr $C$DW$301, DW_AT_upper_bound(0x67)
    2217                      .dwendtag $C$DW$T$62
    2218              
    2219              
    2220              $C$DW$T$65      .dwtag  DW_TAG_array_type
    2221                      .dwattr $C$DW$T$65, DW_AT_type(*$C$DW$T$12)
    2222                      .dwattr $C$DW$T$65, DW_AT_language(DW_LANG_C)
    2223                      .dwattr $C$DW$T$65, DW_AT_byte_size(0x20)
    2224              $C$DW$302       .dwtag  DW_TAG_subrange_type
    2225                      .dwattr $C$DW$302, DW_AT_upper_bound(0x0f)
    2226                      .dwendtag $C$DW$T$65
    2227              
    2228              $C$DW$T$13      .dwtag  DW_TAG_base_type
    2229                      .dwattr $C$DW$T$13, DW_AT_encoding(DW_ATE_unsigned)
    2230                      .dwattr $C$DW$T$13, DW_AT_name("unsigned long")
    2231                      .dwattr $C$DW$T$13, DW_AT_byte_size(0x02)
    2232              $C$DW$T$14      .dwtag  DW_TAG_base_type
    2233                      .dwattr $C$DW$T$14, DW_AT_encoding(DW_ATE_signed)
    2234                      .dwattr $C$DW$T$14, DW_AT_name("long long")
    2235                      .dwattr $C$DW$T$14, DW_AT_byte_size(0x04)
    2236                      .dwattr $C$DW$T$14, DW_AT_bit_size(0x28)
    2237                      .dwattr $C$DW$T$14, DW_AT_bit_offset(0x18)
    2238              $C$DW$T$15      .dwtag  DW_TAG_base_type
    2239                      .dwattr $C$DW$T$15, DW_AT_encoding(DW_ATE_unsigned)
    2240                      .dwattr $C$DW$T$15, DW_AT_name("unsigned long long")
    2241                      .dwattr $C$DW$T$15, DW_AT_byte_size(0x04)
    2242                      .dwattr $C$DW$T$15, DW_AT_bit_size(0x28)
    2243                      .dwattr $C$DW$T$15, DW_AT_bit_offset(0x18)
    2244              $C$DW$T$16      .dwtag  DW_TAG_base_type
    2245                      .dwattr $C$DW$T$16, DW_AT_encoding(DW_ATE_float)
    2246                      .dwattr $C$DW$T$16, DW_AT_name("float")
TMS320C55x Assembler PC v4.4.1 Wed Sep 13 16:33:27 2017

Tools Copyright (c) 1996-2012 Texas Instruments Incorporated
C:\Users\a0221074\AppData\Local\Temp\1502810                         PAGE   49

    2247                      .dwattr $C$DW$T$16, DW_AT_byte_size(0x02)
    2248              $C$DW$T$17      .dwtag  DW_TAG_base_type
    2249                      .dwattr $C$DW$T$17, DW_AT_encoding(DW_ATE_float)
    2250                      .dwattr $C$DW$T$17, DW_AT_name("double")
    2251                      .dwattr $C$DW$T$17, DW_AT_byte_size(0x02)
    2252              $C$DW$T$18      .dwtag  DW_TAG_base_type
    2253                      .dwattr $C$DW$T$18, DW_AT_encoding(DW_ATE_float)
    2254                      .dwattr $C$DW$T$18, DW_AT_name("long double")
    2255                      .dwattr $C$DW$T$18, DW_AT_byte_size(0x02)
    2256              $C$DW$T$74      .dwtag  DW_TAG_base_type
    2257                      .dwattr $C$DW$T$74, DW_AT_encoding(DW_ATE_signed_char)
    2258                      .dwattr $C$DW$T$74, DW_AT_name("signed char")
    2259                      .dwattr $C$DW$T$74, DW_AT_byte_size(0x01)
    2260              $C$DW$T$75      .dwtag  DW_TAG_pointer_type
    2261                      .dwattr $C$DW$T$75, DW_AT_type(*$C$DW$T$74)
    2262                      .dwattr $C$DW$T$75, DW_AT_address_class(0x17)
    2263              $C$DW$T$78      .dwtag  DW_TAG_pointer_type
    2264                      .dwattr $C$DW$T$78, DW_AT_type(*$C$DW$T$75)
    2265                      .dwattr $C$DW$T$78, DW_AT_address_class(0x17)
    2266              
    2267              $C$DW$T$50      .dwtag  DW_TAG_structure_type
    2268                      .dwattr $C$DW$T$50, DW_AT_name("ele")
    2269                      .dwattr $C$DW$T$50, DW_AT_byte_size(0x03)
    2270              $C$DW$303       .dwtag  DW_TAG_member
    2271                      .dwattr $C$DW$303, DW_AT_type(*$C$DW$T$9)
    2272                      .dwattr $C$DW$303, DW_AT_name("sym")
    2273                      .dwattr $C$DW$303, DW_AT_TI_symbol_name("_sym")
    2274                      .dwattr $C$DW$303, DW_AT_data_member_location[DW_OP_plus_uconst 0x0]
    2275                      .dwattr $C$DW$303, DW_AT_accessibility(DW_ACCESS_public)
    2276              $C$DW$304       .dwtag  DW_TAG_member
    2277                      .dwattr $C$DW$304, DW_AT_type(*$C$DW$T$9)
    2278                      .dwattr $C$DW$304, DW_AT_name("idx_flag")
    2279                      .dwattr $C$DW$304, DW_AT_TI_symbol_name("_idx_flag")
    2280                      .dwattr $C$DW$304, DW_AT_data_member_location[DW_OP_plus_uconst 0x1]
    2281                      .dwattr $C$DW$304, DW_AT_accessibility(DW_ACCESS_public)
    2282              $C$DW$305       .dwtag  DW_TAG_member
    2283                      .dwattr $C$DW$305, DW_AT_type(*$C$DW$T$9)
    2284                      .dwattr $C$DW$305, DW_AT_name("next")
    2285                      .dwattr $C$DW$305, DW_AT_TI_symbol_name("_next")
    2286                      .dwattr $C$DW$305, DW_AT_data_member_location[DW_OP_plus_uconst 0x2]
    2287                      .dwattr $C$DW$305, DW_AT_accessibility(DW_ACCESS_public)
    2288                      .dwendtag $C$DW$T$50
    2289              
    2290              $C$DW$T$70      .dwtag  DW_TAG_typedef, DW_AT_name("BeamType")
    2291                      .dwattr $C$DW$T$70, DW_AT_type(*$C$DW$T$50)
    2292                      .dwattr $C$DW$T$70, DW_AT_language(DW_LANG_C)
    2293              $C$DW$T$71      .dwtag  DW_TAG_pointer_type
    2294                      .dwattr $C$DW$T$71, DW_AT_type(*$C$DW$T$70)
    2295                      .dwattr $C$DW$T$71, DW_AT_address_class(0x17)
    2296              
    2297              $C$DW$T$91      .dwtag  DW_TAG_structure_type
    2298                      .dwattr $C$DW$T$91, DW_AT_name("gmhmm_type")
    2299                      .dwattr $C$DW$T$91, DW_AT_byte_size(0x7fe)
    2300              $C$DW$306       .dwtag  DW_TAG_member
    2301                      .dwattr $C$DW$306, DW_AT_type(*$C$DW$T$21)
TMS320C55x Assembler PC v4.4.1 Wed Sep 13 16:33:27 2017

Tools Copyright (c) 1996-2012 Texas Instruments Incorporated
C:\Users\a0221074\AppData\Local\Temp\1502810                         PAGE   50

    2302                      .dwattr $C$DW$306, DW_AT_name("avedepth")
    2303                      .dwattr $C$DW$306, DW_AT_TI_symbol_name("_avedepth")
    2304                      .dwattr $C$DW$306, DW_AT_data_member_location[DW_OP_plus_uconst 0x0]
    2305                      .dwattr $C$DW$306, DW_AT_accessibility(DW_ACCESS_public)
    2306              $C$DW$307       .dwtag  DW_TAG_member
    2307                      .dwattr $C$DW$307, DW_AT_type(*$C$DW$T$21)
    2308                      .dwattr $C$DW$307, DW_AT_name("bestdepth")
    2309                      .dwattr $C$DW$307, DW_AT_TI_symbol_name("_bestdepth")
    2310                      .dwattr $C$DW$307, DW_AT_data_member_location[DW_OP_plus_uconst 0x1]
    2311                      .dwattr $C$DW$307, DW_AT_accessibility(DW_ACCESS_public)
    2312              $C$DW$308       .dwtag  DW_TAG_member
    2313                      .dwattr $C$DW$308, DW_AT_type(*$C$DW$T$21)
    2314                      .dwattr $C$DW$308, DW_AT_name("index_mean")
    2315                      .dwattr $C$DW$308, DW_AT_TI_symbol_name("_index_mean")
    2316                      .dwattr $C$DW$308, DW_AT_data_member_location[DW_OP_plus_uconst 0x2]
    2317                      .dwattr $C$DW$308, DW_AT_accessibility(DW_ACCESS_public)
    2318              $C$DW$309       .dwtag  DW_TAG_member
    2319                      .dwattr $C$DW$309, DW_AT_type(*$C$DW$T$21)
    2320                      .dwattr $C$DW$309, DW_AT_name("signal_cnt")
    2321                      .dwattr $C$DW$309, DW_AT_TI_symbol_name("_signal_cnt")
    2322                      .dwattr $C$DW$309, DW_AT_data_member_location[DW_OP_plus_uconst 0x3]
    2323                      .dwattr $C$DW$309, DW_AT_accessibility(DW_ACCESS_public)
    2324              $C$DW$310       .dwtag  DW_TAG_member
    2325                      .dwattr $C$DW$310, DW_AT_type(*$C$DW$T$8)
    2326                      .dwattr $C$DW$310, DW_AT_name("buf_idx")
    2327                      .dwattr $C$DW$310, DW_AT_TI_symbol_name("_buf_idx")
    2328                      .dwattr $C$DW$310, DW_AT_data_member_location[DW_OP_plus_uconst 0x4]
    2329                      .dwattr $C$DW$310, DW_AT_accessibility(DW_ACCESS_public)
    2330              $C$DW$311       .dwtag  DW_TAG_member
    2331                      .dwattr $C$DW$311, DW_AT_type(*$C$DW$T$21)
    2332                      .dwattr $C$DW$311, DW_AT_name("speech_detected")
    2333                      .dwattr $C$DW$311, DW_AT_TI_symbol_name("_speech_detected")
    2334                      .dwattr $C$DW$311, DW_AT_data_member_location[DW_OP_plus_uconst 0x5]
    2335                      .dwattr $C$DW$311, DW_AT_accessibility(DW_ACCESS_public)
    2336              $C$DW$312       .dwtag  DW_TAG_member
    2337                      .dwattr $C$DW$312, DW_AT_type(*$C$DW$T$21)
    2338                      .dwattr $C$DW$312, DW_AT_name("mfcc_cnt")
    2339                      .dwattr $C$DW$312, DW_AT_TI_symbol_name("_mfcc_cnt")
    2340                      .dwattr $C$DW$312, DW_AT_data_member_location[DW_OP_plus_uconst 0x6]
    2341                      .dwattr $C$DW$312, DW_AT_accessibility(DW_ACCESS_public)
    2342              $C$DW$313       .dwtag  DW_TAG_member
    2343                      .dwattr $C$DW$313, DW_AT_type(*$C$DW$T$21)
    2344                      .dwattr $C$DW$313, DW_AT_name("nbr_cpy")
    2345                      .dwattr $C$DW$313, DW_AT_TI_symbol_name("_nbr_cpy")
    2346                      .dwattr $C$DW$313, DW_AT_data_member_location[DW_OP_plus_uconst 0x7]
    2347                      .dwattr $C$DW$313, DW_AT_accessibility(DW_ACCESS_public)
    2348              $C$DW$314       .dwtag  DW_TAG_member
    2349                      .dwattr $C$DW$314, DW_AT_type(*$C$DW$T$8)
    2350                      .dwattr $C$DW$314, DW_AT_name("last_sig")
    2351                      .dwattr $C$DW$314, DW_AT_TI_symbol_name("_last_sig")
    2352                      .dwattr $C$DW$314, DW_AT_data_member_location[DW_OP_plus_uconst 0x8]
    2353                      .dwattr $C$DW$314, DW_AT_accessibility(DW_ACCESS_public)
    2354              $C$DW$315       .dwtag  DW_TAG_member
    2355                      .dwattr $C$DW$315, DW_AT_type(*$C$DW$T$51)
    2356                      .dwattr $C$DW$315, DW_AT_name("sample_signal")
TMS320C55x Assembler PC v4.4.1 Wed Sep 13 16:33:27 2017

Tools Copyright (c) 1996-2012 Texas Instruments Incorporated
C:\Users\a0221074\AppData\Local\Temp\1502810                         PAGE   51

    2357                      .dwattr $C$DW$315, DW_AT_TI_symbol_name("_sample_signal")
    2358                      .dwattr $C$DW$315, DW_AT_data_member_location[DW_OP_plus_uconst 0x9]
    2359                      .dwattr $C$DW$315, DW_AT_accessibility(DW_ACCESS_public)
    2360              $C$DW$316       .dwtag  DW_TAG_member
    2361                      .dwattr $C$DW$316, DW_AT_type(*$C$DW$T$8)
    2362                      .dwattr $C$DW$316, DW_AT_name("amplitude_max")
    2363                      .dwattr $C$DW$316, DW_AT_TI_symbol_name("_amplitude_max")
    2364                      .dwattr $C$DW$316, DW_AT_data_member_location[DW_OP_plus_uconst 0x109]
    2365                      .dwattr $C$DW$316, DW_AT_accessibility(DW_ACCESS_public)
    2366              $C$DW$317       .dwtag  DW_TAG_member
    2367                      .dwattr $C$DW$317, DW_AT_type(*$C$DW$T$8)
    2368                      .dwattr $C$DW$317, DW_AT_name("amplitude_min")
    2369                      .dwattr $C$DW$317, DW_AT_TI_symbol_name("_amplitude_min")
    2370                      .dwattr $C$DW$317, DW_AT_data_member_location[DW_OP_plus_uconst 0x10a]
    2371                      .dwattr $C$DW$317, DW_AT_accessibility(DW_ACCESS_public)
    2372              $C$DW$318       .dwtag  DW_TAG_member
    2373                      .dwattr $C$DW$318, DW_AT_type(*$C$DW$T$8)
    2374                      .dwattr $C$DW$318, DW_AT_name("pred_first_frame")
    2375                      .dwattr $C$DW$318, DW_AT_TI_symbol_name("_pred_first_frame")
    2376                      .dwattr $C$DW$318, DW_AT_data_member_location[DW_OP_plus_uconst 0x10b]
    2377                      .dwattr $C$DW$318, DW_AT_accessibility(DW_ACCESS_public)
    2378              $C$DW$319       .dwtag  DW_TAG_member
    2379                      .dwattr $C$DW$319, DW_AT_type(*$C$DW$T$8)
    2380                      .dwattr $C$DW$319, DW_AT_name("frm_cnt")
    2381                      .dwattr $C$DW$319, DW_AT_TI_symbol_name("_frm_cnt")
    2382                      .dwattr $C$DW$319, DW_AT_data_member_location[DW_OP_plus_uconst 0x10c]
    2383                      .dwattr $C$DW$319, DW_AT_accessibility(DW_ACCESS_public)
    2384              $C$DW$320       .dwtag  DW_TAG_member
    2385                      .dwattr $C$DW$320, DW_AT_type(*$C$DW$T$8)
    2386                      .dwattr $C$DW$320, DW_AT_name("beam_count")
    2387                      .dwattr $C$DW$320, DW_AT_TI_symbol_name("_beam_count")
    2388                      .dwattr $C$DW$320, DW_AT_data_member_location[DW_OP_plus_uconst 0x10d]
    2389                      .dwattr $C$DW$320, DW_AT_accessibility(DW_ACCESS_public)
    2390              $C$DW$321       .dwtag  DW_TAG_member
    2391                      .dwattr $C$DW$321, DW_AT_type(*$C$DW$T$8)
    2392                      .dwattr $C$DW$321, DW_AT_name("active_beam_cells")
    2393                      .dwattr $C$DW$321, DW_AT_TI_symbol_name("_active_beam_cells")
    2394                      .dwattr $C$DW$321, DW_AT_data_member_location[DW_OP_plus_uconst 0x10e]
    2395                      .dwattr $C$DW$321, DW_AT_accessibility(DW_ACCESS_public)
    2396              $C$DW$322       .dwtag  DW_TAG_member
    2397                      .dwattr $C$DW$322, DW_AT_type(*$C$DW$T$8)
    2398                      .dwattr $C$DW$322, DW_AT_name("active_time_cells")
    2399                      .dwattr $C$DW$322, DW_AT_TI_symbol_name("_active_time_cells")
    2400                      .dwattr $C$DW$322, DW_AT_data_member_location[DW_OP_plus_uconst 0x10f]
    2401                      .dwattr $C$DW$322, DW_AT_accessibility(DW_ACCESS_public)
    2402              $C$DW$323       .dwtag  DW_TAG_member
    2403                      .dwattr $C$DW$323, DW_AT_type(*$C$DW$T$9)
    2404                      .dwattr $C$DW$323, DW_AT_name("ending_sym_count")
    2405                      .dwattr $C$DW$323, DW_AT_TI_symbol_name("_ending_sym_count")
    2406                      .dwattr $C$DW$323, DW_AT_data_member_location[DW_OP_plus_uconst 0x110]
    2407                      .dwattr $C$DW$323, DW_AT_accessibility(DW_ACCESS_public)
    2408              $C$DW$324       .dwtag  DW_TAG_member
    2409                      .dwattr $C$DW$324, DW_AT_type(*$C$DW$T$8)
    2410                      .dwattr $C$DW$324, DW_AT_name("comp_type")
    2411                      .dwattr $C$DW$324, DW_AT_TI_symbol_name("_comp_type")
TMS320C55x Assembler PC v4.4.1 Wed Sep 13 16:33:27 2017

Tools Copyright (c) 1996-2012 Texas Instruments Incorporated
C:\Users\a0221074\AppData\Local\Temp\1502810                         PAGE   52

    2412                      .dwattr $C$DW$324, DW_AT_data_member_location[DW_OP_plus_uconst 0x111]
    2413                      .dwattr $C$DW$324, DW_AT_accessibility(DW_ACCESS_public)
    2414              $C$DW$325       .dwtag  DW_TAG_member
    2415                      .dwattr $C$DW$325, DW_AT_type(*$C$DW$T$9)
    2416                      .dwattr $C$DW$325, DW_AT_name("low_vol_limit")
    2417                      .dwattr $C$DW$325, DW_AT_TI_symbol_name("_low_vol_limit")
    2418                      .dwattr $C$DW$325, DW_AT_data_member_location[DW_OP_plus_uconst 0x112]
    2419                      .dwattr $C$DW$325, DW_AT_accessibility(DW_ACCESS_public)
    2420              $C$DW$326       .dwtag  DW_TAG_member
    2421                      .dwattr $C$DW$326, DW_AT_type(*$C$DW$T$9)
    2422                      .dwattr $C$DW$326, DW_AT_name("high_vol_limit")
    2423                      .dwattr $C$DW$326, DW_AT_TI_symbol_name("_high_vol_limit")
    2424                      .dwattr $C$DW$326, DW_AT_data_member_location[DW_OP_plus_uconst 0x113]
    2425                      .dwattr $C$DW$326, DW_AT_accessibility(DW_ACCESS_public)
    2426              $C$DW$327       .dwtag  DW_TAG_member
    2427                      .dwattr $C$DW$327, DW_AT_type(*$C$DW$T$8)
    2428                      .dwattr $C$DW$327, DW_AT_name("vol")
    2429                      .dwattr $C$DW$327, DW_AT_TI_symbol_name("_vol")
    2430                      .dwattr $C$DW$327, DW_AT_data_member_location[DW_OP_plus_uconst 0x114]
    2431                      .dwattr $C$DW$327, DW_AT_accessibility(DW_ACCESS_public)
    2432              $C$DW$328       .dwtag  DW_TAG_member
    2433                      .dwattr $C$DW$328, DW_AT_type(*$C$DW$T$21)
    2434                      .dwattr $C$DW$328, DW_AT_name("n_mfcc")
    2435                      .dwattr $C$DW$328, DW_AT_TI_symbol_name("_n_mfcc")
    2436                      .dwattr $C$DW$328, DW_AT_data_member_location[DW_OP_plus_uconst 0x115]
    2437                      .dwattr $C$DW$328, DW_AT_accessibility(DW_ACCESS_public)
    2438              $C$DW$329       .dwtag  DW_TAG_member
    2439                      .dwattr $C$DW$329, DW_AT_type(*$C$DW$T$8)
    2440                      .dwattr $C$DW$329, DW_AT_name("nbr_dim")
    2441                      .dwattr $C$DW$329, DW_AT_TI_symbol_name("_nbr_dim")
    2442                      .dwattr $C$DW$329, DW_AT_data_member_location[DW_OP_plus_uconst 0x116]
    2443                      .dwattr $C$DW$329, DW_AT_accessibility(DW_ACCESS_public)
    2444              $C$DW$330       .dwtag  DW_TAG_member
    2445                      .dwattr $C$DW$330, DW_AT_type(*$C$DW$T$21)
    2446                      .dwattr $C$DW$330, DW_AT_name("n_filter")
    2447                      .dwattr $C$DW$330, DW_AT_TI_symbol_name("_n_filter")
    2448                      .dwattr $C$DW$330, DW_AT_data_member_location[DW_OP_plus_uconst 0x117]
    2449                      .dwattr $C$DW$330, DW_AT_accessibility(DW_ACCESS_public)
    2450              $C$DW$331       .dwtag  DW_TAG_member
    2451                      .dwattr $C$DW$331, DW_AT_type(*$C$DW$T$53)
    2452                      .dwattr $C$DW$331, DW_AT_name("mfcc_buf")
    2453                      .dwattr $C$DW$331, DW_AT_TI_symbol_name("_mfcc_buf")
    2454                      .dwattr $C$DW$331, DW_AT_data_member_location[DW_OP_plus_uconst 0x118]
    2455                      .dwattr $C$DW$331, DW_AT_accessibility(DW_ACCESS_public)
    2456              $C$DW$332       .dwtag  DW_TAG_member
    2457                      .dwattr $C$DW$332, DW_AT_type(*$C$DW$T$52)
    2458                      .dwattr $C$DW$332, DW_AT_name("mfcc_mean")
    2459                      .dwattr $C$DW$332, DW_AT_TI_symbol_name("_mfcc_mean")
    2460                      .dwattr $C$DW$332, DW_AT_data_member_location[DW_OP_plus_uconst 0x1f8]
    2461                      .dwattr $C$DW$332, DW_AT_accessibility(DW_ACCESS_public)
    2462              $C$DW$333       .dwtag  DW_TAG_member
    2463                      .dwattr $C$DW$333, DW_AT_type(*$C$DW$T$56)
    2464                      .dwattr $C$DW$333, DW_AT_name("cosxfm")
    2465                      .dwattr $C$DW$333, DW_AT_TI_symbol_name("_cosxfm")
    2466                      .dwattr $C$DW$333, DW_AT_data_member_location[DW_OP_plus_uconst 0x208]
TMS320C55x Assembler PC v4.4.1 Wed Sep 13 16:33:27 2017

Tools Copyright (c) 1996-2012 Texas Instruments Incorporated
C:\Users\a0221074\AppData\Local\Temp\1502810                         PAGE   53

    2467                      .dwattr $C$DW$333, DW_AT_accessibility(DW_ACCESS_public)
    2468              $C$DW$334       .dwtag  DW_TAG_member
    2469                      .dwattr $C$DW$334, DW_AT_type(*$C$DW$T$59)
    2470                      .dwattr $C$DW$334, DW_AT_name("mel_filter")
    2471                      .dwattr $C$DW$334, DW_AT_TI_symbol_name("_mel_filter")
    2472                      .dwattr $C$DW$334, DW_AT_data_member_location[DW_OP_plus_uconst 0x228]
    2473                      .dwattr $C$DW$334, DW_AT_accessibility(DW_ACCESS_public)
    2474              $C$DW$335       .dwtag  DW_TAG_member
    2475                      .dwattr $C$DW$335, DW_AT_type(*$C$DW$T$8)
    2476                      .dwattr $C$DW$335, DW_AT_name("th_noise_flr")
    2477                      .dwattr $C$DW$335, DW_AT_TI_symbol_name("_th_noise_flr")
    2478                      .dwattr $C$DW$335, DW_AT_data_member_location[DW_OP_plus_uconst 0x22a]
    2479                      .dwattr $C$DW$335, DW_AT_accessibility(DW_ACCESS_public)
    2480              $C$DW$336       .dwtag  DW_TAG_member
    2481                      .dwattr $C$DW$336, DW_AT_type(*$C$DW$T$8)
    2482                      .dwattr $C$DW$336, DW_AT_name("th_speech_delta")
    2483                      .dwattr $C$DW$336, DW_AT_TI_symbol_name("_th_speech_delta")
    2484                      .dwattr $C$DW$336, DW_AT_data_member_location[DW_OP_plus_uconst 0x22b]
    2485                      .dwattr $C$DW$336, DW_AT_accessibility(DW_ACCESS_public)
    2486              $C$DW$337       .dwtag  DW_TAG_member
    2487                      .dwattr $C$DW$337, DW_AT_type(*$C$DW$T$8)
    2488                      .dwattr $C$DW$337, DW_AT_name("th_min_speech_db")
    2489                      .dwattr $C$DW$337, DW_AT_TI_symbol_name("_th_min_speech_db")
    2490                      .dwattr $C$DW$337, DW_AT_data_member_location[DW_OP_plus_uconst 0x22c]
    2491                      .dwattr $C$DW$337, DW_AT_accessibility(DW_ACCESS_public)
    2492              $C$DW$338       .dwtag  DW_TAG_member
    2493                      .dwattr $C$DW$338, DW_AT_type(*$C$DW$T$8)
    2494                      .dwattr $C$DW$338, DW_AT_name("th_min_beg_frm")
    2495                      .dwattr $C$DW$338, DW_AT_TI_symbol_name("_th_min_beg_frm")
    2496                      .dwattr $C$DW$338, DW_AT_data_member_location[DW_OP_plus_uconst 0x22d]
    2497                      .dwattr $C$DW$338, DW_AT_accessibility(DW_ACCESS_public)
    2498              $C$DW$339       .dwtag  DW_TAG_member
    2499                      .dwattr $C$DW$339, DW_AT_type(*$C$DW$T$8)
    2500                      .dwattr $C$DW$339, DW_AT_name("th_min_end_frm")
    2501                      .dwattr $C$DW$339, DW_AT_TI_symbol_name("_th_min_end_frm")
    2502                      .dwattr $C$DW$339, DW_AT_data_member_location[DW_OP_plus_uconst 0x22e]
    2503                      .dwattr $C$DW$339, DW_AT_accessibility(DW_ACCESS_public)
    2504              $C$DW$340       .dwtag  DW_TAG_member
    2505                      .dwattr $C$DW$340, DW_AT_type(*$C$DW$T$8)
    2506                      .dwattr $C$DW$340, DW_AT_name("uttdet_cnt")
    2507                      .dwattr $C$DW$340, DW_AT_TI_symbol_name("_uttdet_cnt")
    2508                      .dwattr $C$DW$340, DW_AT_data_member_location[DW_OP_plus_uconst 0x22f]
    2509                      .dwattr $C$DW$340, DW_AT_accessibility(DW_ACCESS_public)
    2510              $C$DW$341       .dwtag  DW_TAG_member
    2511                      .dwattr $C$DW$341, DW_AT_type(*$C$DW$T$8)
    2512                      .dwattr $C$DW$341, DW_AT_name("noise_smooth")
    2513                      .dwattr $C$DW$341, DW_AT_TI_symbol_name("_noise_smooth")
    2514                      .dwattr $C$DW$341, DW_AT_data_member_location[DW_OP_plus_uconst 0x230]
    2515                      .dwattr $C$DW$341, DW_AT_accessibility(DW_ACCESS_public)
    2516              $C$DW$342       .dwtag  DW_TAG_member
    2517                      .dwattr $C$DW$342, DW_AT_type(*$C$DW$T$60)
    2518                      .dwattr $C$DW$342, DW_AT_name("ps_noisy_smoothed")
    2519                      .dwattr $C$DW$342, DW_AT_TI_symbol_name("_ps_noisy_smoothed")
    2520                      .dwattr $C$DW$342, DW_AT_data_member_location[DW_OP_plus_uconst 0x231]
    2521                      .dwattr $C$DW$342, DW_AT_accessibility(DW_ACCESS_public)
TMS320C55x Assembler PC v4.4.1 Wed Sep 13 16:33:27 2017

Tools Copyright (c) 1996-2012 Texas Instruments Incorporated
C:\Users\a0221074\AppData\Local\Temp\1502810                         PAGE   54

    2522              $C$DW$343       .dwtag  DW_TAG_member
    2523                      .dwattr $C$DW$343, DW_AT_type(*$C$DW$T$60)
    2524                      .dwattr $C$DW$343, DW_AT_name("noise_floor")
    2525                      .dwattr $C$DW$343, DW_AT_TI_symbol_name("_noise_floor")
    2526                      .dwattr $C$DW$343, DW_AT_data_member_location[DW_OP_plus_uconst 0x2b1]
    2527                      .dwattr $C$DW$343, DW_AT_accessibility(DW_ACCESS_public)
    2528              $C$DW$344       .dwtag  DW_TAG_member
    2529                      .dwattr $C$DW$344, DW_AT_type(*$C$DW$T$8)
    2530                      .dwattr $C$DW$344, DW_AT_name("sm_autoc")
    2531                      .dwattr $C$DW$344, DW_AT_TI_symbol_name("_sm_autoc")
    2532                      .dwattr $C$DW$344, DW_AT_data_member_location[DW_OP_plus_uconst 0x331]
    2533                      .dwattr $C$DW$344, DW_AT_accessibility(DW_ACCESS_public)
    2534              $C$DW$345       .dwtag  DW_TAG_member
    2535                      .dwattr $C$DW$345, DW_AT_type(*$C$DW$T$8)
    2536                      .dwattr $C$DW$345, DW_AT_name("speech_level")
    2537                      .dwattr $C$DW$345, DW_AT_TI_symbol_name("_speech_level")
    2538                      .dwattr $C$DW$345, DW_AT_data_member_location[DW_OP_plus_uconst 0x332]
    2539                      .dwattr $C$DW$345, DW_AT_accessibility(DW_ACCESS_public)
    2540              $C$DW$346       .dwtag  DW_TAG_member
    2541                      .dwattr $C$DW$346, DW_AT_type(*$C$DW$T$8)
    2542                      .dwattr $C$DW$346, DW_AT_name("noise_level")
    2543                      .dwattr $C$DW$346, DW_AT_TI_symbol_name("_noise_level")
    2544                      .dwattr $C$DW$346, DW_AT_data_member_location[DW_OP_plus_uconst 0x333]
    2545                      .dwattr $C$DW$346, DW_AT_accessibility(DW_ACCESS_public)
    2546              $C$DW$347       .dwtag  DW_TAG_member
    2547                      .dwattr $C$DW$347, DW_AT_type(*$C$DW$T$8)
    2548                      .dwattr $C$DW$347, DW_AT_name("uttdet_isspeech")
    2549                      .dwattr $C$DW$347, DW_AT_TI_symbol_name("_uttdet_isspeech")
    2550                      .dwattr $C$DW$347, DW_AT_data_member_location[DW_OP_plus_uconst 0x334]
    2551                      .dwattr $C$DW$347, DW_AT_accessibility(DW_ACCESS_public)
    2552              $C$DW$348       .dwtag  DW_TAG_member
    2553                      .dwattr $C$DW$348, DW_AT_type(*$C$DW$T$12)
    2554                      .dwattr $C$DW$348, DW_AT_name("delta_sum_accum")
    2555                      .dwattr $C$DW$348, DW_AT_TI_symbol_name("_delta_sum_accum")
    2556                      .dwattr $C$DW$348, DW_AT_data_member_location[DW_OP_plus_uconst 0x336]
    2557                      .dwattr $C$DW$348, DW_AT_accessibility(DW_ACCESS_public)
    2558              $C$DW$349       .dwtag  DW_TAG_member
    2559                      .dwattr $C$DW$349, DW_AT_type(*$C$DW$T$8)
    2560                      .dwattr $C$DW$349, DW_AT_name("uttdet_state")
    2561                      .dwattr $C$DW$349, DW_AT_TI_symbol_name("_uttdet_state")
    2562                      .dwattr $C$DW$349, DW_AT_data_member_location[DW_OP_plus_uconst 0x338]
    2563                      .dwattr $C$DW$349, DW_AT_accessibility(DW_ACCESS_public)
    2564              $C$DW$350       .dwtag  DW_TAG_member
    2565                      .dwattr $C$DW$350, DW_AT_type(*$C$DW$T$8)
    2566                      .dwattr $C$DW$350, DW_AT_name("uttdet_beg_frm")
    2567                      .dwattr $C$DW$350, DW_AT_TI_symbol_name("_uttdet_beg_frm")
    2568                      .dwattr $C$DW$350, DW_AT_data_member_location[DW_OP_plus_uconst 0x339]
    2569                      .dwattr $C$DW$350, DW_AT_accessibility(DW_ACCESS_public)
    2570              $C$DW$351       .dwtag  DW_TAG_member
    2571                      .dwattr $C$DW$351, DW_AT_type(*$C$DW$T$8)
    2572                      .dwattr $C$DW$351, DW_AT_name("uttdet_end_frm")
    2573                      .dwattr $C$DW$351, DW_AT_TI_symbol_name("_uttdet_end_frm")
    2574                      .dwattr $C$DW$351, DW_AT_data_member_location[DW_OP_plus_uconst 0x33a]
    2575                      .dwattr $C$DW$351, DW_AT_accessibility(DW_ACCESS_public)
    2576              $C$DW$352       .dwtag  DW_TAG_member
TMS320C55x Assembler PC v4.4.1 Wed Sep 13 16:33:27 2017

Tools Copyright (c) 1996-2012 Texas Instruments Incorporated
C:\Users\a0221074\AppData\Local\Temp\1502810                         PAGE   55

    2577                      .dwattr $C$DW$352, DW_AT_type(*$C$DW$T$8)
    2578                      .dwattr $C$DW$352, DW_AT_name("sr_is_end_of_grammar")
    2579                      .dwattr $C$DW$352, DW_AT_TI_symbol_name("_sr_is_end_of_grammar")
    2580                      .dwattr $C$DW$352, DW_AT_data_member_location[DW_OP_plus_uconst 0x33b]
    2581                      .dwattr $C$DW$352, DW_AT_accessibility(DW_ACCESS_public)
    2582              $C$DW$353       .dwtag  DW_TAG_member
    2583                      .dwattr $C$DW$353, DW_AT_type(*$C$DW$T$8)
    2584                      .dwattr $C$DW$353, DW_AT_name("sr_MAX_END_SYM")
    2585                      .dwattr $C$DW$353, DW_AT_TI_symbol_name("_sr_MAX_END_SYM")
    2586                      .dwattr $C$DW$353, DW_AT_data_member_location[DW_OP_plus_uconst 0x33c]
    2587                      .dwattr $C$DW$353, DW_AT_accessibility(DW_ACCESS_public)
    2588              $C$DW$354       .dwtag  DW_TAG_member
    2589                      .dwattr $C$DW$354, DW_AT_type(*$C$DW$T$8)
    2590                      .dwattr $C$DW$354, DW_AT_name("sr_MIN_END_SYM")
    2591                      .dwattr $C$DW$354, DW_AT_TI_symbol_name("_sr_MIN_END_SYM")
    2592                      .dwattr $C$DW$354, DW_AT_data_member_location[DW_OP_plus_uconst 0x33d]
    2593                      .dwattr $C$DW$354, DW_AT_accessibility(DW_ACCESS_public)
    2594              $C$DW$355       .dwtag  DW_TAG_member
    2595                      .dwattr $C$DW$355, DW_AT_type(*$C$DW$T$8)
    2596                      .dwattr $C$DW$355, DW_AT_name("gbg_end_of_speech")
    2597                      .dwattr $C$DW$355, DW_AT_TI_symbol_name("_gbg_end_of_speech")
    2598                      .dwattr $C$DW$355, DW_AT_data_member_location[DW_OP_plus_uconst 0x33e]
    2599                      .dwattr $C$DW$355, DW_AT_accessibility(DW_ACCESS_public)
    2600              $C$DW$356       .dwtag  DW_TAG_member
    2601                      .dwattr $C$DW$356, DW_AT_type(*$C$DW$T$8)
    2602                      .dwattr $C$DW$356, DW_AT_name("jac_vec_per_frame")
    2603                      .dwattr $C$DW$356, DW_AT_TI_symbol_name("_jac_vec_per_frame")
    2604                      .dwattr $C$DW$356, DW_AT_data_member_location[DW_OP_plus_uconst 0x33f]
    2605                      .dwattr $C$DW$356, DW_AT_accessibility(DW_ACCESS_public)
    2606              $C$DW$357       .dwtag  DW_TAG_member
    2607                      .dwattr $C$DW$357, DW_AT_type(*$C$DW$T$8)
    2608                      .dwattr $C$DW$357, DW_AT_name("jac_component_likelihood")
    2609                      .dwattr $C$DW$357, DW_AT_TI_symbol_name("_jac_component_likelihood")
    2610                      .dwattr $C$DW$357, DW_AT_data_member_location[DW_OP_plus_uconst 0x340]
    2611                      .dwattr $C$DW$357, DW_AT_accessibility(DW_ACCESS_public)
    2612              $C$DW$358       .dwtag  DW_TAG_member
    2613                      .dwattr $C$DW$358, DW_AT_type(*$C$DW$T$8)
    2614                      .dwattr $C$DW$358, DW_AT_name("jac_max_segment_size")
    2615                      .dwattr $C$DW$358, DW_AT_TI_symbol_name("_jac_max_segment_size")
    2616                      .dwattr $C$DW$358, DW_AT_data_member_location[DW_OP_plus_uconst 0x341]
    2617                      .dwattr $C$DW$358, DW_AT_accessibility(DW_ACCESS_public)
    2618              $C$DW$359       .dwtag  DW_TAG_member
    2619                      .dwattr $C$DW$359, DW_AT_type(*$C$DW$T$8)
    2620                      .dwattr $C$DW$359, DW_AT_name("jac_smooth_coef")
    2621                      .dwattr $C$DW$359, DW_AT_TI_symbol_name("_jac_smooth_coef")
    2622                      .dwattr $C$DW$359, DW_AT_data_member_location[DW_OP_plus_uconst 0x342]
    2623                      .dwattr $C$DW$359, DW_AT_accessibility(DW_ACCESS_public)
    2624              $C$DW$360       .dwtag  DW_TAG_member
    2625                      .dwattr $C$DW$360, DW_AT_type(*$C$DW$T$8)
    2626                      .dwattr $C$DW$360, DW_AT_name("jac_discount_factor")
    2627                      .dwattr $C$DW$360, DW_AT_TI_symbol_name("_jac_discount_factor")
    2628                      .dwattr $C$DW$360, DW_AT_data_member_location[DW_OP_plus_uconst 0x343]
    2629                      .dwattr $C$DW$360, DW_AT_accessibility(DW_ACCESS_public)
    2630              $C$DW$361       .dwtag  DW_TAG_member
    2631                      .dwattr $C$DW$361, DW_AT_type(*$C$DW$T$8)
TMS320C55x Assembler PC v4.4.1 Wed Sep 13 16:33:27 2017

Tools Copyright (c) 1996-2012 Texas Instruments Incorporated
C:\Users\a0221074\AppData\Local\Temp\1502810                         PAGE   56

    2632                      .dwattr $C$DW$361, DW_AT_name("jac_deweight_factor")
    2633                      .dwattr $C$DW$361, DW_AT_TI_symbol_name("_jac_deweight_factor")
    2634                      .dwattr $C$DW$361, DW_AT_data_member_location[DW_OP_plus_uconst 0x344]
    2635                      .dwattr $C$DW$361, DW_AT_accessibility(DW_ACCESS_public)
    2636              $C$DW$362       .dwtag  DW_TAG_member
    2637                      .dwattr $C$DW$362, DW_AT_type(*$C$DW$T$8)
    2638                      .dwattr $C$DW$362, DW_AT_name("jac_bayesian_weight")
    2639                      .dwattr $C$DW$362, DW_AT_TI_symbol_name("_jac_bayesian_weight")
    2640                      .dwattr $C$DW$362, DW_AT_data_member_location[DW_OP_plus_uconst 0x345]
    2641                      .dwattr $C$DW$362, DW_AT_accessibility(DW_ACCESS_public)
    2642              $C$DW$363       .dwtag  DW_TAG_member
    2643                      .dwattr $C$DW$363, DW_AT_type(*$C$DW$T$8)
    2644                      .dwattr $C$DW$363, DW_AT_name("sva_var_forget_factor")
    2645                      .dwattr $C$DW$363, DW_AT_TI_symbol_name("_sva_var_forget_factor")
    2646                      .dwattr $C$DW$363, DW_AT_data_member_location[DW_OP_plus_uconst 0x346]
    2647                      .dwattr $C$DW$363, DW_AT_accessibility(DW_ACCESS_public)
    2648              $C$DW$364       .dwtag  DW_TAG_member
    2649                      .dwattr $C$DW$364, DW_AT_type(*$C$DW$T$8)
    2650                      .dwattr $C$DW$364, DW_AT_name("sbc_fgt")
    2651                      .dwattr $C$DW$364, DW_AT_TI_symbol_name("_sbc_fgt")
    2652                      .dwattr $C$DW$364, DW_AT_data_member_location[DW_OP_plus_uconst 0x347]
    2653                      .dwattr $C$DW$364, DW_AT_accessibility(DW_ACCESS_public)
    2654              $C$DW$365       .dwtag  DW_TAG_member
    2655                      .dwattr $C$DW$365, DW_AT_type(*$C$DW$T$61)
    2656                      .dwattr $C$DW$365, DW_AT_name("log_H")
    2657                      .dwattr $C$DW$365, DW_AT_TI_symbol_name("_log_H")
    2658                      .dwattr $C$DW$365, DW_AT_data_member_location[DW_OP_plus_uconst 0x348]
    2659                      .dwattr $C$DW$365, DW_AT_accessibility(DW_ACCESS_public)
    2660              $C$DW$366       .dwtag  DW_TAG_member
    2661                      .dwattr $C$DW$366, DW_AT_type(*$C$DW$T$61)
    2662                      .dwattr $C$DW$366, DW_AT_name("log_N")
    2663                      .dwattr $C$DW$366, DW_AT_TI_symbol_name("_log_N")
    2664                      .dwattr $C$DW$366, DW_AT_data_member_location[DW_OP_plus_uconst 0x362]
    2665                      .dwattr $C$DW$366, DW_AT_accessibility(DW_ACCESS_public)
    2666              $C$DW$367       .dwtag  DW_TAG_member
    2667                      .dwattr $C$DW$367, DW_AT_type(*$C$DW$T$62)
    2668                      .dwattr $C$DW$367, DW_AT_name("accum")
    2669                      .dwattr $C$DW$367, DW_AT_TI_symbol_name("_accum")
    2670                      .dwattr $C$DW$367, DW_AT_data_member_location[DW_OP_plus_uconst 0x37c]
    2671                      .dwattr $C$DW$367, DW_AT_accessibility(DW_ACCESS_public)
    2672              $C$DW$368       .dwtag  DW_TAG_member
    2673                      .dwattr $C$DW$368, DW_AT_type(*$C$DW$T$21)
    2674                      .dwattr $C$DW$368, DW_AT_name("smooth_coef")
    2675                      .dwattr $C$DW$368, DW_AT_TI_symbol_name("_smooth_coef")
    2676                      .dwattr $C$DW$368, DW_AT_data_member_location[DW_OP_plus_uconst 0x44c]
    2677                      .dwattr $C$DW$368, DW_AT_accessibility(DW_ACCESS_public)
    2678              $C$DW$369       .dwtag  DW_TAG_member
    2679                      .dwattr $C$DW$369, DW_AT_type(*$C$DW$T$64)
    2680                      .dwattr $C$DW$369, DW_AT_name("sbcState")
    2681                      .dwattr $C$DW$369, DW_AT_TI_symbol_name("_sbcState")
    2682                      .dwattr $C$DW$369, DW_AT_data_member_location[DW_OP_plus_uconst 0x44e]
    2683                      .dwattr $C$DW$369, DW_AT_accessibility(DW_ACCESS_public)
    2684              $C$DW$370       .dwtag  DW_TAG_member
    2685                      .dwattr $C$DW$370, DW_AT_type(*$C$DW$T$52)
    2686                      .dwattr $C$DW$370, DW_AT_name("mfcc_noise")
TMS320C55x Assembler PC v4.4.1 Wed Sep 13 16:33:27 2017

Tools Copyright (c) 1996-2012 Texas Instruments Incorporated
C:\Users\a0221074\AppData\Local\Temp\1502810                         PAGE   57

    2687                      .dwattr $C$DW$370, DW_AT_TI_symbol_name("_mfcc_noise")
    2688                      .dwattr $C$DW$370, DW_AT_data_member_location[DW_OP_plus_uconst 0x450]
    2689                      .dwattr $C$DW$370, DW_AT_accessibility(DW_ACCESS_public)
    2690              $C$DW$371       .dwtag  DW_TAG_member
    2691                      .dwattr $C$DW$371, DW_AT_type(*$C$DW$T$65)
    2692                      .dwattr $C$DW$371, DW_AT_name("mfcc_noise_init_acc")
    2693                      .dwattr $C$DW$371, DW_AT_TI_symbol_name("_mfcc_noise_init_acc")
    2694                      .dwattr $C$DW$371, DW_AT_data_member_location[DW_OP_plus_uconst 0x460]
    2695                      .dwattr $C$DW$371, DW_AT_accessibility(DW_ACCESS_public)
    2696              $C$DW$372       .dwtag  DW_TAG_member
    2697                      .dwattr $C$DW$372, DW_AT_type(*$C$DW$T$23)
    2698                      .dwattr $C$DW$372, DW_AT_name("hmm_code")
    2699                      .dwattr $C$DW$372, DW_AT_TI_symbol_name("_hmm_code")
    2700                      .dwattr $C$DW$372, DW_AT_data_member_location[DW_OP_plus_uconst 0x480]
    2701                      .dwattr $C$DW$372, DW_AT_accessibility(DW_ACCESS_public)
    2702              $C$DW$373       .dwtag  DW_TAG_member
    2703                      .dwattr $C$DW$373, DW_AT_type(*$C$DW$T$23)
    2704                      .dwattr $C$DW$373, DW_AT_name("stt")
    2705                      .dwattr $C$DW$373, DW_AT_TI_symbol_name("_stt")
    2706                      .dwattr $C$DW$373, DW_AT_data_member_location[DW_OP_plus_uconst 0x482]
    2707                      .dwattr $C$DW$373, DW_AT_accessibility(DW_ACCESS_public)
    2708              $C$DW$374       .dwtag  DW_TAG_member
    2709                      .dwattr $C$DW$374, DW_AT_type(*$C$DW$T$23)
    2710                      .dwattr $C$DW$374, DW_AT_name("stp")
    2711                      .dwattr $C$DW$374, DW_AT_TI_symbol_name("_stp")
    2712                      .dwattr $C$DW$374, DW_AT_data_member_location[DW_OP_plus_uconst 0x484]
    2713                      .dwattr $C$DW$374, DW_AT_accessibility(DW_ACCESS_public)
    2714              $C$DW$375       .dwtag  DW_TAG_member
    2715                      .dwattr $C$DW$375, DW_AT_type(*$C$DW$T$21)
    2716                      .dwattr $C$DW$375, DW_AT_name("nbr_seg")
    2717                      .dwattr $C$DW$375, DW_AT_TI_symbol_name("_nbr_seg")
    2718                      .dwattr $C$DW$375, DW_AT_data_member_location[DW_OP_plus_uconst 0x486]
    2719                      .dwattr $C$DW$375, DW_AT_accessibility(DW_ACCESS_public)
    2720              $C$DW$376       .dwtag  DW_TAG_member
    2721                      .dwattr $C$DW$376, DW_AT_type(*$C$DW$T$21)
    2722                      .dwattr $C$DW$376, DW_AT_name("hmm_dlt")
    2723                      .dwattr $C$DW$376, DW_AT_TI_symbol_name("_hmm_dlt")
    2724                      .dwattr $C$DW$376, DW_AT_data_member_location[DW_OP_plus_uconst 0x487]
    2725                      .dwattr $C$DW$376, DW_AT_accessibility(DW_ACCESS_public)
    2726              $C$DW$377       .dwtag  DW_TAG_member
    2727                      .dwattr $C$DW$377, DW_AT_type(*$C$DW$T$21)
    2728                      .dwattr $C$DW$377, DW_AT_name("max_frame_nbr")
    2729                      .dwattr $C$DW$377, DW_AT_TI_symbol_name("_max_frame_nbr")
    2730                      .dwattr $C$DW$377, DW_AT_data_member_location[DW_OP_plus_uconst 0x488]
    2731                      .dwattr $C$DW$377, DW_AT_accessibility(DW_ACCESS_public)
    2732              $C$DW$378       .dwtag  DW_TAG_member
    2733                      .dwattr $C$DW$378, DW_AT_type(*$C$DW$T$67)
    2734                      .dwattr $C$DW$378, DW_AT_name("symcell_base")
    2735                      .dwattr $C$DW$378, DW_AT_TI_symbol_name("_symcell_base")
    2736                      .dwattr $C$DW$378, DW_AT_data_member_location[DW_OP_plus_uconst 0x48a]
    2737                      .dwattr $C$DW$378, DW_AT_accessibility(DW_ACCESS_public)
    2738              $C$DW$379       .dwtag  DW_TAG_member
    2739                      .dwattr $C$DW$379, DW_AT_type(*$C$DW$T$69)
    2740                      .dwattr $C$DW$379, DW_AT_name("statecell_base")
    2741                      .dwattr $C$DW$379, DW_AT_TI_symbol_name("_statecell_base")
TMS320C55x Assembler PC v4.4.1 Wed Sep 13 16:33:27 2017

Tools Copyright (c) 1996-2012 Texas Instruments Incorporated
C:\Users\a0221074\AppData\Local\Temp\1502810                         PAGE   58

    2742                      .dwattr $C$DW$379, DW_AT_data_member_location[DW_OP_plus_uconst 0x48c]
    2743                      .dwattr $C$DW$379, DW_AT_accessibility(DW_ACCESS_public)
    2744              $C$DW$380       .dwtag  DW_TAG_member
    2745                      .dwattr $C$DW$380, DW_AT_type(*$C$DW$T$71)
    2746                      .dwattr $C$DW$380, DW_AT_name("beam_base")
    2747                      .dwattr $C$DW$380, DW_AT_TI_symbol_name("_beam_base")
    2748                      .dwattr $C$DW$380, DW_AT_data_member_location[DW_OP_plus_uconst 0x48e]
    2749                      .dwattr $C$DW$380, DW_AT_accessibility(DW_ACCESS_public)
    2750              $C$DW$381       .dwtag  DW_TAG_member
    2751                      .dwattr $C$DW$381, DW_AT_type(*$C$DW$T$73)
    2752                      .dwattr $C$DW$381, DW_AT_name("time_base")
    2753                      .dwattr $C$DW$381, DW_AT_TI_symbol_name("_time_base")
    2754                      .dwattr $C$DW$381, DW_AT_data_member_location[DW_OP_plus_uconst 0x490]
    2755                      .dwattr $C$DW$381, DW_AT_accessibility(DW_ACCESS_public)
    2756              $C$DW$382       .dwtag  DW_TAG_member
    2757                      .dwattr $C$DW$382, DW_AT_type(*$C$DW$T$8)
    2758                      .dwattr $C$DW$382, DW_AT_name("bUseNBest")
    2759                      .dwattr $C$DW$382, DW_AT_TI_symbol_name("_bUseNBest")
    2760                      .dwattr $C$DW$382, DW_AT_data_member_location[DW_OP_plus_uconst 0x492]
    2761                      .dwattr $C$DW$382, DW_AT_accessibility(DW_ACCESS_public)
    2762              $C$DW$383       .dwtag  DW_TAG_member
    2763                      .dwattr $C$DW$383, DW_AT_type(*$C$DW$T$11)
    2764                      .dwattr $C$DW$383, DW_AT_name("total_words")
    2765                      .dwattr $C$DW$383, DW_AT_TI_symbol_name("_total_words")
    2766                      .dwattr $C$DW$383, DW_AT_data_member_location[DW_OP_plus_uconst 0x493]
    2767                      .dwattr $C$DW$383, DW_AT_accessibility(DW_ACCESS_public)
    2768              $C$DW$384       .dwtag  DW_TAG_member
    2769                      .dwattr $C$DW$384, DW_AT_type(*$C$DW$T$8)
    2770                      .dwattr $C$DW$384, DW_AT_name("prune")
    2771                      .dwattr $C$DW$384, DW_AT_TI_symbol_name("_prune")
    2772                      .dwattr $C$DW$384, DW_AT_data_member_location[DW_OP_plus_uconst 0x494]
    2773                      .dwattr $C$DW$384, DW_AT_accessibility(DW_ACCESS_public)
    2774              $C$DW$385       .dwtag  DW_TAG_member
    2775                      .dwattr $C$DW$385, DW_AT_type(*$C$DW$T$8)
    2776                      .dwattr $C$DW$385, DW_AT_name("tranwgt")
    2777                      .dwattr $C$DW$385, DW_AT_TI_symbol_name("_tranwgt")
    2778                      .dwattr $C$DW$385, DW_AT_data_member_location[DW_OP_plus_uconst 0x495]
    2779                      .dwattr $C$DW$385, DW_AT_accessibility(DW_ACCESS_public)
    2780              $C$DW$386       .dwtag  DW_TAG_member
    2781                      .dwattr $C$DW$386, DW_AT_type(*$C$DW$T$75)
    2782                      .dwattr $C$DW$386, DW_AT_name("chpr_Model_Dir")
    2783                      .dwattr $C$DW$386, DW_AT_TI_symbol_name("_chpr_Model_Dir")
    2784                      .dwattr $C$DW$386, DW_AT_data_member_location[DW_OP_plus_uconst 0x496]
    2785                      .dwattr $C$DW$386, DW_AT_accessibility(DW_ACCESS_public)
    2786              $C$DW$387       .dwtag  DW_TAG_member
    2787                      .dwattr $C$DW$387, DW_AT_type(*$C$DW$T$77)
    2788                      .dwattr $C$DW$387, DW_AT_name("trans")
    2789                      .dwattr $C$DW$387, DW_AT_TI_symbol_name("_trans")
    2790                      .dwattr $C$DW$387, DW_AT_data_member_location[DW_OP_plus_uconst 0x498]
    2791                      .dwattr $C$DW$387, DW_AT_accessibility(DW_ACCESS_public)
    2792              $C$DW$388       .dwtag  DW_TAG_member
    2793                      .dwattr $C$DW$388, DW_AT_type(*$C$DW$T$22)
    2794                      .dwattr $C$DW$388, DW_AT_name("base_net")
    2795                      .dwattr $C$DW$388, DW_AT_TI_symbol_name("_base_net")
    2796                      .dwattr $C$DW$388, DW_AT_data_member_location[DW_OP_plus_uconst 0x49a]
TMS320C55x Assembler PC v4.4.1 Wed Sep 13 16:33:27 2017

Tools Copyright (c) 1996-2012 Texas Instruments Incorporated
C:\Users\a0221074\AppData\Local\Temp\1502810                         PAGE   59

    2797                      .dwattr $C$DW$388, DW_AT_accessibility(DW_ACCESS_public)
    2798              $C$DW$389       .dwtag  DW_TAG_member
    2799                      .dwattr $C$DW$389, DW_AT_type(*$C$DW$T$36)
    2800                      .dwattr $C$DW$389, DW_AT_name("base_hmms")
    2801                      .dwattr $C$DW$389, DW_AT_TI_symbol_name("_base_hmms")
    2802                      .dwattr $C$DW$389, DW_AT_data_member_location[DW_OP_plus_uconst 0x49c]
    2803                      .dwattr $C$DW$389, DW_AT_accessibility(DW_ACCESS_public)
    2804              $C$DW$390       .dwtag  DW_TAG_member
    2805                      .dwattr $C$DW$390, DW_AT_type(*$C$DW$T$22)
    2806                      .dwattr $C$DW$390, DW_AT_name("base_mu")
    2807                      .dwattr $C$DW$390, DW_AT_TI_symbol_name("_base_mu")
    2808                      .dwattr $C$DW$390, DW_AT_data_member_location[DW_OP_plus_uconst 0x49e]
    2809                      .dwattr $C$DW$390, DW_AT_accessibility(DW_ACCESS_public)
    2810              $C$DW$391       .dwtag  DW_TAG_member
    2811                      .dwattr $C$DW$391, DW_AT_type(*$C$DW$T$22)
    2812                      .dwattr $C$DW$391, DW_AT_name("base_mu_orig")
    2813                      .dwattr $C$DW$391, DW_AT_TI_symbol_name("_base_mu_orig")
    2814                      .dwattr $C$DW$391, DW_AT_data_member_location[DW_OP_plus_uconst 0x4a0]
    2815                      .dwattr $C$DW$391, DW_AT_accessibility(DW_ACCESS_public)
    2816              $C$DW$392       .dwtag  DW_TAG_member
    2817                      .dwattr $C$DW$392, DW_AT_type(*$C$DW$T$22)
    2818                      .dwattr $C$DW$392, DW_AT_name("base_var")
    2819                      .dwattr $C$DW$392, DW_AT_TI_symbol_name("_base_var")
    2820                      .dwattr $C$DW$392, DW_AT_data_member_location[DW_OP_plus_uconst 0x4a2]
    2821                      .dwattr $C$DW$392, DW_AT_accessibility(DW_ACCESS_public)
    2822              $C$DW$393       .dwtag  DW_TAG_member
    2823                      .dwattr $C$DW$393, DW_AT_type(*$C$DW$T$22)
    2824                      .dwattr $C$DW$393, DW_AT_name("base_var_orig")
    2825                      .dwattr $C$DW$393, DW_AT_TI_symbol_name("_base_var_orig")
    2826                      .dwattr $C$DW$393, DW_AT_data_member_location[DW_OP_plus_uconst 0x4a4]
    2827                      .dwattr $C$DW$393, DW_AT_accessibility(DW_ACCESS_public)
    2828              $C$DW$394       .dwtag  DW_TAG_member
    2829                      .dwattr $C$DW$394, DW_AT_type(*$C$DW$T$22)
    2830                      .dwattr $C$DW$394, DW_AT_name("base_tran")
    2831                      .dwattr $C$DW$394, DW_AT_TI_symbol_name("_base_tran")
    2832                      .dwattr $C$DW$394, DW_AT_data_member_location[DW_OP_plus_uconst 0x4a6]
    2833                      .dwattr $C$DW$394, DW_AT_accessibility(DW_ACCESS_public)
    2834              $C$DW$395       .dwtag  DW_TAG_member
    2835                      .dwattr $C$DW$395, DW_AT_type(*$C$DW$T$36)
    2836                      .dwattr $C$DW$395, DW_AT_name("base_pdf")
    2837                      .dwattr $C$DW$395, DW_AT_TI_symbol_name("_base_pdf")
    2838                      .dwattr $C$DW$395, DW_AT_data_member_location[DW_OP_plus_uconst 0x4a8]
    2839                      .dwattr $C$DW$395, DW_AT_accessibility(DW_ACCESS_public)
    2840              $C$DW$396       .dwtag  DW_TAG_member
    2841                      .dwattr $C$DW$396, DW_AT_type(*$C$DW$T$22)
    2842                      .dwattr $C$DW$396, DW_AT_name("base_mixture")
    2843                      .dwattr $C$DW$396, DW_AT_TI_symbol_name("_base_mixture")
    2844                      .dwattr $C$DW$396, DW_AT_data_member_location[DW_OP_plus_uconst 0x4aa]
    2845                      .dwattr $C$DW$396, DW_AT_accessibility(DW_ACCESS_public)
    2846              $C$DW$397       .dwtag  DW_TAG_member
    2847                      .dwattr $C$DW$397, DW_AT_type(*$C$DW$T$22)
    2848                      .dwattr $C$DW$397, DW_AT_name("base_gconst")
    2849                      .dwattr $C$DW$397, DW_AT_TI_symbol_name("_base_gconst")
    2850                      .dwattr $C$DW$397, DW_AT_data_member_location[DW_OP_plus_uconst 0x4ac]
    2851                      .dwattr $C$DW$397, DW_AT_accessibility(DW_ACCESS_public)
TMS320C55x Assembler PC v4.4.1 Wed Sep 13 16:33:27 2017

Tools Copyright (c) 1996-2012 Texas Instruments Incorporated
C:\Users\a0221074\AppData\Local\Temp\1502810                         PAGE   60

    2852              $C$DW$398       .dwtag  DW_TAG_member
    2853                      .dwattr $C$DW$398, DW_AT_type(*$C$DW$T$22)
    2854                      .dwattr $C$DW$398, DW_AT_name("obs_scr")
    2855                      .dwattr $C$DW$398, DW_AT_TI_symbol_name("_obs_scr")
    2856                      .dwattr $C$DW$398, DW_AT_data_member_location[DW_OP_plus_uconst 0x4ae]
    2857                      .dwattr $C$DW$398, DW_AT_accessibility(DW_ACCESS_public)
    2858              $C$DW$399       .dwtag  DW_TAG_member
    2859                      .dwattr $C$DW$399, DW_AT_type(*$C$DW$T$22)
    2860                      .dwattr $C$DW$399, DW_AT_name("gauss_scr")
    2861                      .dwattr $C$DW$399, DW_AT_TI_symbol_name("_gauss_scr")
    2862                      .dwattr $C$DW$399, DW_AT_data_member_location[DW_OP_plus_uconst 0x4b0]
    2863                      .dwattr $C$DW$399, DW_AT_accessibility(DW_ACCESS_public)
    2864              $C$DW$400       .dwtag  DW_TAG_member
    2865                      .dwattr $C$DW$400, DW_AT_type(*$C$DW$T$22)
    2866                      .dwattr $C$DW$400, DW_AT_name("scale_mu")
    2867                      .dwattr $C$DW$400, DW_AT_TI_symbol_name("_scale_mu")
    2868                      .dwattr $C$DW$400, DW_AT_data_member_location[DW_OP_plus_uconst 0x4b2]
    2869                      .dwattr $C$DW$400, DW_AT_accessibility(DW_ACCESS_public)
    2870              $C$DW$401       .dwtag  DW_TAG_member
    2871                      .dwattr $C$DW$401, DW_AT_type(*$C$DW$T$22)
    2872                      .dwattr $C$DW$401, DW_AT_name("scale_var")
    2873                      .dwattr $C$DW$401, DW_AT_TI_symbol_name("_scale_var")
    2874                      .dwattr $C$DW$401, DW_AT_data_member_location[DW_OP_plus_uconst 0x4b4]
    2875                      .dwattr $C$DW$401, DW_AT_accessibility(DW_ACCESS_public)
    2876              $C$DW$402       .dwtag  DW_TAG_member
    2877                      .dwattr $C$DW$402, DW_AT_type(*$C$DW$T$9)
    2878                      .dwattr $C$DW$402, DW_AT_name("n_pdf")
    2879                      .dwattr $C$DW$402, DW_AT_TI_symbol_name("_n_pdf")
    2880                      .dwattr $C$DW$402, DW_AT_data_member_location[DW_OP_plus_uconst 0x4b6]
    2881                      .dwattr $C$DW$402, DW_AT_accessibility(DW_ACCESS_public)
    2882              $C$DW$403       .dwtag  DW_TAG_member
    2883                      .dwattr $C$DW$403, DW_AT_type(*$C$DW$T$9)
    2884                      .dwattr $C$DW$403, DW_AT_name("n_mu")
    2885                      .dwattr $C$DW$403, DW_AT_TI_symbol_name("_n_mu")
    2886                      .dwattr $C$DW$403, DW_AT_data_member_location[DW_OP_plus_uconst 0x4b7]
    2887                      .dwattr $C$DW$403, DW_AT_accessibility(DW_ACCESS_public)
    2888              $C$DW$404       .dwtag  DW_TAG_member
    2889                      .dwattr $C$DW$404, DW_AT_type(*$C$DW$T$9)
    2890                      .dwattr $C$DW$404, DW_AT_name("n_var")
    2891                      .dwattr $C$DW$404, DW_AT_TI_symbol_name("_n_var")
    2892                      .dwattr $C$DW$404, DW_AT_data_member_location[DW_OP_plus_uconst 0x4b8]
    2893                      .dwattr $C$DW$404, DW_AT_accessibility(DW_ACCESS_public)
    2894              $C$DW$405       .dwtag  DW_TAG_member
    2895                      .dwattr $C$DW$405, DW_AT_type(*$C$DW$T$78)
    2896                      .dwattr $C$DW$405, DW_AT_name("vocabulary")
    2897                      .dwattr $C$DW$405, DW_AT_TI_symbol_name("_vocabulary")
    2898                      .dwattr $C$DW$405, DW_AT_data_member_location[DW_OP_plus_uconst 0x4ba]
    2899                      .dwattr $C$DW$405, DW_AT_accessibility(DW_ACCESS_public)
    2900              $C$DW$406       .dwtag  DW_TAG_member
    2901                      .dwattr $C$DW$406, DW_AT_type(*$C$DW$T$22)
    2902                      .dwattr $C$DW$406, DW_AT_name("scale_feat")
    2903                      .dwattr $C$DW$406, DW_AT_TI_symbol_name("_scale_feat")
    2904                      .dwattr $C$DW$406, DW_AT_data_member_location[DW_OP_plus_uconst 0x4bc]
    2905                      .dwattr $C$DW$406, DW_AT_accessibility(DW_ACCESS_public)
    2906              $C$DW$407       .dwtag  DW_TAG_member
TMS320C55x Assembler PC v4.4.1 Wed Sep 13 16:33:27 2017

Tools Copyright (c) 1996-2012 Texas Instruments Incorporated
C:\Users\a0221074\AppData\Local\Temp\1502810                         PAGE   61

    2907                      .dwattr $C$DW$407, DW_AT_type(*$C$DW$T$79)
    2908                      .dwattr $C$DW$407, DW_AT_name("muScaleP2")
    2909                      .dwattr $C$DW$407, DW_AT_TI_symbol_name("_muScaleP2")
    2910                      .dwattr $C$DW$407, DW_AT_data_member_location[DW_OP_plus_uconst 0x4be]
    2911                      .dwattr $C$DW$407, DW_AT_accessibility(DW_ACCESS_public)
    2912              $C$DW$408       .dwtag  DW_TAG_member
    2913                      .dwattr $C$DW$408, DW_AT_type(*$C$DW$T$80)
    2914                      .dwattr $C$DW$408, DW_AT_name("evalstat")
    2915                      .dwattr $C$DW$408, DW_AT_TI_symbol_name("_evalstat")
    2916                      .dwattr $C$DW$408, DW_AT_data_member_location[DW_OP_plus_uconst 0x4de]
    2917                      .dwattr $C$DW$408, DW_AT_accessibility(DW_ACCESS_public)
    2918              $C$DW$409       .dwtag  DW_TAG_member
    2919                      .dwattr $C$DW$409, DW_AT_type(*$C$DW$T$82)
    2920                      .dwattr $C$DW$409, DW_AT_name("eval")
    2921                      .dwattr $C$DW$409, DW_AT_TI_symbol_name("_eval")
    2922                      .dwattr $C$DW$409, DW_AT_data_member_location[DW_OP_plus_uconst 0x4e8]
    2923                      .dwattr $C$DW$409, DW_AT_accessibility(DW_ACCESS_public)
    2924              $C$DW$410       .dwtag  DW_TAG_member
    2925                      .dwattr $C$DW$410, DW_AT_type(*$C$DW$T$83)
    2926                      .dwattr $C$DW$410, DW_AT_name("sym2pos_map")
    2927                      .dwattr $C$DW$410, DW_AT_TI_symbol_name("_sym2pos_map")
    2928                      .dwattr $C$DW$410, DW_AT_data_member_location[DW_OP_plus_uconst 0x4ee]
    2929                      .dwattr $C$DW$410, DW_AT_accessibility(DW_ACCESS_public)
    2930              $C$DW$411       .dwtag  DW_TAG_member
    2931                      .dwattr $C$DW$411, DW_AT_type(*$C$DW$T$8)
    2932                      .dwattr $C$DW$411, DW_AT_name("best_cur_scr")
    2933                      .dwattr $C$DW$411, DW_AT_TI_symbol_name("_best_cur_scr")
    2934                      .dwattr $C$DW$411, DW_AT_data_member_location[DW_OP_plus_uconst 0x4f4]
    2935                      .dwattr $C$DW$411, DW_AT_accessibility(DW_ACCESS_public)
    2936              $C$DW$412       .dwtag  DW_TAG_member
    2937                      .dwattr $C$DW$412, DW_AT_type(*$C$DW$T$8)
    2938                      .dwattr $C$DW$412, DW_AT_name("best_prev_scr")
    2939                      .dwattr $C$DW$412, DW_AT_TI_symbol_name("_best_prev_scr")
    2940                      .dwattr $C$DW$412, DW_AT_data_member_location[DW_OP_plus_uconst 0x4f5]
    2941                      .dwattr $C$DW$412, DW_AT_accessibility(DW_ACCESS_public)
    2942              $C$DW$413       .dwtag  DW_TAG_member
    2943                      .dwattr $C$DW$413, DW_AT_type(*$C$DW$T$12)
    2944                      .dwattr $C$DW$413, DW_AT_name("cum_best_prev_scr")
    2945                      .dwattr $C$DW$413, DW_AT_TI_symbol_name("_cum_best_prev_scr")
    2946                      .dwattr $C$DW$413, DW_AT_data_member_location[DW_OP_plus_uconst 0x4f6]
    2947                      .dwattr $C$DW$413, DW_AT_accessibility(DW_ACCESS_public)
    2948              $C$DW$414       .dwtag  DW_TAG_member
    2949                      .dwattr $C$DW$414, DW_AT_type(*$C$DW$T$9)
    2950                      .dwattr $C$DW$414, DW_AT_name("best_sym")
    2951                      .dwattr $C$DW$414, DW_AT_TI_symbol_name("_best_sym")
    2952                      .dwattr $C$DW$414, DW_AT_data_member_location[DW_OP_plus_uconst 0x4f8]
    2953                      .dwattr $C$DW$414, DW_AT_accessibility(DW_ACCESS_public)
    2954              $C$DW$415       .dwtag  DW_TAG_member
    2955                      .dwattr $C$DW$415, DW_AT_type(*$C$DW$T$9)
    2956                      .dwattr $C$DW$415, DW_AT_name("best_word")
    2957                      .dwattr $C$DW$415, DW_AT_TI_symbol_name("_best_word")
    2958                      .dwattr $C$DW$415, DW_AT_data_member_location[DW_OP_plus_uconst 0x4f9]
    2959                      .dwattr $C$DW$415, DW_AT_accessibility(DW_ACCESS_public)
    2960              $C$DW$416       .dwtag  DW_TAG_member
    2961                      .dwattr $C$DW$416, DW_AT_type(*$C$DW$T$9)
TMS320C55x Assembler PC v4.4.1 Wed Sep 13 16:33:27 2017

Tools Copyright (c) 1996-2012 Texas Instruments Incorporated
C:\Users\a0221074\AppData\Local\Temp\1502810                         PAGE   62

    2962                      .dwattr $C$DW$416, DW_AT_name("best_word_frm")
    2963                      .dwattr $C$DW$416, DW_AT_TI_symbol_name("_best_word_frm")
    2964                      .dwattr $C$DW$416, DW_AT_data_member_location[DW_OP_plus_uconst 0x4fa]
    2965                      .dwattr $C$DW$416, DW_AT_accessibility(DW_ACCESS_public)
    2966              $C$DW$417       .dwtag  DW_TAG_member
    2967                      .dwattr $C$DW$417, DW_AT_type(*$C$DW$T$9)
    2968                      .dwattr $C$DW$417, DW_AT_name("best_word_gender")
    2969                      .dwattr $C$DW$417, DW_AT_TI_symbol_name("_best_word_gender")
    2970                      .dwattr $C$DW$417, DW_AT_data_member_location[DW_OP_plus_uconst 0x4fb]
    2971                      .dwattr $C$DW$417, DW_AT_accessibility(DW_ACCESS_public)
    2972              $C$DW$418       .dwtag  DW_TAG_member
    2973                      .dwattr $C$DW$418, DW_AT_type(*$C$DW$T$84)
    2974                      .dwattr $C$DW$418, DW_AT_name("nbest")
    2975                      .dwattr $C$DW$418, DW_AT_TI_symbol_name("_nbest")
    2976                      .dwattr $C$DW$418, DW_AT_data_member_location[DW_OP_plus_uconst 0x4fc]
    2977                      .dwattr $C$DW$418, DW_AT_accessibility(DW_ACCESS_public)
    2978              $C$DW$419       .dwtag  DW_TAG_member
    2979                      .dwattr $C$DW$419, DW_AT_type(*$C$DW$T$8)
    2980                      .dwattr $C$DW$419, DW_AT_name("need_compact")
    2981                      .dwattr $C$DW$419, DW_AT_TI_symbol_name("_need_compact")
    2982                      .dwattr $C$DW$419, DW_AT_data_member_location[DW_OP_plus_uconst 0x7af]
    2983                      .dwattr $C$DW$419, DW_AT_accessibility(DW_ACCESS_public)
    2984              $C$DW$420       .dwtag  DW_TAG_member
    2985                      .dwattr $C$DW$420, DW_AT_type(*$C$DW$T$8)
    2986                      .dwattr $C$DW$420, DW_AT_name("word_backtrace")
    2987                      .dwattr $C$DW$420, DW_AT_TI_symbol_name("_word_backtrace")
    2988                      .dwattr $C$DW$420, DW_AT_data_member_location[DW_OP_plus_uconst 0x7b0]
    2989                      .dwattr $C$DW$420, DW_AT_accessibility(DW_ACCESS_public)
    2990              $C$DW$421       .dwtag  DW_TAG_member
    2991                      .dwattr $C$DW$421, DW_AT_type(*$C$DW$T$12)
    2992                      .dwattr $C$DW$421, DW_AT_name("best_sym_scr")
    2993                      .dwattr $C$DW$421, DW_AT_TI_symbol_name("_best_sym_scr")
    2994                      .dwattr $C$DW$421, DW_AT_data_member_location[DW_OP_plus_uconst 0x7b2]
    2995                      .dwattr $C$DW$421, DW_AT_accessibility(DW_ACCESS_public)
    2996              $C$DW$422       .dwtag  DW_TAG_member
    2997                      .dwattr $C$DW$422, DW_AT_type(*$C$DW$T$9)
    2998                      .dwattr $C$DW$422, DW_AT_name("next_time")
    2999                      .dwattr $C$DW$422, DW_AT_TI_symbol_name("_next_time")
    3000                      .dwattr $C$DW$422, DW_AT_data_member_location[DW_OP_plus_uconst 0x7b4]
    3001                      .dwattr $C$DW$422, DW_AT_accessibility(DW_ACCESS_public)
    3002              $C$DW$423       .dwtag  DW_TAG_member
    3003                      .dwattr $C$DW$423, DW_AT_type(*$C$DW$T$9)
    3004                      .dwattr $C$DW$423, DW_AT_name("last_beam_cell")
    3005                      .dwattr $C$DW$423, DW_AT_TI_symbol_name("_last_beam_cell")
    3006                      .dwattr $C$DW$423, DW_AT_data_member_location[DW_OP_plus_uconst 0x7b5]
    3007                      .dwattr $C$DW$423, DW_AT_accessibility(DW_ACCESS_public)
    3008              $C$DW$424       .dwtag  DW_TAG_member
    3009                      .dwattr $C$DW$424, DW_AT_type(*$C$DW$T$21)
    3010                      .dwattr $C$DW$424, DW_AT_name("max_state_cell")
    3011                      .dwattr $C$DW$424, DW_AT_TI_symbol_name("_max_state_cell")
    3012                      .dwattr $C$DW$424, DW_AT_data_member_location[DW_OP_plus_uconst 0x7b6]
    3013                      .dwattr $C$DW$424, DW_AT_accessibility(DW_ACCESS_public)
    3014              $C$DW$425       .dwtag  DW_TAG_member
    3015                      .dwattr $C$DW$425, DW_AT_type(*$C$DW$T$21)
    3016                      .dwattr $C$DW$425, DW_AT_name("max_beam_cell")
TMS320C55x Assembler PC v4.4.1 Wed Sep 13 16:33:27 2017

Tools Copyright (c) 1996-2012 Texas Instruments Incorporated
C:\Users\a0221074\AppData\Local\Temp\1502810                         PAGE   63

    3017                      .dwattr $C$DW$425, DW_AT_TI_symbol_name("_max_beam_cell")
    3018                      .dwattr $C$DW$425, DW_AT_data_member_location[DW_OP_plus_uconst 0x7b7]
    3019                      .dwattr $C$DW$425, DW_AT_accessibility(DW_ACCESS_public)
    3020              $C$DW$426       .dwtag  DW_TAG_member
    3021                      .dwattr $C$DW$426, DW_AT_type(*$C$DW$T$21)
    3022                      .dwattr $C$DW$426, DW_AT_name("max_time_cell")
    3023                      .dwattr $C$DW$426, DW_AT_TI_symbol_name("_max_time_cell")
    3024                      .dwattr $C$DW$426, DW_AT_data_member_location[DW_OP_plus_uconst 0x7b8]
    3025                      .dwattr $C$DW$426, DW_AT_accessibility(DW_ACCESS_public)
    3026              $C$DW$427       .dwtag  DW_TAG_member
    3027                      .dwattr $C$DW$427, DW_AT_type(*$C$DW$T$21)
    3028                      .dwattr $C$DW$427, DW_AT_name("max_sym_cell2")
    3029                      .dwattr $C$DW$427, DW_AT_TI_symbol_name("_max_sym_cell2")
    3030                      .dwattr $C$DW$427, DW_AT_data_member_location[DW_OP_plus_uconst 0x7b9]
    3031                      .dwattr $C$DW$427, DW_AT_accessibility(DW_ACCESS_public)
    3032              $C$DW$428       .dwtag  DW_TAG_member
    3033                      .dwattr $C$DW$428, DW_AT_type(*$C$DW$T$85)
    3034                      .dwattr $C$DW$428, DW_AT_name("time_table_idx")
    3035                      .dwattr $C$DW$428, DW_AT_TI_symbol_name("_time_table_idx")
    3036                      .dwattr $C$DW$428, DW_AT_data_member_location[DW_OP_plus_uconst 0x7ba]
    3037                      .dwattr $C$DW$428, DW_AT_accessibility(DW_ACCESS_public)
    3038              $C$DW$429       .dwtag  DW_TAG_member
    3039                      .dwattr $C$DW$429, DW_AT_type(*$C$DW$T$23)
    3040                      .dwattr $C$DW$429, DW_AT_name("answer")
    3041                      .dwattr $C$DW$429, DW_AT_TI_symbol_name("_answer")
    3042                      .dwattr $C$DW$429, DW_AT_data_member_location[DW_OP_plus_uconst 0x7ce]
    3043                      .dwattr $C$DW$429, DW_AT_accessibility(DW_ACCESS_public)
    3044              $C$DW$430       .dwtag  DW_TAG_member
    3045                      .dwattr $C$DW$430, DW_AT_type(*$C$DW$T$21)
    3046                      .dwattr $C$DW$430, DW_AT_name("nbr_ans")
    3047                      .dwattr $C$DW$430, DW_AT_TI_symbol_name("_nbr_ans")
    3048                      .dwattr $C$DW$430, DW_AT_data_member_location[DW_OP_plus_uconst 0x7d0]
    3049                      .dwattr $C$DW$430, DW_AT_accessibility(DW_ACCESS_public)
    3050              $C$DW$431       .dwtag  DW_TAG_member
    3051                      .dwattr $C$DW$431, DW_AT_type(*$C$DW$T$23)
    3052                      .dwattr $C$DW$431, DW_AT_name("mem_feature")
    3053                      .dwattr $C$DW$431, DW_AT_TI_symbol_name("_mem_feature")
    3054                      .dwattr $C$DW$431, DW_AT_data_member_location[DW_OP_plus_uconst 0x7d2]
    3055                      .dwattr $C$DW$431, DW_AT_accessibility(DW_ACCESS_public)
    3056              $C$DW$432       .dwtag  DW_TAG_member
    3057                      .dwattr $C$DW$432, DW_AT_type(*$C$DW$T$86)
    3058                      .dwattr $C$DW$432, DW_AT_name("total_frames")
    3059                      .dwattr $C$DW$432, DW_AT_TI_symbol_name("_total_frames")
    3060                      .dwattr $C$DW$432, DW_AT_data_member_location[DW_OP_plus_uconst 0x7d4]
    3061                      .dwattr $C$DW$432, DW_AT_accessibility(DW_ACCESS_public)
    3062              $C$DW$433       .dwtag  DW_TAG_member
    3063                      .dwattr $C$DW$433, DW_AT_type(*$C$DW$T$8)
    3064                      .dwattr $C$DW$433, DW_AT_name("nbr_loaded_utter")
    3065                      .dwattr $C$DW$433, DW_AT_TI_symbol_name("_nbr_loaded_utter")
    3066                      .dwattr $C$DW$433, DW_AT_data_member_location[DW_OP_plus_uconst 0x7d6]
    3067                      .dwattr $C$DW$433, DW_AT_accessibility(DW_ACCESS_public)
    3068              $C$DW$434       .dwtag  DW_TAG_member
    3069                      .dwattr $C$DW$434, DW_AT_type(*$C$DW$T$21)
    3070                      .dwattr $C$DW$434, DW_AT_name("mem_start_frame")
    3071                      .dwattr $C$DW$434, DW_AT_TI_symbol_name("_mem_start_frame")
TMS320C55x Assembler PC v4.4.1 Wed Sep 13 16:33:27 2017

Tools Copyright (c) 1996-2012 Texas Instruments Incorporated
C:\Users\a0221074\AppData\Local\Temp\1502810                         PAGE   64

    3072                      .dwattr $C$DW$434, DW_AT_data_member_location[DW_OP_plus_uconst 0x7d7]
    3073                      .dwattr $C$DW$434, DW_AT_accessibility(DW_ACCESS_public)
    3074              $C$DW$435       .dwtag  DW_TAG_member
    3075                      .dwattr $C$DW$435, DW_AT_type(*$C$DW$T$22)
    3076                      .dwattr $C$DW$435, DW_AT_name("offline_vq")
    3077                      .dwattr $C$DW$435, DW_AT_TI_symbol_name("_offline_vq")
    3078                      .dwattr $C$DW$435, DW_AT_data_member_location[DW_OP_plus_uconst 0x7d8]
    3079                      .dwattr $C$DW$435, DW_AT_accessibility(DW_ACCESS_public)
    3080              $C$DW$436       .dwtag  DW_TAG_member
    3081                      .dwattr $C$DW$436, DW_AT_type(*$C$DW$T$88)
    3082                      .dwattr $C$DW$436, DW_AT_name("pNss")
    3083                      .dwattr $C$DW$436, DW_AT_TI_symbol_name("_pNss")
    3084                      .dwattr $C$DW$436, DW_AT_data_member_location[DW_OP_plus_uconst 0x7da]
    3085                      .dwattr $C$DW$436, DW_AT_accessibility(DW_ACCESS_public)
    3086              $C$DW$437       .dwtag  DW_TAG_member
    3087                      .dwattr $C$DW$437, DW_AT_type(*$C$DW$T$8)
    3088                      .dwattr $C$DW$437, DW_AT_name("cm_score")
    3089                      .dwattr $C$DW$437, DW_AT_TI_symbol_name("_cm_score")
    3090                      .dwattr $C$DW$437, DW_AT_data_member_location[DW_OP_plus_uconst 0x7dc]
    3091                      .dwattr $C$DW$437, DW_AT_accessibility(DW_ACCESS_public)
    3092              $C$DW$438       .dwtag  DW_TAG_member
    3093                      .dwattr $C$DW$438, DW_AT_type(*$C$DW$T$90)
    3094                      .dwattr $C$DW$438, DW_AT_name("pConf")
    3095                      .dwattr $C$DW$438, DW_AT_TI_symbol_name("_pConf")
    3096                      .dwattr $C$DW$438, DW_AT_data_member_location[DW_OP_plus_uconst 0x7de]
    3097                      .dwattr $C$DW$438, DW_AT_accessibility(DW_ACCESS_public)
    3098              $C$DW$439       .dwtag  DW_TAG_member
    3099                      .dwattr $C$DW$439, DW_AT_type(*$C$DW$T$77)
    3100                      .dwattr $C$DW$439, DW_AT_name("trans_bk")
    3101                      .dwattr $C$DW$439, DW_AT_TI_symbol_name("_trans_bk")
    3102                      .dwattr $C$DW$439, DW_AT_data_member_location[DW_OP_plus_uconst 0x7e0]
    3103                      .dwattr $C$DW$439, DW_AT_accessibility(DW_ACCESS_public)
    3104              $C$DW$440       .dwtag  DW_TAG_member
    3105                      .dwattr $C$DW$440, DW_AT_type(*$C$DW$T$22)
    3106                      .dwattr $C$DW$440, DW_AT_name("base_net_bk")
    3107                      .dwattr $C$DW$440, DW_AT_TI_symbol_name("_base_net_bk")
    3108                      .dwattr $C$DW$440, DW_AT_data_member_location[DW_OP_plus_uconst 0x7e2]
    3109                      .dwattr $C$DW$440, DW_AT_accessibility(DW_ACCESS_public)
    3110              $C$DW$441       .dwtag  DW_TAG_member
    3111                      .dwattr $C$DW$441, DW_AT_type(*$C$DW$T$8)
    3112                      .dwattr $C$DW$441, DW_AT_name("nbr_ans_bk")
    3113                      .dwattr $C$DW$441, DW_AT_TI_symbol_name("_nbr_ans_bk")
    3114                      .dwattr $C$DW$441, DW_AT_data_member_location[DW_OP_plus_uconst 0x7e4]
    3115                      .dwattr $C$DW$441, DW_AT_accessibility(DW_ACCESS_public)
    3116              $C$DW$442       .dwtag  DW_TAG_member
    3117                      .dwattr $C$DW$442, DW_AT_type(*$C$DW$T$85)
    3118                      .dwattr $C$DW$442, DW_AT_name("answer_bk")
    3119                      .dwattr $C$DW$442, DW_AT_TI_symbol_name("_answer_bk")
    3120                      .dwattr $C$DW$442, DW_AT_data_member_location[DW_OP_plus_uconst 0x7e5]
    3121                      .dwattr $C$DW$442, DW_AT_accessibility(DW_ACCESS_public)
    3122              $C$DW$443       .dwtag  DW_TAG_member
    3123                      .dwattr $C$DW$443, DW_AT_type(*$C$DW$T$11)
    3124                      .dwattr $C$DW$443, DW_AT_name("FramesQueued")
    3125                      .dwattr $C$DW$443, DW_AT_TI_symbol_name("_FramesQueued")
    3126                      .dwattr $C$DW$443, DW_AT_data_member_location[DW_OP_plus_uconst 0x7f9]
TMS320C55x Assembler PC v4.4.1 Wed Sep 13 16:33:27 2017

Tools Copyright (c) 1996-2012 Texas Instruments Incorporated
C:\Users\a0221074\AppData\Local\Temp\1502810                         PAGE   65

    3127                      .dwattr $C$DW$443, DW_AT_accessibility(DW_ACCESS_public)
    3128              $C$DW$444       .dwtag  DW_TAG_member
    3129                      .dwattr $C$DW$444, DW_AT_type(*$C$DW$T$11)
    3130                      .dwattr $C$DW$444, DW_AT_name("prev_FramesQueued")
    3131                      .dwattr $C$DW$444, DW_AT_TI_symbol_name("_prev_FramesQueued")
    3132                      .dwattr $C$DW$444, DW_AT_data_member_location[DW_OP_plus_uconst 0x7fa]
    3133                      .dwattr $C$DW$444, DW_AT_accessibility(DW_ACCESS_public)
    3134              $C$DW$445       .dwtag  DW_TAG_member
    3135                      .dwattr $C$DW$445, DW_AT_type(*$C$DW$T$8)
    3136                      .dwattr $C$DW$445, DW_AT_name("guard")
    3137                      .dwattr $C$DW$445, DW_AT_TI_symbol_name("_guard")
    3138                      .dwattr $C$DW$445, DW_AT_data_member_location[DW_OP_plus_uconst 0x7fb]
    3139                      .dwattr $C$DW$445, DW_AT_accessibility(DW_ACCESS_public)
    3140              $C$DW$446       .dwtag  DW_TAG_member
    3141                      .dwattr $C$DW$446, DW_AT_type(*$C$DW$T$8)
    3142                      .dwattr $C$DW$446, DW_AT_name("realtime_th")
    3143                      .dwattr $C$DW$446, DW_AT_TI_symbol_name("_realtime_th")
    3144                      .dwattr $C$DW$446, DW_AT_data_member_location[DW_OP_plus_uconst 0x7fc]
    3145                      .dwattr $C$DW$446, DW_AT_accessibility(DW_ACCESS_public)
    3146              $C$DW$447       .dwtag  DW_TAG_member
    3147                      .dwattr $C$DW$447, DW_AT_type(*$C$DW$T$8)
    3148                      .dwattr $C$DW$447, DW_AT_name("realt_guard")
    3149                      .dwattr $C$DW$447, DW_AT_TI_symbol_name("_realt_guard")
    3150                      .dwattr $C$DW$447, DW_AT_data_member_location[DW_OP_plus_uconst 0x7fd]
    3151                      .dwattr $C$DW$447, DW_AT_accessibility(DW_ACCESS_public)
    3152                      .dwendtag $C$DW$T$91
    3153              
    3154              $C$DW$T$94      .dwtag  DW_TAG_typedef, DW_AT_name("gmhmm_type")
    3155                      .dwattr $C$DW$T$94, DW_AT_type(*$C$DW$T$91)
    3156                      .dwattr $C$DW$T$94, DW_AT_language(DW_LANG_C)
    3157              $C$DW$T$95      .dwtag  DW_TAG_pointer_type
    3158                      .dwattr $C$DW$T$95, DW_AT_type(*$C$DW$T$94)
    3159                      .dwattr $C$DW$T$95, DW_AT_address_class(0x17)
    3160                      .dwattr $C$DW$CU, DW_AT_language(DW_LANG_C)
    3161              
    3162              ;***************************************************************
    3163              ;* DWARF CIE ENTRIES                                           *
    3164              ;***************************************************************
    3165              
    3166              $C$DW$CIE       .dwcie 91
    3167                      .dwcfi  cfa_register, 36
    3168                      .dwcfi  cfa_offset, 0
    3169                      .dwcfi  undefined, 0
    3170                      .dwcfi  undefined, 1
    3171                      .dwcfi  undefined, 2
    3172                      .dwcfi  undefined, 3
    3173                      .dwcfi  undefined, 4
    3174                      .dwcfi  undefined, 5
    3175                      .dwcfi  undefined, 6
    3176                      .dwcfi  undefined, 7
    3177                      .dwcfi  undefined, 8
    3178                      .dwcfi  undefined, 9
    3179                      .dwcfi  undefined, 10
    3180                      .dwcfi  undefined, 11
    3181                      .dwcfi  undefined, 12
TMS320C55x Assembler PC v4.4.1 Wed Sep 13 16:33:27 2017

Tools Copyright (c) 1996-2012 Texas Instruments Incorporated
C:\Users\a0221074\AppData\Local\Temp\1502810                         PAGE   66

    3182                      .dwcfi  undefined, 13
    3183                      .dwcfi  same_value, 14
    3184                      .dwcfi  same_value, 15
    3185                      .dwcfi  undefined, 16
    3186                      .dwcfi  undefined, 17
    3187                      .dwcfi  undefined, 18
    3188                      .dwcfi  undefined, 19
    3189                      .dwcfi  undefined, 20
    3190                      .dwcfi  undefined, 21
    3191                      .dwcfi  undefined, 22
    3192                      .dwcfi  undefined, 23
    3193                      .dwcfi  undefined, 24
    3194                      .dwcfi  undefined, 25
    3195                      .dwcfi  same_value, 26
    3196                      .dwcfi  same_value, 27
    3197                      .dwcfi  same_value, 28
    3198                      .dwcfi  same_value, 29
    3199                      .dwcfi  same_value, 30
    3200                      .dwcfi  same_value, 31
    3201                      .dwcfi  undefined, 32
    3202                      .dwcfi  undefined, 33
    3203                      .dwcfi  undefined, 34
    3204                      .dwcfi  undefined, 35
    3205                      .dwcfi  undefined, 36
    3206                      .dwcfi  undefined, 37
    3207                      .dwcfi  undefined, 38
    3208                      .dwcfi  undefined, 39
    3209                      .dwcfi  undefined, 40
    3210                      .dwcfi  undefined, 41
    3211                      .dwcfi  undefined, 42
    3212                      .dwcfi  undefined, 43
    3213                      .dwcfi  undefined, 44
    3214                      .dwcfi  undefined, 45
    3215                      .dwcfi  undefined, 46
    3216                      .dwcfi  undefined, 47
    3217                      .dwcfi  undefined, 48
    3218                      .dwcfi  undefined, 49
    3219                      .dwcfi  undefined, 50
    3220                      .dwcfi  undefined, 51
    3221                      .dwcfi  undefined, 52
    3222                      .dwcfi  undefined, 53
    3223                      .dwcfi  undefined, 54
    3224                      .dwcfi  undefined, 55
    3225                      .dwcfi  undefined, 56
    3226                      .dwcfi  undefined, 57
    3227                      .dwcfi  undefined, 58
    3228                      .dwcfi  undefined, 59
    3229                      .dwcfi  undefined, 60
    3230                      .dwcfi  undefined, 61
    3231                      .dwcfi  undefined, 62
    3232                      .dwcfi  undefined, 63
    3233                      .dwcfi  undefined, 64
    3234                      .dwcfi  undefined, 65
    3235                      .dwcfi  undefined, 66
    3236                      .dwcfi  undefined, 67
TMS320C55x Assembler PC v4.4.1 Wed Sep 13 16:33:27 2017

Tools Copyright (c) 1996-2012 Texas Instruments Incorporated
C:\Users\a0221074\AppData\Local\Temp\1502810                         PAGE   67

    3237                      .dwcfi  undefined, 68
    3238                      .dwcfi  undefined, 69
    3239                      .dwcfi  undefined, 70
    3240                      .dwcfi  undefined, 71
    3241                      .dwcfi  undefined, 72
    3242                      .dwcfi  undefined, 73
    3243                      .dwcfi  undefined, 74
    3244                      .dwcfi  undefined, 75
    3245                      .dwcfi  undefined, 76
    3246                      .dwcfi  undefined, 77
    3247                      .dwcfi  undefined, 78
    3248                      .dwcfi  undefined, 79
    3249                      .dwcfi  undefined, 80
    3250                      .dwcfi  undefined, 81
    3251                      .dwcfi  undefined, 82
    3252                      .dwcfi  undefined, 83
    3253                      .dwcfi  undefined, 84
    3254                      .dwcfi  undefined, 85
    3255                      .dwcfi  undefined, 86
    3256                      .dwcfi  undefined, 87
    3257                      .dwcfi  undefined, 88
    3258                      .dwcfi  undefined, 89
    3259                      .dwcfi  undefined, 90
    3260                      .dwcfi  undefined, 91
    3261                      .dwendentry
    3262              
    3263              ;***************************************************************
    3264              ;* DWARF REGISTER MAP                                          *
    3265              ;***************************************************************
    3266              
    3267              $C$DW$448       .dwtag  DW_TAG_TI_assign_register, DW_AT_name("AC0")
    3268                      .dwattr $C$DW$448, DW_AT_location[DW_OP_reg0]
    3269              $C$DW$449       .dwtag  DW_TAG_TI_assign_register, DW_AT_name("AC0")
    3270                      .dwattr $C$DW$449, DW_AT_location[DW_OP_reg1]
    3271              $C$DW$450       .dwtag  DW_TAG_TI_assign_register, DW_AT_name("AC0_G")
    3272                      .dwattr $C$DW$450, DW_AT_location[DW_OP_reg2]
    3273              $C$DW$451       .dwtag  DW_TAG_TI_assign_register, DW_AT_name("AC1")
    3274                      .dwattr $C$DW$451, DW_AT_location[DW_OP_reg3]
    3275              $C$DW$452       .dwtag  DW_TAG_TI_assign_register, DW_AT_name("AC1")
    3276                      .dwattr $C$DW$452, DW_AT_location[DW_OP_reg4]
    3277              $C$DW$453       .dwtag  DW_TAG_TI_assign_register, DW_AT_name("AC1_G")
    3278                      .dwattr $C$DW$453, DW_AT_location[DW_OP_reg5]
    3279              $C$DW$454       .dwtag  DW_TAG_TI_assign_register, DW_AT_name("AC2")
    3280                      .dwattr $C$DW$454, DW_AT_location[DW_OP_reg6]
    3281              $C$DW$455       .dwtag  DW_TAG_TI_assign_register, DW_AT_name("AC2")
    3282                      .dwattr $C$DW$455, DW_AT_location[DW_OP_reg7]
    3283              $C$DW$456       .dwtag  DW_TAG_TI_assign_register, DW_AT_name("AC2_G")
    3284                      .dwattr $C$DW$456, DW_AT_location[DW_OP_reg8]
    3285              $C$DW$457       .dwtag  DW_TAG_TI_assign_register, DW_AT_name("AC3")
    3286                      .dwattr $C$DW$457, DW_AT_location[DW_OP_reg9]
    3287              $C$DW$458       .dwtag  DW_TAG_TI_assign_register, DW_AT_name("AC3")
    3288                      .dwattr $C$DW$458, DW_AT_location[DW_OP_reg10]
    3289              $C$DW$459       .dwtag  DW_TAG_TI_assign_register, DW_AT_name("AC3_G")
    3290                      .dwattr $C$DW$459, DW_AT_location[DW_OP_reg11]
    3291              $C$DW$460       .dwtag  DW_TAG_TI_assign_register, DW_AT_name("T0")
TMS320C55x Assembler PC v4.4.1 Wed Sep 13 16:33:27 2017

Tools Copyright (c) 1996-2012 Texas Instruments Incorporated
C:\Users\a0221074\AppData\Local\Temp\1502810                         PAGE   68

    3292                      .dwattr $C$DW$460, DW_AT_location[DW_OP_reg12]
    3293              $C$DW$461       .dwtag  DW_TAG_TI_assign_register, DW_AT_name("T1")
    3294                      .dwattr $C$DW$461, DW_AT_location[DW_OP_reg13]
    3295              $C$DW$462       .dwtag  DW_TAG_TI_assign_register, DW_AT_name("T2")
    3296                      .dwattr $C$DW$462, DW_AT_location[DW_OP_reg14]
    3297              $C$DW$463       .dwtag  DW_TAG_TI_assign_register, DW_AT_name("T3")
    3298                      .dwattr $C$DW$463, DW_AT_location[DW_OP_reg15]
    3299              $C$DW$464       .dwtag  DW_TAG_TI_assign_register, DW_AT_name("AR0")
    3300                      .dwattr $C$DW$464, DW_AT_location[DW_OP_reg16]
    3301              $C$DW$465       .dwtag  DW_TAG_TI_assign_register, DW_AT_name("XAR0")
    3302                      .dwattr $C$DW$465, DW_AT_location[DW_OP_reg17]
    3303              $C$DW$466       .dwtag  DW_TAG_TI_assign_register, DW_AT_name("AR1")
    3304                      .dwattr $C$DW$466, DW_AT_location[DW_OP_reg18]
    3305              $C$DW$467       .dwtag  DW_TAG_TI_assign_register, DW_AT_name("XAR1")
    3306                      .dwattr $C$DW$467, DW_AT_location[DW_OP_reg19]
    3307              $C$DW$468       .dwtag  DW_TAG_TI_assign_register, DW_AT_name("AR2")
    3308                      .dwattr $C$DW$468, DW_AT_location[DW_OP_reg20]
    3309              $C$DW$469       .dwtag  DW_TAG_TI_assign_register, DW_AT_name("XAR2")
    3310                      .dwattr $C$DW$469, DW_AT_location[DW_OP_reg21]
    3311              $C$DW$470       .dwtag  DW_TAG_TI_assign_register, DW_AT_name("AR3")
    3312                      .dwattr $C$DW$470, DW_AT_location[DW_OP_reg22]
    3313              $C$DW$471       .dwtag  DW_TAG_TI_assign_register, DW_AT_name("XAR3")
    3314                      .dwattr $C$DW$471, DW_AT_location[DW_OP_reg23]
    3315              $C$DW$472       .dwtag  DW_TAG_TI_assign_register, DW_AT_name("AR4")
    3316                      .dwattr $C$DW$472, DW_AT_location[DW_OP_reg24]
    3317              $C$DW$473       .dwtag  DW_TAG_TI_assign_register, DW_AT_name("XAR4")
    3318                      .dwattr $C$DW$473, DW_AT_location[DW_OP_reg25]
    3319              $C$DW$474       .dwtag  DW_TAG_TI_assign_register, DW_AT_name("AR5")
    3320                      .dwattr $C$DW$474, DW_AT_location[DW_OP_reg26]
    3321              $C$DW$475       .dwtag  DW_TAG_TI_assign_register, DW_AT_name("XAR5")
    3322                      .dwattr $C$DW$475, DW_AT_location[DW_OP_reg27]
    3323              $C$DW$476       .dwtag  DW_TAG_TI_assign_register, DW_AT_name("AR6")
    3324                      .dwattr $C$DW$476, DW_AT_location[DW_OP_reg28]
    3325              $C$DW$477       .dwtag  DW_TAG_TI_assign_register, DW_AT_name("XAR6")
    3326                      .dwattr $C$DW$477, DW_AT_location[DW_OP_reg29]
    3327              $C$DW$478       .dwtag  DW_TAG_TI_assign_register, DW_AT_name("AR7")
    3328                      .dwattr $C$DW$478, DW_AT_location[DW_OP_reg30]
    3329              $C$DW$479       .dwtag  DW_TAG_TI_assign_register, DW_AT_name("XAR7")
    3330                      .dwattr $C$DW$479, DW_AT_location[DW_OP_reg31]
    3331              $C$DW$480       .dwtag  DW_TAG_TI_assign_register, DW_AT_name("FP")
    3332                      .dwattr $C$DW$480, DW_AT_location[DW_OP_regx 0x20]
    3333              $C$DW$481       .dwtag  DW_TAG_TI_assign_register, DW_AT_name("XFP")
    3334                      .dwattr $C$DW$481, DW_AT_location[DW_OP_regx 0x21]
    3335              $C$DW$482       .dwtag  DW_TAG_TI_assign_register, DW_AT_name("PC")
    3336                      .dwattr $C$DW$482, DW_AT_location[DW_OP_regx 0x22]
    3337              $C$DW$483       .dwtag  DW_TAG_TI_assign_register, DW_AT_name("SP")
    3338                      .dwattr $C$DW$483, DW_AT_location[DW_OP_regx 0x23]
    3339              $C$DW$484       .dwtag  DW_TAG_TI_assign_register, DW_AT_name("XSP")
    3340                      .dwattr $C$DW$484, DW_AT_location[DW_OP_regx 0x24]
    3341              $C$DW$485       .dwtag  DW_TAG_TI_assign_register, DW_AT_name("BKC")
    3342                      .dwattr $C$DW$485, DW_AT_location[DW_OP_regx 0x25]
    3343              $C$DW$486       .dwtag  DW_TAG_TI_assign_register, DW_AT_name("BK03")
    3344                      .dwattr $C$DW$486, DW_AT_location[DW_OP_regx 0x26]
    3345              $C$DW$487       .dwtag  DW_TAG_TI_assign_register, DW_AT_name("BK47")
    3346                      .dwattr $C$DW$487, DW_AT_location[DW_OP_regx 0x27]
TMS320C55x Assembler PC v4.4.1 Wed Sep 13 16:33:27 2017

Tools Copyright (c) 1996-2012 Texas Instruments Incorporated
C:\Users\a0221074\AppData\Local\Temp\1502810                         PAGE   69

    3347              $C$DW$488       .dwtag  DW_TAG_TI_assign_register, DW_AT_name("ST0")
    3348                      .dwattr $C$DW$488, DW_AT_location[DW_OP_regx 0x28]
    3349              $C$DW$489       .dwtag  DW_TAG_TI_assign_register, DW_AT_name("ST1")
    3350                      .dwattr $C$DW$489, DW_AT_location[DW_OP_regx 0x29]
    3351              $C$DW$490       .dwtag  DW_TAG_TI_assign_register, DW_AT_name("ST2")
    3352                      .dwattr $C$DW$490, DW_AT_location[DW_OP_regx 0x2a]
    3353              $C$DW$491       .dwtag  DW_TAG_TI_assign_register, DW_AT_name("ST3")
    3354                      .dwattr $C$DW$491, DW_AT_location[DW_OP_regx 0x2b]
    3355              $C$DW$492       .dwtag  DW_TAG_TI_assign_register, DW_AT_name("MDP")
    3356                      .dwattr $C$DW$492, DW_AT_location[DW_OP_regx 0x2c]
    3357              $C$DW$493       .dwtag  DW_TAG_TI_assign_register, DW_AT_name("MDP05")
    3358                      .dwattr $C$DW$493, DW_AT_location[DW_OP_regx 0x2d]
    3359              $C$DW$494       .dwtag  DW_TAG_TI_assign_register, DW_AT_name("MDP67")
    3360                      .dwattr $C$DW$494, DW_AT_location[DW_OP_regx 0x2e]
    3361              $C$DW$495       .dwtag  DW_TAG_TI_assign_register, DW_AT_name("BRC0")
    3362                      .dwattr $C$DW$495, DW_AT_location[DW_OP_regx 0x2f]
    3363              $C$DW$496       .dwtag  DW_TAG_TI_assign_register, DW_AT_name("RSA0")
    3364                      .dwattr $C$DW$496, DW_AT_location[DW_OP_regx 0x30]
    3365              $C$DW$497       .dwtag  DW_TAG_TI_assign_register, DW_AT_name("RSA0_H")
    3366                      .dwattr $C$DW$497, DW_AT_location[DW_OP_regx 0x31]
    3367              $C$DW$498       .dwtag  DW_TAG_TI_assign_register, DW_AT_name("REA0")
    3368                      .dwattr $C$DW$498, DW_AT_location[DW_OP_regx 0x32]
    3369              $C$DW$499       .dwtag  DW_TAG_TI_assign_register, DW_AT_name("REA0_H")
    3370                      .dwattr $C$DW$499, DW_AT_location[DW_OP_regx 0x33]
    3371              $C$DW$500       .dwtag  DW_TAG_TI_assign_register, DW_AT_name("BRS1")
    3372                      .dwattr $C$DW$500, DW_AT_location[DW_OP_regx 0x34]
    3373              $C$DW$501       .dwtag  DW_TAG_TI_assign_register, DW_AT_name("BRC1")
    3374                      .dwattr $C$DW$501, DW_AT_location[DW_OP_regx 0x35]
    3375              $C$DW$502       .dwtag  DW_TAG_TI_assign_register, DW_AT_name("RSA1")
    3376                      .dwattr $C$DW$502, DW_AT_location[DW_OP_regx 0x36]
    3377              $C$DW$503       .dwtag  DW_TAG_TI_assign_register, DW_AT_name("RSA1_H")
    3378                      .dwattr $C$DW$503, DW_AT_location[DW_OP_regx 0x37]
    3379              $C$DW$504       .dwtag  DW_TAG_TI_assign_register, DW_AT_name("REA1")
    3380                      .dwattr $C$DW$504, DW_AT_location[DW_OP_regx 0x38]
    3381              $C$DW$505       .dwtag  DW_TAG_TI_assign_register, DW_AT_name("REA1_H")
    3382                      .dwattr $C$DW$505, DW_AT_location[DW_OP_regx 0x39]
    3383              $C$DW$506       .dwtag  DW_TAG_TI_assign_register, DW_AT_name("CSR")
    3384                      .dwattr $C$DW$506, DW_AT_location[DW_OP_regx 0x3a]
    3385              $C$DW$507       .dwtag  DW_TAG_TI_assign_register, DW_AT_name("RPTC")
    3386                      .dwattr $C$DW$507, DW_AT_location[DW_OP_regx 0x3b]
    3387              $C$DW$508       .dwtag  DW_TAG_TI_assign_register, DW_AT_name("CDP")
    3388                      .dwattr $C$DW$508, DW_AT_location[DW_OP_regx 0x3c]
    3389              $C$DW$509       .dwtag  DW_TAG_TI_assign_register, DW_AT_name("XCDP")
    3390                      .dwattr $C$DW$509, DW_AT_location[DW_OP_regx 0x3d]
    3391              $C$DW$510       .dwtag  DW_TAG_TI_assign_register, DW_AT_name("TRN0")
    3392                      .dwattr $C$DW$510, DW_AT_location[DW_OP_regx 0x3e]
    3393              $C$DW$511       .dwtag  DW_TAG_TI_assign_register, DW_AT_name("TRN1")
    3394                      .dwattr $C$DW$511, DW_AT_location[DW_OP_regx 0x3f]
    3395              $C$DW$512       .dwtag  DW_TAG_TI_assign_register, DW_AT_name("BSA01")
    3396                      .dwattr $C$DW$512, DW_AT_location[DW_OP_regx 0x40]
    3397              $C$DW$513       .dwtag  DW_TAG_TI_assign_register, DW_AT_name("BSA23")
    3398                      .dwattr $C$DW$513, DW_AT_location[DW_OP_regx 0x41]
    3399              $C$DW$514       .dwtag  DW_TAG_TI_assign_register, DW_AT_name("BSA45")
    3400                      .dwattr $C$DW$514, DW_AT_location[DW_OP_regx 0x42]
    3401              $C$DW$515       .dwtag  DW_TAG_TI_assign_register, DW_AT_name("BSA67")
TMS320C55x Assembler PC v4.4.1 Wed Sep 13 16:33:27 2017

Tools Copyright (c) 1996-2012 Texas Instruments Incorporated
C:\Users\a0221074\AppData\Local\Temp\1502810                         PAGE   70

    3402                      .dwattr $C$DW$515, DW_AT_location[DW_OP_regx 0x43]
    3403              $C$DW$516       .dwtag  DW_TAG_TI_assign_register, DW_AT_name("BSAC")
    3404                      .dwattr $C$DW$516, DW_AT_location[DW_OP_regx 0x44]
    3405              $C$DW$517       .dwtag  DW_TAG_TI_assign_register, DW_AT_name("CARRY")
    3406                      .dwattr $C$DW$517, DW_AT_location[DW_OP_regx 0x45]
    3407              $C$DW$518       .dwtag  DW_TAG_TI_assign_register, DW_AT_name("TC1")
    3408                      .dwattr $C$DW$518, DW_AT_location[DW_OP_regx 0x46]
    3409              $C$DW$519       .dwtag  DW_TAG_TI_assign_register, DW_AT_name("TC2")
    3410                      .dwattr $C$DW$519, DW_AT_location[DW_OP_regx 0x47]
    3411              $C$DW$520       .dwtag  DW_TAG_TI_assign_register, DW_AT_name("M40")
    3412                      .dwattr $C$DW$520, DW_AT_location[DW_OP_regx 0x48]
    3413              $C$DW$521       .dwtag  DW_TAG_TI_assign_register, DW_AT_name("SXMD")
    3414                      .dwattr $C$DW$521, DW_AT_location[DW_OP_regx 0x49]
    3415              $C$DW$522       .dwtag  DW_TAG_TI_assign_register, DW_AT_name("ARMS")
    3416                      .dwattr $C$DW$522, DW_AT_location[DW_OP_regx 0x4a]
    3417              $C$DW$523       .dwtag  DW_TAG_TI_assign_register, DW_AT_name("C54CM")
    3418                      .dwattr $C$DW$523, DW_AT_location[DW_OP_regx 0x4b]
    3419              $C$DW$524       .dwtag  DW_TAG_TI_assign_register, DW_AT_name("SATA")
    3420                      .dwattr $C$DW$524, DW_AT_location[DW_OP_regx 0x4c]
    3421              $C$DW$525       .dwtag  DW_TAG_TI_assign_register, DW_AT_name("SATD")
    3422                      .dwattr $C$DW$525, DW_AT_location[DW_OP_regx 0x4d]
    3423              $C$DW$526       .dwtag  DW_TAG_TI_assign_register, DW_AT_name("RDM")
    3424                      .dwattr $C$DW$526, DW_AT_location[DW_OP_regx 0x4e]
    3425              $C$DW$527       .dwtag  DW_TAG_TI_assign_register, DW_AT_name("FRCT")
    3426                      .dwattr $C$DW$527, DW_AT_location[DW_OP_regx 0x4f]
    3427              $C$DW$528       .dwtag  DW_TAG_TI_assign_register, DW_AT_name("SMUL")
    3428                      .dwattr $C$DW$528, DW_AT_location[DW_OP_regx 0x50]
    3429              $C$DW$529       .dwtag  DW_TAG_TI_assign_register, DW_AT_name("INTM")
    3430                      .dwattr $C$DW$529, DW_AT_location[DW_OP_regx 0x51]
    3431              $C$DW$530       .dwtag  DW_TAG_TI_assign_register, DW_AT_name("AR0LC")
    3432                      .dwattr $C$DW$530, DW_AT_location[DW_OP_regx 0x52]
    3433              $C$DW$531       .dwtag  DW_TAG_TI_assign_register, DW_AT_name("AR1LC")
    3434                      .dwattr $C$DW$531, DW_AT_location[DW_OP_regx 0x53]
    3435              $C$DW$532       .dwtag  DW_TAG_TI_assign_register, DW_AT_name("AR2LC")
    3436                      .dwattr $C$DW$532, DW_AT_location[DW_OP_regx 0x54]
    3437              $C$DW$533       .dwtag  DW_TAG_TI_assign_register, DW_AT_name("AR3LC")
    3438                      .dwattr $C$DW$533, DW_AT_location[DW_OP_regx 0x55]
    3439              $C$DW$534       .dwtag  DW_TAG_TI_assign_register, DW_AT_name("AR4LC")
    3440                      .dwattr $C$DW$534, DW_AT_location[DW_OP_regx 0x56]
    3441              $C$DW$535       .dwtag  DW_TAG_TI_assign_register, DW_AT_name("AR5LC")
    3442                      .dwattr $C$DW$535, DW_AT_location[DW_OP_regx 0x57]
    3443              $C$DW$536       .dwtag  DW_TAG_TI_assign_register, DW_AT_name("AR6LC")
    3444                      .dwattr $C$DW$536, DW_AT_location[DW_OP_regx 0x58]
    3445              $C$DW$537       .dwtag  DW_TAG_TI_assign_register, DW_AT_name("AR7LC")
    3446                      .dwattr $C$DW$537, DW_AT_location[DW_OP_regx 0x59]
    3447              $C$DW$538       .dwtag  DW_TAG_TI_assign_register, DW_AT_name("CDPLC")
    3448                      .dwattr $C$DW$538, DW_AT_location[DW_OP_regx 0x5a]
    3449              $C$DW$539       .dwtag  DW_TAG_TI_assign_register, DW_AT_name("CIE_RETA")
    3450                      .dwattr $C$DW$539, DW_AT_location[DW_OP_regx 0x5b]
    3451                      .dwendtag $C$DW$CU
    3452              
    3452              
    3452              

No Assembly Errors, No Assembly Warnings
