TMS320C55x Assembler PC v4.4.1 Wed Sep 13 16:33:30 2017

Tools Copyright (c) 1996-2012 Texas Instruments Incorporated
C:\Users\a0221074\AppData\Local\Temp\0522410                         PAGE    1

    5093              ; Temporary Registers Used: None
       1              ;*******************************************************************************
       2              ;* TMS320C55x C/C++ Codegen                                          PC v4.4.1 *
       3              ;* Date/Time created: Wed Sep 13 16:33:28 2017                                 *
       4              ;*******************************************************************************
       5                      .compiler_opts --hll_source=on --mem_model:code=flat --mem_model:data=huge --object_format=coff --sil
       6                      .mmregs
       7                      .cpl_on
       8                      .arms_on
       9                      .c54cm_off
      10                      .asg AR6, FP
      11                      .asg XAR6, XFP
      12                      .asg DPH, MDP
      13                      .model call=c55_std
      14                      .model mem=huge
      15                      .noremark 5002  ; code respects overwrite rules
      16              ;*******************************************************************************
      17              ;* GLOBAL FILE PARAMETERS                                                      *
      18              ;*                                                                             *
      19              ;*   Architecture       : TMS320C55x                                           *
      20              ;*   Optimizing for     : Speed                                                *
      21              ;*   Memory             : Huge Model (23-Bit Data Pointers)                    *
      22              ;*   Calls              : Normal Library ASM calls                             *
      23              ;*   Debug Info         : Standard TI Debug Information                        *
      24              ;*******************************************************************************
      25              
      26              $C$DW$CU        .dwtag  DW_TAG_compile_unit
      27                      .dwattr $C$DW$CU, DW_AT_name("C:/Users/a0221074/Desktop/C5000/IBM_Watson_TIdesign_workarea/CSL_bitbuc
      28                      .dwattr $C$DW$CU, DW_AT_producer("TMS320C55x C/C++ Codegen PC v4.4.1 Copyright (c) 1996-2012 Texas In
      29                      .dwattr $C$DW$CU, DW_AT_TI_version(0x01)
      30                      .dwattr $C$DW$CU, DW_AT_comp_dir("C:\Users\a0221074\Desktop\C5000\IBM_Watson_TIdesign_workarea\CSL_bi
      31              ;******************************************************************************
      32              ;* CINIT RECORDS                                                              *
      33              ;******************************************************************************
      34 000000               .sect   ".cinit"
      35                      .align  1
      36 000000 001A          .field          $C$IR_1,16
      37 000001 0000-         .field          _grammar_data+0,24
         000002 0000 
      38 000002 0000          .field          0,8
      39 000003 0000!         .field  _gWord,32               ; _grammar_data[0] @ 0
         000004 0000 
      40 000005 0000!         .field  _gNet,32                ; _grammar_data[1] @ 32
         000006 0000 
      41 000007 0000!         .field  _gHmm,32                ; _grammar_data[2] @ 64
         000008 0000 
      42 000009 0000!         .field  _gMu,32         ; _grammar_data[3] @ 96
         00000a 0000 
      43 00000b 0000!         .field  _gVar,32                ; _grammar_data[4] @ 128
         00000c 0000 
      44 00000d 0000!         .field  _gTran,32               ; _grammar_data[5] @ 160
         00000e 0000 
      45 00000f 0000!         .field  _gPdf,32                ; _grammar_data[6] @ 192
         000010 0000 
      46 000011 0000!         .field  _gMixture,32            ; _grammar_data[7] @ 224
TMS320C55x Assembler PC v4.4.1 Wed Sep 13 16:33:30 2017

Tools Copyright (c) 1996-2012 Texas Instruments Incorporated
C:\Users\a0221074\AppData\Local\Temp\0522410                         PAGE    2

         000012 0000 
      47 000013 0000!         .field  _gGconst,32             ; _grammar_data[8] @ 256
         000014 0000 
      48 000015 0000!         .field  _gDim,32                ; _grammar_data[9] @ 288
         000016 0000 
      49 000017 0000          .field  0,32                    ; _grammar_data[10] @ 320
         000018 0000 
      50 000019 0000!         .field  _gConfig,32             ; _grammar_data[11] @ 352
         00001a 0000 
      51 00001b 0000          .field  0,32                    ; _grammar_data[12] @ 384
         00001c 0000 
      52              $C$IR_1:        .set    26
      53              
      54              
      55              $C$DW$1 .dwtag  DW_TAG_subprogram, DW_AT_name("memcpy")
      56                      .dwattr $C$DW$1, DW_AT_TI_symbol_name("_memcpy")
      57                      .dwattr $C$DW$1, DW_AT_type(*$C$DW$T$3)
      58                      .dwattr $C$DW$1, DW_AT_declaration
      59                      .dwattr $C$DW$1, DW_AT_external
      60              $C$DW$2 .dwtag  DW_TAG_formal_parameter
      61                      .dwattr $C$DW$2, DW_AT_type(*$C$DW$T$3)
      62              $C$DW$3 .dwtag  DW_TAG_formal_parameter
      63                      .dwattr $C$DW$3, DW_AT_type(*$C$DW$T$123)
      64              $C$DW$4 .dwtag  DW_TAG_formal_parameter
      65                      .dwattr $C$DW$4, DW_AT_type(*$C$DW$T$116)
      66                      .dwendtag $C$DW$1
      67              
      68              
      69              $C$DW$5 .dwtag  DW_TAG_subprogram, DW_AT_name("MEM_alloc")
      70                      .dwattr $C$DW$5, DW_AT_TI_symbol_name("_MEM_alloc")
      71                      .dwattr $C$DW$5, DW_AT_type(*$C$DW$T$114)
      72                      .dwattr $C$DW$5, DW_AT_declaration
      73                      .dwattr $C$DW$5, DW_AT_external
      74              $C$DW$6 .dwtag  DW_TAG_formal_parameter
      75                      .dwattr $C$DW$6, DW_AT_type(*$C$DW$T$115)
      76              $C$DW$7 .dwtag  DW_TAG_formal_parameter
      77                      .dwattr $C$DW$7, DW_AT_type(*$C$DW$T$116)
      78              $C$DW$8 .dwtag  DW_TAG_formal_parameter
      79                      .dwattr $C$DW$8, DW_AT_type(*$C$DW$T$116)
      80                      .dwendtag $C$DW$5
      81              
      82              
      83              $C$DW$9 .dwtag  DW_TAG_subprogram, DW_AT_name("MEM_free")
      84                      .dwattr $C$DW$9, DW_AT_TI_symbol_name("_MEM_free")
      85                      .dwattr $C$DW$9, DW_AT_type(*$C$DW$T$146)
      86                      .dwattr $C$DW$9, DW_AT_declaration
      87                      .dwattr $C$DW$9, DW_AT_external
      88              $C$DW$10        .dwtag  DW_TAG_formal_parameter
      89                      .dwattr $C$DW$10, DW_AT_type(*$C$DW$T$115)
      90              $C$DW$11        .dwtag  DW_TAG_formal_parameter
      91                      .dwattr $C$DW$11, DW_AT_type(*$C$DW$T$114)
      92              $C$DW$12        .dwtag  DW_TAG_formal_parameter
      93                      .dwattr $C$DW$12, DW_AT_type(*$C$DW$T$116)
      94                      .dwendtag $C$DW$9
      95              
TMS320C55x Assembler PC v4.4.1 Wed Sep 13 16:33:30 2017

Tools Copyright (c) 1996-2012 Texas Instruments Incorporated
C:\Users\a0221074\AppData\Local\Temp\0522410                         PAGE    3

      96              
      97              $C$DW$13        .dwtag  DW_TAG_subprogram, DW_AT_name("MEM_valloc")
      98                      .dwattr $C$DW$13, DW_AT_TI_symbol_name("_MEM_valloc")
      99                      .dwattr $C$DW$13, DW_AT_type(*$C$DW$T$114)
     100                      .dwattr $C$DW$13, DW_AT_declaration
     101                      .dwattr $C$DW$13, DW_AT_external
     102              $C$DW$14        .dwtag  DW_TAG_formal_parameter
     103                      .dwattr $C$DW$14, DW_AT_type(*$C$DW$T$115)
     104              $C$DW$15        .dwtag  DW_TAG_formal_parameter
     105                      .dwattr $C$DW$15, DW_AT_type(*$C$DW$T$116)
     106              $C$DW$16        .dwtag  DW_TAG_formal_parameter
     107                      .dwattr $C$DW$16, DW_AT_type(*$C$DW$T$116)
     108              $C$DW$17        .dwtag  DW_TAG_formal_parameter
     109                      .dwattr $C$DW$17, DW_AT_type(*$C$DW$T$119)
     110                      .dwendtag $C$DW$13
     111              
     112              
     113              $C$DW$18        .dwtag  DW_TAG_subprogram, DW_AT_name("fclose")
     114                      .dwattr $C$DW$18, DW_AT_TI_symbol_name("_fclose")
     115                      .dwattr $C$DW$18, DW_AT_type(*$C$DW$T$10)
     116                      .dwattr $C$DW$18, DW_AT_declaration
     117                      .dwattr $C$DW$18, DW_AT_external
     118              $C$DW$19        .dwtag  DW_TAG_formal_parameter
     119                      .dwattr $C$DW$19, DW_AT_type(*$C$DW$T$100)
     120                      .dwendtag $C$DW$18
     121              
     122              
     123              $C$DW$20        .dwtag  DW_TAG_subprogram, DW_AT_name("printf")
     124                      .dwattr $C$DW$20, DW_AT_TI_symbol_name("_printf")
     125                      .dwattr $C$DW$20, DW_AT_type(*$C$DW$T$10)
     126                      .dwattr $C$DW$20, DW_AT_declaration
     127                      .dwattr $C$DW$20, DW_AT_external
     128              $C$DW$21        .dwtag  DW_TAG_formal_parameter
     129                      .dwattr $C$DW$21, DW_AT_type(*$C$DW$T$111)
     130              $C$DW$22        .dwtag  DW_TAG_unspecified_parameters
     131                      .dwendtag $C$DW$20
     132              
     133              
     134              $C$DW$23        .dwtag  DW_TAG_subprogram, DW_AT_name("malloc")
     135                      .dwattr $C$DW$23, DW_AT_TI_symbol_name("_malloc")
     136                      .dwattr $C$DW$23, DW_AT_type(*$C$DW$T$3)
     137                      .dwattr $C$DW$23, DW_AT_declaration
     138                      .dwattr $C$DW$23, DW_AT_external
     139              $C$DW$24        .dwtag  DW_TAG_formal_parameter
     140                      .dwattr $C$DW$24, DW_AT_type(*$C$DW$T$116)
     141                      .dwendtag $C$DW$23
     142              
     143              
     144              $C$DW$25        .dwtag  DW_TAG_subprogram, DW_AT_name("free")
     145                      .dwattr $C$DW$25, DW_AT_TI_symbol_name("_free")
     146                      .dwattr $C$DW$25, DW_AT_declaration
     147                      .dwattr $C$DW$25, DW_AT_external
     148              $C$DW$26        .dwtag  DW_TAG_formal_parameter
     149                      .dwattr $C$DW$26, DW_AT_type(*$C$DW$T$3)
     150                      .dwendtag $C$DW$25
TMS320C55x Assembler PC v4.4.1 Wed Sep 13 16:33:30 2017

Tools Copyright (c) 1996-2012 Texas Instruments Incorporated
C:\Users\a0221074\AppData\Local\Temp\0522410                         PAGE    4

     151              
     152              
     153              $C$DW$27        .dwtag  DW_TAG_subprogram, DW_AT_name("exit")
     154                      .dwattr $C$DW$27, DW_AT_TI_symbol_name("_exit")
     155                      .dwattr $C$DW$27, DW_AT_declaration
     156                      .dwattr $C$DW$27, DW_AT_external
     157              $C$DW$28        .dwtag  DW_TAG_formal_parameter
     158                      .dwattr $C$DW$28, DW_AT_type(*$C$DW$T$10)
     159                      .dwendtag $C$DW$27
     160              
     161              
     162              $C$DW$29        .dwtag  DW_TAG_subprogram, DW_AT_name("vector_unpacking")
     163                      .dwattr $C$DW$29, DW_AT_TI_symbol_name("_vector_unpacking")
     164                      .dwattr $C$DW$29, DW_AT_declaration
     165                      .dwattr $C$DW$29, DW_AT_external
     166              $C$DW$30        .dwtag  DW_TAG_formal_parameter
     167                      .dwattr $C$DW$30, DW_AT_type(*$C$DW$T$132)
     168              $C$DW$31        .dwtag  DW_TAG_formal_parameter
     169                      .dwattr $C$DW$31, DW_AT_type(*$C$DW$T$23)
     170              $C$DW$32        .dwtag  DW_TAG_formal_parameter
     171                      .dwattr $C$DW$32, DW_AT_type(*$C$DW$T$57)
     172              $C$DW$33        .dwtag  DW_TAG_formal_parameter
     173                      .dwattr $C$DW$33, DW_AT_type(*$C$DW$T$8)
     174                      .dwendtag $C$DW$29
     175              
     176              
     177              $C$DW$34        .dwtag  DW_TAG_subprogram, DW_AT_name("my_fread")
     178                      .dwattr $C$DW$34, DW_AT_TI_symbol_name("_my_fread")
     179                      .dwattr $C$DW$34, DW_AT_type(*$C$DW$T$116)
     180                      .dwattr $C$DW$34, DW_AT_declaration
     181                      .dwattr $C$DW$34, DW_AT_external
     182              $C$DW$35        .dwtag  DW_TAG_formal_parameter
     183                      .dwattr $C$DW$35, DW_AT_type(*$C$DW$T$3)
     184              $C$DW$36        .dwtag  DW_TAG_formal_parameter
     185                      .dwattr $C$DW$36, DW_AT_type(*$C$DW$T$116)
     186              $C$DW$37        .dwtag  DW_TAG_formal_parameter
     187                      .dwattr $C$DW$37, DW_AT_type(*$C$DW$T$116)
     188              $C$DW$38        .dwtag  DW_TAG_formal_parameter
     189                      .dwattr $C$DW$38, DW_AT_type(*$C$DW$T$100)
     190                      .dwendtag $C$DW$34
     191              
     192              
     193              $C$DW$39        .dwtag  DW_TAG_subprogram, DW_AT_name("my_fopen")
     194                      .dwattr $C$DW$39, DW_AT_TI_symbol_name("_my_fopen")
     195                      .dwattr $C$DW$39, DW_AT_type(*$C$DW$T$100)
     196                      .dwattr $C$DW$39, DW_AT_declaration
     197                      .dwattr $C$DW$39, DW_AT_external
     198              $C$DW$40        .dwtag  DW_TAG_formal_parameter
     199                      .dwattr $C$DW$40, DW_AT_type(*$C$DW$T$111)
     200              $C$DW$41        .dwtag  DW_TAG_formal_parameter
     201                      .dwattr $C$DW$41, DW_AT_type(*$C$DW$T$111)
     202                      .dwendtag $C$DW$39
     203              
     204              
     205              $C$DW$42        .dwtag  DW_TAG_subprogram, DW_AT_name("my_fclose")
TMS320C55x Assembler PC v4.4.1 Wed Sep 13 16:33:30 2017

Tools Copyright (c) 1996-2012 Texas Instruments Incorporated
C:\Users\a0221074\AppData\Local\Temp\0522410                         PAGE    5

     206                      .dwattr $C$DW$42, DW_AT_TI_symbol_name("_my_fclose")
     207                      .dwattr $C$DW$42, DW_AT_type(*$C$DW$T$157)
     208                      .dwattr $C$DW$42, DW_AT_declaration
     209                      .dwattr $C$DW$42, DW_AT_external
     210              $C$DW$43        .dwtag  DW_TAG_formal_parameter
     211                      .dwattr $C$DW$43, DW_AT_type(*$C$DW$T$100)
     212                      .dwendtag $C$DW$42
     213              
     214              $C$DW$44        .dwtag  DW_TAG_variable, DW_AT_name("SEG0")
     215                      .dwattr $C$DW$44, DW_AT_TI_symbol_name("_SEG0")
     216                      .dwattr $C$DW$44, DW_AT_type(*$C$DW$T$115)
     217                      .dwattr $C$DW$44, DW_AT_declaration
     218                      .dwattr $C$DW$44, DW_AT_external
     219              $C$DW$45        .dwtag  DW_TAG_variable, DW_AT_name("gWord")
     220                      .dwattr $C$DW$45, DW_AT_TI_symbol_name("_gWord")
     221                      .dwattr $C$DW$45, DW_AT_type(*$C$DW$T$141)
     222                      .dwattr $C$DW$45, DW_AT_declaration
     223                      .dwattr $C$DW$45, DW_AT_external
     224              $C$DW$46        .dwtag  DW_TAG_variable, DW_AT_name("gNet")
     225                      .dwattr $C$DW$46, DW_AT_TI_symbol_name("_gNet")
     226                      .dwattr $C$DW$46, DW_AT_type(*$C$DW$T$141)
     227                      .dwattr $C$DW$46, DW_AT_declaration
     228                      .dwattr $C$DW$46, DW_AT_external
     229              $C$DW$47        .dwtag  DW_TAG_variable, DW_AT_name("gHmm")
     230                      .dwattr $C$DW$47, DW_AT_TI_symbol_name("_gHmm")
     231                      .dwattr $C$DW$47, DW_AT_type(*$C$DW$T$141)
     232                      .dwattr $C$DW$47, DW_AT_declaration
     233                      .dwattr $C$DW$47, DW_AT_external
     234              $C$DW$48        .dwtag  DW_TAG_variable, DW_AT_name("gMu")
     235                      .dwattr $C$DW$48, DW_AT_TI_symbol_name("_gMu")
     236                      .dwattr $C$DW$48, DW_AT_type(*$C$DW$T$141)
     237                      .dwattr $C$DW$48, DW_AT_declaration
     238                      .dwattr $C$DW$48, DW_AT_external
     239              $C$DW$49        .dwtag  DW_TAG_variable, DW_AT_name("gVar")
     240                      .dwattr $C$DW$49, DW_AT_TI_symbol_name("_gVar")
     241                      .dwattr $C$DW$49, DW_AT_type(*$C$DW$T$141)
     242                      .dwattr $C$DW$49, DW_AT_declaration
     243                      .dwattr $C$DW$49, DW_AT_external
     244              $C$DW$50        .dwtag  DW_TAG_variable, DW_AT_name("gTran")
     245                      .dwattr $C$DW$50, DW_AT_TI_symbol_name("_gTran")
     246                      .dwattr $C$DW$50, DW_AT_type(*$C$DW$T$141)
     247                      .dwattr $C$DW$50, DW_AT_declaration
     248                      .dwattr $C$DW$50, DW_AT_external
     249              $C$DW$51        .dwtag  DW_TAG_variable, DW_AT_name("gPdf")
     250                      .dwattr $C$DW$51, DW_AT_TI_symbol_name("_gPdf")
     251                      .dwattr $C$DW$51, DW_AT_type(*$C$DW$T$141)
     252                      .dwattr $C$DW$51, DW_AT_declaration
     253                      .dwattr $C$DW$51, DW_AT_external
     254              $C$DW$52        .dwtag  DW_TAG_variable, DW_AT_name("gMixture")
     255                      .dwattr $C$DW$52, DW_AT_TI_symbol_name("_gMixture")
     256                      .dwattr $C$DW$52, DW_AT_type(*$C$DW$T$141)
     257                      .dwattr $C$DW$52, DW_AT_declaration
     258                      .dwattr $C$DW$52, DW_AT_external
     259              $C$DW$53        .dwtag  DW_TAG_variable, DW_AT_name("gGconst")
     260                      .dwattr $C$DW$53, DW_AT_TI_symbol_name("_gGconst")
TMS320C55x Assembler PC v4.4.1 Wed Sep 13 16:33:30 2017

Tools Copyright (c) 1996-2012 Texas Instruments Incorporated
C:\Users\a0221074\AppData\Local\Temp\0522410                         PAGE    6

     261                      .dwattr $C$DW$53, DW_AT_type(*$C$DW$T$141)
     262                      .dwattr $C$DW$53, DW_AT_declaration
     263                      .dwattr $C$DW$53, DW_AT_external
     264              $C$DW$54        .dwtag  DW_TAG_variable, DW_AT_name("gDim")
     265                      .dwattr $C$DW$54, DW_AT_TI_symbol_name("_gDim")
     266                      .dwattr $C$DW$54, DW_AT_type(*$C$DW$T$141)
     267                      .dwattr $C$DW$54, DW_AT_declaration
     268                      .dwattr $C$DW$54, DW_AT_external
     269              $C$DW$55        .dwtag  DW_TAG_variable, DW_AT_name("gConfig")
     270                      .dwattr $C$DW$55, DW_AT_TI_symbol_name("_gConfig")
     271                      .dwattr $C$DW$55, DW_AT_type(*$C$DW$T$141)
     272                      .dwattr $C$DW$55, DW_AT_declaration
     273                      .dwattr $C$DW$55, DW_AT_external
     274 000000               .bss    _grammar_data,26,0,2
     275              $C$DW$56        .dwtag  DW_TAG_variable, DW_AT_name("grammar_data")
     276                      .dwattr $C$DW$56, DW_AT_TI_symbol_name("_grammar_data")
     277                      .dwattr $C$DW$56, DW_AT_type(*$C$DW$T$139)
     278                      .dwattr $C$DW$56, DW_AT_location[DW_OP_addr _grammar_data]
     279              ;       C:\ti\ccsv7\tools\compiler\c5500_4.4.1\bin\acp55.exe -@C:\\Users\\a0221074\\AppData\\Local\\Temp\\052
     280 000000               .sect   ".text:_load_scales"
     281                      .clink
     282                      .global _load_scales
     283              
     284              $C$DW$57        .dwtag  DW_TAG_subprogram, DW_AT_name("load_scales")
     285                      .dwattr $C$DW$57, DW_AT_low_pc(_load_scales)
     286                      .dwattr $C$DW$57, DW_AT_high_pc(0x00)
     287                      .dwattr $C$DW$57, DW_AT_TI_symbol_name("_load_scales")
     288                      .dwattr $C$DW$57, DW_AT_external
     289                      .dwattr $C$DW$57, DW_AT_type(*$C$DW$T$95)
     290                      .dwattr $C$DW$57, DW_AT_TI_begin_file("C:/Users/a0221074/Desktop/C5000/IBM_Watson_TIdesign_workarea/C
     291                      .dwattr $C$DW$57, DW_AT_TI_begin_line(0x3c)
     292                      .dwattr $C$DW$57, DW_AT_TI_begin_column(0x2e)
     293                      .dwattr $C$DW$57, DW_AT_TI_max_frame_size(0x0a)
     294                      .dwpsn  file "C:/Users/a0221074/Desktop/C5000/IBM_Watson_TIdesign_workarea/CSL_bitbucket/c55_csl/c55x
     295              
     296                      .dwfde $C$DW$CIE, _load_scales
     297              $C$DW$58        .dwtag  DW_TAG_formal_parameter, DW_AT_name("fname")
     298                      .dwattr $C$DW$58, DW_AT_TI_symbol_name("_fname")
     299                      .dwattr $C$DW$58, DW_AT_type(*$C$DW$T$77)
     300                      .dwattr $C$DW$58, DW_AT_location[DW_OP_reg17]
     301              $C$DW$59        .dwtag  DW_TAG_formal_parameter, DW_AT_name("gv")
     302                      .dwattr $C$DW$59, DW_AT_TI_symbol_name("_gv")
     303                      .dwattr $C$DW$59, DW_AT_type(*$C$DW$T$97)
     304                      .dwattr $C$DW$59, DW_AT_location[DW_OP_reg19]
     305              ;*******************************************************************************
     306              ;* FUNCTION NAME: load_scales                                                  *
     307              ;*                                                                             *
     308              ;*   Function Uses Regs : AC0,AC0,AC1,AC1,T0,AR0,XAR0,AR1,XAR1,AR3,XAR3,SP,    *
     309              ;*                        CARRY,TC1,M40,SATA,SATD,RDM,FRCT,SMUL                *
     310              ;*   Stack Frame        : Compact (No Frame Pointer, w/ debug)                 *
     311              ;*   Total Frame Size   : 10 words                                             *
     312              ;*                        (2 return address/alignment)                         *
     313              ;*                        (8 local values)                                     *
     314              ;*   Min System Stack   : 1 word                                               *
     315              ;*******************************************************************************
TMS320C55x Assembler PC v4.4.1 Wed Sep 13 16:33:30 2017

Tools Copyright (c) 1996-2012 Texas Instruments Incorporated
C:\Users\a0221074\AppData\Local\Temp\0522410                         PAGE    7

     316 000000       _load_scales:
     317                      .dwcfi  cfa_offset, 1
     318                      .dwcfi  save_reg_to_mem, 91, -1
     319 000000 4EF7          AADD #-9, SP
     320                      .dwcfi  cfa_offset, 10
     321              $C$DW$60        .dwtag  DW_TAG_variable, DW_AT_name("fname")
     322                      .dwattr $C$DW$60, DW_AT_TI_symbol_name("_fname")
     323                      .dwattr $C$DW$60, DW_AT_type(*$C$DW$T$77)
     324                      .dwattr $C$DW$60, DW_AT_location[DW_OP_bregx 0x24 0]
     325              $C$DW$61        .dwtag  DW_TAG_variable, DW_AT_name("gv")
     326                      .dwattr $C$DW$61, DW_AT_TI_symbol_name("_gv")
     327                      .dwattr $C$DW$61, DW_AT_type(*$C$DW$T$97)
     328                      .dwattr $C$DW$61, DW_AT_location[DW_OP_bregx 0x24 2]
     329              $C$DW$62        .dwtag  DW_TAG_variable, DW_AT_name("fp")
     330                      .dwattr $C$DW$62, DW_AT_TI_symbol_name("_fp")
     331                      .dwattr $C$DW$62, DW_AT_type(*$C$DW$T$100)
     332                      .dwattr $C$DW$62, DW_AT_location[DW_OP_bregx 0x24 4]
     333              $C$DW$63        .dwtag  DW_TAG_variable, DW_AT_name("nread")
     334                      .dwattr $C$DW$63, DW_AT_TI_symbol_name("_nread")
     335                      .dwattr $C$DW$63, DW_AT_type(*$C$DW$T$116)
     336                      .dwattr $C$DW$63, DW_AT_location[DW_OP_bregx 0x24 6]
     337 000002 EB04          MOV XAR1, dbl(*SP(#2))
         000004 95   
     338 000005 EB00          MOV XAR0, dbl(*SP(#0))
         000007 85   
     339                      .dwpsn  file "C:/Users/a0221074/Desktop/C5000/IBM_Watson_TIdesign_workarea/CSL_bitbucket/c55_csl/c55x
     340 000008 EC31          AMOV #$C$FSL1, XAR1 ; |65| 
         00000a 9E00 
         00000c 0000+
     341              $C$DW$64        .dwtag  DW_TAG_TI_branch
     342                      .dwattr $C$DW$64, DW_AT_low_pc(0x00)
     343                      .dwattr $C$DW$64, DW_AT_name("_my_fopen")
     344                      .dwattr $C$DW$64, DW_AT_TI_call
     345 00000e 6C00          CALL #_my_fopen ; |65| 
         000010 0000!
     346                                                      ; call occurs [#_my_fopen] ; |65| 
     347 000012 EB08          MOV XAR0, dbl(*SP(#4))
         000014 85   
     348                      .dwpsn  file "C:/Users/a0221074/Desktop/C5000/IBM_Watson_TIdesign_workarea/CSL_bitbucket/c55_csl/c55x
     349 000015 ED08          MOV dbl(*SP(#4)), XAR3
         000017 BF   
     350 000018 90B0          MOV XAR3, AC0
     351 00001a 6390          BCC $C$L1,AC0 != #0 ; |66| 
     352                                                      ; branchcc occurs ; |66| 
     353                      .dwpsn  file "C:/Users/a0221074/Desktop/C5000/IBM_Watson_TIdesign_workarea/CSL_bitbucket/c55_csl/c55x
     354 00001c 7601          MOV #452, T0 ; |70| 
         00001e C448 
     355 000020 0601          B $C$L6   ; |70| 
         000022 0B   
     356                                                      ; branch occurs ; |70| 
     357 000023       $C$L1:    
     358                      .dwpsn  file "C:/Users/a0221074/Desktop/C5000/IBM_Watson_TIdesign_workarea/CSL_bitbucket/c55_csl/c55x
     359 000023 ED04          MOV dbl(*SP(#2)), XAR3
         000025 BF   
     360 000026 DF6D          MOV uns(*AR3(#277)), AC0 ; |74| 
TMS320C55x Assembler PC v4.4.1 Wed Sep 13 16:33:30 2017

Tools Copyright (c) 1996-2012 Texas Instruments Incorporated
C:\Users\a0221074\AppData\Local\Temp\0522410                         PAGE    8

         000028 0501 
         00002a 15   
     361              $C$DW$65        .dwtag  DW_TAG_TI_branch
     362                      .dwattr $C$DW$65, DW_AT_low_pc(0x00)
     363                      .dwattr $C$DW$65, DW_AT_name("_malloc")
     364                      .dwattr $C$DW$65, DW_AT_TI_call
     365              
     366 00002b 6C00          CALL #_malloc ; |74| 
         00002d 0000!
     367 00002f 4550  ||      SFTS AC0, #1, AC0 ; |74| 
     368              
     369                                                      ; call occurs [#_malloc] ; |74| 
     370 000031 ED04          MOV dbl(*SP(#2)), XAR3
         000033 BF   
     371 000034 EB6D          MOV XAR0, dbl(*AR3(#1202))
         000036 8504 
         000038 B2   
     372                      .dwpsn  file "C:/Users/a0221074/Desktop/C5000/IBM_Watson_TIdesign_workarea/CSL_bitbucket/c55_csl/c55x
     373 000039 ED04          MOV dbl(*SP(#2)), XAR3
         00003b BF   
     374 00003c ED6D          MOV dbl(*AR3(#1202)), XAR3
         00003e BF04 
         000040 B2   
     375 000041 90B0          MOV XAR3, AC0
     376 000043 6710          BCC $C$L2,AC0 != #0 ; |75| 
     377                                                      ; branchcc occurs ; |75| 
     378                      .dwpsn  file "C:/Users/a0221074/Desktop/C5000/IBM_Watson_TIdesign_workarea/CSL_bitbucket/c55_csl/c55x
     379 000045 ED08          MOV dbl(*SP(#4)), XAR0
         000047 8F   
     380              $C$DW$66        .dwtag  DW_TAG_TI_branch
     381                      .dwattr $C$DW$66, DW_AT_low_pc(0x00)
     382                      .dwattr $C$DW$66, DW_AT_name("_my_fclose")
     383                      .dwattr $C$DW$66, DW_AT_TI_call
     384 000048 6C00          CALL #_my_fclose ; |77| 
         00004a 0000!
     385                                                      ; call occurs [#_my_fclose] ; |77| 
     386                      .dwpsn  file "C:/Users/a0221074/Desktop/C5000/IBM_Watson_TIdesign_workarea/CSL_bitbucket/c55_csl/c55x
     387 00004c 7601          MOV #452, T0 ; |78| 
         00004e C448 
     388 000050 0600          B $C$L6   ; |78| 
         000052 DB   
     389                                                      ; branch occurs ; |78| 
     390 000053       $C$L2:    
     391                      .dwpsn  file "C:/Users/a0221074/Desktop/C5000/IBM_Watson_TIdesign_workarea/CSL_bitbucket/c55_csl/c55x
     392 000053 ED04          MOV dbl(*SP(#2)), XAR3
         000055 BF   
     393 000056 A96D          MOV *AR3(#277), AR1 ; |82| 
         000058 0115 
     394 00005a 5090          SFTL AR1, #1 ; |82| 
     395 00005c ED6D          MOV dbl(*AR3(#1202)), XAR0
         00005e 8F04 
         000060 B2   
     396 000061 7DFF          AND #0xffff, AR1, AC1 ; |82| 
         000063 FF19 
     397 000065 ED08          MOV dbl(*SP(#4)), XAR1
TMS320C55x Assembler PC v4.4.1 Wed Sep 13 16:33:30 2017

Tools Copyright (c) 1996-2012 Texas Instruments Incorporated
C:\Users\a0221074\AppData\Local\Temp\0522410                         PAGE    9

         000067 9F   
     398              $C$DW$67        .dwtag  DW_TAG_TI_branch
     399                      .dwattr $C$DW$67, DW_AT_low_pc(0x00)
     400                      .dwattr $C$DW$67, DW_AT_name("_my_fread")
     401                      .dwattr $C$DW$67, DW_AT_TI_call
     402              
     403 000068 6C00          CALL #_my_fread ; |82| 
         00006a 0000!
     404 00006c 3D10  ||      MOV #1, AC0 ; |82| 
     405              
     406                                                      ; call occurs [#_my_fread] ; |82| 
     407 00006e EB0C          MOV AC0, dbl(*SP(#6)) ; |82| 
         000070 08   
     408                      .dwpsn  file "C:/Users/a0221074/Desktop/C5000/IBM_Watson_TIdesign_workarea/CSL_bitbucket/c55_csl/c55x
     409 000071 ED04          MOV dbl(*SP(#2)), XAR3
         000073 BF   
     410 000074 DF6D          MOV uns(*AR3(#277)), AC0 ; |83| 
         000076 0501 
         000078 15   
     411              
     412 00007c 5100          SFTL AC0, #1 ; |83| 
     413 000079 ED0C  ||      MOV dbl(*SP(#6)), AC1 ; |83| 
         00007b 18   
     414              
     415 00007e 1210          CMPU AC1 == AC0, TC1 ; |83| 
         000080 04   
     416 000081 0464          BCC $C$L3,TC1 ; |83| 
         000083 21   
     417                                                      ; branchcc occurs ; |83| 
     418                      .dwpsn  file "C:/Users/a0221074/Desktop/C5000/IBM_Watson_TIdesign_workarea/CSL_bitbucket/c55_csl/c55x
     419 000084 ED6D          MOV dbl(*AR3(#1202)), XAR0
         000086 8F04 
         000088 B2   
     420              $C$DW$68        .dwtag  DW_TAG_TI_branch
     421                      .dwattr $C$DW$68, DW_AT_low_pc(0x00)
     422                      .dwattr $C$DW$68, DW_AT_name("_free")
     423                      .dwattr $C$DW$68, DW_AT_TI_call
     424 000089 6C00          CALL #_free ; |85| 
         00008b 0000!
     425                                                      ; call occurs [#_free] ; |85| 
     426                      .dwpsn  file "C:/Users/a0221074/Desktop/C5000/IBM_Watson_TIdesign_workarea/CSL_bitbucket/c55_csl/c55x
     427 00008d ED04          MOV dbl(*SP(#2)), XAR3
         00008f BF   
     428 000090 3C00          MOV #0, AC0 ; |86| 
     429 000092 EB6D          MOV AC0, dbl(*AR3(#1202))
         000094 0804 
         000096 B2   
     430                      .dwpsn  file "C:/Users/a0221074/Desktop/C5000/IBM_Watson_TIdesign_workarea/CSL_bitbucket/c55_csl/c55x
     431 000097 ED08          MOV dbl(*SP(#4)), XAR0
         000099 8F   
     432              $C$DW$69        .dwtag  DW_TAG_TI_branch
     433                      .dwattr $C$DW$69, DW_AT_low_pc(0x00)
     434                      .dwattr $C$DW$69, DW_AT_name("_my_fclose")
     435                      .dwattr $C$DW$69, DW_AT_TI_call
     436 00009a 6C00          CALL #_my_fclose ; |87| 
TMS320C55x Assembler PC v4.4.1 Wed Sep 13 16:33:30 2017

Tools Copyright (c) 1996-2012 Texas Instruments Incorporated
C:\Users\a0221074\AppData\Local\Temp\0522410                         PAGE   10

         00009c 0000!
     437                                                      ; call occurs [#_my_fclose] ; |87| 
     438                      .dwpsn  file "C:/Users/a0221074/Desktop/C5000/IBM_Watson_TIdesign_workarea/CSL_bitbucket/c55_csl/c55x
     439 00009e 7601          MOV #452, T0 ; |88| 
         0000a0 C448 
     440 0000a2 0600          B $C$L6   ; |88| 
         0000a4 89   
     441                                                      ; branch occurs ; |88| 
     442 0000a5       $C$L3:    
     443                      .dwpsn  file "C:/Users/a0221074/Desktop/C5000/IBM_Watson_TIdesign_workarea/CSL_bitbucket/c55_csl/c55x
     444 0000a5 DF6D          MOV uns(*AR3(#277)), AC0 ; |92| 
         0000a7 0501 
         0000a9 15   
     445              $C$DW$70        .dwtag  DW_TAG_TI_branch
     446                      .dwattr $C$DW$70, DW_AT_low_pc(0x00)
     447                      .dwattr $C$DW$70, DW_AT_name("_malloc")
     448                      .dwattr $C$DW$70, DW_AT_TI_call
     449              
     450 0000aa 6C00          CALL #_malloc ; |92| 
         0000ac 0000!
     451 0000ae 4550  ||      SFTS AC0, #1, AC0 ; |92| 
     452              
     453                                                      ; call occurs [#_malloc] ; |92| 
     454 0000b0 ED04          MOV dbl(*SP(#2)), XAR3
         0000b2 BF   
     455 0000b3 EB6D          MOV XAR0, dbl(*AR3(#1204))
         0000b5 8504 
         0000b7 B4   
     456                      .dwpsn  file "C:/Users/a0221074/Desktop/C5000/IBM_Watson_TIdesign_workarea/CSL_bitbucket/c55_csl/c55x
     457 0000b8 ED04          MOV dbl(*SP(#2)), XAR3
         0000ba BF   
     458 0000bb ED6D          MOV dbl(*AR3(#1204)), XAR3
         0000bd BF04 
         0000bf B4   
     459 0000c0 90B0          MOV XAR3, AC0
     460 0000c2 6710          BCC $C$L4,AC0 != #0 ; |93| 
     461                                                      ; branchcc occurs ; |93| 
     462                      .dwpsn  file "C:/Users/a0221074/Desktop/C5000/IBM_Watson_TIdesign_workarea/CSL_bitbucket/c55_csl/c55x
     463 0000c4 ED08          MOV dbl(*SP(#4)), XAR0
         0000c6 8F   
     464              $C$DW$71        .dwtag  DW_TAG_TI_branch
     465                      .dwattr $C$DW$71, DW_AT_low_pc(0x00)
     466                      .dwattr $C$DW$71, DW_AT_name("_my_fclose")
     467                      .dwattr $C$DW$71, DW_AT_TI_call
     468 0000c7 6C00          CALL #_my_fclose ; |95| 
         0000c9 0000!
     469                                                      ; call occurs [#_my_fclose] ; |95| 
     470                      .dwpsn  file "C:/Users/a0221074/Desktop/C5000/IBM_Watson_TIdesign_workarea/CSL_bitbucket/c55_csl/c55x
     471 0000cb 7601          MOV #452, T0 ; |96| 
         0000cd C448 
     472 0000cf 0600          B $C$L6   ; |96| 
         0000d1 5C   
     473                                                      ; branch occurs ; |96| 
     474 0000d2       $C$L4:    
     475                      .dwpsn  file "C:/Users/a0221074/Desktop/C5000/IBM_Watson_TIdesign_workarea/CSL_bitbucket/c55_csl/c55x
TMS320C55x Assembler PC v4.4.1 Wed Sep 13 16:33:30 2017

Tools Copyright (c) 1996-2012 Texas Instruments Incorporated
C:\Users\a0221074\AppData\Local\Temp\0522410                         PAGE   11

     476 0000d2 ED04          MOV dbl(*SP(#2)), XAR3
         0000d4 BF   
     477 0000d5 A96D          MOV *AR3(#277), AR1 ; |100| 
         0000d7 0115 
     478 0000d9 5090          SFTL AR1, #1 ; |100| 
     479 0000db ED6D          MOV dbl(*AR3(#1204)), XAR0
         0000dd 8F04 
         0000df B4   
     480 0000e0 7DFF          AND #0xffff, AR1, AC1 ; |100| 
         0000e2 FF19 
     481 0000e4 ED08          MOV dbl(*SP(#4)), XAR1
         0000e6 9F   
     482              $C$DW$72        .dwtag  DW_TAG_TI_branch
     483                      .dwattr $C$DW$72, DW_AT_low_pc(0x00)
     484                      .dwattr $C$DW$72, DW_AT_name("_my_fread")
     485                      .dwattr $C$DW$72, DW_AT_TI_call
     486              
     487 0000e7 6C00          CALL #_my_fread ; |100| 
         0000e9 0000!
     488 0000eb 3D10  ||      MOV #1, AC0 ; |100| 
     489              
     490                                                      ; call occurs [#_my_fread] ; |100| 
     491 0000ed EB0C          MOV AC0, dbl(*SP(#6)) ; |100| 
         0000ef 08   
     492                      .dwpsn  file "C:/Users/a0221074/Desktop/C5000/IBM_Watson_TIdesign_workarea/CSL_bitbucket/c55_csl/c55x
     493 0000f0 ED04          MOV dbl(*SP(#2)), XAR3
         0000f2 BF   
     494 0000f3 DF6D          MOV uns(*AR3(#277)), AC0 ; |101| 
         0000f5 0501 
         0000f7 15   
     495              
     496 0000fb 5100          SFTL AC0, #1 ; |101| 
     497 0000f8 ED0C  ||      MOV dbl(*SP(#6)), AC1 ; |101| 
         0000fa 18   
     498              
     499 0000fd 1210          CMPU AC1 == AC0, TC1 ; |101| 
         0000ff 04   
     500 000100 0464          BCC $C$L5,TC1 ; |101| 
         000102 20   
     501                                                      ; branchcc occurs ; |101| 
     502                      .dwpsn  file "C:/Users/a0221074/Desktop/C5000/IBM_Watson_TIdesign_workarea/CSL_bitbucket/c55_csl/c55x
     503 000103 ED6D          MOV dbl(*AR3(#1204)), XAR0
         000105 8F04 
         000107 B4   
     504              $C$DW$73        .dwtag  DW_TAG_TI_branch
     505                      .dwattr $C$DW$73, DW_AT_low_pc(0x00)
     506                      .dwattr $C$DW$73, DW_AT_name("_free")
     507                      .dwattr $C$DW$73, DW_AT_TI_call
     508 000108 6C00          CALL #_free ; |103| 
         00010a 0000!
     509                                                      ; call occurs [#_free] ; |103| 
     510                      .dwpsn  file "C:/Users/a0221074/Desktop/C5000/IBM_Watson_TIdesign_workarea/CSL_bitbucket/c55_csl/c55x
     511 00010c ED04          MOV dbl(*SP(#2)), XAR3
         00010e BF   
     512 00010f 3C00          MOV #0, AC0 ; |104| 
TMS320C55x Assembler PC v4.4.1 Wed Sep 13 16:33:30 2017

Tools Copyright (c) 1996-2012 Texas Instruments Incorporated
C:\Users\a0221074\AppData\Local\Temp\0522410                         PAGE   12

     513 000111 EB6D          MOV AC0, dbl(*AR3(#1204))
         000113 0804 
         000115 B4   
     514                      .dwpsn  file "C:/Users/a0221074/Desktop/C5000/IBM_Watson_TIdesign_workarea/CSL_bitbucket/c55_csl/c55x
     515 000116 ED08          MOV dbl(*SP(#4)), XAR0
         000118 8F   
     516              $C$DW$74        .dwtag  DW_TAG_TI_branch
     517                      .dwattr $C$DW$74, DW_AT_low_pc(0x00)
     518                      .dwattr $C$DW$74, DW_AT_name("_my_fclose")
     519                      .dwattr $C$DW$74, DW_AT_TI_call
     520 000119 6C00          CALL #_my_fclose ; |105| 
         00011b 0000!
     521                                                      ; call occurs [#_my_fclose] ; |105| 
     522                      .dwpsn  file "C:/Users/a0221074/Desktop/C5000/IBM_Watson_TIdesign_workarea/CSL_bitbucket/c55_csl/c55x
     523 00011d 7601          MOV #452, T0 ; |106| 
         00011f C448 
     524 000121 4A0B          B $C$L6   ; |106| 
     525                                                      ; branch occurs ; |106| 
     526 000123       $C$L5:    
     527                      .dwpsn  file "C:/Users/a0221074/Desktop/C5000/IBM_Watson_TIdesign_workarea/CSL_bitbucket/c55_csl/c55x
     528 000123 ED08          MOV dbl(*SP(#4)), XAR0
         000125 8F   
     529              $C$DW$75        .dwtag  DW_TAG_TI_branch
     530                      .dwattr $C$DW$75, DW_AT_low_pc(0x00)
     531                      .dwattr $C$DW$75, DW_AT_name("_fclose")
     532                      .dwattr $C$DW$75, DW_AT_TI_call
     533 000126 6C00          CALL #_fclose ; |110| 
         000128 0000!
     534                                                      ; call occurs [#_fclose] ; |110| 
     535                      .dwpsn  file "C:/Users/a0221074/Desktop/C5000/IBM_Watson_TIdesign_workarea/CSL_bitbucket/c55_csl/c55x
     536 00012a 7600          MOV #100, T0 ; |111| 
         00012c 6448 
     537 00012e       $C$L6:    
     538                      .dwpsn  file "C:/Users/a0221074/Desktop/C5000/IBM_Watson_TIdesign_workarea/CSL_bitbucket/c55_csl/c55x
     539 00012e 4E09          AADD #9, SP
     540                      .dwcfi  cfa_offset, 1
     541              $C$DW$76        .dwtag  DW_TAG_TI_branch
     542                      .dwattr $C$DW$76, DW_AT_low_pc(0x00)
     543                      .dwattr $C$DW$76, DW_AT_TI_return
     544 000130 4804          RET
     545                                                      ; return occurs
     546                      .dwattr $C$DW$57, DW_AT_TI_end_file("C:/Users/a0221074/Desktop/C5000/IBM_Watson_TIdesign_workarea/CSL
     547                      .dwattr $C$DW$57, DW_AT_TI_end_line(0x70)
     548                      .dwattr $C$DW$57, DW_AT_TI_end_column(0x01)
     549                      .dwendentry
     550                      .dwendtag $C$DW$57
     551              
     552 000000               .sect   ".text:_load_n_mfcc"
     553                      .clink
     554                      .global _load_n_mfcc
     555              
     556              $C$DW$77        .dwtag  DW_TAG_subprogram, DW_AT_name("load_n_mfcc")
     557                      .dwattr $C$DW$77, DW_AT_low_pc(_load_n_mfcc)
     558                      .dwattr $C$DW$77, DW_AT_high_pc(0x00)
     559                      .dwattr $C$DW$77, DW_AT_TI_symbol_name("_load_n_mfcc")
TMS320C55x Assembler PC v4.4.1 Wed Sep 13 16:33:30 2017

Tools Copyright (c) 1996-2012 Texas Instruments Incorporated
C:\Users\a0221074\AppData\Local\Temp\0522410                         PAGE   13

     560                      .dwattr $C$DW$77, DW_AT_external
     561                      .dwattr $C$DW$77, DW_AT_type(*$C$DW$T$9)
     562                      .dwattr $C$DW$77, DW_AT_TI_begin_file("C:/Users/a0221074/Desktop/C5000/IBM_Watson_TIdesign_workarea/C
     563                      .dwattr $C$DW$77, DW_AT_TI_begin_line(0x8d)
     564                      .dwattr $C$DW$77, DW_AT_TI_begin_column(0x27)
     565                      .dwattr $C$DW$77, DW_AT_TI_max_frame_size(0x04)
     566                      .dwpsn  file "C:/Users/a0221074/Desktop/C5000/IBM_Watson_TIdesign_workarea/CSL_bitbucket/c55_csl/c55x
     567              
     568                      .dwfde $C$DW$CIE, _load_n_mfcc
     569              $C$DW$78        .dwtag  DW_TAG_formal_parameter, DW_AT_name("n_mfcc_data")
     570                      .dwattr $C$DW$78, DW_AT_TI_symbol_name("_n_mfcc_data")
     571                      .dwattr $C$DW$78, DW_AT_type(*$C$DW$T$138)
     572                      .dwattr $C$DW$78, DW_AT_location[DW_OP_reg17]
     573              ;*******************************************************************************
     574              ;* FUNCTION NAME: load_n_mfcc                                                  *
     575              ;*                                                                             *
     576              ;*   Function Uses Regs : T0,AR0,XAR0,AR1,AR3,XAR3,SP,M40,SATA,SATD,RDM,FRCT,  *
     577              ;*                        SMUL                                                 *
     578              ;*   Stack Frame        : Compact (No Frame Pointer, w/ debug)                 *
     579              ;*   Total Frame Size   : 4 words                                              *
     580              ;*                        (1 return address/alignment)                         *
     581              ;*                        (3 local values)                                     *
     582              ;*   Min System Stack   : 1 word                                               *
     583              ;*******************************************************************************
     584 000000       _load_n_mfcc:
     585                      .dwcfi  cfa_offset, 1
     586                      .dwcfi  save_reg_to_mem, 91, -1
     587 000000 4EFD          AADD #-3, SP
     588                      .dwcfi  cfa_offset, 4
     589              $C$DW$79        .dwtag  DW_TAG_variable, DW_AT_name("n_mfcc_data")
     590                      .dwattr $C$DW$79, DW_AT_TI_symbol_name("_n_mfcc_data")
     591                      .dwattr $C$DW$79, DW_AT_type(*$C$DW$T$138)
     592                      .dwattr $C$DW$79, DW_AT_location[DW_OP_bregx 0x24 0]
     593              $C$DW$80        .dwtag  DW_TAG_variable, DW_AT_name("n_mfcc")
     594                      .dwattr $C$DW$80, DW_AT_TI_symbol_name("_n_mfcc")
     595                      .dwattr $C$DW$80, DW_AT_type(*$C$DW$T$9)
     596                      .dwattr $C$DW$80, DW_AT_location[DW_OP_bregx 0x24 2]
     597 000002 EB00          MOV XAR0, dbl(*SP(#0))
         000004 85   
     598                      .dwpsn  file "C:/Users/a0221074/Desktop/C5000/IBM_Watson_TIdesign_workarea/CSL_bitbucket/c55_csl/c55x
     599 000005 ED00          MOV dbl(*SP(#0)), XAR3
         000007 BF   
     600 000008 A961          MOV *AR3, AR1 ; |145| 
     601 00000a C904          MOV AR1, *SP(#2) ; |145| 
     602                      .dwpsn  file "C:/Users/a0221074/Desktop/C5000/IBM_Watson_TIdesign_workarea/CSL_bitbucket/c55_csl/c55x
     603 00000c 2294          MOV AR1, T0
     604                      .dwpsn  file "C:/Users/a0221074/Desktop/C5000/IBM_Watson_TIdesign_workarea/CSL_bitbucket/c55_csl/c55x
     605 00000e 4E03          AADD #3, SP
     606                      .dwcfi  cfa_offset, 1
     607              $C$DW$81        .dwtag  DW_TAG_TI_branch
     608                      .dwattr $C$DW$81, DW_AT_low_pc(0x00)
     609                      .dwattr $C$DW$81, DW_AT_TI_return
     610 000010 4804          RET
     611                                                      ; return occurs
     612                      .dwattr $C$DW$77, DW_AT_TI_end_file("C:/Users/a0221074/Desktop/C5000/IBM_Watson_TIdesign_workarea/CSL
TMS320C55x Assembler PC v4.4.1 Wed Sep 13 16:33:30 2017

Tools Copyright (c) 1996-2012 Texas Instruments Incorporated
C:\Users\a0221074\AppData\Local\Temp\0522410                         PAGE   14

     613                      .dwattr $C$DW$77, DW_AT_TI_end_line(0x94)
     614                      .dwattr $C$DW$77, DW_AT_TI_end_column(0x01)
     615                      .dwendentry
     616                      .dwendtag $C$DW$77
     617              
     618 000000               .sect   ".text:_unpacking"
     619                      .clink
     620                      .global _unpacking
     621              
     622              $C$DW$82        .dwtag  DW_TAG_subprogram, DW_AT_name("unpacking")
     623                      .dwattr $C$DW$82, DW_AT_low_pc(_unpacking)
     624                      .dwattr $C$DW$82, DW_AT_high_pc(0x00)
     625                      .dwattr $C$DW$82, DW_AT_TI_symbol_name("_unpacking")
     626                      .dwattr $C$DW$82, DW_AT_external
     627                      .dwattr $C$DW$82, DW_AT_type(*$C$DW$T$95)
     628                      .dwattr $C$DW$82, DW_AT_TI_begin_file("C:/Users/a0221074/Desktop/C5000/IBM_Watson_TIdesign_workarea/C
     629                      .dwattr $C$DW$82, DW_AT_TI_begin_line(0xa3)
     630                      .dwattr $C$DW$82, DW_AT_TI_begin_column(0x01)
     631                      .dwattr $C$DW$82, DW_AT_TI_max_frame_size(0x20)
     632                      .dwpsn  file "C:/Users/a0221074/Desktop/C5000/IBM_Watson_TIdesign_workarea/CSL_bitbucket/c55_csl/c55x
     633              
     634                      .dwfde $C$DW$CIE, _unpacking
     635              $C$DW$83        .dwtag  DW_TAG_formal_parameter, DW_AT_name("base")
     636                      .dwattr $C$DW$83, DW_AT_TI_symbol_name("_base")
     637                      .dwattr $C$DW$83, DW_AT_type(*$C$DW$T$23)
     638                      .dwattr $C$DW$83, DW_AT_location[DW_OP_reg17]
     639              $C$DW$84        .dwtag  DW_TAG_formal_parameter, DW_AT_name("nbr")
     640                      .dwattr $C$DW$84, DW_AT_TI_symbol_name("_nbr")
     641                      .dwattr $C$DW$84, DW_AT_type(*$C$DW$T$22)
     642                      .dwattr $C$DW$84, DW_AT_location[DW_OP_reg12]
     643              $C$DW$85        .dwtag  DW_TAG_formal_parameter, DW_AT_name("n_mfcc")
     644                      .dwattr $C$DW$85, DW_AT_TI_symbol_name("_n_mfcc")
     645                      .dwattr $C$DW$85, DW_AT_type(*$C$DW$T$8)
     646                      .dwattr $C$DW$85, DW_AT_location[DW_OP_reg13]
     647              $C$DW$86        .dwtag  DW_TAG_formal_parameter, DW_AT_name("fp")
     648                      .dwattr $C$DW$86, DW_AT_TI_symbol_name("_fp")
     649                      .dwattr $C$DW$86, DW_AT_type(*$C$DW$T$100)
     650                      .dwattr $C$DW$86, DW_AT_location[DW_OP_reg19]
     651              $C$DW$87        .dwtag  DW_TAG_formal_parameter, DW_AT_name("scale")
     652                      .dwattr $C$DW$87, DW_AT_TI_symbol_name("_scale")
     653                      .dwattr $C$DW$87, DW_AT_type(*$C$DW$T$23)
     654                      .dwattr $C$DW$87, DW_AT_location[DW_OP_reg21]
     655              ;*******************************************************************************
     656              ;* FUNCTION NAME: unpacking                                                    *
     657              ;*                                                                             *
     658              ;*   Function Uses Regs : AC0,AC0,AC1,AC1,T0,T1,AR0,XAR0,AR1,XAR1,AR2,XAR2,AR3,*
     659              ;*                        XAR3,SP,CARRY,TC1,M40,SATA,SATD,RDM,FRCT,SMUL        *
     660              ;*   Stack Frame        : Compact (No Frame Pointer, w/ debug)                 *
     661              ;*   Total Frame Size   : 32 words                                             *
     662              ;*                        (2 return address/alignment)                         *
     663              ;*                        (30 local values)                                    *
     664              ;*   Min System Stack   : 1 word                                               *
     665              ;*******************************************************************************
     666 000000       _unpacking:
     667                      .dwcfi  cfa_offset, 1
TMS320C55x Assembler PC v4.4.1 Wed Sep 13 16:33:30 2017

Tools Copyright (c) 1996-2012 Texas Instruments Incorporated
C:\Users\a0221074\AppData\Local\Temp\0522410                         PAGE   15

     668                      .dwcfi  save_reg_to_mem, 91, -1
     669 000000 4EE1          AADD #-31, SP
     670                      .dwcfi  cfa_offset, 32
     671              $C$DW$88        .dwtag  DW_TAG_variable, DW_AT_name("base")
     672                      .dwattr $C$DW$88, DW_AT_TI_symbol_name("_base")
     673                      .dwattr $C$DW$88, DW_AT_type(*$C$DW$T$23)
     674                      .dwattr $C$DW$88, DW_AT_location[DW_OP_bregx 0x24 0]
     675              $C$DW$89        .dwtag  DW_TAG_variable, DW_AT_name("nbr")
     676                      .dwattr $C$DW$89, DW_AT_TI_symbol_name("_nbr")
     677                      .dwattr $C$DW$89, DW_AT_type(*$C$DW$T$22)
     678                      .dwattr $C$DW$89, DW_AT_location[DW_OP_bregx 0x24 2]
     679              $C$DW$90        .dwtag  DW_TAG_variable, DW_AT_name("n_mfcc")
     680                      .dwattr $C$DW$90, DW_AT_TI_symbol_name("_n_mfcc")
     681                      .dwattr $C$DW$90, DW_AT_type(*$C$DW$T$8)
     682                      .dwattr $C$DW$90, DW_AT_location[DW_OP_bregx 0x24 3]
     683              $C$DW$91        .dwtag  DW_TAG_variable, DW_AT_name("fp")
     684                      .dwattr $C$DW$91, DW_AT_TI_symbol_name("_fp")
     685                      .dwattr $C$DW$91, DW_AT_type(*$C$DW$T$100)
     686                      .dwattr $C$DW$91, DW_AT_location[DW_OP_bregx 0x24 4]
     687              $C$DW$92        .dwtag  DW_TAG_variable, DW_AT_name("scale")
     688                      .dwattr $C$DW$92, DW_AT_TI_symbol_name("_scale")
     689                      .dwattr $C$DW$92, DW_AT_type(*$C$DW$T$23)
     690                      .dwattr $C$DW$92, DW_AT_location[DW_OP_bregx 0x24 6]
     691              $C$DW$93        .dwtag  DW_TAG_variable, DW_AT_name("i")
     692                      .dwattr $C$DW$93, DW_AT_TI_symbol_name("_i")
     693                      .dwattr $C$DW$93, DW_AT_type(*$C$DW$T$10)
     694                      .dwattr $C$DW$93, DW_AT_location[DW_OP_bregx 0x24 8]
     695              $C$DW$94        .dwtag  DW_TAG_variable, DW_AT_name("tmp_sh")
     696                      .dwattr $C$DW$94, DW_AT_TI_symbol_name("_tmp_sh")
     697                      .dwattr $C$DW$94, DW_AT_type(*$C$DW$T$151)
     698                      .dwattr $C$DW$94, DW_AT_location[DW_OP_bregx 0x24 9]
     699              $C$DW$95        .dwtag  DW_TAG_variable, DW_AT_name("vec")
     700                      .dwattr $C$DW$95, DW_AT_TI_symbol_name("_vec")
     701                      .dwattr $C$DW$95, DW_AT_type(*$C$DW$T$23)
     702                      .dwattr $C$DW$95, DW_AT_location[DW_OP_bregx 0x24 26]
     703              $C$DW$96        .dwtag  DW_TAG_variable, DW_AT_name("nread")
     704                      .dwattr $C$DW$96, DW_AT_TI_symbol_name("_nread")
     705                      .dwattr $C$DW$96, DW_AT_type(*$C$DW$T$116)
     706                      .dwattr $C$DW$96, DW_AT_location[DW_OP_bregx 0x24 28]
     707 000002 EB0C          MOV XAR2, dbl(*SP(#6))
         000004 A5   
     708 000005 EB08          MOV XAR1, dbl(*SP(#4))
         000007 95   
     709 000008 C506          MOV T1, *SP(#3) ; |164| 
     710 00000a C404          MOV T0, *SP(#2) ; |164| 
     711 00000c EB00          MOV XAR0, dbl(*SP(#0))
         00000e 85   
     712                      .dwpsn  file "C:/Users/a0221074/Desktop/C5000/IBM_Watson_TIdesign_workarea/CSL_bitbucket/c55_csl/c55x
     713 00000f ED00          MOV dbl(*SP(#0)), XAR3
         000011 BF   
     714 000012 E610          MOV #0, *SP(#8) ; |169| 
         000014 00   
     715 000015 EB34          MOV XAR3, dbl(*SP(#26))
         000017 B5   
     716                      .dwpsn  file "C:/Users/a0221074/Desktop/C5000/IBM_Watson_TIdesign_workarea/CSL_bitbucket/c55_csl/c55x
TMS320C55x Assembler PC v4.4.1 Wed Sep 13 16:33:30 2017

Tools Copyright (c) 1996-2012 Texas Instruments Incorporated
C:\Users\a0221074\AppData\Local\Temp\0522410                         PAGE   16

     717 000018 A904          MOV *SP(#2), AR1 ; |169| 
     718 00001a AA10          MOV *SP(#8), AR2 ; |169| 
     719 00001c 12A8          CMPU AR2 >= AR1, TC1 ; |169| 
         00001e 94   
     720 00001f 0464          BCC $C$L9,TC1 ; |169| 
         000021 4B   
     721                                                      ; branchcc occurs ; |169| 
     722 000022       $C$L7:    
     723 000022       $C$DW$L$_unpacking$2$B:
     724                      .dwpsn  file "C:/Users/a0221074/Desktop/C5000/IBM_Watson_TIdesign_workarea/CSL_bitbucket/c55_csl/c55x
     725 000022 A106          MOV *SP(#3), AC1 ; |171| 
     726 000024 EC12          AMAR *SP(#9), XAR0
         000026 8E   
     727 000027 ED08          MOV dbl(*SP(#4)), XAR1
         000029 9F   
     728              $C$DW$97        .dwtag  DW_TAG_TI_branch
     729                      .dwattr $C$DW$97, DW_AT_low_pc(0x00)
     730                      .dwattr $C$DW$97, DW_AT_name("_my_fread")
     731                      .dwattr $C$DW$97, DW_AT_TI_call
     732              
     733 00002a 6C00          CALL #_my_fread ; |171| 
         00002c 0000!
     734 00002e 3D10  ||      MOV #1, AC0 ; |171| 
     735              
     736                                                      ; call occurs [#_my_fread] ; |171| 
     737 000030 EB38          MOV AC0, dbl(*SP(#28)) ; |171| 
         000032 08   
     738                      .dwpsn  file "C:/Users/a0221074/Desktop/C5000/IBM_Watson_TIdesign_workarea/CSL_bitbucket/c55_csl/c55x
     739 000033 A006          MOV *SP(#3), AC0 ; |172| 
     740 000035 ED38          MOV dbl(*SP(#28)), AC1 ; |172| 
         000037 18   
     741 000038 1210          CMPU AC1 == AC0, TC1 ; |172| 
         00003a 04   
     742 00003b 6364          BCC $C$L8,TC1 ; |172| 
     743                                                      ; branchcc occurs ; |172| 
     744 00003d       $C$DW$L$_unpacking$2$E:
     745                      .dwpsn  file "C:/Users/a0221074/Desktop/C5000/IBM_Watson_TIdesign_workarea/CSL_bitbucket/c55_csl/c55x
     746 00003d 7601          MOV #400, T0 ; |173| 
         00003f 9048 
     747 000041 4A2E          B $C$L10  ; |173| 
     748                                                      ; branch occurs ; |173| 
     749 000043       $C$L8:    
     750 000043       $C$DW$L$_unpacking$4$B:
     751                      .dwpsn  file "C:/Users/a0221074/Desktop/C5000/IBM_Watson_TIdesign_workarea/CSL_bitbucket/c55_csl/c55x
     752 000043 EC12          AMAR *SP(#9), XAR0
         000045 8E   
     753 000046 ED34          MOV dbl(*SP(#26)), XAR1
         000048 9F   
     754 000049 ED0C          MOV dbl(*SP(#6)), XAR2
         00004b AF   
     755 00004c A406          MOV *SP(#3), T0 ; |174| 
     756              $C$DW$98        .dwtag  DW_TAG_TI_branch
     757                      .dwattr $C$DW$98, DW_AT_low_pc(0x00)
     758                      .dwattr $C$DW$98, DW_AT_name("_vector_unpacking")
     759                      .dwattr $C$DW$98, DW_AT_TI_call
TMS320C55x Assembler PC v4.4.1 Wed Sep 13 16:33:30 2017

Tools Copyright (c) 1996-2012 Texas Instruments Incorporated
C:\Users\a0221074\AppData\Local\Temp\0522410                         PAGE   17

     760 00004e 6C00          CALL #_vector_unpacking ; |174| 
         000050 0000!
     761                                                      ; call occurs [#_vector_unpacking] ; |174| 
     762                      .dwpsn  file "C:/Users/a0221074/Desktop/C5000/IBM_Watson_TIdesign_workarea/CSL_bitbucket/c55_csl/c55x
     763 000052 ED34          MOV dbl(*SP(#26)), XAR3
         000054 BF   
     764 000055 F710          ADD #1, *SP(#8) ; |169| 
         000057 0001 
     765 000059 A906          MOV *SP(#3), AR1 ; |169| 
     766 00005b 5090          SFTL AR1, #1 ; |169| 
     767              
     768 00005d 8E34          MOV XAR3, dbl(*SP(#26))
         00005f BB10 
         000061 B590 
     769              ||      AADD AR1, AR3 ; |169| 
     770              
     771                      .dwpsn  file "C:/Users/a0221074/Desktop/C5000/IBM_Watson_TIdesign_workarea/CSL_bitbucket/c55_csl/c55x
     772 000063 A904          MOV *SP(#2), AR1 ; |169| 
     773 000065 AA10          MOV *SP(#8), AR2 ; |169| 
     774 000067 12A4          CMPU AR2 < AR1, TC1 ; |169| 
         000069 94   
     775 00006a 0464          BCC $C$L7,TC1 ; |169| 
         00006c B5   
     776                                                      ; branchcc occurs ; |169| 
     777 00006d       $C$DW$L$_unpacking$4$E:
     778 00006d       $C$L9:    
     779                      .dwpsn  file "C:/Users/a0221074/Desktop/C5000/IBM_Watson_TIdesign_workarea/CSL_bitbucket/c55_csl/c55x
     780 00006d 7600          MOV #100, T0 ; |177| 
         00006f 6448 
     781 000071       $C$L10:    
     782                      .dwpsn  file "C:/Users/a0221074/Desktop/C5000/IBM_Watson_TIdesign_workarea/CSL_bitbucket/c55_csl/c55x
     783 000071 4E1F          AADD #31, SP
     784                      .dwcfi  cfa_offset, 1
     785              $C$DW$99        .dwtag  DW_TAG_TI_branch
     786                      .dwattr $C$DW$99, DW_AT_low_pc(0x00)
     787                      .dwattr $C$DW$99, DW_AT_TI_return
     788 000073 4804          RET
     789                                                      ; return occurs
     790              
     791              $C$DW$100       .dwtag  DW_TAG_TI_loop
     792                      .dwattr $C$DW$100, DW_AT_name("C:\\Users\\a0221074\\AppData\\Local\\Temp\\0522410:$C$L7:1:1505334808"
     793                      .dwattr $C$DW$100, DW_AT_TI_begin_file("C:/Users/a0221074/Desktop/C5000/IBM_Watson_TIdesign_workarea/
     794                      .dwattr $C$DW$100, DW_AT_TI_begin_line(0xa9)
     795                      .dwattr $C$DW$100, DW_AT_TI_end_line(0xaf)
     796              $C$DW$101       .dwtag  DW_TAG_TI_loop_range
     797                      .dwattr $C$DW$101, DW_AT_low_pc($C$DW$L$_unpacking$2$B)
     798                      .dwattr $C$DW$101, DW_AT_high_pc($C$DW$L$_unpacking$2$E)
     799              $C$DW$102       .dwtag  DW_TAG_TI_loop_range
     800                      .dwattr $C$DW$102, DW_AT_low_pc($C$DW$L$_unpacking$4$B)
     801                      .dwattr $C$DW$102, DW_AT_high_pc($C$DW$L$_unpacking$4$E)
     802                      .dwendtag $C$DW$100
     803              
     804                      .dwattr $C$DW$82, DW_AT_TI_end_file("C:/Users/a0221074/Desktop/C5000/IBM_Watson_TIdesign_workarea/CSL
     805                      .dwattr $C$DW$82, DW_AT_TI_end_line(0xb2)
     806                      .dwattr $C$DW$82, DW_AT_TI_end_column(0x01)
TMS320C55x Assembler PC v4.4.1 Wed Sep 13 16:33:30 2017

Tools Copyright (c) 1996-2012 Texas Instruments Incorporated
C:\Users\a0221074\AppData\Local\Temp\0522410                         PAGE   18

     807                      .dwendentry
     808                      .dwendtag $C$DW$82
     809              
     810 000000               .sect   ".text:_load_mu"
     811                      .clink
     812                      .global _load_mu
     813              
     814              $C$DW$103       .dwtag  DW_TAG_subprogram, DW_AT_name("load_mu")
     815                      .dwattr $C$DW$103, DW_AT_low_pc(_load_mu)
     816                      .dwattr $C$DW$103, DW_AT_high_pc(0x00)
     817                      .dwattr $C$DW$103, DW_AT_TI_symbol_name("_load_mu")
     818                      .dwattr $C$DW$103, DW_AT_external
     819                      .dwattr $C$DW$103, DW_AT_type(*$C$DW$T$23)
     820                      .dwattr $C$DW$103, DW_AT_TI_begin_file("C:/Users/a0221074/Desktop/C5000/IBM_Watson_TIdesign_workarea/
     821                      .dwattr $C$DW$103, DW_AT_TI_begin_line(0x12c)
     822                      .dwattr $C$DW$103, DW_AT_TI_begin_column(0x08)
     823                      .dwattr $C$DW$103, DW_AT_TI_max_frame_size(0x0c)
     824                      .dwpsn  file "C:/Users/a0221074/Desktop/C5000/IBM_Watson_TIdesign_workarea/CSL_bitbucket/c55_csl/c55x
     825              
     826                      .dwfde $C$DW$CIE, _load_mu
     827              $C$DW$104       .dwtag  DW_TAG_formal_parameter, DW_AT_name("mu_data")
     828                      .dwattr $C$DW$104, DW_AT_TI_symbol_name("_mu_data")
     829                      .dwattr $C$DW$104, DW_AT_type(*$C$DW$T$23)
     830                      .dwattr $C$DW$104, DW_AT_location[DW_OP_reg17]
     831              $C$DW$105       .dwtag  DW_TAG_formal_parameter, DW_AT_name("gv")
     832                      .dwattr $C$DW$105, DW_AT_TI_symbol_name("_gv")
     833                      .dwattr $C$DW$105, DW_AT_type(*$C$DW$T$97)
     834                      .dwattr $C$DW$105, DW_AT_location[DW_OP_reg19]
     835              $C$DW$106       .dwtag  DW_TAG_formal_parameter, DW_AT_name("fileConfig")
     836                      .dwattr $C$DW$106, DW_AT_TI_symbol_name("_fileConfig")
     837                      .dwattr $C$DW$106, DW_AT_type(*$C$DW$T$105)
     838                      .dwattr $C$DW$106, DW_AT_location[DW_OP_reg21]
     839              ;*******************************************************************************
     840              ;* FUNCTION NAME: load_mu                                                      *
     841              ;*                                                                             *
     842              ;*   Function Uses Regs : AC0,AC0,AC1,AC1,T0,T1,AR0,XAR0,AR1,XAR1,AR2,XAR2,AR3,*
     843              ;*                        XAR3,SP,CARRY,M40,SATA,SATD,RDM,FRCT,SMUL            *
     844              ;*   Stack Frame        : Compact (No Frame Pointer, w/ debug)                 *
     845              ;*   Total Frame Size   : 12 words                                             *
     846              ;*                        (2 return address/alignment)                         *
     847              ;*                        (10 local values)                                    *
     848              ;*   Min System Stack   : 1 word                                               *
     849              ;*******************************************************************************
     850 000000       _load_mu:
     851                      .dwcfi  cfa_offset, 1
     852                      .dwcfi  save_reg_to_mem, 91, -1
     853 000000 4EF5          AADD #-11, SP
     854                      .dwcfi  cfa_offset, 12
     855              $C$DW$107       .dwtag  DW_TAG_variable, DW_AT_name("mu_data")
     856                      .dwattr $C$DW$107, DW_AT_TI_symbol_name("_mu_data")
     857                      .dwattr $C$DW$107, DW_AT_type(*$C$DW$T$23)
     858                      .dwattr $C$DW$107, DW_AT_location[DW_OP_bregx 0x24 0]
     859              $C$DW$108       .dwtag  DW_TAG_variable, DW_AT_name("gv")
     860                      .dwattr $C$DW$108, DW_AT_TI_symbol_name("_gv")
     861                      .dwattr $C$DW$108, DW_AT_type(*$C$DW$T$97)
TMS320C55x Assembler PC v4.4.1 Wed Sep 13 16:33:30 2017

Tools Copyright (c) 1996-2012 Texas Instruments Incorporated
C:\Users\a0221074\AppData\Local\Temp\0522410                         PAGE   19

     862                      .dwattr $C$DW$108, DW_AT_location[DW_OP_bregx 0x24 2]
     863              $C$DW$109       .dwtag  DW_TAG_variable, DW_AT_name("fileConfig")
     864                      .dwattr $C$DW$109, DW_AT_TI_symbol_name("_fileConfig")
     865                      .dwattr $C$DW$109, DW_AT_type(*$C$DW$T$105)
     866                      .dwattr $C$DW$109, DW_AT_location[DW_OP_bregx 0x24 4]
     867              $C$DW$110       .dwtag  DW_TAG_variable, DW_AT_name("vec_size")
     868                      .dwattr $C$DW$110, DW_AT_TI_symbol_name("_vec_size")
     869                      .dwattr $C$DW$110, DW_AT_type(*$C$DW$T$11)
     870                      .dwattr $C$DW$110, DW_AT_location[DW_OP_bregx 0x24 6]
     871              $C$DW$111       .dwtag  DW_TAG_variable, DW_AT_name("mu")
     872                      .dwattr $C$DW$111, DW_AT_TI_symbol_name("_mu")
     873                      .dwattr $C$DW$111, DW_AT_type(*$C$DW$T$23)
     874                      .dwattr $C$DW$111, DW_AT_location[DW_OP_bregx 0x24 8]
     875 000002 EB08          MOV XAR2, dbl(*SP(#4))
         000004 A5   
     876 000005 EB04          MOV XAR1, dbl(*SP(#2))
         000007 95   
     877 000008 EB00          MOV XAR0, dbl(*SP(#0))
         00000a 85   
     878                      .dwpsn  file "C:/Users/a0221074/Desktop/C5000/IBM_Watson_TIdesign_workarea/CSL_bitbucket/c55_csl/c55x
     879 00000b ED04          MOV dbl(*SP(#2)), XAR3
         00000d BF   
     880 00000e A96D          MOV *AR3(#277), AR1 ; |303| 
         000010 0115 
     881 000012 C90C          MOV AR1, *SP(#6) ; |303| 
     882                      .dwpsn  file "C:/Users/a0221074/Desktop/C5000/IBM_Watson_TIdesign_workarea/CSL_bitbucket/c55_csl/c55x
     883 000014 5090          SFTL AR1, #1 ; |314| 
     884 000016 C90C          MOV AR1, *SP(#6) ; |314| 
     885                      .dwpsn  file "C:/Users/a0221074/Desktop/C5000/IBM_Watson_TIdesign_workarea/CSL_bitbucket/c55_csl/c55x
     886 000018 ED00          MOV dbl(*SP(#0)), XAR3
         00001a BF   
     887 00001b A961          MOV *AR3, AR1 ; |318| 
     888 00001d ED04          MOV dbl(*SP(#2)), XAR3
         00001f BF   
     889 000020 C96D          MOV AR1, *AR3(#1207) ; |318| 
         000022 04B7 
     890                      .dwpsn  file "C:/Users/a0221074/Desktop/C5000/IBM_Watson_TIdesign_workarea/CSL_bitbucket/c55_csl/c55x
     891 000024 ED04          MOV dbl(*SP(#2)), XAR3
         000026 BF   
     892 000027 A50C          MOV *SP(#6), T1 ; |332| 
     893 000029 A431          MOV *(#_SEG0), T0 ; |332| 
         00002b 0000 
         00002d 00!  
     894 00002e D36D          MPYM *AR3(#1207), T1, AC0 ; |332| 
         000030 0504 
         000032 B7   
     895 000033 7DFF          AND #0xffff, AC0, AC0 ; |332| 
         000035 FF00 
     896              $C$DW$112       .dwtag  DW_TAG_TI_branch
     897                      .dwattr $C$DW$112, DW_AT_low_pc(0x00)
     898                      .dwattr $C$DW$112, DW_AT_name("_MEM_alloc")
     899                      .dwattr $C$DW$112, DW_AT_TI_call
     900              
     901 000037 6C00          CALL #_MEM_alloc ; |332| 
         000039 0000!
TMS320C55x Assembler PC v4.4.1 Wed Sep 13 16:33:30 2017

Tools Copyright (c) 1996-2012 Texas Instruments Incorporated
C:\Users\a0221074\AppData\Local\Temp\0522410                         PAGE   20

     902 00003b 3D01  ||      MOV #0, AC1 ; |332| 
     903              
     904                                                      ; call occurs [#_MEM_alloc] ; |332| 
     905 00003d EB10          MOV XAR0, dbl(*SP(#8))
         00003f 85   
     906                      .dwpsn  file "C:/Users/a0221074/Desktop/C5000/IBM_Watson_TIdesign_workarea/CSL_bitbucket/c55_csl/c55x
     907 000040 ED10          MOV dbl(*SP(#8)), XAR3
         000042 BF   
     908 000043 90B0          MOV XAR3, AC0
     909 000045 6490          BCC $C$L11,AC0 != #0 ; |333| 
     910                                                      ; branchcc occurs ; |333| 
     911                      .dwpsn  file "C:/Users/a0221074/Desktop/C5000/IBM_Watson_TIdesign_workarea/CSL_bitbucket/c55_csl/c55x
     912 000047 EC31          AMOV #0, XAR0 ; |335| 
         000049 8E00 
         00004b 0000 
     913 00004d 0600          B $C$L13  ; |335| 
         00004f 41   
     914                                                      ; branch occurs ; |335| 
     915 000050       $C$L11:    
     916                      .dwpsn  file "C:/Users/a0221074/Desktop/C5000/IBM_Watson_TIdesign_workarea/CSL_bitbucket/c55_csl/c55x
     917 000050 ED08          MOV dbl(*SP(#4)), XAR3
         000052 BF   
     918 000053 A961          MOV *AR3, AR1 ; |373| 
     919 000055 0409          BCC $C$L12,AR1 == #0 ; |373| 
         000057 1F   
     920                                                      ; branchcc occurs ; |373| 
     921                      .dwpsn  file "C:/Users/a0221074/Desktop/C5000/IBM_Watson_TIdesign_workarea/CSL_bitbucket/c55_csl/c55x
     922 000058 ED04          MOV dbl(*SP(#2)), XAR3
         00005a BF   
     923 00005b A50C          MOV *SP(#6), T1 ; |391| 
     924 00005d A431          MOV *(#_SEG0), T0 ; |391| 
         00005f 0000 
         000061 00!  
     925 000062 D36D          MPYM *AR3(#1207), T1, AC0 ; |391| 
         000064 0504 
         000066 B7   
     926 000067 7DFF          AND #0xffff, AC0, AC0 ; |391| 
         000069 FF00 
     927              $C$DW$113       .dwtag  DW_TAG_TI_branch
     928                      .dwattr $C$DW$113, DW_AT_low_pc(0x00)
     929                      .dwattr $C$DW$113, DW_AT_name("_MEM_free")
     930                      .dwattr $C$DW$113, DW_AT_TI_call
     931 00006b 6C00          CALL #_MEM_free ; |391| 
         00006d 0000!
     932                                                      ; call occurs [#_MEM_free] ; |391| 
     933                      .dwpsn  file "C:/Users/a0221074/Desktop/C5000/IBM_Watson_TIdesign_workarea/CSL_bitbucket/c55_csl/c55x
     934 00006f EC31          AMOV #0, XAR0 ; |393| 
         000071 8E00 
         000073 0000 
     935 000075 4A1A          B $C$L13  ; |393| 
     936                                                      ; branch occurs ; |393| 
     937 000077       $C$L12:    
     938                      .dwpsn  file "C:/Users/a0221074/Desktop/C5000/IBM_Watson_TIdesign_workarea/CSL_bitbucket/c55_csl/c55x
     939 000077 ED04          MOV dbl(*SP(#2)), XAR3
         000079 BF   
TMS320C55x Assembler PC v4.4.1 Wed Sep 13 16:33:30 2017

Tools Copyright (c) 1996-2012 Texas Instruments Incorporated
C:\Users\a0221074\AppData\Local\Temp\0522410                         PAGE   21

     940 00007a ED00          MOV dbl(*SP(#0)), XAR1
         00007c 9F   
     941 00007d A50C          MOV *SP(#6), T1 ; |398| 
     942 00007f D36D          MPYM *AR3(#1207), T1, AC0 ; |398| 
         000081 0504 
         000083 B7   
     943 000084 B423          AMAR *AR1+
     944 000086 7DFF          AND #0xffff, AC0, AC0 ; |398| 
         000088 FF00 
     945              $C$DW$114       .dwtag  DW_TAG_TI_branch
     946                      .dwattr $C$DW$114, DW_AT_low_pc(0x00)
     947                      .dwattr $C$DW$114, DW_AT_name("_memcpy")
     948                      .dwattr $C$DW$114, DW_AT_TI_call
     949 00008a 6C00          CALL #_memcpy ; |398| 
         00008c 0000!
     950                                                      ; call occurs [#_memcpy] ; |398| 
     951                      .dwpsn  file "C:/Users/a0221074/Desktop/C5000/IBM_Watson_TIdesign_workarea/CSL_bitbucket/c55_csl/c55x
     952 00008e ED10          MOV dbl(*SP(#8)), XAR0
         000090 8F   
     953 000091       $C$L13:    
     954                      .dwpsn  file "C:/Users/a0221074/Desktop/C5000/IBM_Watson_TIdesign_workarea/CSL_bitbucket/c55_csl/c55x
     955 000091 4E0B          AADD #11, SP
     956                      .dwcfi  cfa_offset, 1
     957              $C$DW$115       .dwtag  DW_TAG_TI_branch
     958                      .dwattr $C$DW$115, DW_AT_low_pc(0x00)
     959                      .dwattr $C$DW$115, DW_AT_TI_return
     960 000093 4804          RET
     961                                                      ; return occurs
     962                      .dwattr $C$DW$103, DW_AT_TI_end_file("C:/Users/a0221074/Desktop/C5000/IBM_Watson_TIdesign_workarea/CS
     963                      .dwattr $C$DW$103, DW_AT_TI_end_line(0x195)
     964                      .dwattr $C$DW$103, DW_AT_TI_end_column(0x01)
     965                      .dwendentry
     966                      .dwendtag $C$DW$103
     967              
     968 000000               .sect   ".text:_load_var"
     969                      .clink
     970              
     971              $C$DW$116       .dwtag  DW_TAG_subprogram, DW_AT_name("load_var")
     972                      .dwattr $C$DW$116, DW_AT_low_pc(_load_var)
     973                      .dwattr $C$DW$116, DW_AT_high_pc(0x00)
     974                      .dwattr $C$DW$116, DW_AT_TI_symbol_name("_load_var")
     975                      .dwattr $C$DW$116, DW_AT_type(*$C$DW$T$23)
     976                      .dwattr $C$DW$116, DW_AT_TI_begin_file("C:/Users/a0221074/Desktop/C5000/IBM_Watson_TIdesign_workarea/
     977                      .dwattr $C$DW$116, DW_AT_TI_begin_line(0x206)
     978                      .dwattr $C$DW$116, DW_AT_TI_begin_column(0x0f)
     979                      .dwattr $C$DW$116, DW_AT_TI_max_frame_size(0x0a)
     980                      .dwpsn  file "C:/Users/a0221074/Desktop/C5000/IBM_Watson_TIdesign_workarea/CSL_bitbucket/c55_csl/c55x
     981              
     982                      .dwfde $C$DW$CIE, _load_var
     983              $C$DW$117       .dwtag  DW_TAG_formal_parameter, DW_AT_name("var_data")
     984                      .dwattr $C$DW$117, DW_AT_TI_symbol_name("_var_data")
     985                      .dwattr $C$DW$117, DW_AT_type(*$C$DW$T$23)
     986                      .dwattr $C$DW$117, DW_AT_location[DW_OP_reg17]
     987              $C$DW$118       .dwtag  DW_TAG_formal_parameter, DW_AT_name("gv")
     988                      .dwattr $C$DW$118, DW_AT_TI_symbol_name("_gv")
TMS320C55x Assembler PC v4.4.1 Wed Sep 13 16:33:30 2017

Tools Copyright (c) 1996-2012 Texas Instruments Incorporated
C:\Users\a0221074\AppData\Local\Temp\0522410                         PAGE   22

     989                      .dwattr $C$DW$118, DW_AT_type(*$C$DW$T$97)
     990                      .dwattr $C$DW$118, DW_AT_location[DW_OP_reg19]
     991              $C$DW$119       .dwtag  DW_TAG_formal_parameter, DW_AT_name("fileConfig")
     992                      .dwattr $C$DW$119, DW_AT_TI_symbol_name("_fileConfig")
     993                      .dwattr $C$DW$119, DW_AT_type(*$C$DW$T$105)
     994                      .dwattr $C$DW$119, DW_AT_location[DW_OP_reg21]
     995              ;*******************************************************************************
     996              ;* FUNCTION NAME: load_var                                                     *
     997              ;*                                                                             *
     998              ;*   Function Uses Regs : AC0,AC0,AC1,AC1,T0,T1,AR0,XAR0,AR1,XAR1,AR2,XAR2,AR3,*
     999              ;*                        XAR3,SP,CARRY,M40,SATA,SATD,RDM,FRCT,SMUL            *
    1000              ;*   Stack Frame        : Compact (No Frame Pointer, w/ debug)                 *
    1001              ;*   Total Frame Size   : 10 words                                             *
    1002              ;*                        (2 return address/alignment)                         *
    1003              ;*                        (8 local values)                                     *
    1004              ;*   Min System Stack   : 1 word                                               *
    1005              ;*******************************************************************************
    1006 000000       _load_var:
    1007                      .dwcfi  cfa_offset, 1
    1008                      .dwcfi  save_reg_to_mem, 91, -1
    1009 000000 4EF7          AADD #-9, SP
    1010                      .dwcfi  cfa_offset, 10
    1011              $C$DW$120       .dwtag  DW_TAG_variable, DW_AT_name("var_data")
    1012                      .dwattr $C$DW$120, DW_AT_TI_symbol_name("_var_data")
    1013                      .dwattr $C$DW$120, DW_AT_type(*$C$DW$T$23)
    1014                      .dwattr $C$DW$120, DW_AT_location[DW_OP_bregx 0x24 0]
    1015              $C$DW$121       .dwtag  DW_TAG_variable, DW_AT_name("gv")
    1016                      .dwattr $C$DW$121, DW_AT_TI_symbol_name("_gv")
    1017                      .dwattr $C$DW$121, DW_AT_type(*$C$DW$T$97)
    1018                      .dwattr $C$DW$121, DW_AT_location[DW_OP_bregx 0x24 2]
    1019              $C$DW$122       .dwtag  DW_TAG_variable, DW_AT_name("fileConfig")
    1020                      .dwattr $C$DW$122, DW_AT_TI_symbol_name("_fileConfig")
    1021                      .dwattr $C$DW$122, DW_AT_type(*$C$DW$T$105)
    1022                      .dwattr $C$DW$122, DW_AT_location[DW_OP_bregx 0x24 4]
    1023              $C$DW$123       .dwtag  DW_TAG_variable, DW_AT_name("base_var")
    1024                      .dwattr $C$DW$123, DW_AT_TI_symbol_name("_base_var")
    1025                      .dwattr $C$DW$123, DW_AT_type(*$C$DW$T$23)
    1026                      .dwattr $C$DW$123, DW_AT_location[DW_OP_bregx 0x24 6]
    1027 000002 EB08          MOV XAR2, dbl(*SP(#4))
         000004 A5   
    1028 000005 EB04          MOV XAR1, dbl(*SP(#2))
         000007 95   
    1029 000008 EB00          MOV XAR0, dbl(*SP(#0))
         00000a 85   
    1030                      .dwpsn  file "C:/Users/a0221074/Desktop/C5000/IBM_Watson_TIdesign_workarea/CSL_bitbucket/c55_csl/c55x
    1031 00000b ED00          MOV dbl(*SP(#0)), XAR3
         00000d BF   
    1032 00000e A961          MOV *AR3, AR1 ; |524| 
    1033 000010 ED04          MOV dbl(*SP(#2)), XAR3
         000012 BF   
    1034 000013 C96D          MOV AR1, *AR3(#1208) ; |524| 
         000015 04B8 
    1035                      .dwpsn  file "C:/Users/a0221074/Desktop/C5000/IBM_Watson_TIdesign_workarea/CSL_bitbucket/c55_csl/c55x
    1036 000017 ED04          MOV dbl(*SP(#2)), XAR2
         000019 AF   
TMS320C55x Assembler PC v4.4.1 Wed Sep 13 16:33:30 2017

Tools Copyright (c) 1996-2012 Texas Instruments Incorporated
C:\Users\a0221074\AppData\Local\Temp\0522410                         PAGE   23

    1037 00001a ED04          MOV dbl(*SP(#2)), XAR3
         00001c BF   
    1038 00001d A431          MOV *(#_SEG0), T0 ; |545| 
         00001f 0000 
         000021 00!  
    1039 000022 A54D          MOV *AR2(#1208), T1 ; |545| 
         000024 04B8 
    1040 000026 5050          SFTL T1, #1 ; |545| 
    1041 000028 D36D          MPYM *AR3(#277), T1, AC0 ; |545| 
         00002a 0501 
         00002c 15   
    1042 00002d 7DFF          AND #0xffff, AC0, AC0 ; |545| 
         00002f FF00 
    1043              $C$DW$124       .dwtag  DW_TAG_TI_branch
    1044                      .dwattr $C$DW$124, DW_AT_low_pc(0x00)
    1045                      .dwattr $C$DW$124, DW_AT_name("_MEM_alloc")
    1046                      .dwattr $C$DW$124, DW_AT_TI_call
    1047              
    1048 000031 6C00          CALL #_MEM_alloc ; |545| 
         000033 0000!
    1049 000035 3D01  ||      MOV #0, AC1 ; |545| 
    1050              
    1051                                                      ; call occurs [#_MEM_alloc] ; |545| 
    1052 000037 EB0C          MOV XAR0, dbl(*SP(#6))
         000039 85   
    1053                      .dwpsn  file "C:/Users/a0221074/Desktop/C5000/IBM_Watson_TIdesign_workarea/CSL_bitbucket/c55_csl/c55x
    1054 00003a ED0C          MOV dbl(*SP(#6)), XAR3
         00003c BF   
    1055 00003d 90B0          MOV XAR3, AC0
    1056 00003f 6490          BCC $C$L14,AC0 != #0 ; |546| 
    1057                                                      ; branchcc occurs ; |546| 
    1058                      .dwpsn  file "C:/Users/a0221074/Desktop/C5000/IBM_Watson_TIdesign_workarea/CSL_bitbucket/c55_csl/c55x
    1059 000041 EC31          AMOV #0, XAR0 ; |548| 
         000043 8E00 
         000045 0000 
    1060 000047 0600          B $C$L16  ; |548| 
         000049 4F   
    1061                                                      ; branch occurs ; |548| 
    1062 00004a       $C$L14:    
    1063                      .dwpsn  file "C:/Users/a0221074/Desktop/C5000/IBM_Watson_TIdesign_workarea/CSL_bitbucket/c55_csl/c55x
    1064 00004a ED08          MOV dbl(*SP(#4)), XAR3
         00004c BF   
    1065 00004d A973          MOV *AR3(short(#1)), AR1 ; |588| 
    1066 00004f 0409          BCC $C$L15,AR1 == #0 ; |588| 
         000051 26   
    1067                                                      ; branchcc occurs ; |588| 
    1068                      .dwpsn  file "C:/Users/a0221074/Desktop/C5000/IBM_Watson_TIdesign_workarea/CSL_bitbucket/c55_csl/c55x
    1069 000052 ED04          MOV dbl(*SP(#2)), XAR2
         000054 AF   
    1070 000055 ED04          MOV dbl(*SP(#2)), XAR3
         000057 BF   
    1071 000058 A431          MOV *(#_SEG0), T0 ; |606| 
         00005a 0000 
         00005c 00!  
    1072 00005d A54D          MOV *AR2(#1208), T1 ; |606| 
TMS320C55x Assembler PC v4.4.1 Wed Sep 13 16:33:30 2017

Tools Copyright (c) 1996-2012 Texas Instruments Incorporated
C:\Users\a0221074\AppData\Local\Temp\0522410                         PAGE   24

         00005f 04B8 
    1073 000061 5050          SFTL T1, #1 ; |606| 
    1074 000063 D36D          MPYM *AR3(#277), T1, AC0 ; |606| 
         000065 0501 
         000067 15   
    1075 000068 7DFF          AND #0xffff, AC0, AC0 ; |606| 
         00006a FF00 
    1076              $C$DW$125       .dwtag  DW_TAG_TI_branch
    1077                      .dwattr $C$DW$125, DW_AT_low_pc(0x00)
    1078                      .dwattr $C$DW$125, DW_AT_name("_MEM_free")
    1079                      .dwattr $C$DW$125, DW_AT_TI_call
    1080 00006c 6C00          CALL #_MEM_free ; |606| 
         00006e 0000!
    1081                                                      ; call occurs [#_MEM_free] ; |606| 
    1082                      .dwpsn  file "C:/Users/a0221074/Desktop/C5000/IBM_Watson_TIdesign_workarea/CSL_bitbucket/c55_csl/c55x
    1083 000070 EC31          AMOV #0, XAR0 ; |608| 
         000072 8E00 
         000074 0000 
    1084 000076 4A21          B $C$L16  ; |608| 
    1085                                                      ; branch occurs ; |608| 
    1086 000078       $C$L15:    
    1087                      .dwpsn  file "C:/Users/a0221074/Desktop/C5000/IBM_Watson_TIdesign_workarea/CSL_bitbucket/c55_csl/c55x
    1088 000078 ED04          MOV dbl(*SP(#2)), XAR2
         00007a AF   
    1089 00007b ED00          MOV dbl(*SP(#0)), XAR1
         00007d 9F   
    1090 00007e ED04          MOV dbl(*SP(#2)), XAR3
         000080 BF   
    1091 000081 A54D          MOV *AR2(#1208), T1 ; |613| 
         000083 04B8 
    1092              
    1093 000085 B423          AMAR *AR1+
    1094 000087 5150  ||      SFTL T1, #1 ; |613| 
    1095              
    1096 000089 D36D          MPYM *AR3(#277), T1, AC0 ; |613| 
         00008b 0501 
         00008d 15   
    1097 00008e 7DFF          AND #0xffff, AC0, AC0 ; |613| 
         000090 FF00 
    1098              $C$DW$126       .dwtag  DW_TAG_TI_branch
    1099                      .dwattr $C$DW$126, DW_AT_low_pc(0x00)
    1100                      .dwattr $C$DW$126, DW_AT_name("_memcpy")
    1101                      .dwattr $C$DW$126, DW_AT_TI_call
    1102 000092 6C00          CALL #_memcpy ; |613| 
         000094 0000!
    1103                                                      ; call occurs [#_memcpy] ; |613| 
    1104                      .dwpsn  file "C:/Users/a0221074/Desktop/C5000/IBM_Watson_TIdesign_workarea/CSL_bitbucket/c55_csl/c55x
    1105 000096 ED0C          MOV dbl(*SP(#6)), XAR0
         000098 8F   
    1106 000099       $C$L16:    
    1107                      .dwpsn  file "C:/Users/a0221074/Desktop/C5000/IBM_Watson_TIdesign_workarea/CSL_bitbucket/c55_csl/c55x
    1108 000099 4E09          AADD #9, SP
    1109                      .dwcfi  cfa_offset, 1
    1110              $C$DW$127       .dwtag  DW_TAG_TI_branch
    1111                      .dwattr $C$DW$127, DW_AT_low_pc(0x00)
TMS320C55x Assembler PC v4.4.1 Wed Sep 13 16:33:30 2017

Tools Copyright (c) 1996-2012 Texas Instruments Incorporated
C:\Users\a0221074\AppData\Local\Temp\0522410                         PAGE   25

    1112                      .dwattr $C$DW$127, DW_AT_TI_return
    1113 00009b 4804          RET
    1114                                                      ; return occurs
    1115                      .dwattr $C$DW$116, DW_AT_TI_end_file("C:/Users/a0221074/Desktop/C5000/IBM_Watson_TIdesign_workarea/CS
    1116                      .dwattr $C$DW$116, DW_AT_TI_end_line(0x26c)
    1117                      .dwattr $C$DW$116, DW_AT_TI_end_column(0x01)
    1118                      .dwendentry
    1119                      .dwendtag $C$DW$116
    1120              
    1121 000000               .sect   ".text:_load_model_file"
    1122                      .clink
    1123                      .global _load_model_file
    1124              
    1125              $C$DW$128       .dwtag  DW_TAG_subprogram, DW_AT_name("load_model_file")
    1126                      .dwattr $C$DW$128, DW_AT_low_pc(_load_model_file)
    1127                      .dwattr $C$DW$128, DW_AT_high_pc(0x00)
    1128                      .dwattr $C$DW$128, DW_AT_TI_symbol_name("_load_model_file")
    1129                      .dwattr $C$DW$128, DW_AT_external
    1130                      .dwattr $C$DW$128, DW_AT_type(*$C$DW$T$23)
    1131                      .dwattr $C$DW$128, DW_AT_TI_begin_file("C:/Users/a0221074/Desktop/C5000/IBM_Watson_TIdesign_workarea/
    1132                      .dwattr $C$DW$128, DW_AT_TI_begin_line(0x2e8)
    1133                      .dwattr $C$DW$128, DW_AT_TI_begin_column(0x1f)
    1134                      .dwattr $C$DW$128, DW_AT_TI_max_frame_size(0x08)
    1135                      .dwpsn  file "C:/Users/a0221074/Desktop/C5000/IBM_Watson_TIdesign_workarea/CSL_bitbucket/c55_csl/c55x
    1136              
    1137                      .dwfde $C$DW$CIE, _load_model_file
    1138              $C$DW$129       .dwtag  DW_TAG_formal_parameter, DW_AT_name("model_data")
    1139                      .dwattr $C$DW$129, DW_AT_TI_symbol_name("_model_data")
    1140                      .dwattr $C$DW$129, DW_AT_type(*$C$DW$T$23)
    1141                      .dwattr $C$DW$129, DW_AT_location[DW_OP_reg17]
    1142              $C$DW$130       .dwtag  DW_TAG_formal_parameter, DW_AT_name("len")
    1143                      .dwattr $C$DW$130, DW_AT_TI_symbol_name("_len")
    1144                      .dwattr $C$DW$130, DW_AT_type(*$C$DW$T$37)
    1145                      .dwattr $C$DW$130, DW_AT_location[DW_OP_reg19]
    1146              ;*******************************************************************************
    1147              ;* FUNCTION NAME: load_model_file                                              *
    1148              ;*                                                                             *
    1149              ;*   Function Uses Regs : AC0,AC0,AC1,AC1,T0,AR0,XAR0,AR1,XAR1,AR2,XAR2,AR3,   *
    1150              ;*                        XAR3,SP,M40,SATA,SATD,RDM,FRCT,SMUL                  *
    1151              ;*   Stack Frame        : Compact (No Frame Pointer, w/ debug)                 *
    1152              ;*   Total Frame Size   : 8 words                                              *
    1153              ;*                        (2 return address/alignment)                         *
    1154              ;*                        (6 local values)                                     *
    1155              ;*   Min System Stack   : 1 word                                               *
    1156              ;*******************************************************************************
    1157 000000       _load_model_file:
    1158                      .dwcfi  cfa_offset, 1
    1159                      .dwcfi  save_reg_to_mem, 91, -1
    1160 000000 4EF9          AADD #-7, SP
    1161                      .dwcfi  cfa_offset, 8
    1162              $C$DW$131       .dwtag  DW_TAG_variable, DW_AT_name("model_data")
    1163                      .dwattr $C$DW$131, DW_AT_TI_symbol_name("_model_data")
    1164                      .dwattr $C$DW$131, DW_AT_type(*$C$DW$T$23)
    1165                      .dwattr $C$DW$131, DW_AT_location[DW_OP_bregx 0x24 0]
    1166              $C$DW$132       .dwtag  DW_TAG_variable, DW_AT_name("len")
TMS320C55x Assembler PC v4.4.1 Wed Sep 13 16:33:30 2017

Tools Copyright (c) 1996-2012 Texas Instruments Incorporated
C:\Users\a0221074\AppData\Local\Temp\0522410                         PAGE   26

    1167                      .dwattr $C$DW$132, DW_AT_TI_symbol_name("_len")
    1168                      .dwattr $C$DW$132, DW_AT_type(*$C$DW$T$37)
    1169                      .dwattr $C$DW$132, DW_AT_location[DW_OP_bregx 0x24 2]
    1170              $C$DW$133       .dwtag  DW_TAG_variable, DW_AT_name("ptr")
    1171                      .dwattr $C$DW$133, DW_AT_TI_symbol_name("_ptr")
    1172                      .dwattr $C$DW$133, DW_AT_type(*$C$DW$T$23)
    1173                      .dwattr $C$DW$133, DW_AT_location[DW_OP_bregx 0x24 4]
    1174 000002 EB04          MOV XAR1, dbl(*SP(#2))
         000004 95   
    1175 000005 EB00          MOV XAR0, dbl(*SP(#0))
         000007 85   
    1176                      .dwpsn  file "C:/Users/a0221074/Desktop/C5000/IBM_Watson_TIdesign_workarea/CSL_bitbucket/c55_csl/c55x
    1177 000008 ED00          MOV dbl(*SP(#0)), XAR3
         00000a BF   
    1178 00000b ED04          MOV dbl(*SP(#2)), XAR2
         00000d AF   
    1179 00000e 8061          MOV *AR3, *AR2 ; |749| 
         000010 04   
    1180                      .dwpsn  file "C:/Users/a0221074/Desktop/C5000/IBM_Watson_TIdesign_workarea/CSL_bitbucket/c55_csl/c55x
    1181 000011 ED04          MOV dbl(*SP(#2)), XAR3
         000013 BF   
    1182 000014 A431          MOV *(#_SEG0), T0 ; |759| 
         000016 0000 
         000018 00!  
    1183 000019 DF61          MOV uns(*AR3), AC0 ; |759| 
         00001b 05   
    1184              $C$DW$134       .dwtag  DW_TAG_TI_branch
    1185                      .dwattr $C$DW$134, DW_AT_low_pc(0x00)
    1186                      .dwattr $C$DW$134, DW_AT_name("_MEM_alloc")
    1187                      .dwattr $C$DW$134, DW_AT_TI_call
    1188              
    1189 00001c 6C00          CALL #_MEM_alloc ; |759| 
         00001e 0000!
    1190 000020 3D01  ||      MOV #0, AC1 ; |759| 
    1191              
    1192                                                      ; call occurs [#_MEM_alloc] ; |759| 
    1193 000022 EB08          MOV XAR0, dbl(*SP(#4))
         000024 85   
    1194                      .dwpsn  file "C:/Users/a0221074/Desktop/C5000/IBM_Watson_TIdesign_workarea/CSL_bitbucket/c55_csl/c55x
    1195 000025 ED08          MOV dbl(*SP(#4)), XAR3
         000027 BF   
    1196 000028 90B0          MOV XAR3, AC0
    1197 00002a 6410          BCC $C$L17,AC0 != #0 ; |760| 
    1198                                                      ; branchcc occurs ; |760| 
    1199                      .dwpsn  file "C:/Users/a0221074/Desktop/C5000/IBM_Watson_TIdesign_workarea/CSL_bitbucket/c55_csl/c55x
    1200 00002c EC31          AMOV #0, XAR0 ; |762| 
         00002e 8E00 
         000030 0000 
    1201 000032 4A12          B $C$L18  ; |762| 
    1202                                                      ; branch occurs ; |762| 
    1203 000034       $C$L17:    
    1204                      .dwpsn  file "C:/Users/a0221074/Desktop/C5000/IBM_Watson_TIdesign_workarea/CSL_bitbucket/c55_csl/c55x
    1205 000034 ED04          MOV dbl(*SP(#2)), XAR3
         000036 BF   
    1206 000037 ED00          MOV dbl(*SP(#0)), XAR1
TMS320C55x Assembler PC v4.4.1 Wed Sep 13 16:33:30 2017

Tools Copyright (c) 1996-2012 Texas Instruments Incorporated
C:\Users\a0221074\AppData\Local\Temp\0522410                         PAGE   27

         000039 9F   
    1207 00003a DF61          MOV uns(*AR3), AC0 ; |766| 
         00003c 05   
    1208 00003d B423          AMAR *AR1+
    1209              $C$DW$135       .dwtag  DW_TAG_TI_branch
    1210                      .dwattr $C$DW$135, DW_AT_low_pc(0x00)
    1211                      .dwattr $C$DW$135, DW_AT_name("_memcpy")
    1212                      .dwattr $C$DW$135, DW_AT_TI_call
    1213 00003f 6C00          CALL #_memcpy ; |766| 
         000041 0000!
    1214                                                      ; call occurs [#_memcpy] ; |766| 
    1215                      .dwpsn  file "C:/Users/a0221074/Desktop/C5000/IBM_Watson_TIdesign_workarea/CSL_bitbucket/c55_csl/c55x
    1216 000043 ED08          MOV dbl(*SP(#4)), XAR0
         000045 8F   
    1217 000046       $C$L18:    
    1218                      .dwpsn  file "C:/Users/a0221074/Desktop/C5000/IBM_Watson_TIdesign_workarea/CSL_bitbucket/c55_csl/c55x
    1219 000046 4E07          AADD #7, SP
    1220                      .dwcfi  cfa_offset, 1
    1221              $C$DW$136       .dwtag  DW_TAG_TI_branch
    1222                      .dwattr $C$DW$136, DW_AT_low_pc(0x00)
    1223                      .dwattr $C$DW$136, DW_AT_TI_return
    1224 000048 4804          RET
    1225                                                      ; return occurs
    1226                      .dwattr $C$DW$128, DW_AT_TI_end_file("C:/Users/a0221074/Desktop/C5000/IBM_Watson_TIdesign_workarea/CS
    1227                      .dwattr $C$DW$128, DW_AT_TI_end_line(0x301)
    1228                      .dwattr $C$DW$128, DW_AT_TI_end_column(0x01)
    1229                      .dwendentry
    1230                      .dwendtag $C$DW$128
    1231              
    1232 000000               .sect   ".text:_load_word_list"
    1233                      .clink
    1234                      .global _load_word_list
    1235              
    1236              $C$DW$137       .dwtag  DW_TAG_subprogram, DW_AT_name("load_word_list")
    1237                      .dwattr $C$DW$137, DW_AT_low_pc(_load_word_list)
    1238                      .dwattr $C$DW$137, DW_AT_high_pc(0x00)
    1239                      .dwattr $C$DW$137, DW_AT_TI_symbol_name("_load_word_list")
    1240                      .dwattr $C$DW$137, DW_AT_external
    1241                      .dwattr $C$DW$137, DW_AT_type(*$C$DW$T$95)
    1242                      .dwattr $C$DW$137, DW_AT_TI_begin_file("C:/Users/a0221074/Desktop/C5000/IBM_Watson_TIdesign_workarea/
    1243                      .dwattr $C$DW$137, DW_AT_TI_begin_line(0x36f)
    1244                      .dwattr $C$DW$137, DW_AT_TI_begin_column(0x01)
    1245                      .dwattr $C$DW$137, DW_AT_TI_max_frame_size(0x0a)
    1246                      .dwpsn  file "C:/Users/a0221074/Desktop/C5000/IBM_Watson_TIdesign_workarea/CSL_bitbucket/c55_csl/c55x
    1247              
    1248                      .dwfde $C$DW$CIE, _load_word_list
    1249              $C$DW$138       .dwtag  DW_TAG_formal_parameter, DW_AT_name("word_list")
    1250                      .dwattr $C$DW$138, DW_AT_TI_symbol_name("_word_list")
    1251                      .dwattr $C$DW$138, DW_AT_type(*$C$DW$T$23)
    1252                      .dwattr $C$DW$138, DW_AT_location[DW_OP_reg17]
    1253              $C$DW$139       .dwtag  DW_TAG_formal_parameter, DW_AT_name("gv")
    1254                      .dwattr $C$DW$139, DW_AT_TI_symbol_name("_gv")
    1255                      .dwattr $C$DW$139, DW_AT_type(*$C$DW$T$97)
    1256                      .dwattr $C$DW$139, DW_AT_location[DW_OP_reg19]
    1257              ;*******************************************************************************
TMS320C55x Assembler PC v4.4.1 Wed Sep 13 16:33:30 2017

Tools Copyright (c) 1996-2012 Texas Instruments Incorporated
C:\Users\a0221074\AppData\Local\Temp\0522410                         PAGE   28

    1258              ;* FUNCTION NAME: load_word_list                                               *
    1259              ;*                                                                             *
    1260              ;*   Function Uses Regs : AC0,AC0,AC1,AC1,T0,AR0,XAR0,AR1,XAR1,AR2,XAR2,AR3,   *
    1261              ;*                        XAR3,SP,CARRY,TC1,M40,SATA,SATD,RDM,FRCT,SMUL        *
    1262              ;*   Stack Frame        : Compact (No Frame Pointer, w/ debug)                 *
    1263              ;*   Total Frame Size   : 10 words                                             *
    1264              ;*                        (2 return address/alignment)                         *
    1265              ;*                        (8 local values)                                     *
    1266              ;*   Min System Stack   : 1 word                                               *
    1267              ;*******************************************************************************
    1268 000000       _load_word_list:
    1269                      .dwcfi  cfa_offset, 1
    1270                      .dwcfi  save_reg_to_mem, 91, -1
    1271 000000 4EF7          AADD #-9, SP
    1272                      .dwcfi  cfa_offset, 10
    1273              $C$DW$140       .dwtag  DW_TAG_variable, DW_AT_name("word_list")
    1274                      .dwattr $C$DW$140, DW_AT_TI_symbol_name("_word_list")
    1275                      .dwattr $C$DW$140, DW_AT_type(*$C$DW$T$23)
    1276                      .dwattr $C$DW$140, DW_AT_location[DW_OP_bregx 0x24 0]
    1277              $C$DW$141       .dwtag  DW_TAG_variable, DW_AT_name("gv")
    1278                      .dwattr $C$DW$141, DW_AT_TI_symbol_name("_gv")
    1279                      .dwattr $C$DW$141, DW_AT_type(*$C$DW$T$97)
    1280                      .dwattr $C$DW$141, DW_AT_location[DW_OP_bregx 0x24 2]
    1281              $C$DW$142       .dwtag  DW_TAG_variable, DW_AT_name("i")
    1282                      .dwattr $C$DW$142, DW_AT_TI_symbol_name("_i")
    1283                      .dwattr $C$DW$142, DW_AT_type(*$C$DW$T$8)
    1284                      .dwattr $C$DW$142, DW_AT_location[DW_OP_bregx 0x24 4]
    1285              $C$DW$143       .dwtag  DW_TAG_variable, DW_AT_name("size")
    1286                      .dwattr $C$DW$143, DW_AT_TI_symbol_name("_size")
    1287                      .dwattr $C$DW$143, DW_AT_type(*$C$DW$T$10)
    1288                      .dwattr $C$DW$143, DW_AT_location[DW_OP_bregx 0x24 5]
    1289              $C$DW$144       .dwtag  DW_TAG_variable, DW_AT_name("p_char")
    1290                      .dwattr $C$DW$144, DW_AT_TI_symbol_name("_p_char")
    1291                      .dwattr $C$DW$144, DW_AT_type(*$C$DW$T$77)
    1292                      .dwattr $C$DW$144, DW_AT_location[DW_OP_bregx 0x24 6]
    1293 000002 EB04          MOV XAR1, dbl(*SP(#2))
         000004 95   
    1294 000005 EB00          MOV XAR0, dbl(*SP(#0))
         000007 85   
    1295                      .dwpsn  file "C:/Users/a0221074/Desktop/C5000/IBM_Watson_TIdesign_workarea/CSL_bitbucket/c55_csl/c55x
    1296 000008 ED04          MOV dbl(*SP(#2)), XAR3
         00000a BF   
    1297 00000b ED6D          MOV dbl(*AR3(#1176)), XAR3
         00000d BF04 
         00000f 98   
    1298 000010 A975          MOV *AR3(short(#2)), AR1 ; |885| 
    1299 000012 6399          BCC $C$L19,AR1 != #0 ; |885| 
    1300                                                      ; branchcc occurs ; |885| 
    1301                      .dwpsn  file "C:/Users/a0221074/Desktop/C5000/IBM_Watson_TIdesign_workarea/CSL_bitbucket/c55_csl/c55x
    1302 000014 7600          MOV #100, T0 ; |886| 
         000016 6448 
    1303 000018 0600          B $C$L26  ; |886| 
         00001a DD   
    1304                                                      ; branch occurs ; |886| 
    1305 00001b       $C$L19:    
TMS320C55x Assembler PC v4.4.1 Wed Sep 13 16:33:30 2017

Tools Copyright (c) 1996-2012 Texas Instruments Incorporated
C:\Users\a0221074\AppData\Local\Temp\0522410                         PAGE   29

    1306                      .dwpsn  file "C:/Users/a0221074/Desktop/C5000/IBM_Watson_TIdesign_workarea/CSL_bitbucket/c55_csl/c55x
    1307 00001b ED00          MOV dbl(*SP(#0)), XAR3
         00001d BF   
    1308 00001e A961          MOV *AR3, AR1 ; |888| 
    1309 000020 C90A          MOV AR1, *SP(#5) ; |888| 
    1310                      .dwpsn  file "C:/Users/a0221074/Desktop/C5000/IBM_Watson_TIdesign_workarea/CSL_bitbucket/c55_csl/c55x
    1311 000022 ED04          MOV dbl(*SP(#2)), XAR3
         000024 BF   
    1312 000025 ED6D          MOV dbl(*AR3(#1176)), XAR3
         000027 BF04 
         000029 98   
    1313 00002a A431          MOV *(#_SEG0), T0 ; |905| 
         00002c 0000 
         00002e 00!  
    1314              
    1315 00002f DF75          MOV uns(*AR3(short(#2))), AC0 ; |905| 
         000031 05   
    1316 000032 3D01  ||      MOV #0, AC1 ; |905| 
    1317              
    1318              $C$DW$145       .dwtag  DW_TAG_TI_branch
    1319                      .dwattr $C$DW$145, DW_AT_low_pc(0x00)
    1320                      .dwattr $C$DW$145, DW_AT_name("_MEM_alloc")
    1321                      .dwattr $C$DW$145, DW_AT_TI_call
    1322              
    1323 000034 6C00          CALL #_MEM_alloc ; |905| 
         000036 0000!
    1324 000038 4550  ||      SFTS AC0, #1, AC0 ; |905| 
    1325              
    1326                                                      ; call occurs [#_MEM_alloc] ; |905| 
    1327 00003a ED04          MOV dbl(*SP(#2)), XAR3
         00003c BF   
    1328 00003d EB6D          MOV XAR0, dbl(*AR3(#1210))
         00003f 8504 
         000041 BA   
    1329                      .dwpsn  file "C:/Users/a0221074/Desktop/C5000/IBM_Watson_TIdesign_workarea/CSL_bitbucket/c55_csl/c55x
    1330 000042 ED04          MOV dbl(*SP(#2)), XAR3
         000044 BF   
    1331 000045 ED6D          MOV dbl(*AR3(#1210)), XAR3
         000047 BF04 
         000049 BA   
    1332 00004a 90B0          MOV XAR3, AC0
    1333 00004c 6390          BCC $C$L20,AC0 != #0 ; |906| 
    1334                                                      ; branchcc occurs ; |906| 
    1335                      .dwpsn  file "C:/Users/a0221074/Desktop/C5000/IBM_Watson_TIdesign_workarea/CSL_bitbucket/c55_csl/c55x
    1336 00004e 7601          MOV #400, T0 ; |908| 
         000050 9048 
    1337 000052 0600          B $C$L26  ; |908| 
         000054 A3   
    1338                                                      ; branch occurs ; |908| 
    1339 000055       $C$L20:    
    1340                      .dwpsn  file "C:/Users/a0221074/Desktop/C5000/IBM_Watson_TIdesign_workarea/CSL_bitbucket/c55_csl/c55x
    1341 000055 A00A          MOV *SP(#5), AC0 ; |911| 
    1342 000057 A431          MOV *(#_SEG0), T0 ; |911| 
         000059 0000 
         00005b 00!  
TMS320C55x Assembler PC v4.4.1 Wed Sep 13 16:33:30 2017

Tools Copyright (c) 1996-2012 Texas Instruments Incorporated
C:\Users\a0221074\AppData\Local\Temp\0522410                         PAGE   30

    1343              $C$DW$146       .dwtag  DW_TAG_TI_branch
    1344                      .dwattr $C$DW$146, DW_AT_low_pc(0x00)
    1345                      .dwattr $C$DW$146, DW_AT_name("_MEM_alloc")
    1346                      .dwattr $C$DW$146, DW_AT_TI_call
    1347              
    1348 00005c 6C00          CALL #_MEM_alloc ; |911| 
         00005e 0000!
    1349 000060 3D01  ||      MOV #0, AC1 ; |911| 
    1350              
    1351                                                      ; call occurs [#_MEM_alloc] ; |911| 
    1352 000062 EB0C          MOV XAR0, dbl(*SP(#6))
         000064 85   
    1353                      .dwpsn  file "C:/Users/a0221074/Desktop/C5000/IBM_Watson_TIdesign_workarea/CSL_bitbucket/c55_csl/c55x
    1354 000065 ED0C          MOV dbl(*SP(#6)), XAR3
         000067 BF   
    1355 000068 90B0          MOV XAR3, AC0
    1356 00006a 0410          BCC $C$L21,AC0 != #0 ; |912| 
         00006c 2A   
    1357                                                      ; branchcc occurs ; |912| 
    1358                      .dwpsn  file "C:/Users/a0221074/Desktop/C5000/IBM_Watson_TIdesign_workarea/CSL_bitbucket/c55_csl/c55x
    1359 00006d ED04          MOV dbl(*SP(#2)), XAR3
         00006f BF   
    1360 000070 ED6D          MOV dbl(*AR3(#1210)), XAR0
         000072 8F04 
         000074 BA   
    1361 000075 ED6D          MOV dbl(*AR3(#1176)), XAR3
         000077 BF04 
         000079 98   
    1362 00007a A431          MOV *(#_SEG0), T0 ; |914| 
         00007c 0000 
         00007e 00!  
    1363 00007f DF75          MOV uns(*AR3(short(#2))), AC0 ; |914| 
         000081 05   
    1364              $C$DW$147       .dwtag  DW_TAG_TI_branch
    1365                      .dwattr $C$DW$147, DW_AT_low_pc(0x00)
    1366                      .dwattr $C$DW$147, DW_AT_name("_MEM_free")
    1367                      .dwattr $C$DW$147, DW_AT_TI_call
    1368 000082 6C00          CALL #_MEM_free ; |914| 
         000084 0000!
    1369                                                      ; call occurs [#_MEM_free] ; |914| 
    1370                      .dwpsn  file "C:/Users/a0221074/Desktop/C5000/IBM_Watson_TIdesign_workarea/CSL_bitbucket/c55_csl/c55x
    1371 000086 ED04          MOV dbl(*SP(#2)), XAR3
         000088 BF   
    1372 000089 3C00          MOV #0, AC0 ; |915| 
    1373 00008b EB6D          MOV AC0, dbl(*AR3(#1210))
         00008d 0804 
         00008f BA   
    1374                      .dwpsn  file "C:/Users/a0221074/Desktop/C5000/IBM_Watson_TIdesign_workarea/CSL_bitbucket/c55_csl/c55x
    1375 000090 7601          MOV #400, T0 ; |916| 
         000092 9048 
    1376 000094 0600          B $C$L26  ; |916| 
         000096 61   
    1377                                                      ; branch occurs ; |916| 
    1378 000097       $C$L21:    
    1379                      .dwpsn  file "C:/Users/a0221074/Desktop/C5000/IBM_Watson_TIdesign_workarea/CSL_bitbucket/c55_csl/c55x
TMS320C55x Assembler PC v4.4.1 Wed Sep 13 16:33:30 2017

Tools Copyright (c) 1996-2012 Texas Instruments Incorporated
C:\Users\a0221074\AppData\Local\Temp\0522410                         PAGE   31

    1380 000097 ED00          MOV dbl(*SP(#0)), XAR1
         000099 9F   
    1381 00009a A00A          MOV *SP(#5), AC0 ; |920| 
    1382 00009c B423          AMAR *AR1+
    1383              $C$DW$148       .dwtag  DW_TAG_TI_branch
    1384                      .dwattr $C$DW$148, DW_AT_low_pc(0x00)
    1385                      .dwattr $C$DW$148, DW_AT_name("_memcpy")
    1386                      .dwattr $C$DW$148, DW_AT_TI_call
    1387 00009e 6C00          CALL #_memcpy ; |920| 
         0000a0 0000!
    1388                                                      ; call occurs [#_memcpy] ; |920| 
    1389                      .dwpsn  file "C:/Users/a0221074/Desktop/C5000/IBM_Watson_TIdesign_workarea/CSL_bitbucket/c55_csl/c55x
    1390 0000a2 E608          MOV #0, *SP(#4) ; |922| 
         0000a4 00   
    1391 0000a5 4A3B          B $C$L25  ; |922| 
    1392                                                      ; branch occurs ; |922| 
    1393 0000a7       $C$L22:    
    1394 0000a7       $C$DW$L$_load_word_list$8$B:
    1395                      .dwpsn  file "C:/Users/a0221074/Desktop/C5000/IBM_Watson_TIdesign_workarea/CSL_bitbucket/c55_csl/c55x
    1396 0000a7 ED04          MOV dbl(*SP(#2)), XAR3
         0000a9 BF   
    1397 0000aa A008          MOV *SP(#4), AC0 ; |924| 
    1398 0000ac 5000          SFTL AC0, #1 ; |924| 
    1399 0000ae 900A          MOV AC0, XAR2
    1400 0000b0 ED6D          MOV dbl(*AR3(#1210)), XAR3
         0000b2 BF04 
         0000b4 BA   
    1401 0000b5 14A1          AADD XAR2, XAR3 ; |924| 
         0000b7 B0   
    1402 0000b8 ED0C          MOV dbl(*SP(#6)), XAR2
         0000ba AF   
    1403 0000bb EB61          MOV XAR2, dbl(*AR3)
         0000bd A5   
    1404                      .dwpsn  file "C:/Users/a0221074/Desktop/C5000/IBM_Watson_TIdesign_workarea/CSL_bitbucket/c55_csl/c55x
    1405 0000be ED0C          MOV dbl(*SP(#6)), XAR3
         0000c0 BF   
    1406 0000c1 F061          CMP *AR3 == #10, TC1 ; |925| 
         0000c3 000A 
    1407 0000c5 6664          BCC $C$L24,TC1 ; |925| 
    1408                                                      ; branchcc occurs ; |925| 
    1409 0000c7       $C$DW$L$_load_word_list$8$E:
    1410 0000c7       $C$L23:    
    1411 0000c7       $C$DW$L$_load_word_list$9$B:
    1412                      .dwpsn  file "C:/Users/a0221074/Desktop/C5000/IBM_Watson_TIdesign_workarea/CSL_bitbucket/c55_csl/c55x
    1413 0000c7 B463          AMAR *AR3+
    1414 0000c9 EB0C          MOV XAR3, dbl(*SP(#6))
         0000cb B5   
    1415                      .dwpsn  file "C:/Users/a0221074/Desktop/C5000/IBM_Watson_TIdesign_workarea/CSL_bitbucket/c55_csl/c55x
    1416 0000cc F061          CMP *AR3 == #10, TC1 ; |925| 
         0000ce 000A 
    1417 0000d0 0474          BCC $C$L23,!TC1 ; |925| 
         0000d2 F4   
    1418                                                      ; branchcc occurs ; |925| 
    1419 0000d3       $C$DW$L$_load_word_list$9$E:
    1420 0000d3       $C$L24:    
TMS320C55x Assembler PC v4.4.1 Wed Sep 13 16:33:30 2017

Tools Copyright (c) 1996-2012 Texas Instruments Incorporated
C:\Users\a0221074\AppData\Local\Temp\0522410                         PAGE   32

    1421 0000d3       $C$DW$L$_load_word_list$10$B:
    1422                      .dwpsn  file "C:/Users/a0221074/Desktop/C5000/IBM_Watson_TIdesign_workarea/CSL_bitbucket/c55_csl/c55x
    1423 0000d3 E661          MOV #0, *AR3 ; |926| 
         0000d5 00   
    1424                      .dwpsn  file "C:/Users/a0221074/Desktop/C5000/IBM_Watson_TIdesign_workarea/CSL_bitbucket/c55_csl/c55x
    1425 0000d6 ED0C          MOV dbl(*SP(#6)), XAR3
         0000d8 BF   
    1426 0000d9 B463          AMAR *AR3+
    1427 0000db EB0C          MOV XAR3, dbl(*SP(#6))
         0000dd B5   
    1428                      .dwpsn  file "C:/Users/a0221074/Desktop/C5000/IBM_Watson_TIdesign_workarea/CSL_bitbucket/c55_csl/c55x
    1429 0000de F708          ADD #1, *SP(#4) ; |922| 
         0000e0 0001 
    1430 0000e2       $C$DW$L$_load_word_list$10$E:
    1431 0000e2       $C$L25:    
    1432 0000e2       $C$DW$L$_load_word_list$11$B:
    1433                      .dwpsn  file "C:/Users/a0221074/Desktop/C5000/IBM_Watson_TIdesign_workarea/CSL_bitbucket/c55_csl/c55x
    1434 0000e2 ED04          MOV dbl(*SP(#2)), XAR3
         0000e4 BF   
    1435 0000e5 ED6D          MOV dbl(*AR3(#1176)), XAR3
         0000e7 BF04 
         0000e9 98   
    1436 0000ea AA08          MOV *SP(#4), AR2 ; |922| 
    1437 0000ec A975          MOV *AR3(short(#2)), AR1 ; |922| 
    1438 0000ee 12A4          CMPU AR2 < AR1, TC1 ; |922| 
         0000f0 94   
    1439 0000f1 0464          BCC $C$L22,TC1 ; |922| 
         0000f3 B3   
    1440                                                      ; branchcc occurs ; |922| 
    1441 0000f4       $C$DW$L$_load_word_list$11$E:
    1442                      .dwpsn  file "C:/Users/a0221074/Desktop/C5000/IBM_Watson_TIdesign_workarea/CSL_bitbucket/c55_csl/c55x
    1443 0000f4 7600          MOV #100, T0 ; |930| 
         0000f6 6448 
    1444 0000f8       $C$L26:    
    1445                      .dwpsn  file "C:/Users/a0221074/Desktop/C5000/IBM_Watson_TIdesign_workarea/CSL_bitbucket/c55_csl/c55x
    1446 0000f8 4E09          AADD #9, SP
    1447                      .dwcfi  cfa_offset, 1
    1448              $C$DW$149       .dwtag  DW_TAG_TI_branch
    1449                      .dwattr $C$DW$149, DW_AT_low_pc(0x00)
    1450                      .dwattr $C$DW$149, DW_AT_TI_return
    1451 0000fa 4804          RET
    1452                                                      ; return occurs
    1453              
    1454              $C$DW$150       .dwtag  DW_TAG_TI_loop
    1455                      .dwattr $C$DW$150, DW_AT_name("C:\\Users\\a0221074\\AppData\\Local\\Temp\\0522410:$C$L25:1:1505334808
    1456                      .dwattr $C$DW$150, DW_AT_TI_begin_file("C:/Users/a0221074/Desktop/C5000/IBM_Watson_TIdesign_workarea/
    1457                      .dwattr $C$DW$150, DW_AT_TI_begin_line(0x39a)
    1458                      .dwattr $C$DW$150, DW_AT_TI_end_line(0x39f)
    1459              $C$DW$151       .dwtag  DW_TAG_TI_loop_range
    1460                      .dwattr $C$DW$151, DW_AT_low_pc($C$DW$L$_load_word_list$11$B)
    1461                      .dwattr $C$DW$151, DW_AT_high_pc($C$DW$L$_load_word_list$11$E)
    1462              $C$DW$152       .dwtag  DW_TAG_TI_loop_range
    1463                      .dwattr $C$DW$152, DW_AT_low_pc($C$DW$L$_load_word_list$8$B)
    1464                      .dwattr $C$DW$152, DW_AT_high_pc($C$DW$L$_load_word_list$8$E)
    1465              $C$DW$153       .dwtag  DW_TAG_TI_loop_range
TMS320C55x Assembler PC v4.4.1 Wed Sep 13 16:33:30 2017

Tools Copyright (c) 1996-2012 Texas Instruments Incorporated
C:\Users\a0221074\AppData\Local\Temp\0522410                         PAGE   33

    1466                      .dwattr $C$DW$153, DW_AT_low_pc($C$DW$L$_load_word_list$10$B)
    1467                      .dwattr $C$DW$153, DW_AT_high_pc($C$DW$L$_load_word_list$10$E)
    1468              
    1469              $C$DW$154       .dwtag  DW_TAG_TI_loop
    1470                      .dwattr $C$DW$154, DW_AT_name("C:\\Users\\a0221074\\AppData\\Local\\Temp\\0522410:$C$L23:2:1505334808
    1471                      .dwattr $C$DW$154, DW_AT_TI_begin_file("C:/Users/a0221074/Desktop/C5000/IBM_Watson_TIdesign_workarea/
    1472                      .dwattr $C$DW$154, DW_AT_TI_begin_line(0x39d)
    1473                      .dwattr $C$DW$154, DW_AT_TI_end_line(0x39d)
    1474              $C$DW$155       .dwtag  DW_TAG_TI_loop_range
    1475                      .dwattr $C$DW$155, DW_AT_low_pc($C$DW$L$_load_word_list$9$B)
    1476                      .dwattr $C$DW$155, DW_AT_high_pc($C$DW$L$_load_word_list$9$E)
    1477                      .dwendtag $C$DW$154
    1478              
    1479                      .dwendtag $C$DW$150
    1480              
    1481                      .dwattr $C$DW$137, DW_AT_TI_end_file("C:/Users/a0221074/Desktop/C5000/IBM_Watson_TIdesign_workarea/CS
    1482                      .dwattr $C$DW$137, DW_AT_TI_end_line(0x3a3)
    1483                      .dwattr $C$DW$137, DW_AT_TI_end_column(0x01)
    1484                      .dwendentry
    1485                      .dwendtag $C$DW$137
    1486              
    1487 000000               .sect   ".text:_free_scales"
    1488                      .clink
    1489                      .global _free_scales
    1490              
    1491              $C$DW$156       .dwtag  DW_TAG_subprogram, DW_AT_name("free_scales")
    1492                      .dwattr $C$DW$156, DW_AT_low_pc(_free_scales)
    1493                      .dwattr $C$DW$156, DW_AT_high_pc(0x00)
    1494                      .dwattr $C$DW$156, DW_AT_TI_symbol_name("_free_scales")
    1495                      .dwattr $C$DW$156, DW_AT_external
    1496                      .dwattr $C$DW$156, DW_AT_TI_begin_file("C:/Users/a0221074/Desktop/C5000/IBM_Watson_TIdesign_workarea/
    1497                      .dwattr $C$DW$156, DW_AT_TI_begin_line(0x3a9)
    1498                      .dwattr $C$DW$156, DW_AT_TI_begin_column(0x1d)
    1499                      .dwattr $C$DW$156, DW_AT_TI_max_frame_size(0x04)
    1500                      .dwpsn  file "C:/Users/a0221074/Desktop/C5000/IBM_Watson_TIdesign_workarea/CSL_bitbucket/c55_csl/c55x
    1501              
    1502                      .dwfde $C$DW$CIE, _free_scales
    1503              $C$DW$157       .dwtag  DW_TAG_formal_parameter, DW_AT_name("gv")
    1504                      .dwattr $C$DW$157, DW_AT_TI_symbol_name("_gv")
    1505                      .dwattr $C$DW$157, DW_AT_type(*$C$DW$T$97)
    1506                      .dwattr $C$DW$157, DW_AT_location[DW_OP_reg17]
    1507              ;*******************************************************************************
    1508              ;* FUNCTION NAME: free_scales                                                  *
    1509              ;*                                                                             *
    1510              ;*   Function Uses Regs : AC0,AC0,AR0,XAR0,AR3,XAR3,SP,M40,SATA,SATD,RDM,FRCT, *
    1511              ;*                        SMUL                                                 *
    1512              ;*   Stack Frame        : Compact (No Frame Pointer, w/ debug)                 *
    1513              ;*   Total Frame Size   : 4 words                                              *
    1514              ;*                        (2 return address/alignment)                         *
    1515              ;*                        (2 local values)                                     *
    1516              ;*   Min System Stack   : 1 word                                               *
    1517              ;*******************************************************************************
    1518 000000       _free_scales:
    1519                      .dwcfi  cfa_offset, 1
    1520                      .dwcfi  save_reg_to_mem, 91, -1
TMS320C55x Assembler PC v4.4.1 Wed Sep 13 16:33:30 2017

Tools Copyright (c) 1996-2012 Texas Instruments Incorporated
C:\Users\a0221074\AppData\Local\Temp\0522410                         PAGE   34

    1521 000000 4EFD          AADD #-3, SP
    1522                      .dwcfi  cfa_offset, 4
    1523              $C$DW$158       .dwtag  DW_TAG_variable, DW_AT_name("gv")
    1524                      .dwattr $C$DW$158, DW_AT_TI_symbol_name("_gv")
    1525                      .dwattr $C$DW$158, DW_AT_type(*$C$DW$T$97)
    1526                      .dwattr $C$DW$158, DW_AT_location[DW_OP_bregx 0x24 0]
    1527 000002 EB00          MOV XAR0, dbl(*SP(#0))
         000004 85   
    1528                      .dwpsn  file "C:/Users/a0221074/Desktop/C5000/IBM_Watson_TIdesign_workarea/CSL_bitbucket/c55_csl/c55x
    1529 000005 ED00          MOV dbl(*SP(#0)), XAR3
         000007 BF   
    1530 000008 ED6D          MOV dbl(*AR3(#1202)), XAR3
         00000a BF04 
         00000c B2   
    1531 00000d 90B0          MOV XAR3, AC0
    1532 00000f 6600          BCC $C$L27,AC0 == #0 ; |939| 
    1533                                                      ; branchcc occurs ; |939| 
    1534                      .dwpsn  file "C:/Users/a0221074/Desktop/C5000/IBM_Watson_TIdesign_workarea/CSL_bitbucket/c55_csl/c55x
    1535 000011 ED00          MOV dbl(*SP(#0)), XAR3
         000013 BF   
    1536 000014 ED6D          MOV dbl(*AR3(#1202)), XAR0
         000016 8F04 
         000018 B2   
    1537              $C$DW$159       .dwtag  DW_TAG_TI_branch
    1538                      .dwattr $C$DW$159, DW_AT_low_pc(0x00)
    1539                      .dwattr $C$DW$159, DW_AT_name("_free")
    1540                      .dwattr $C$DW$159, DW_AT_TI_call
    1541 000019 6C00          CALL #_free ; |940| 
         00001b 0000!
    1542                                                      ; call occurs [#_free] ; |940| 
    1543 00001d       $C$L27:    
    1544                      .dwpsn  file "C:/Users/a0221074/Desktop/C5000/IBM_Watson_TIdesign_workarea/CSL_bitbucket/c55_csl/c55x
    1545 00001d ED00          MOV dbl(*SP(#0)), XAR3
         00001f BF   
    1546 000020 ED6D          MOV dbl(*AR3(#1204)), XAR3
         000022 BF04 
         000024 B4   
    1547 000025 90B0          MOV XAR3, AC0
    1548 000027 6600          BCC $C$L28,AC0 == #0 ; |941| 
    1549                                                      ; branchcc occurs ; |941| 
    1550                      .dwpsn  file "C:/Users/a0221074/Desktop/C5000/IBM_Watson_TIdesign_workarea/CSL_bitbucket/c55_csl/c55x
    1551 000029 ED00          MOV dbl(*SP(#0)), XAR3
         00002b BF   
    1552 00002c ED6D          MOV dbl(*AR3(#1204)), XAR0
         00002e 8F04 
         000030 B4   
    1553              $C$DW$160       .dwtag  DW_TAG_TI_branch
    1554                      .dwattr $C$DW$160, DW_AT_low_pc(0x00)
    1555                      .dwattr $C$DW$160, DW_AT_name("_free")
    1556                      .dwattr $C$DW$160, DW_AT_TI_call
    1557 000031 6C00          CALL #_free ; |942| 
         000033 0000!
    1558                                                      ; call occurs [#_free] ; |942| 
    1559                      .dwpsn  file "C:/Users/a0221074/Desktop/C5000/IBM_Watson_TIdesign_workarea/CSL_bitbucket/c55_csl/c55x
    1560 000035       $C$L28:    
TMS320C55x Assembler PC v4.4.1 Wed Sep 13 16:33:30 2017

Tools Copyright (c) 1996-2012 Texas Instruments Incorporated
C:\Users\a0221074\AppData\Local\Temp\0522410                         PAGE   35

    1561 000035 4E03          AADD #3, SP
    1562                      .dwcfi  cfa_offset, 1
    1563              $C$DW$161       .dwtag  DW_TAG_TI_branch
    1564                      .dwattr $C$DW$161, DW_AT_low_pc(0x00)
    1565                      .dwattr $C$DW$161, DW_AT_TI_return
    1566 000037 4804          RET
    1567                                                      ; return occurs
    1568                      .dwattr $C$DW$156, DW_AT_TI_end_file("C:/Users/a0221074/Desktop/C5000/IBM_Watson_TIdesign_workarea/CS
    1569                      .dwattr $C$DW$156, DW_AT_TI_end_line(0x3af)
    1570                      .dwattr $C$DW$156, DW_AT_TI_end_column(0x01)
    1571                      .dwendentry
    1572                      .dwendtag $C$DW$156
    1573              
    1574 000000               .sect   ".text:_free_models"
    1575                      .clink
    1576                      .global _free_models
    1577              
    1578              $C$DW$162       .dwtag  DW_TAG_subprogram, DW_AT_name("free_models")
    1579                      .dwattr $C$DW$162, DW_AT_low_pc(_free_models)
    1580                      .dwattr $C$DW$162, DW_AT_high_pc(0x00)
    1581                      .dwattr $C$DW$162, DW_AT_TI_symbol_name("_free_models")
    1582                      .dwattr $C$DW$162, DW_AT_external
    1583                      .dwattr $C$DW$162, DW_AT_TI_begin_file("C:/Users/a0221074/Desktop/C5000/IBM_Watson_TIdesign_workarea/
    1584                      .dwattr $C$DW$162, DW_AT_TI_begin_line(0x3b3)
    1585                      .dwattr $C$DW$162, DW_AT_TI_begin_column(0x1d)
    1586                      .dwattr $C$DW$162, DW_AT_TI_max_frame_size(0x04)
    1587                      .dwpsn  file "C:/Users/a0221074/Desktop/C5000/IBM_Watson_TIdesign_workarea/CSL_bitbucket/c55_csl/c55x
    1588              
    1589                      .dwfde $C$DW$CIE, _free_models
    1590              $C$DW$163       .dwtag  DW_TAG_formal_parameter, DW_AT_name("gv")
    1591                      .dwattr $C$DW$163, DW_AT_TI_symbol_name("_gv")
    1592                      .dwattr $C$DW$163, DW_AT_type(*$C$DW$T$97)
    1593                      .dwattr $C$DW$163, DW_AT_location[DW_OP_reg17]
    1594              ;*******************************************************************************
    1595              ;* FUNCTION NAME: free_models                                                  *
    1596              ;*                                                                             *
    1597              ;*   Function Uses Regs : AC0,AC0,AR0,XAR0,AR3,XAR3,SP,M40,SATA,SATD,RDM,FRCT, *
    1598              ;*                        SMUL                                                 *
    1599              ;*   Stack Frame        : Compact (No Frame Pointer, w/ debug)                 *
    1600              ;*   Total Frame Size   : 4 words                                              *
    1601              ;*                        (2 return address/alignment)                         *
    1602              ;*                        (2 local values)                                     *
    1603              ;*   Min System Stack   : 1 word                                               *
    1604              ;*******************************************************************************
    1605 000000       _free_models:
    1606                      .dwcfi  cfa_offset, 1
    1607                      .dwcfi  save_reg_to_mem, 91, -1
    1608 000000 4EFD          AADD #-3, SP
    1609                      .dwcfi  cfa_offset, 4
    1610              $C$DW$164       .dwtag  DW_TAG_variable, DW_AT_name("gv")
    1611                      .dwattr $C$DW$164, DW_AT_TI_symbol_name("_gv")
    1612                      .dwattr $C$DW$164, DW_AT_type(*$C$DW$T$97)
    1613                      .dwattr $C$DW$164, DW_AT_location[DW_OP_bregx 0x24 0]
    1614 000002 EB00          MOV XAR0, dbl(*SP(#0))
         000004 85   
TMS320C55x Assembler PC v4.4.1 Wed Sep 13 16:33:30 2017

Tools Copyright (c) 1996-2012 Texas Instruments Incorporated
C:\Users\a0221074\AppData\Local\Temp\0522410                         PAGE   36

    1615                      .dwpsn  file "C:/Users/a0221074/Desktop/C5000/IBM_Watson_TIdesign_workarea/CSL_bitbucket/c55_csl/c55x
    1616 000005 ED00          MOV dbl(*SP(#0)), XAR3
         000007 BF   
    1617 000008 ED6D          MOV dbl(*AR3(#1178)), XAR3
         00000a BF04 
         00000c 9A   
    1618 00000d 90B0          MOV XAR3, AC0
    1619 00000f 6600          BCC $C$L29,AC0 == #0 ; |949| 
    1620                                                      ; branchcc occurs ; |949| 
    1621                      .dwpsn  file "C:/Users/a0221074/Desktop/C5000/IBM_Watson_TIdesign_workarea/CSL_bitbucket/c55_csl/c55x
    1622 000011 ED00          MOV dbl(*SP(#0)), XAR3
         000013 BF   
    1623 000014 ED6D          MOV dbl(*AR3(#1178)), XAR0
         000016 8F04 
         000018 9A   
    1624              $C$DW$165       .dwtag  DW_TAG_TI_branch
    1625                      .dwattr $C$DW$165, DW_AT_low_pc(0x00)
    1626                      .dwattr $C$DW$165, DW_AT_name("_free")
    1627                      .dwattr $C$DW$165, DW_AT_TI_call
    1628 000019 6C00          CALL #_free ; |950| 
         00001b 0000!
    1629                                                      ; call occurs [#_free] ; |950| 
    1630 00001d       $C$L29:    
    1631                      .dwpsn  file "C:/Users/a0221074/Desktop/C5000/IBM_Watson_TIdesign_workarea/CSL_bitbucket/c55_csl/c55x
    1632 00001d ED00          MOV dbl(*SP(#0)), XAR3
         00001f BF   
    1633 000020 ED6D          MOV dbl(*AR3(#1180)), XAR3
         000022 BF04 
         000024 9C   
    1634 000025 90B0          MOV XAR3, AC0
    1635 000027 6600          BCC $C$L30,AC0 == #0 ; |951| 
    1636                                                      ; branchcc occurs ; |951| 
    1637                      .dwpsn  file "C:/Users/a0221074/Desktop/C5000/IBM_Watson_TIdesign_workarea/CSL_bitbucket/c55_csl/c55x
    1638 000029 ED00          MOV dbl(*SP(#0)), XAR3
         00002b BF   
    1639 00002c ED6D          MOV dbl(*AR3(#1180)), XAR0
         00002e 8F04 
         000030 9C   
    1640              $C$DW$166       .dwtag  DW_TAG_TI_branch
    1641                      .dwattr $C$DW$166, DW_AT_low_pc(0x00)
    1642                      .dwattr $C$DW$166, DW_AT_name("_free")
    1643                      .dwattr $C$DW$166, DW_AT_TI_call
    1644 000031 6C00          CALL #_free ; |952| 
         000033 0000!
    1645                                                      ; call occurs [#_free] ; |952| 
    1646 000035       $C$L30:    
    1647                      .dwpsn  file "C:/Users/a0221074/Desktop/C5000/IBM_Watson_TIdesign_workarea/CSL_bitbucket/c55_csl/c55x
    1648 000035 ED00          MOV dbl(*SP(#0)), XAR3
         000037 BF   
    1649 000038 ED6D          MOV dbl(*AR3(#1182)), XAR3
         00003a BF04 
         00003c 9E   
    1650 00003d 90B0          MOV XAR3, AC0
    1651 00003f 6600          BCC $C$L31,AC0 == #0 ; |953| 
    1652                                                      ; branchcc occurs ; |953| 
TMS320C55x Assembler PC v4.4.1 Wed Sep 13 16:33:30 2017

Tools Copyright (c) 1996-2012 Texas Instruments Incorporated
C:\Users\a0221074\AppData\Local\Temp\0522410                         PAGE   37

    1653                      .dwpsn  file "C:/Users/a0221074/Desktop/C5000/IBM_Watson_TIdesign_workarea/CSL_bitbucket/c55_csl/c55x
    1654 000041 ED00          MOV dbl(*SP(#0)), XAR3
         000043 BF   
    1655 000044 ED6D          MOV dbl(*AR3(#1182)), XAR0
         000046 8F04 
         000048 9E   
    1656              $C$DW$167       .dwtag  DW_TAG_TI_branch
    1657                      .dwattr $C$DW$167, DW_AT_low_pc(0x00)
    1658                      .dwattr $C$DW$167, DW_AT_name("_free")
    1659                      .dwattr $C$DW$167, DW_AT_TI_call
    1660 000049 6C00          CALL #_free ; |954| 
         00004b 0000!
    1661                                                      ; call occurs [#_free] ; |954| 
    1662 00004d       $C$L31:    
    1663                      .dwpsn  file "C:/Users/a0221074/Desktop/C5000/IBM_Watson_TIdesign_workarea/CSL_bitbucket/c55_csl/c55x
    1664 00004d ED00          MOV dbl(*SP(#0)), XAR3
         00004f BF   
    1665 000050 ED6D          MOV dbl(*AR3(#1200)), XAR3
         000052 BF04 
         000054 B0   
    1666 000055 90B0          MOV XAR3, AC0
    1667 000057 6600          BCC $C$L32,AC0 == #0 ; |956| 
    1668                                                      ; branchcc occurs ; |956| 
    1669                      .dwpsn  file "C:/Users/a0221074/Desktop/C5000/IBM_Watson_TIdesign_workarea/CSL_bitbucket/c55_csl/c55x
    1670 000059 ED00          MOV dbl(*SP(#0)), XAR3
         00005b BF   
    1671 00005c ED6D          MOV dbl(*AR3(#1200)), XAR0
         00005e 8F04 
         000060 B0   
    1672              $C$DW$168       .dwtag  DW_TAG_TI_branch
    1673                      .dwattr $C$DW$168, DW_AT_low_pc(0x00)
    1674                      .dwattr $C$DW$168, DW_AT_name("_free")
    1675                      .dwattr $C$DW$168, DW_AT_TI_call
    1676 000061 6C00          CALL #_free ; |957| 
         000063 0000!
    1677                                                      ; call occurs [#_free] ; |957| 
    1678 000065       $C$L32:    
    1679                      .dwpsn  file "C:/Users/a0221074/Desktop/C5000/IBM_Watson_TIdesign_workarea/CSL_bitbucket/c55_csl/c55x
    1680 000065 ED00          MOV dbl(*SP(#0)), XAR3
         000067 BF   
    1681 000068 ED6D          MOV dbl(*AR3(#1184)), XAR3
         00006a BF04 
         00006c A0   
    1682 00006d 90B0          MOV XAR3, AC0
    1683 00006f 6600          BCC $C$L33,AC0 == #0 ; |958| 
    1684                                                      ; branchcc occurs ; |958| 
    1685                      .dwpsn  file "C:/Users/a0221074/Desktop/C5000/IBM_Watson_TIdesign_workarea/CSL_bitbucket/c55_csl/c55x
    1686 000071 ED00          MOV dbl(*SP(#0)), XAR3
         000073 BF   
    1687 000074 ED6D          MOV dbl(*AR3(#1184)), XAR0
         000076 8F04 
         000078 A0   
    1688              $C$DW$169       .dwtag  DW_TAG_TI_branch
    1689                      .dwattr $C$DW$169, DW_AT_low_pc(0x00)
    1690                      .dwattr $C$DW$169, DW_AT_name("_free")
TMS320C55x Assembler PC v4.4.1 Wed Sep 13 16:33:30 2017

Tools Copyright (c) 1996-2012 Texas Instruments Incorporated
C:\Users\a0221074\AppData\Local\Temp\0522410                         PAGE   38

    1691                      .dwattr $C$DW$169, DW_AT_TI_call
    1692 000079 6C00          CALL #_free ; |959| 
         00007b 0000!
    1693                                                      ; call occurs [#_free] ; |959| 
    1694 00007d       $C$L33:    
    1695                      .dwpsn  file "C:/Users/a0221074/Desktop/C5000/IBM_Watson_TIdesign_workarea/CSL_bitbucket/c55_csl/c55x
    1696 00007d ED00          MOV dbl(*SP(#0)), XAR3
         00007f BF   
    1697 000080 ED6D          MOV dbl(*AR3(#1186)), XAR3
         000082 BF04 
         000084 A2   
    1698 000085 90B0          MOV XAR3, AC0
    1699 000087 6600          BCC $C$L34,AC0 == #0 ; |960| 
    1700                                                      ; branchcc occurs ; |960| 
    1701                      .dwpsn  file "C:/Users/a0221074/Desktop/C5000/IBM_Watson_TIdesign_workarea/CSL_bitbucket/c55_csl/c55x
    1702 000089 ED00          MOV dbl(*SP(#0)), XAR3
         00008b BF   
    1703 00008c ED6D          MOV dbl(*AR3(#1186)), XAR0
         00008e 8F04 
         000090 A2   
    1704              $C$DW$170       .dwtag  DW_TAG_TI_branch
    1705                      .dwattr $C$DW$170, DW_AT_low_pc(0x00)
    1706                      .dwattr $C$DW$170, DW_AT_name("_free")
    1707                      .dwattr $C$DW$170, DW_AT_TI_call
    1708 000091 6C00          CALL #_free ; |961| 
         000093 0000!
    1709                                                      ; call occurs [#_free] ; |961| 
    1710 000095       $C$L34:    
    1711                      .dwpsn  file "C:/Users/a0221074/Desktop/C5000/IBM_Watson_TIdesign_workarea/CSL_bitbucket/c55_csl/c55x
    1712 000095 ED00          MOV dbl(*SP(#0)), XAR3
         000097 BF   
    1713 000098 ED6D          MOV dbl(*AR3(#1190)), XAR3
         00009a BF04 
         00009c A6   
    1714 00009d 90B0          MOV XAR3, AC0
    1715 00009f 6600          BCC $C$L35,AC0 == #0 ; |966| 
    1716                                                      ; branchcc occurs ; |966| 
    1717                      .dwpsn  file "C:/Users/a0221074/Desktop/C5000/IBM_Watson_TIdesign_workarea/CSL_bitbucket/c55_csl/c55x
    1718 0000a1 ED00          MOV dbl(*SP(#0)), XAR3
         0000a3 BF   
    1719 0000a4 ED6D          MOV dbl(*AR3(#1190)), XAR0
         0000a6 8F04 
         0000a8 A6   
    1720              $C$DW$171       .dwtag  DW_TAG_TI_branch
    1721                      .dwattr $C$DW$171, DW_AT_low_pc(0x00)
    1722                      .dwattr $C$DW$171, DW_AT_name("_free")
    1723                      .dwattr $C$DW$171, DW_AT_TI_call
    1724 0000a9 6C00          CALL #_free ; |967| 
         0000ab 0000!
    1725                                                      ; call occurs [#_free] ; |967| 
    1726 0000ad       $C$L35:    
    1727                      .dwpsn  file "C:/Users/a0221074/Desktop/C5000/IBM_Watson_TIdesign_workarea/CSL_bitbucket/c55_csl/c55x
    1728 0000ad ED00          MOV dbl(*SP(#0)), XAR3
         0000af BF   
    1729 0000b0 ED6D          MOV dbl(*AR3(#1192)), XAR3
TMS320C55x Assembler PC v4.4.1 Wed Sep 13 16:33:30 2017

Tools Copyright (c) 1996-2012 Texas Instruments Incorporated
C:\Users\a0221074\AppData\Local\Temp\0522410                         PAGE   39

         0000b2 BF04 
         0000b4 A8   
    1730 0000b5 90B0          MOV XAR3, AC0
    1731 0000b7 6600          BCC $C$L36,AC0 == #0 ; |970| 
    1732                                                      ; branchcc occurs ; |970| 
    1733                      .dwpsn  file "C:/Users/a0221074/Desktop/C5000/IBM_Watson_TIdesign_workarea/CSL_bitbucket/c55_csl/c55x
    1734 0000b9 ED00          MOV dbl(*SP(#0)), XAR3
         0000bb BF   
    1735 0000bc ED6D          MOV dbl(*AR3(#1192)), XAR0
         0000be 8F04 
         0000c0 A8   
    1736              $C$DW$172       .dwtag  DW_TAG_TI_branch
    1737                      .dwattr $C$DW$172, DW_AT_low_pc(0x00)
    1738                      .dwattr $C$DW$172, DW_AT_name("_free")
    1739                      .dwattr $C$DW$172, DW_AT_TI_call
    1740 0000c1 6C00          CALL #_free ; |971| 
         0000c3 0000!
    1741                                                      ; call occurs [#_free] ; |971| 
    1742 0000c5       $C$L36:    
    1743                      .dwpsn  file "C:/Users/a0221074/Desktop/C5000/IBM_Watson_TIdesign_workarea/CSL_bitbucket/c55_csl/c55x
    1744 0000c5 ED00          MOV dbl(*SP(#0)), XAR3
         0000c7 BF   
    1745 0000c8 ED6D          MOV dbl(*AR3(#1194)), XAR3
         0000ca BF04 
         0000cc AA   
    1746 0000cd 90B0          MOV XAR3, AC0
    1747 0000cf 6600          BCC $C$L37,AC0 == #0 ; |972| 
    1748                                                      ; branchcc occurs ; |972| 
    1749                      .dwpsn  file "C:/Users/a0221074/Desktop/C5000/IBM_Watson_TIdesign_workarea/CSL_bitbucket/c55_csl/c55x
    1750 0000d1 ED00          MOV dbl(*SP(#0)), XAR3
         0000d3 BF   
    1751 0000d4 ED6D          MOV dbl(*AR3(#1194)), XAR0
         0000d6 8F04 
         0000d8 AA   
    1752              $C$DW$173       .dwtag  DW_TAG_TI_branch
    1753                      .dwattr $C$DW$173, DW_AT_low_pc(0x00)
    1754                      .dwattr $C$DW$173, DW_AT_name("_free")
    1755                      .dwattr $C$DW$173, DW_AT_TI_call
    1756 0000d9 6C00          CALL #_free ; |973| 
         0000db 0000!
    1757                                                      ; call occurs [#_free] ; |973| 
    1758 0000dd       $C$L37:    
    1759                      .dwpsn  file "C:/Users/a0221074/Desktop/C5000/IBM_Watson_TIdesign_workarea/CSL_bitbucket/c55_csl/c55x
    1760 0000dd ED00          MOV dbl(*SP(#0)), XAR3
         0000df BF   
    1761 0000e0 ED6D          MOV dbl(*AR3(#1196)), XAR3
         0000e2 BF04 
         0000e4 AC   
    1762 0000e5 90B0          MOV XAR3, AC0
    1763 0000e7 6600          BCC $C$L38,AC0 == #0 ; |974| 
    1764                                                      ; branchcc occurs ; |974| 
    1765                      .dwpsn  file "C:/Users/a0221074/Desktop/C5000/IBM_Watson_TIdesign_workarea/CSL_bitbucket/c55_csl/c55x
    1766 0000e9 ED00          MOV dbl(*SP(#0)), XAR3
         0000eb BF   
    1767 0000ec ED6D          MOV dbl(*AR3(#1196)), XAR0
TMS320C55x Assembler PC v4.4.1 Wed Sep 13 16:33:30 2017

Tools Copyright (c) 1996-2012 Texas Instruments Incorporated
C:\Users\a0221074\AppData\Local\Temp\0522410                         PAGE   40

         0000ee 8F04 
         0000f0 AC   
    1768              $C$DW$174       .dwtag  DW_TAG_TI_branch
    1769                      .dwattr $C$DW$174, DW_AT_low_pc(0x00)
    1770                      .dwattr $C$DW$174, DW_AT_name("_free")
    1771                      .dwattr $C$DW$174, DW_AT_TI_call
    1772 0000f1 6C00          CALL #_free ; |975| 
         0000f3 0000!
    1773                                                      ; call occurs [#_free] ; |975| 
    1774 0000f5       $C$L38:    
    1775                      .dwpsn  file "C:/Users/a0221074/Desktop/C5000/IBM_Watson_TIdesign_workarea/CSL_bitbucket/c55_csl/c55x
    1776 0000f5 ED00          MOV dbl(*SP(#0)), XAR0
         0000f7 8F   
    1777              $C$DW$175       .dwtag  DW_TAG_TI_branch
    1778                      .dwattr $C$DW$175, DW_AT_low_pc(0x00)
    1779                      .dwattr $C$DW$175, DW_AT_name("_free_scales")
    1780                      .dwattr $C$DW$175, DW_AT_TI_call
    1781 0000f8 6C00          CALL #_free_scales ; |977| 
         0000fa 0000+
    1782                                                      ; call occurs [#_free_scales] ; |977| 
    1783                      .dwpsn  file "C:/Users/a0221074/Desktop/C5000/IBM_Watson_TIdesign_workarea/CSL_bitbucket/c55_csl/c55x
    1784 0000fc ED00          MOV dbl(*SP(#0)), XAR3
         0000fe BF   
    1785 0000ff ED6D          MOV dbl(*AR3(#1210)), XAR3
         000101 BF04 
         000103 BA   
    1786 000104 90B0          MOV XAR3, AC0
    1787 000106 0400          BCC $C$L40,AC0 == #0 ; |979| 
         000108 2A   
    1788                                                      ; branchcc occurs ; |979| 
    1789                      .dwpsn  file "C:/Users/a0221074/Desktop/C5000/IBM_Watson_TIdesign_workarea/CSL_bitbucket/c55_csl/c55x
    1790 000109 ED00          MOV dbl(*SP(#0)), XAR3
         00010b BF   
    1791 00010c ED6D          MOV dbl(*AR3(#1210)), XAR3
         00010e BF04 
         000110 BA   
    1792 000111 ED61          MOV dbl(*AR3), XAR3
         000113 BF   
    1793 000114 90B0          MOV XAR3, AC0
    1794 000116 6780          BCC $C$L39,AC0 == #0 ; |981| 
    1795                                                      ; branchcc occurs ; |981| 
    1796                      .dwpsn  file "C:/Users/a0221074/Desktop/C5000/IBM_Watson_TIdesign_workarea/CSL_bitbucket/c55_csl/c55x
    1797 000118 ED00          MOV dbl(*SP(#0)), XAR3
         00011a BF   
    1798 00011b ED6D          MOV dbl(*AR3(#1210)), XAR3
         00011d BF04 
         00011f BA   
    1799 000120 ED61          MOV dbl(*AR3), XAR0
         000122 8F   
    1800              $C$DW$176       .dwtag  DW_TAG_TI_branch
    1801                      .dwattr $C$DW$176, DW_AT_low_pc(0x00)
    1802                      .dwattr $C$DW$176, DW_AT_name("_free")
    1803                      .dwattr $C$DW$176, DW_AT_TI_call
    1804 000123 6C00          CALL #_free ; |982| 
         000125 0000!
TMS320C55x Assembler PC v4.4.1 Wed Sep 13 16:33:30 2017

Tools Copyright (c) 1996-2012 Texas Instruments Incorporated
C:\Users\a0221074\AppData\Local\Temp\0522410                         PAGE   41

    1805                                                      ; call occurs [#_free] ; |982| 
    1806 000127       $C$L39:    
    1807                      .dwpsn  file "C:/Users/a0221074/Desktop/C5000/IBM_Watson_TIdesign_workarea/CSL_bitbucket/c55_csl/c55x
    1808 000127 ED00          MOV dbl(*SP(#0)), XAR3
         000129 BF   
    1809 00012a ED6D          MOV dbl(*AR3(#1210)), XAR0
         00012c 8F04 
         00012e BA   
    1810              $C$DW$177       .dwtag  DW_TAG_TI_branch
    1811                      .dwattr $C$DW$177, DW_AT_low_pc(0x00)
    1812                      .dwattr $C$DW$177, DW_AT_name("_free")
    1813                      .dwattr $C$DW$177, DW_AT_TI_call
    1814 00012f 6C00          CALL #_free ; |983| 
         000131 0000!
    1815                                                      ; call occurs [#_free] ; |983| 
    1816                      .dwpsn  file "C:/Users/a0221074/Desktop/C5000/IBM_Watson_TIdesign_workarea/CSL_bitbucket/c55_csl/c55x
    1817 000133       $C$L40:    
    1818 000133 4E03          AADD #3, SP
    1819                      .dwcfi  cfa_offset, 1
    1820              $C$DW$178       .dwtag  DW_TAG_TI_branch
    1821                      .dwattr $C$DW$178, DW_AT_low_pc(0x00)
    1822                      .dwattr $C$DW$178, DW_AT_TI_return
    1823 000135 4804          RET
    1824                                                      ; return occurs
    1825                      .dwattr $C$DW$162, DW_AT_TI_end_file("C:/Users/a0221074/Desktop/C5000/IBM_Watson_TIdesign_workarea/CS
    1826                      .dwattr $C$DW$162, DW_AT_TI_end_line(0x3d9)
    1827                      .dwattr $C$DW$162, DW_AT_TI_end_column(0x01)
    1828                      .dwendentry
    1829                      .dwendtag $C$DW$162
    1830              
    1831 000000               .sect   ".text:_load_model_config"
    1832                      .clink
    1833                      .global _load_model_config
    1834              
    1835              $C$DW$179       .dwtag  DW_TAG_subprogram, DW_AT_name("load_model_config")
    1836                      .dwattr $C$DW$179, DW_AT_low_pc(_load_model_config)
    1837                      .dwattr $C$DW$179, DW_AT_high_pc(0x00)
    1838                      .dwattr $C$DW$179, DW_AT_TI_symbol_name("_load_model_config")
    1839                      .dwattr $C$DW$179, DW_AT_external
    1840                      .dwattr $C$DW$179, DW_AT_type(*$C$DW$T$95)
    1841                      .dwattr $C$DW$179, DW_AT_TI_begin_file("C:/Users/a0221074/Desktop/C5000/IBM_Watson_TIdesign_workarea/
    1842                      .dwattr $C$DW$179, DW_AT_TI_begin_line(0x408)
    1843                      .dwattr $C$DW$179, DW_AT_TI_begin_column(0x17)
    1844                      .dwattr $C$DW$179, DW_AT_TI_max_frame_size(0x06)
    1845                      .dwpsn  file "C:/Users/a0221074/Desktop/C5000/IBM_Watson_TIdesign_workarea/CSL_bitbucket/c55_csl/c55x
    1846              
    1847                      .dwfde $C$DW$CIE, _load_model_config
    1848              $C$DW$180       .dwtag  DW_TAG_formal_parameter, DW_AT_name("model_config_data")
    1849                      .dwattr $C$DW$180, DW_AT_TI_symbol_name("_model_config_data")
    1850                      .dwattr $C$DW$180, DW_AT_type(*$C$DW$T$23)
    1851                      .dwattr $C$DW$180, DW_AT_location[DW_OP_reg17]
    1852              $C$DW$181       .dwtag  DW_TAG_formal_parameter, DW_AT_name("fileConfig")
    1853                      .dwattr $C$DW$181, DW_AT_TI_symbol_name("_fileConfig")
    1854                      .dwattr $C$DW$181, DW_AT_type(*$C$DW$T$105)
    1855                      .dwattr $C$DW$181, DW_AT_location[DW_OP_reg19]
TMS320C55x Assembler PC v4.4.1 Wed Sep 13 16:33:30 2017

Tools Copyright (c) 1996-2012 Texas Instruments Incorporated
C:\Users\a0221074\AppData\Local\Temp\0522410                         PAGE   42

    1856              ;*******************************************************************************
    1857              ;* FUNCTION NAME: load_model_config                                            *
    1858              ;*                                                                             *
    1859              ;*   Function Uses Regs : T0,AR0,XAR0,AR1,XAR1,AR2,XAR2,AR3,XAR3,SP,M40,SATA,  *
    1860              ;*                        SATD,RDM,FRCT,SMUL                                   *
    1861              ;*   Stack Frame        : Compact (No Frame Pointer, w/ debug)                 *
    1862              ;*   Total Frame Size   : 6 words                                              *
    1863              ;*                        (2 return address/alignment)                         *
    1864              ;*                        (4 local values)                                     *
    1865              ;*   Min System Stack   : 1 word                                               *
    1866              ;*******************************************************************************
    1867 000000       _load_model_config:
    1868                      .dwcfi  cfa_offset, 1
    1869                      .dwcfi  save_reg_to_mem, 91, -1
    1870 000000 4EFB          AADD #-5, SP
    1871                      .dwcfi  cfa_offset, 6
    1872              $C$DW$182       .dwtag  DW_TAG_variable, DW_AT_name("model_config_data")
    1873                      .dwattr $C$DW$182, DW_AT_TI_symbol_name("_model_config_data")
    1874                      .dwattr $C$DW$182, DW_AT_type(*$C$DW$T$23)
    1875                      .dwattr $C$DW$182, DW_AT_location[DW_OP_bregx 0x24 0]
    1876              $C$DW$183       .dwtag  DW_TAG_variable, DW_AT_name("fileConfig")
    1877                      .dwattr $C$DW$183, DW_AT_TI_symbol_name("_fileConfig")
    1878                      .dwattr $C$DW$183, DW_AT_type(*$C$DW$T$105)
    1879                      .dwattr $C$DW$183, DW_AT_location[DW_OP_bregx 0x24 2]
    1880 000002 EB04          MOV XAR1, dbl(*SP(#2))
         000004 95   
    1881 000005 EB00          MOV XAR0, dbl(*SP(#0))
         000007 85   
    1882                      .dwpsn  file "C:/Users/a0221074/Desktop/C5000/IBM_Watson_TIdesign_workarea/CSL_bitbucket/c55_csl/c55x
    1883 000008 ED00          MOV dbl(*SP(#0)), XAR3
         00000a BF   
    1884 00000b ED04          MOV dbl(*SP(#2)), XAR2
         00000d AF   
    1885 00000e 8061          MOV *AR3, *AR2 ; |1035| 
         000010 04   
    1886                      .dwpsn  file "C:/Users/a0221074/Desktop/C5000/IBM_Watson_TIdesign_workarea/CSL_bitbucket/c55_csl/c55x
    1887 000011 ED00          MOV dbl(*SP(#0)), XAR3
         000013 BF   
    1888 000014 A973          MOV *AR3(short(#1)), AR1 ; |1036| 
    1889 000016 ED04          MOV dbl(*SP(#2)), XAR3
         000018 BF   
    1890 000019 C973          MOV AR1, *AR3(short(#1)) ; |1036| 
    1891                      .dwpsn  file "C:/Users/a0221074/Desktop/C5000/IBM_Watson_TIdesign_workarea/CSL_bitbucket/c55_csl/c55x
    1892 00001b 7600          MOV #100, T0 ; |1038| 
         00001d 6448 
    1893                      .dwpsn  file "C:/Users/a0221074/Desktop/C5000/IBM_Watson_TIdesign_workarea/CSL_bitbucket/c55_csl/c55x
    1894 00001f 4E05          AADD #5, SP
    1895                      .dwcfi  cfa_offset, 1
    1896              $C$DW$184       .dwtag  DW_TAG_TI_branch
    1897                      .dwattr $C$DW$184, DW_AT_low_pc(0x00)
    1898                      .dwattr $C$DW$184, DW_AT_TI_return
    1899 000021 4804          RET
    1900                                                      ; return occurs
    1901                      .dwattr $C$DW$179, DW_AT_TI_end_file("C:/Users/a0221074/Desktop/C5000/IBM_Watson_TIdesign_workarea/CS
    1902                      .dwattr $C$DW$179, DW_AT_TI_end_line(0x40f)
TMS320C55x Assembler PC v4.4.1 Wed Sep 13 16:33:30 2017

Tools Copyright (c) 1996-2012 Texas Instruments Incorporated
C:\Users\a0221074\AppData\Local\Temp\0522410                         PAGE   43

    1903                      .dwattr $C$DW$179, DW_AT_TI_end_column(0x01)
    1904                      .dwendentry
    1905                      .dwendtag $C$DW$179
    1906              
    1907 000000               .sect   ".text:_load_mean_vec"
    1908                      .clink
    1909                      .global _load_mean_vec
    1910              
    1911              $C$DW$185       .dwtag  DW_TAG_subprogram, DW_AT_name("load_mean_vec")
    1912                      .dwattr $C$DW$185, DW_AT_low_pc(_load_mean_vec)
    1913                      .dwattr $C$DW$185, DW_AT_high_pc(0x00)
    1914                      .dwattr $C$DW$185, DW_AT_TI_symbol_name("_load_mean_vec")
    1915                      .dwattr $C$DW$185, DW_AT_external
    1916                      .dwattr $C$DW$185, DW_AT_type(*$C$DW$T$95)
    1917                      .dwattr $C$DW$185, DW_AT_TI_begin_file("C:/Users/a0221074/Desktop/C5000/IBM_Watson_TIdesign_workarea/
    1918                      .dwattr $C$DW$185, DW_AT_TI_begin_line(0x441)
    1919                      .dwattr $C$DW$185, DW_AT_TI_begin_column(0x17)
    1920                      .dwattr $C$DW$185, DW_AT_TI_max_frame_size(0x08)
    1921                      .dwpsn  file "C:/Users/a0221074/Desktop/C5000/IBM_Watson_TIdesign_workarea/CSL_bitbucket/c55_csl/c55x
    1922              
    1923                      .dwfde $C$DW$CIE, _load_mean_vec
    1924              $C$DW$186       .dwtag  DW_TAG_formal_parameter, DW_AT_name("gv")
    1925                      .dwattr $C$DW$186, DW_AT_TI_symbol_name("_gv")
    1926                      .dwattr $C$DW$186, DW_AT_type(*$C$DW$T$97)
    1927                      .dwattr $C$DW$186, DW_AT_location[DW_OP_reg17]
    1928              $C$DW$187       .dwtag  DW_TAG_formal_parameter, DW_AT_name("bLoadBaseMu")
    1929                      .dwattr $C$DW$187, DW_AT_TI_symbol_name("_bLoadBaseMu")
    1930                      .dwattr $C$DW$187, DW_AT_type(*$C$DW$T$8)
    1931                      .dwattr $C$DW$187, DW_AT_location[DW_OP_reg12]
    1932              ;*******************************************************************************
    1933              ;* FUNCTION NAME: load_mean_vec                                                *
    1934              ;*                                                                             *
    1935              ;*   Function Uses Regs : AC0,AC0,T0,AR0,XAR0,AR1,XAR1,AR2,XAR2,AR3,XAR3,SP,   *
    1936              ;*                        TC1,M40,SATA,SATD,RDM,FRCT,SMUL                      *
    1937              ;*   Stack Frame        : Compact (No Frame Pointer, w/ debug)                 *
    1938              ;*   Total Frame Size   : 8 words                                              *
    1939              ;*                        (2 return address/alignment)                         *
    1940              ;*                        (6 local values)                                     *
    1941              ;*   Min System Stack   : 1 word                                               *
    1942              ;*******************************************************************************
    1943 000000       _load_mean_vec:
    1944                      .dwcfi  cfa_offset, 1
    1945                      .dwcfi  save_reg_to_mem, 91, -1
    1946 000000 4EF9          AADD #-7, SP
    1947                      .dwcfi  cfa_offset, 8
    1948              $C$DW$188       .dwtag  DW_TAG_variable, DW_AT_name("gv")
    1949                      .dwattr $C$DW$188, DW_AT_TI_symbol_name("_gv")
    1950                      .dwattr $C$DW$188, DW_AT_type(*$C$DW$T$97)
    1951                      .dwattr $C$DW$188, DW_AT_location[DW_OP_bregx 0x24 0]
    1952              $C$DW$189       .dwtag  DW_TAG_variable, DW_AT_name("bLoadBaseMu")
    1953                      .dwattr $C$DW$189, DW_AT_TI_symbol_name("_bLoadBaseMu")
    1954                      .dwattr $C$DW$189, DW_AT_type(*$C$DW$T$8)
    1955                      .dwattr $C$DW$189, DW_AT_location[DW_OP_bregx 0x24 2]
    1956              $C$DW$190       .dwtag  DW_TAG_variable, DW_AT_name("status")
    1957                      .dwattr $C$DW$190, DW_AT_TI_symbol_name("_status")
TMS320C55x Assembler PC v4.4.1 Wed Sep 13 16:33:30 2017

Tools Copyright (c) 1996-2012 Texas Instruments Incorporated
C:\Users\a0221074\AppData\Local\Temp\0522410                         PAGE   44

    1958                      .dwattr $C$DW$190, DW_AT_type(*$C$DW$T$95)
    1959                      .dwattr $C$DW$190, DW_AT_location[DW_OP_bregx 0x24 3]
    1960              $C$DW$191       .dwtag  DW_TAG_variable, DW_AT_name("fileConfig")
    1961                      .dwattr $C$DW$191, DW_AT_TI_symbol_name("_fileConfig")
    1962                      .dwattr $C$DW$191, DW_AT_type(*$C$DW$T$104)
    1963                      .dwattr $C$DW$191, DW_AT_location[DW_OP_bregx 0x24 4]
    1964 000002 C404          MOV T0, *SP(#2) ; |1091| 
    1965 000004 EB00          MOV XAR0, dbl(*SP(#0))
         000006 85   
    1966                      .dwpsn  file "C:/Users/a0221074/Desktop/C5000/IBM_Watson_TIdesign_workarea/CSL_bitbucket/c55_csl/c55x
    1967 000007 EC08          AMAR *SP(#4), XAR1
         000009 9E   
    1968 00000a ED31          MOV dbl(*(#(_grammar_data+22))), XAR0
         00000c 8F00 
         00000e 0016-
    1969              $C$DW$192       .dwtag  DW_TAG_TI_branch
    1970                      .dwattr $C$DW$192, DW_AT_low_pc(0x00)
    1971                      .dwattr $C$DW$192, DW_AT_name("_load_model_config")
    1972                      .dwattr $C$DW$192, DW_AT_TI_call
    1973 000010 6C00          CALL #_load_model_config ; |1099| 
         000012 0000+
    1974                                                      ; call occurs [#_load_model_config] ; |1099| 
    1975 000014 C406          MOV T0, *SP(#3) ; |1099| 
    1976                      .dwpsn  file "C:/Users/a0221074/Desktop/C5000/IBM_Watson_TIdesign_workarea/CSL_bitbucket/c55_csl/c55x
    1977 000016 F006          CMP *SP(#3) == #100, TC1 ; |1100| 
         000018 0064 
    1978 00001a 63E4          BCC $C$L41,TC1 ; |1100| 
    1979                                                      ; branchcc occurs ; |1100| 
    1980                      .dwpsn  file "C:/Users/a0221074/Desktop/C5000/IBM_Watson_TIdesign_workarea/CSL_bitbucket/c55_csl/c55x
    1981 00001c 7601          MOV #400, T0 ; |1101| 
         00001e 9048 
    1982 000020 0600          B $C$L44  ; |1101| 
         000022 7D   
    1983                                                      ; branch occurs ; |1101| 
    1984 000023       $C$L41:    
    1985                      .dwpsn  file "C:/Users/a0221074/Desktop/C5000/IBM_Watson_TIdesign_workarea/CSL_bitbucket/c55_csl/c55x
    1986 000023 ED00          MOV dbl(*SP(#0)), XAR3
         000025 BF   
    1987 000026 ED6D          MOV dbl(*AR3(#1182)), XAR3
         000028 BF04 
         00002a 9E   
    1988 00002b 90B0          MOV XAR3, AC0
    1989 00002d 0410          BCC $C$L42,AC0 != #0 ; |1103| 
         00002f 30   
    1990                                                      ; branchcc occurs ; |1103| 
    1991 000030 A904          MOV *SP(#2), AR1 ; |1103| 
    1992 000032 0409          BCC $C$L42,AR1 == #0 ; |1103| 
         000034 2B   
    1993                                                      ; branchcc occurs ; |1103| 
    1994                      .dwpsn  file "C:/Users/a0221074/Desktop/C5000/IBM_Watson_TIdesign_workarea/CSL_bitbucket/c55_csl/c55x
    1995 000035 ED00          MOV dbl(*SP(#0)), XAR1
         000037 9F   
    1996 000038 EC08          AMAR *SP(#4), XAR2
         00003a AE   
    1997 00003b ED31          MOV dbl(*(#(_grammar_data+6))), XAR0
TMS320C55x Assembler PC v4.4.1 Wed Sep 13 16:33:30 2017

Tools Copyright (c) 1996-2012 Texas Instruments Incorporated
C:\Users\a0221074\AppData\Local\Temp\0522410                         PAGE   45

         00003d 8F00 
         00003f 0006-
    1998              $C$DW$193       .dwtag  DW_TAG_TI_branch
    1999                      .dwattr $C$DW$193, DW_AT_low_pc(0x00)
    2000                      .dwattr $C$DW$193, DW_AT_name("_load_mu")
    2001                      .dwattr $C$DW$193, DW_AT_TI_call
    2002 000041 6C00          CALL #_load_mu ; |1105| 
         000043 0000+
    2003                                                      ; call occurs [#_load_mu] ; |1105| 
    2004 000045 ED00          MOV dbl(*SP(#0)), XAR3
         000047 BF   
    2005 000048 EB6D          MOV XAR0, dbl(*AR3(#1182))
         00004a 8504 
         00004c 9E   
    2006                      .dwpsn  file "C:/Users/a0221074/Desktop/C5000/IBM_Watson_TIdesign_workarea/CSL_bitbucket/c55_csl/c55x
    2007 00004d ED00          MOV dbl(*SP(#0)), XAR3
         00004f BF   
    2008 000050 ED6D          MOV dbl(*AR3(#1182)), XAR3
         000052 BF04 
         000054 9E   
    2009 000055 90B0          MOV XAR3, AC0
    2010 000057 6390          BCC $C$L42,AC0 != #0 ; |1106| 
    2011                                                      ; branchcc occurs ; |1106| 
    2012                      .dwpsn  file "C:/Users/a0221074/Desktop/C5000/IBM_Watson_TIdesign_workarea/CSL_bitbucket/c55_csl/c55x
    2013 000059 7601          MOV #400, T0 ; |1107| 
         00005b 9048 
    2014 00005d 0600          B $C$L44  ; |1107| 
         00005f 40   
    2015                                                      ; branch occurs ; |1107| 
    2016 000060       $C$L42:    
    2017                      .dwpsn  file "C:/Users/a0221074/Desktop/C5000/IBM_Watson_TIdesign_workarea/CSL_bitbucket/c55_csl/c55x
    2018 000060 ED00          MOV dbl(*SP(#0)), XAR3
         000062 BF   
    2019 000063 ED6D          MOV dbl(*AR3(#1184)), XAR3
         000065 BF04 
         000067 A0   
    2020 000068 90B0          MOV XAR3, AC0
    2021 00006a 0410          BCC $C$L43,AC0 != #0 ; |1111| 
         00006c 2F   
    2022                                                      ; branchcc occurs ; |1111| 
    2023 00006d A904          MOV *SP(#2), AR1 ; |1111| 
    2024 00006f 0419          BCC $C$L43,AR1 != #0 ; |1111| 
         000071 2A   
    2025                                                      ; branchcc occurs ; |1111| 
    2026                      .dwpsn  file "C:/Users/a0221074/Desktop/C5000/IBM_Watson_TIdesign_workarea/CSL_bitbucket/c55_csl/c55x
    2027 000072 ED00          MOV dbl(*SP(#0)), XAR1
         000074 9F   
    2028 000075 EC08          AMAR *SP(#4), XAR2
         000077 AE   
    2029 000078 ED31          MOV dbl(*(#(_grammar_data+6))), XAR0
         00007a 8F00 
         00007c 0006-
    2030              $C$DW$194       .dwtag  DW_TAG_TI_branch
    2031                      .dwattr $C$DW$194, DW_AT_low_pc(0x00)
    2032                      .dwattr $C$DW$194, DW_AT_name("_load_mu")
TMS320C55x Assembler PC v4.4.1 Wed Sep 13 16:33:30 2017

Tools Copyright (c) 1996-2012 Texas Instruments Incorporated
C:\Users\a0221074\AppData\Local\Temp\0522410                         PAGE   46

    2033                      .dwattr $C$DW$194, DW_AT_TI_call
    2034 00007e 6C00          CALL #_load_mu ; |1113| 
         000080 0000+
    2035                                                      ; call occurs [#_load_mu] ; |1113| 
    2036 000082 ED00          MOV dbl(*SP(#0)), XAR3
         000084 BF   
    2037 000085 EB6D          MOV XAR0, dbl(*AR3(#1184))
         000087 8504 
         000089 A0   
    2038                      .dwpsn  file "C:/Users/a0221074/Desktop/C5000/IBM_Watson_TIdesign_workarea/CSL_bitbucket/c55_csl/c55x
    2039 00008a ED00          MOV dbl(*SP(#0)), XAR3
         00008c BF   
    2040 00008d ED6D          MOV dbl(*AR3(#1184)), XAR3
         00008f BF04 
         000091 A0   
    2041 000092 90B0          MOV XAR3, AC0
    2042 000094 6310          BCC $C$L43,AC0 != #0 ; |1114| 
    2043                                                      ; branchcc occurs ; |1114| 
    2044                      .dwpsn  file "C:/Users/a0221074/Desktop/C5000/IBM_Watson_TIdesign_workarea/CSL_bitbucket/c55_csl/c55x
    2045 000096 7601          MOV #400, T0 ; |1115| 
         000098 9048 
    2046 00009a 4A04          B $C$L44  ; |1115| 
    2047                                                      ; branch occurs ; |1115| 
    2048 00009c       $C$L43:    
    2049                      .dwpsn  file "C:/Users/a0221074/Desktop/C5000/IBM_Watson_TIdesign_workarea/CSL_bitbucket/c55_csl/c55x
    2050 00009c 7600          MOV #100, T0 ; |1117| 
         00009e 6448 
    2051 0000a0       $C$L44:    
    2052                      .dwpsn  file "C:/Users/a0221074/Desktop/C5000/IBM_Watson_TIdesign_workarea/CSL_bitbucket/c55_csl/c55x
    2053 0000a0 4E07          AADD #7, SP
    2054                      .dwcfi  cfa_offset, 1
    2055              $C$DW$195       .dwtag  DW_TAG_TI_branch
    2056                      .dwattr $C$DW$195, DW_AT_low_pc(0x00)
    2057                      .dwattr $C$DW$195, DW_AT_TI_return
    2058 0000a2 4804          RET
    2059                                                      ; return occurs
    2060                      .dwattr $C$DW$185, DW_AT_TI_end_file("C:/Users/a0221074/Desktop/C5000/IBM_Watson_TIdesign_workarea/CS
    2061                      .dwattr $C$DW$185, DW_AT_TI_end_line(0x45e)
    2062                      .dwattr $C$DW$185, DW_AT_TI_end_column(0x01)
    2063                      .dwendentry
    2064                      .dwendtag $C$DW$185
    2065              
    2066 000000               .sect   ".text:_load_models"
    2067                      .clink
    2068                      .global _load_models
    2069              
    2070              $C$DW$196       .dwtag  DW_TAG_subprogram, DW_AT_name("load_models")
    2071                      .dwattr $C$DW$196, DW_AT_low_pc(_load_models)
    2072                      .dwattr $C$DW$196, DW_AT_high_pc(0x00)
    2073                      .dwattr $C$DW$196, DW_AT_TI_symbol_name("_load_models")
    2074                      .dwattr $C$DW$196, DW_AT_external
    2075                      .dwattr $C$DW$196, DW_AT_type(*$C$DW$T$95)
    2076                      .dwattr $C$DW$196, DW_AT_TI_begin_file("C:/Users/a0221074/Desktop/C5000/IBM_Watson_TIdesign_workarea/
    2077                      .dwattr $C$DW$196, DW_AT_TI_begin_line(0x467)
    2078                      .dwattr $C$DW$196, DW_AT_TI_begin_column(0x17)
TMS320C55x Assembler PC v4.4.1 Wed Sep 13 16:33:30 2017

Tools Copyright (c) 1996-2012 Texas Instruments Incorporated
C:\Users\a0221074\AppData\Local\Temp\0522410                         PAGE   47

    2079                      .dwattr $C$DW$196, DW_AT_TI_max_frame_size(0x10)
    2080                      .dwpsn  file "C:/Users/a0221074/Desktop/C5000/IBM_Watson_TIdesign_workarea/CSL_bitbucket/c55_csl/c55x
    2081              
    2082                      .dwfde $C$DW$CIE, _load_models
    2083              $C$DW$197       .dwtag  DW_TAG_formal_parameter, DW_AT_name("mod_dir")
    2084                      .dwattr $C$DW$197, DW_AT_TI_symbol_name("_mod_dir")
    2085                      .dwattr $C$DW$197, DW_AT_type(*$C$DW$T$77)
    2086                      .dwattr $C$DW$197, DW_AT_location[DW_OP_reg17]
    2087              $C$DW$198       .dwtag  DW_TAG_formal_parameter, DW_AT_name("gv")
    2088                      .dwattr $C$DW$198, DW_AT_TI_symbol_name("_gv")
    2089                      .dwattr $C$DW$198, DW_AT_type(*$C$DW$T$97)
    2090                      .dwattr $C$DW$198, DW_AT_location[DW_OP_reg19]
    2091              $C$DW$199       .dwtag  DW_TAG_formal_parameter, DW_AT_name("bMonoNet")
    2092                      .dwattr $C$DW$199, DW_AT_TI_symbol_name("_bMonoNet")
    2093                      .dwattr $C$DW$199, DW_AT_type(*$C$DW$T$76)
    2094                      .dwattr $C$DW$199, DW_AT_location[DW_OP_reg12]
    2095              $C$DW$200       .dwtag  DW_TAG_formal_parameter, DW_AT_name("network_file")
    2096                      .dwattr $C$DW$200, DW_AT_TI_symbol_name("_network_file")
    2097                      .dwattr $C$DW$200, DW_AT_type(*$C$DW$T$77)
    2098                      .dwattr $C$DW$200, DW_AT_location[DW_OP_reg21]
    2099              $C$DW$201       .dwtag  DW_TAG_formal_parameter, DW_AT_name("word_list_file")
    2100                      .dwattr $C$DW$201, DW_AT_TI_symbol_name("_word_list_file")
    2101                      .dwattr $C$DW$201, DW_AT_type(*$C$DW$T$77)
    2102                      .dwattr $C$DW$201, DW_AT_location[DW_OP_reg23]
    2103              ;*******************************************************************************
    2104              ;* FUNCTION NAME: load_models                                                  *
    2105              ;*                                                                             *
    2106              ;*   Function Uses Regs : AC0,AC0,AC1,AC1,T0,T1,AR0,XAR0,AR1,XAR1,AR2,XAR2,AR3,*
    2107              ;*                        XAR3,SP,TC1,M40,SATA,SATD,RDM,FRCT,SMUL              *
    2108              ;*   Stack Frame        : Compact (No Frame Pointer, w/ debug)                 *
    2109              ;*   Total Frame Size   : 16 words                                             *
    2110              ;*                        (2 return address/alignment)                         *
    2111              ;*                        (14 local values)                                    *
    2112              ;*   Min System Stack   : 1 word                                               *
    2113              ;*******************************************************************************
    2114 000000       _load_models:
    2115                      .dwcfi  cfa_offset, 1
    2116                      .dwcfi  save_reg_to_mem, 91, -1
    2117 000000 4EF1          AADD #-15, SP
    2118                      .dwcfi  cfa_offset, 16
    2119              $C$DW$202       .dwtag  DW_TAG_variable, DW_AT_name("mod_dir")
    2120                      .dwattr $C$DW$202, DW_AT_TI_symbol_name("_mod_dir")
    2121                      .dwattr $C$DW$202, DW_AT_type(*$C$DW$T$77)
    2122                      .dwattr $C$DW$202, DW_AT_location[DW_OP_bregx 0x24 0]
    2123              $C$DW$203       .dwtag  DW_TAG_variable, DW_AT_name("gv")
    2124                      .dwattr $C$DW$203, DW_AT_TI_symbol_name("_gv")
    2125                      .dwattr $C$DW$203, DW_AT_type(*$C$DW$T$97)
    2126                      .dwattr $C$DW$203, DW_AT_location[DW_OP_bregx 0x24 2]
    2127              $C$DW$204       .dwtag  DW_TAG_variable, DW_AT_name("bMonoNet")
    2128                      .dwattr $C$DW$204, DW_AT_TI_symbol_name("_bMonoNet")
    2129                      .dwattr $C$DW$204, DW_AT_type(*$C$DW$T$76)
    2130                      .dwattr $C$DW$204, DW_AT_location[DW_OP_bregx 0x24 4]
    2131              $C$DW$205       .dwtag  DW_TAG_variable, DW_AT_name("network_file")
    2132                      .dwattr $C$DW$205, DW_AT_TI_symbol_name("_network_file")
    2133                      .dwattr $C$DW$205, DW_AT_type(*$C$DW$T$77)
TMS320C55x Assembler PC v4.4.1 Wed Sep 13 16:33:30 2017

Tools Copyright (c) 1996-2012 Texas Instruments Incorporated
C:\Users\a0221074\AppData\Local\Temp\0522410                         PAGE   48

    2134                      .dwattr $C$DW$205, DW_AT_location[DW_OP_bregx 0x24 6]
    2135              $C$DW$206       .dwtag  DW_TAG_variable, DW_AT_name("word_list_file")
    2136                      .dwattr $C$DW$206, DW_AT_TI_symbol_name("_word_list_file")
    2137                      .dwattr $C$DW$206, DW_AT_type(*$C$DW$T$77)
    2138                      .dwattr $C$DW$206, DW_AT_location[DW_OP_bregx 0x24 8]
    2139              $C$DW$207       .dwtag  DW_TAG_variable, DW_AT_name("len")
    2140                      .dwattr $C$DW$207, DW_AT_TI_symbol_name("_len")
    2141                      .dwattr $C$DW$207, DW_AT_type(*$C$DW$T$9)
    2142                      .dwattr $C$DW$207, DW_AT_location[DW_OP_bregx 0x24 10]
    2143              $C$DW$208       .dwtag  DW_TAG_variable, DW_AT_name("status")
    2144                      .dwattr $C$DW$208, DW_AT_TI_symbol_name("_status")
    2145                      .dwattr $C$DW$208, DW_AT_type(*$C$DW$T$95)
    2146                      .dwattr $C$DW$208, DW_AT_location[DW_OP_bregx 0x24 11]
    2147              $C$DW$209       .dwtag  DW_TAG_variable, DW_AT_name("fileConfig")
    2148                      .dwattr $C$DW$209, DW_AT_TI_symbol_name("_fileConfig")
    2149                      .dwattr $C$DW$209, DW_AT_type(*$C$DW$T$104)
    2150                      .dwattr $C$DW$209, DW_AT_location[DW_OP_bregx 0x24 12]
    2151 000002 EB10          MOV XAR3, dbl(*SP(#8))
         000004 B5   
    2152 000005 EB0C          MOV XAR2, dbl(*SP(#6))
         000007 A5   
    2153 000008 C408          MOV T0, *SP(#4) ; |1129| 
    2154 00000a EB04          MOV XAR1, dbl(*SP(#2))
         00000c 95   
    2155 00000d EB00          MOV XAR0, dbl(*SP(#0))
         00000f 85   
    2156                      .dwpsn  file "C:/Users/a0221074/Desktop/C5000/IBM_Watson_TIdesign_workarea/CSL_bitbucket/c55_csl/c55x
    2157 000010 ED04          MOV dbl(*SP(#2)), XAR3
         000012 BF   
    2158 000013 3C00          MOV #0, AC0 ; |1137| 
    2159 000015 EB6D          MOV AC0, dbl(*AR3(#1202))
         000017 0804 
         000019 B2   
    2160                      .dwpsn  file "C:/Users/a0221074/Desktop/C5000/IBM_Watson_TIdesign_workarea/CSL_bitbucket/c55_csl/c55x
    2161 00001a ED04          MOV dbl(*SP(#2)), XAR3
         00001c BF   
    2162 00001d EB6D          MOV AC0, dbl(*AR3(#1204))
         00001f 0804 
         000021 B4   
    2163                      .dwpsn  file "C:/Users/a0221074/Desktop/C5000/IBM_Watson_TIdesign_workarea/CSL_bitbucket/c55_csl/c55x
    2164 000022 ED31          MOV dbl(*(#(_grammar_data+18))), XAR0
         000024 8F00 
         000026 0012-
    2165              $C$DW$210       .dwtag  DW_TAG_TI_branch
    2166                      .dwattr $C$DW$210, DW_AT_low_pc(0x00)
    2167                      .dwattr $C$DW$210, DW_AT_name("_load_n_mfcc")
    2168                      .dwattr $C$DW$210, DW_AT_TI_call
    2169 000028 6C00          CALL #_load_n_mfcc ; |1145| 
         00002a 0000+
    2170                                                      ; call occurs [#_load_n_mfcc] ; |1145| 
    2171 00002c ED04          MOV dbl(*SP(#2)), XAR3
         00002e BF   
    2172 00002f C46D          MOV T0, *AR3(#277) ; |1145| 
         000031 0115 
    2173                      .dwpsn  file "C:/Users/a0221074/Desktop/C5000/IBM_Watson_TIdesign_workarea/CSL_bitbucket/c55_csl/c55x
TMS320C55x Assembler PC v4.4.1 Wed Sep 13 16:33:30 2017

Tools Copyright (c) 1996-2012 Texas Instruments Incorporated
C:\Users\a0221074\AppData\Local\Temp\0522410                         PAGE   49

    2174 000033 ED04          MOV dbl(*SP(#2)), XAR3
         000035 BF   
    2175 000036 A96D          MOV *AR3(#277), AR1 ; |1147| 
         000038 0115 
    2176 00003a 6399          BCC $C$L45,AR1 != #0 ; |1147| 
    2177                                                      ; branchcc occurs ; |1147| 
    2178                      .dwpsn  file "C:/Users/a0221074/Desktop/C5000/IBM_Watson_TIdesign_workarea/CSL_bitbucket/c55_csl/c55x
    2179 00003c 7601          MOV #400, T0 ; |1148| 
         00003e 9048 
    2180 000040 0602          B $C$L65  ; |1148| 
         000042 53   
    2181                                                      ; branch occurs ; |1148| 
    2182 000043       $C$L45:    
    2183                      .dwpsn  file "C:/Users/a0221074/Desktop/C5000/IBM_Watson_TIdesign_workarea/CSL_bitbucket/c55_csl/c55x
    2184 000043 EC18          AMAR *SP(#12), XAR1
         000045 9E   
    2185 000046 ED31          MOV dbl(*(#(_grammar_data+22))), XAR0
         000048 8F00 
         00004a 0016-
    2186              $C$DW$211       .dwtag  DW_TAG_TI_branch
    2187                      .dwattr $C$DW$211, DW_AT_low_pc(0x00)
    2188                      .dwattr $C$DW$211, DW_AT_name("_load_model_config")
    2189                      .dwattr $C$DW$211, DW_AT_TI_call
    2190 00004c 6C00          CALL #_load_model_config ; |1162| 
         00004e 0000+
    2191                                                      ; call occurs [#_load_model_config] ; |1162| 
    2192 000050 C416          MOV T0, *SP(#11) ; |1162| 
    2193                      .dwpsn  file "C:/Users/a0221074/Desktop/C5000/IBM_Watson_TIdesign_workarea/CSL_bitbucket/c55_csl/c55x
    2194 000052 F016          CMP *SP(#11) == #100, TC1 ; |1163| 
         000054 0064 
    2195 000056 63E4          BCC $C$L46,TC1 ; |1163| 
    2196                                                      ; branchcc occurs ; |1163| 
    2197                      .dwpsn  file "C:/Users/a0221074/Desktop/C5000/IBM_Watson_TIdesign_workarea/CSL_bitbucket/c55_csl/c55x
    2198 000058 7601          MOV #400, T0 ; |1164| 
         00005a 9048 
    2199 00005c 0602          B $C$L65  ; |1164| 
         00005e 37   
    2200                                                      ; branch occurs ; |1164| 
    2201 00005f       $C$L46:    
    2202                      .dwpsn  file "C:/Users/a0221074/Desktop/C5000/IBM_Watson_TIdesign_workarea/CSL_bitbucket/c55_csl/c55x
    2203 00005f A918          MOV *SP(#12), AR1 ; |1170| 
    2204 000061 6219          BCC $C$L47,AR1 != #0 ; |1170| 
    2205                                                      ; branchcc occurs ; |1170| 
    2206 000063 A91A          MOV *SP(#13), AR1 ; |1170| 
    2207 000065 6389          BCC $C$L48,AR1 == #0 ; |1170| 
    2208                                                      ; branchcc occurs ; |1170| 
    2209 000067       $C$L47:    
    2210                      .dwpsn  file "C:/Users/a0221074/Desktop/C5000/IBM_Watson_TIdesign_workarea/CSL_bitbucket/c55_csl/c55x
    2211 000067 7601          MOV #400, T0 ; |1179| 
         000069 9048 
    2212 00006b 0602          B $C$L65  ; |1179| 
         00006d 28   
    2213                                                      ; branch occurs ; |1179| 
    2214 00006e       $C$L48:    
    2215                      .dwpsn  file "C:/Users/a0221074/Desktop/C5000/IBM_Watson_TIdesign_workarea/CSL_bitbucket/c55_csl/c55x
TMS320C55x Assembler PC v4.4.1 Wed Sep 13 16:33:30 2017

Tools Copyright (c) 1996-2012 Texas Instruments Incorporated
C:\Users\a0221074\AppData\Local\Temp\0522410                         PAGE   50

    2216 00006e ED04          MOV dbl(*SP(#2)), XAR3
         000070 BF   
    2217 000071 EB6D          MOV AC0, dbl(*AR3(#1202))
         000073 0804 
         000075 B2   
    2218                      .dwpsn  file "C:/Users/a0221074/Desktop/C5000/IBM_Watson_TIdesign_workarea/CSL_bitbucket/c55_csl/c55x
    2219 000076 ED04          MOV dbl(*SP(#2)), XAR3
         000078 BF   
    2220 000079 EB6D          MOV AC0, dbl(*AR3(#1204))
         00007b 0804 
         00007d B4   
    2221                      .dwpsn  file "C:/Users/a0221074/Desktop/C5000/IBM_Watson_TIdesign_workarea/CSL_bitbucket/c55_csl/c55x
    2222 00007e ED0C          MOV dbl(*SP(#6)), XAR3
         000080 BF   
    2223 000081 90B0          MOV XAR3, AC0
    2224 000083 6380          BCC $C$L49,AC0 == #0 ; |1192| 
    2225                                                      ; branchcc occurs ; |1192| 
    2226                      .dwpsn  file "C:/Users/a0221074/Desktop/C5000/IBM_Watson_TIdesign_workarea/CSL_bitbucket/c55_csl/c55x
    2227 000085 7601          MOV #400, T0 ; |1201| 
         000087 9048 
    2228 000089 0602          B $C$L65  ; |1201| 
         00008b 0A   
    2229                                                      ; branch occurs ; |1201| 
    2230 00008c       $C$L49:    
    2231                      .dwpsn  file "C:/Users/a0221074/Desktop/C5000/IBM_Watson_TIdesign_workarea/CSL_bitbucket/c55_csl/c55x
    2232 00008c A908          MOV *SP(#4), AR1 ; |1204| 
    2233 00008e 0419          BCC $C$L51,AR1 != #0 ; |1204| 
         000090 3A   
    2234                                                      ; branchcc occurs ; |1204| 
    2235                      .dwpsn  file "C:/Users/a0221074/Desktop/C5000/IBM_Watson_TIdesign_workarea/CSL_bitbucket/c55_csl/c55x
    2236 000091 EC14          AMAR *SP(#10), XAR1
         000093 9E   
    2237 000094 ED31          MOV dbl(*(#(_grammar_data+2))), XAR0
         000096 8F00 
         000098 0002-
    2238              $C$DW$212       .dwtag  DW_TAG_TI_branch
    2239                      .dwattr $C$DW$212, DW_AT_low_pc(0x00)
    2240                      .dwattr $C$DW$212, DW_AT_name("_load_model_file")
    2241                      .dwattr $C$DW$212, DW_AT_TI_call
    2242 00009a 6C00          CALL #_load_model_file ; |1210| 
         00009c 0000+
    2243                                                      ; call occurs [#_load_model_file] ; |1210| 
    2244 00009e ED04          MOV dbl(*SP(#2)), XAR3
         0000a0 BF   
    2245 0000a1 EB6D          MOV XAR0, dbl(*AR3(#1178))
         0000a3 8504 
         0000a5 9A   
    2246                      .dwpsn  file "C:/Users/a0221074/Desktop/C5000/IBM_Watson_TIdesign_workarea/CSL_bitbucket/c55_csl/c55x
    2247 0000a6 ED04          MOV dbl(*SP(#2)), XAR3
         0000a8 BF   
    2248 0000a9 ED6D          MOV dbl(*AR3(#1178)), XAR3
         0000ab BF04 
         0000ad 9A   
    2249 0000ae 90B0          MOV XAR3, AC0
    2250 0000b0 6390          BCC $C$L50,AC0 != #0 ; |1212| 
TMS320C55x Assembler PC v4.4.1 Wed Sep 13 16:33:30 2017

Tools Copyright (c) 1996-2012 Texas Instruments Incorporated
C:\Users\a0221074\AppData\Local\Temp\0522410                         PAGE   51

    2251                                                      ; branchcc occurs ; |1212| 
    2252                      .dwpsn  file "C:/Users/a0221074/Desktop/C5000/IBM_Watson_TIdesign_workarea/CSL_bitbucket/c55_csl/c55x
    2253 0000b2 7601          MOV #400, T0 ; |1213| 
         0000b4 9048 
    2254 0000b6 0601          B $C$L65  ; |1213| 
         0000b8 DD   
    2255                                                      ; branch occurs ; |1213| 
    2256 0000b9       $C$L50:    
    2257                      .dwpsn  file "C:/Users/a0221074/Desktop/C5000/IBM_Watson_TIdesign_workarea/CSL_bitbucket/c55_csl/c55x
    2258 0000b9 ED04          MOV dbl(*SP(#2)), XAR3
         0000bb BF   
    2259 0000bc ED04          MOV dbl(*SP(#2)), XAR2
         0000be AF   
    2260 0000bf ED6D          MOV dbl(*AR3(#1178)), XAR3
         0000c1 BF04 
         0000c3 9A   
    2261 0000c4 EB4D          MOV XAR3, dbl(*AR2(#1176))
         0000c6 B504 
         0000c8 98   
    2262                      .dwpsn  file "C:/Users/a0221074/Desktop/C5000/IBM_Watson_TIdesign_workarea/CSL_bitbucket/c55_csl/c55x
    2263 0000c9 4A12          B $C$L52  ; |1215| 
    2264                                                      ; branch occurs ; |1215| 
    2265 0000cb       $C$L51:    
    2266                      .dwpsn  file "C:/Users/a0221074/Desktop/C5000/IBM_Watson_TIdesign_workarea/CSL_bitbucket/c55_csl/c55x
    2267 0000cb ED04          MOV dbl(*SP(#2)), XAR3
         0000cd BF   
    2268 0000ce 3C00          MOV #0, AC0 ; |1217| 
    2269 0000d0 EB6D          MOV AC0, dbl(*AR3(#1178))
         0000d2 0804 
         0000d4 9A   
    2270                      .dwpsn  file "C:/Users/a0221074/Desktop/C5000/IBM_Watson_TIdesign_workarea/CSL_bitbucket/c55_csl/c55x
    2271 0000d5 ED04          MOV dbl(*SP(#2)), XAR3
         0000d7 BF   
    2272 0000d8 EB6D          MOV AC0, dbl(*AR3(#1176))
         0000da 0804 
         0000dc 98   
    2273 0000dd       $C$L52:    
    2274                      .dwpsn  file "C:/Users/a0221074/Desktop/C5000/IBM_Watson_TIdesign_workarea/CSL_bitbucket/c55_csl/c55x
    2275 0000dd ED10          MOV dbl(*SP(#8)), XAR3
         0000df BF   
    2276 0000e0 90B0          MOV XAR3, AC0
    2277 0000e2 6380          BCC $C$L53,AC0 == #0 ; |1230| 
    2278                                                      ; branchcc occurs ; |1230| 
    2279                      .dwpsn  file "C:/Users/a0221074/Desktop/C5000/IBM_Watson_TIdesign_workarea/CSL_bitbucket/c55_csl/c55x
    2280 0000e4 7601          MOV #400, T0 ; |1238| 
         0000e6 9048 
    2281 0000e8 0601          B $C$L65  ; |1238| 
         0000ea AB   
    2282                                                      ; branch occurs ; |1238| 
    2283 0000eb       $C$L53:    
    2284                      .dwpsn  file "C:/Users/a0221074/Desktop/C5000/IBM_Watson_TIdesign_workarea/CSL_bitbucket/c55_csl/c55x
    2285 0000eb A908          MOV *SP(#4), AR1 ; |1239| 
    2286 0000ed 0419          BCC $C$L54,AR1 != #0 ; |1239| 
         0000ef 1D   
    2287                                                      ; branchcc occurs ; |1239| 
TMS320C55x Assembler PC v4.4.1 Wed Sep 13 16:33:30 2017

Tools Copyright (c) 1996-2012 Texas Instruments Incorporated
C:\Users\a0221074\AppData\Local\Temp\0522410                         PAGE   52

    2288                      .dwpsn  file "C:/Users/a0221074/Desktop/C5000/IBM_Watson_TIdesign_workarea/CSL_bitbucket/c55_csl/c55x
    2289 0000f0 ED04          MOV dbl(*SP(#2)), XAR1
         0000f2 9F   
    2290 0000f3 ED31          MOV dbl(*(#_grammar_data)), XAR0
         0000f5 8F00 
         0000f7 0000-
    2291              $C$DW$213       .dwtag  DW_TAG_TI_branch
    2292                      .dwattr $C$DW$213, DW_AT_low_pc(0x00)
    2293                      .dwattr $C$DW$213, DW_AT_name("_load_word_list")
    2294                      .dwattr $C$DW$213, DW_AT_TI_call
    2295 0000f9 6C00          CALL #_load_word_list ; |1245| 
         0000fb 0000+
    2296                                                      ; call occurs [#_load_word_list] ; |1245| 
    2297 0000fd C416          MOV T0, *SP(#11) ; |1245| 
    2298                      .dwpsn  file "C:/Users/a0221074/Desktop/C5000/IBM_Watson_TIdesign_workarea/CSL_bitbucket/c55_csl/c55x
    2299 0000ff F016          CMP *SP(#11) == #100, TC1 ; |1247| 
         000101 0064 
    2300 000103 0464          BCC $C$L55,TC1 ; |1247| 
         000105 11   
    2301                                                      ; branchcc occurs ; |1247| 
    2302                      .dwpsn  file "C:/Users/a0221074/Desktop/C5000/IBM_Watson_TIdesign_workarea/CSL_bitbucket/c55_csl/c55x
    2303 000106 7601          MOV #400, T0 ; |1248| 
         000108 9048 
    2304 00010a 0601          B $C$L65  ; |1248| 
         00010c 89   
    2305                                                      ; branch occurs ; |1248| 
    2306 00010d       $C$L54:    
    2307                      .dwpsn  file "C:/Users/a0221074/Desktop/C5000/IBM_Watson_TIdesign_workarea/CSL_bitbucket/c55_csl/c55x
    2308 00010d ED04          MOV dbl(*SP(#2)), XAR3
         00010f BF   
    2309 000110 3C00          MOV #0, AC0 ; |1251| 
    2310 000112 EB6D          MOV AC0, dbl(*AR3(#1210))
         000114 0804 
         000116 BA   
    2311 000117       $C$L55:    
    2312                      .dwpsn  file "C:/Users/a0221074/Desktop/C5000/IBM_Watson_TIdesign_workarea/CSL_bitbucket/c55_csl/c55x
    2313 000117 EC14          AMAR *SP(#10), XAR1
         000119 9E   
    2314 00011a ED31          MOV dbl(*(#(_grammar_data+4))), XAR0
         00011c 8F00 
         00011e 0004-
    2315              $C$DW$214       .dwtag  DW_TAG_TI_branch
    2316                      .dwattr $C$DW$214, DW_AT_low_pc(0x00)
    2317                      .dwattr $C$DW$214, DW_AT_name("_load_model_file")
    2318                      .dwattr $C$DW$214, DW_AT_TI_call
    2319 000120 6C00          CALL #_load_model_file ; |1264| 
         000122 0000+
    2320                                                      ; call occurs [#_load_model_file] ; |1264| 
    2321 000124 ED04          MOV dbl(*SP(#2)), XAR3
         000126 BF   
    2322 000127 EB6D          MOV XAR0, dbl(*AR3(#1180))
         000129 8504 
         00012b 9C   
    2323                      .dwpsn  file "C:/Users/a0221074/Desktop/C5000/IBM_Watson_TIdesign_workarea/CSL_bitbucket/c55_csl/c55x
    2324 00012c ED04          MOV dbl(*SP(#2)), XAR3
TMS320C55x Assembler PC v4.4.1 Wed Sep 13 16:33:30 2017

Tools Copyright (c) 1996-2012 Texas Instruments Incorporated
C:\Users\a0221074\AppData\Local\Temp\0522410                         PAGE   53

         00012e BF   
    2325 00012f ED6D          MOV dbl(*AR3(#1180)), XAR3
         000131 BF04 
         000133 9C   
    2326 000134 90B0          MOV XAR3, AC0
    2327 000136 6390          BCC $C$L56,AC0 != #0 ; |1266| 
    2328                                                      ; branchcc occurs ; |1266| 
    2329                      .dwpsn  file "C:/Users/a0221074/Desktop/C5000/IBM_Watson_TIdesign_workarea/CSL_bitbucket/c55_csl/c55x
    2330 000138 7601          MOV #400, T0 ; |1267| 
         00013a 9048 
    2331 00013c 0601          B $C$L65  ; |1267| 
         00013e 57   
    2332                                                      ; branch occurs ; |1267| 
    2333 00013f       $C$L56:    
    2334                      .dwpsn  file "C:/Users/a0221074/Desktop/C5000/IBM_Watson_TIdesign_workarea/CSL_bitbucket/c55_csl/c55x
    2335 00013f ED04          MOV dbl(*SP(#2)), XAR1
         000141 9F   
    2336 000142 EC18          AMAR *SP(#12), XAR2
         000144 AE   
    2337 000145 ED31          MOV dbl(*(#(_grammar_data+6))), XAR0
         000147 8F00 
         000149 0006-
    2338              $C$DW$215       .dwtag  DW_TAG_TI_branch
    2339                      .dwattr $C$DW$215, DW_AT_low_pc(0x00)
    2340                      .dwattr $C$DW$215, DW_AT_name("_load_mu")
    2341                      .dwattr $C$DW$215, DW_AT_TI_call
    2342 00014b 6C00          CALL #_load_mu ; |1276| 
         00014d 0000+
    2343                                                      ; call occurs [#_load_mu] ; |1276| 
    2344 00014f ED04          MOV dbl(*SP(#2)), XAR3
         000151 BF   
    2345 000152 EB6D          MOV XAR0, dbl(*AR3(#1182))
         000154 8504 
         000156 9E   
    2346                      .dwpsn  file "C:/Users/a0221074/Desktop/C5000/IBM_Watson_TIdesign_workarea/CSL_bitbucket/c55_csl/c55x
    2347 000157 ED04          MOV dbl(*SP(#2)), XAR3
         000159 BF   
    2348 00015a ED6D          MOV dbl(*AR3(#1182)), XAR3
         00015c BF04 
         00015e 9E   
    2349 00015f 90B0          MOV XAR3, AC0
    2350 000161 6390          BCC $C$L57,AC0 != #0 ; |1278| 
    2351                                                      ; branchcc occurs ; |1278| 
    2352                      .dwpsn  file "C:/Users/a0221074/Desktop/C5000/IBM_Watson_TIdesign_workarea/CSL_bitbucket/c55_csl/c55x
    2353 000163 7601          MOV #400, T0 ; |1279| 
         000165 9048 
    2354 000167 0601          B $C$L65  ; |1279| 
         000169 2C   
    2355                                                      ; branch occurs ; |1279| 
    2356 00016a       $C$L57:    
    2357                      .dwpsn  file "C:/Users/a0221074/Desktop/C5000/IBM_Watson_TIdesign_workarea/CSL_bitbucket/c55_csl/c55x
    2358 00016a ED04          MOV dbl(*SP(#2)), XAR3
         00016c BF   
    2359 00016d A431          MOV *(#_SEG0), T0 ; |1293| 
         00016f 0000 
TMS320C55x Assembler PC v4.4.1 Wed Sep 13 16:33:30 2017

Tools Copyright (c) 1996-2012 Texas Instruments Incorporated
C:\Users\a0221074\AppData\Local\Temp\0522410                         PAGE   54

         000171 00!  
    2360 000172 3C01          MOV #0, AC1 ; |1293| 
    2361 000174 DF6D          MOV uns(*AR3(#1207)), AC0 ; |1293| 
         000176 0504 
         000178 B7   
    2362              $C$DW$216       .dwtag  DW_TAG_TI_branch
    2363                      .dwattr $C$DW$216, DW_AT_low_pc(0x00)
    2364                      .dwattr $C$DW$216, DW_AT_name("_MEM_valloc")
    2365                      .dwattr $C$DW$216, DW_AT_TI_call
    2366              
    2367 000179 6C00          CALL #_MEM_valloc ; |1293| 
         00017b 0000!
    2368 00017d 3D05  ||      MOV #0, T1
    2369              
    2370                                                      ; call occurs [#_MEM_valloc] ; |1293| 
    2371 00017f ED04          MOV dbl(*SP(#2)), XAR3
         000181 BF   
    2372 000182 EB6D          MOV XAR0, dbl(*AR3(#1200))
         000184 8504 
         000186 B0   
    2373                      .dwpsn  file "C:/Users/a0221074/Desktop/C5000/IBM_Watson_TIdesign_workarea/CSL_bitbucket/c55_csl/c55x
    2374 000187 ED04          MOV dbl(*SP(#2)), XAR3
         000189 BF   
    2375 00018a ED6D          MOV dbl(*AR3(#1200)), XAR3
         00018c BF04 
         00018e B0   
    2376 00018f 90B0          MOV XAR3, AC0
    2377 000191 6390          BCC $C$L58,AC0 != #0 ; |1294| 
    2378                                                      ; branchcc occurs ; |1294| 
    2379                      .dwpsn  file "C:/Users/a0221074/Desktop/C5000/IBM_Watson_TIdesign_workarea/CSL_bitbucket/c55_csl/c55x
    2380 000193 7601          MOV #400, T0 ; |1296| 
         000195 9048 
    2381 000197 0600          B $C$L65  ; |1296| 
         000199 FC   
    2382                                                      ; branch occurs ; |1296| 
    2383 00019a       $C$L58:    
    2384                      .dwpsn  file "C:/Users/a0221074/Desktop/C5000/IBM_Watson_TIdesign_workarea/CSL_bitbucket/c55_csl/c55x
    2385 00019a ED04          MOV dbl(*SP(#2)), XAR1
         00019c 9F   
    2386 00019d EC18          AMAR *SP(#12), XAR2
         00019f AE   
    2387 0001a0 ED31          MOV dbl(*(#(_grammar_data+6))), XAR0
         0001a2 8F00 
         0001a4 0006-
    2388              $C$DW$217       .dwtag  DW_TAG_TI_branch
    2389                      .dwattr $C$DW$217, DW_AT_low_pc(0x00)
    2390                      .dwattr $C$DW$217, DW_AT_name("_load_mu")
    2391                      .dwattr $C$DW$217, DW_AT_TI_call
    2392 0001a6 6C00          CALL #_load_mu ; |1314| 
         0001a8 0000+
    2393                                                      ; call occurs [#_load_mu] ; |1314| 
    2394 0001aa ED04          MOV dbl(*SP(#2)), XAR3
         0001ac BF   
    2395 0001ad EB6D          MOV XAR0, dbl(*AR3(#1184))
         0001af 8504 
TMS320C55x Assembler PC v4.4.1 Wed Sep 13 16:33:30 2017

Tools Copyright (c) 1996-2012 Texas Instruments Incorporated
C:\Users\a0221074\AppData\Local\Temp\0522410                         PAGE   55

         0001b1 A0   
    2396                      .dwpsn  file "C:/Users/a0221074/Desktop/C5000/IBM_Watson_TIdesign_workarea/CSL_bitbucket/c55_csl/c55x
    2397 0001b2 ED04          MOV dbl(*SP(#2)), XAR3
         0001b4 BF   
    2398 0001b5 ED6D          MOV dbl(*AR3(#1184)), XAR3
         0001b7 BF04 
         0001b9 A0   
    2399 0001ba 90B0          MOV XAR3, AC0
    2400 0001bc 6390          BCC $C$L59,AC0 != #0 ; |1316| 
    2401                                                      ; branchcc occurs ; |1316| 
    2402                      .dwpsn  file "C:/Users/a0221074/Desktop/C5000/IBM_Watson_TIdesign_workarea/CSL_bitbucket/c55_csl/c55x
    2403 0001be 7601          MOV #400, T0 ; |1317| 
         0001c0 9048 
    2404 0001c2 0600          B $C$L65  ; |1317| 
         0001c4 D1   
    2405                                                      ; branch occurs ; |1317| 
    2406 0001c5       $C$L59:    
    2407                      .dwpsn  file "C:/Users/a0221074/Desktop/C5000/IBM_Watson_TIdesign_workarea/CSL_bitbucket/c55_csl/c55x
    2408 0001c5 ED04          MOV dbl(*SP(#2)), XAR1
         0001c7 9F   
    2409 0001c8 EC18          AMAR *SP(#12), XAR2
         0001ca AE   
    2410 0001cb ED31          MOV dbl(*(#(_grammar_data+8))), XAR0
         0001cd 8F00 
         0001cf 0008-
    2411              $C$DW$218       .dwtag  DW_TAG_TI_branch
    2412                      .dwattr $C$DW$218, DW_AT_low_pc(0x00)
    2413                      .dwattr $C$DW$218, DW_AT_name("_load_var")
    2414                      .dwattr $C$DW$218, DW_AT_TI_call
    2415 0001d1 6C00          CALL #_load_var ; |1327| 
         0001d3 0000+
    2416                                                      ; call occurs [#_load_var] ; |1327| 
    2417 0001d5 ED04          MOV dbl(*SP(#2)), XAR3
         0001d7 BF   
    2418 0001d8 EB6D          MOV XAR0, dbl(*AR3(#1186))
         0001da 8504 
         0001dc A2   
    2419                      .dwpsn  file "C:/Users/a0221074/Desktop/C5000/IBM_Watson_TIdesign_workarea/CSL_bitbucket/c55_csl/c55x
    2420 0001dd ED04          MOV dbl(*SP(#2)), XAR3
         0001df BF   
    2421 0001e0 ED6D          MOV dbl(*AR3(#1186)), XAR3
         0001e2 BF04 
         0001e4 A2   
    2422 0001e5 90B0          MOV XAR3, AC0
    2423 0001e7 6390          BCC $C$L60,AC0 != #0 ; |1329| 
    2424                                                      ; branchcc occurs ; |1329| 
    2425                      .dwpsn  file "C:/Users/a0221074/Desktop/C5000/IBM_Watson_TIdesign_workarea/CSL_bitbucket/c55_csl/c55x
    2426 0001e9 7601          MOV #400, T0 ; |1330| 
         0001eb 9048 
    2427 0001ed 0600          B $C$L65  ; |1330| 
         0001ef A6   
    2428                                                      ; branch occurs ; |1330| 
    2429 0001f0       $C$L60:    
    2430                      .dwpsn  file "C:/Users/a0221074/Desktop/C5000/IBM_Watson_TIdesign_workarea/CSL_bitbucket/c55_csl/c55x
    2431 0001f0 EC14          AMAR *SP(#10), XAR1
TMS320C55x Assembler PC v4.4.1 Wed Sep 13 16:33:30 2017

Tools Copyright (c) 1996-2012 Texas Instruments Incorporated
C:\Users\a0221074\AppData\Local\Temp\0522410                         PAGE   56

         0001f2 9E   
    2432 0001f3 ED31          MOV dbl(*(#(_grammar_data+10))), XAR0
         0001f5 8F00 
         0001f7 000A-
    2433              $C$DW$219       .dwtag  DW_TAG_TI_branch
    2434                      .dwattr $C$DW$219, DW_AT_low_pc(0x00)
    2435                      .dwattr $C$DW$219, DW_AT_name("_load_model_file")
    2436                      .dwattr $C$DW$219, DW_AT_TI_call
    2437 0001f9 6C00          CALL #_load_model_file ; |1352| 
         0001fb 0000+
    2438                                                      ; call occurs [#_load_model_file] ; |1352| 
    2439 0001fd ED04          MOV dbl(*SP(#2)), XAR3
         0001ff BF   
    2440 000200 EB6D          MOV XAR0, dbl(*AR3(#1190))
         000202 8504 
         000204 A6   
    2441                      .dwpsn  file "C:/Users/a0221074/Desktop/C5000/IBM_Watson_TIdesign_workarea/CSL_bitbucket/c55_csl/c55x
    2442 000205 ED04          MOV dbl(*SP(#2)), XAR3
         000207 BF   
    2443 000208 ED6D          MOV dbl(*AR3(#1190)), XAR3
         00020a BF04 
         00020c A6   
    2444 00020d 90B0          MOV XAR3, AC0
    2445 00020f 6390          BCC $C$L61,AC0 != #0 ; |1354| 
    2446                                                      ; branchcc occurs ; |1354| 
    2447                      .dwpsn  file "C:/Users/a0221074/Desktop/C5000/IBM_Watson_TIdesign_workarea/CSL_bitbucket/c55_csl/c55x
    2448 000211 7601          MOV #400, T0 ; |1355| 
         000213 9048 
    2449 000215 0600          B $C$L65  ; |1355| 
         000217 7E   
    2450                                                      ; branch occurs ; |1355| 
    2451 000218       $C$L61:    
    2452                      .dwpsn  file "C:/Users/a0221074/Desktop/C5000/IBM_Watson_TIdesign_workarea/CSL_bitbucket/c55_csl/c55x
    2453 000218 ED04          MOV dbl(*SP(#2)), XAR1
         00021a 9F   
    2454 00021b ED31          MOV dbl(*(#(_grammar_data+12))), XAR0
         00021d 8F00 
         00021f 000C-
    2455 000221 B42F          AMAR *+AR1(#1206) ; |1370| 
         000223 04B6 
    2456              $C$DW$220       .dwtag  DW_TAG_TI_branch
    2457                      .dwattr $C$DW$220, DW_AT_low_pc(0x00)
    2458                      .dwattr $C$DW$220, DW_AT_name("_load_model_file")
    2459                      .dwattr $C$DW$220, DW_AT_TI_call
    2460 000225 6C00          CALL #_load_model_file ; |1370| 
         000227 0000+
    2461                                                      ; call occurs [#_load_model_file] ; |1370| 
    2462 000229 ED04          MOV dbl(*SP(#2)), XAR3
         00022b BF   
    2463 00022c EB6D          MOV XAR0, dbl(*AR3(#1192))
         00022e 8504 
         000230 A8   
    2464                      .dwpsn  file "C:/Users/a0221074/Desktop/C5000/IBM_Watson_TIdesign_workarea/CSL_bitbucket/c55_csl/c55x
    2465 000231 ED04          MOV dbl(*SP(#2)), XAR3
         000233 BF   
TMS320C55x Assembler PC v4.4.1 Wed Sep 13 16:33:30 2017

Tools Copyright (c) 1996-2012 Texas Instruments Incorporated
C:\Users\a0221074\AppData\Local\Temp\0522410                         PAGE   57

    2466 000234 ED6D          MOV dbl(*AR3(#1192)), XAR3
         000236 BF04 
         000238 A8   
    2467 000239 90B0          MOV XAR3, AC0
    2468 00023b 6390          BCC $C$L62,AC0 != #0 ; |1372| 
    2469                                                      ; branchcc occurs ; |1372| 
    2470                      .dwpsn  file "C:/Users/a0221074/Desktop/C5000/IBM_Watson_TIdesign_workarea/CSL_bitbucket/c55_csl/c55x
    2471 00023d 7601          MOV #400, T0 ; |1373| 
         00023f 9048 
    2472 000241 0600          B $C$L65  ; |1373| 
         000243 52   
    2473                                                      ; branch occurs ; |1373| 
    2474 000244       $C$L62:    
    2475                      .dwpsn  file "C:/Users/a0221074/Desktop/C5000/IBM_Watson_TIdesign_workarea/CSL_bitbucket/c55_csl/c55x
    2476 000244 EC14          AMAR *SP(#10), XAR1
         000246 9E   
    2477 000247 ED31          MOV dbl(*(#(_grammar_data+14))), XAR0
         000249 8F00 
         00024b 000E-
    2478              $C$DW$221       .dwtag  DW_TAG_TI_branch
    2479                      .dwattr $C$DW$221, DW_AT_low_pc(0x00)
    2480                      .dwattr $C$DW$221, DW_AT_name("_load_model_file")
    2481                      .dwattr $C$DW$221, DW_AT_TI_call
    2482 00024d 6C00          CALL #_load_model_file ; |1393| 
         00024f 0000+
    2483                                                      ; call occurs [#_load_model_file] ; |1393| 
    2484 000251 ED04          MOV dbl(*SP(#2)), XAR3
         000253 BF   
    2485 000254 EB6D          MOV XAR0, dbl(*AR3(#1194))
         000256 8504 
         000258 AA   
    2486                      .dwpsn  file "C:/Users/a0221074/Desktop/C5000/IBM_Watson_TIdesign_workarea/CSL_bitbucket/c55_csl/c55x
    2487 000259 ED04          MOV dbl(*SP(#2)), XAR3
         00025b BF   
    2488 00025c ED6D          MOV dbl(*AR3(#1194)), XAR3
         00025e BF04 
         000260 AA   
    2489 000261 90B0          MOV XAR3, AC0
    2490 000263 6310          BCC $C$L63,AC0 != #0 ; |1395| 
    2491                                                      ; branchcc occurs ; |1395| 
    2492                      .dwpsn  file "C:/Users/a0221074/Desktop/C5000/IBM_Watson_TIdesign_workarea/CSL_bitbucket/c55_csl/c55x
    2493 000265 7601          MOV #400, T0 ; |1396| 
         000267 9048 
    2494 000269 4A2B          B $C$L65  ; |1396| 
    2495                                                      ; branch occurs ; |1396| 
    2496 00026b       $C$L63:    
    2497                      .dwpsn  file "C:/Users/a0221074/Desktop/C5000/IBM_Watson_TIdesign_workarea/CSL_bitbucket/c55_csl/c55x
    2498 00026b EC14          AMAR *SP(#10), XAR1
         00026d 9E   
    2499 00026e ED31          MOV dbl(*(#(_grammar_data+16))), XAR0
         000270 8F00 
         000272 0010-
    2500              $C$DW$222       .dwtag  DW_TAG_TI_branch
    2501                      .dwattr $C$DW$222, DW_AT_low_pc(0x00)
    2502                      .dwattr $C$DW$222, DW_AT_name("_load_model_file")
TMS320C55x Assembler PC v4.4.1 Wed Sep 13 16:33:30 2017

Tools Copyright (c) 1996-2012 Texas Instruments Incorporated
C:\Users\a0221074\AppData\Local\Temp\0522410                         PAGE   58

    2503                      .dwattr $C$DW$222, DW_AT_TI_call
    2504 000274 6C00          CALL #_load_model_file ; |1407| 
         000276 0000+
    2505                                                      ; call occurs [#_load_model_file] ; |1407| 
    2506 000278 ED04          MOV dbl(*SP(#2)), XAR3
         00027a BF   
    2507 00027b EB6D          MOV XAR0, dbl(*AR3(#1196))
         00027d 8504 
         00027f AC   
    2508                      .dwpsn  file "C:/Users/a0221074/Desktop/C5000/IBM_Watson_TIdesign_workarea/CSL_bitbucket/c55_csl/c55x
    2509 000280 ED04          MOV dbl(*SP(#2)), XAR3
         000282 BF   
    2510 000283 ED6D          MOV dbl(*AR3(#1196)), XAR3
         000285 BF04 
         000287 AC   
    2511 000288 90B0          MOV XAR3, AC0
    2512 00028a 6310          BCC $C$L64,AC0 != #0 ; |1409| 
    2513                                                      ; branchcc occurs ; |1409| 
    2514                      .dwpsn  file "C:/Users/a0221074/Desktop/C5000/IBM_Watson_TIdesign_workarea/CSL_bitbucket/c55_csl/c55x
    2515 00028c 7601          MOV #400, T0 ; |1410| 
         00028e 9048 
    2516 000290 4A04          B $C$L65  ; |1410| 
    2517                                                      ; branch occurs ; |1410| 
    2518 000292       $C$L64:    
    2519                      .dwpsn  file "C:/Users/a0221074/Desktop/C5000/IBM_Watson_TIdesign_workarea/CSL_bitbucket/c55_csl/c55x
    2520 000292 7600          MOV #100, T0 ; |1414| 
         000294 6448 
    2521 000296       $C$L65:    
    2522                      .dwpsn  file "C:/Users/a0221074/Desktop/C5000/IBM_Watson_TIdesign_workarea/CSL_bitbucket/c55_csl/c55x
    2523 000296 4E0F          AADD #15, SP
    2524                      .dwcfi  cfa_offset, 1
    2525              $C$DW$223       .dwtag  DW_TAG_TI_branch
    2526                      .dwattr $C$DW$223, DW_AT_low_pc(0x00)
    2527                      .dwattr $C$DW$223, DW_AT_TI_return
    2528 000298 4804          RET
    2529                                                      ; return occurs
    2530                      .dwattr $C$DW$196, DW_AT_TI_end_file("C:/Users/a0221074/Desktop/C5000/IBM_Watson_TIdesign_workarea/CS
    2531                      .dwattr $C$DW$196, DW_AT_TI_end_line(0x587)
    2532                      .dwattr $C$DW$196, DW_AT_TI_end_column(0x01)
    2533                      .dwendentry
    2534                      .dwendtag $C$DW$196
    2535              
    2536 000000               .sect   ".text:_mem_alloc"
    2537                      .clink
    2538                      .global _mem_alloc
    2539              
    2540              $C$DW$224       .dwtag  DW_TAG_subprogram, DW_AT_name("mem_alloc")
    2541                      .dwattr $C$DW$224, DW_AT_low_pc(_mem_alloc)
    2542                      .dwattr $C$DW$224, DW_AT_high_pc(0x00)
    2543                      .dwattr $C$DW$224, DW_AT_TI_symbol_name("_mem_alloc")
    2544                      .dwattr $C$DW$224, DW_AT_external
    2545                      .dwattr $C$DW$224, DW_AT_type(*$C$DW$T$161)
    2546                      .dwattr $C$DW$224, DW_AT_TI_begin_file("C:/Users/a0221074/Desktop/C5000/IBM_Watson_TIdesign_workarea/
    2547                      .dwattr $C$DW$224, DW_AT_TI_begin_line(0x592)
    2548                      .dwattr $C$DW$224, DW_AT_TI_begin_column(0x09)
TMS320C55x Assembler PC v4.4.1 Wed Sep 13 16:33:30 2017

Tools Copyright (c) 1996-2012 Texas Instruments Incorporated
C:\Users\a0221074\AppData\Local\Temp\0522410                         PAGE   59

    2549                      .dwattr $C$DW$224, DW_AT_TI_max_frame_size(0x0e)
    2550                      .dwpsn  file "C:/Users/a0221074/Desktop/C5000/IBM_Watson_TIdesign_workarea/CSL_bitbucket/c55_csl/c55x
    2551              
    2552                      .dwfde $C$DW$CIE, _mem_alloc
    2553              $C$DW$225       .dwtag  DW_TAG_formal_parameter, DW_AT_name("base_mem")
    2554                      .dwattr $C$DW$225, DW_AT_TI_symbol_name("_base_mem")
    2555                      .dwattr $C$DW$225, DW_AT_type(*$C$DW$T$23)
    2556                      .dwattr $C$DW$225, DW_AT_location[DW_OP_reg17]
    2557              $C$DW$226       .dwtag  DW_TAG_formal_parameter, DW_AT_name("mem_count")
    2558                      .dwattr $C$DW$226, DW_AT_TI_symbol_name("_mem_count")
    2559                      .dwattr $C$DW$226, DW_AT_type(*$C$DW$T$24)
    2560                      .dwattr $C$DW$226, DW_AT_location[DW_OP_reg19]
    2561              $C$DW$227       .dwtag  DW_TAG_formal_parameter, DW_AT_name("size_in_short")
    2562                      .dwattr $C$DW$227, DW_AT_TI_symbol_name("_size_in_short")
    2563                      .dwattr $C$DW$227, DW_AT_type(*$C$DW$T$22)
    2564                      .dwattr $C$DW$227, DW_AT_location[DW_OP_reg12]
    2565              $C$DW$228       .dwtag  DW_TAG_formal_parameter, DW_AT_name("max_mem_usage")
    2566                      .dwattr $C$DW$228, DW_AT_TI_symbol_name("_max_mem_usage")
    2567                      .dwattr $C$DW$228, DW_AT_type(*$C$DW$T$11)
    2568                      .dwattr $C$DW$228, DW_AT_location[DW_OP_reg13]
    2569              $C$DW$229       .dwtag  DW_TAG_formal_parameter, DW_AT_name("aAlign")
    2570                      .dwattr $C$DW$229, DW_AT_TI_symbol_name("_aAlign")
    2571                      .dwattr $C$DW$229, DW_AT_type(*$C$DW$T$9)
    2572                      .dwattr $C$DW$229, DW_AT_location[DW_OP_reg20]
    2573              $C$DW$230       .dwtag  DW_TAG_formal_parameter, DW_AT_name("mesg")
    2574                      .dwattr $C$DW$230, DW_AT_TI_symbol_name("_mesg")
    2575                      .dwattr $C$DW$230, DW_AT_type(*$C$DW$T$77)
    2576                      .dwattr $C$DW$230, DW_AT_location[DW_OP_reg23]
    2577              ;*******************************************************************************
    2578              ;* FUNCTION NAME: mem_alloc                                                    *
    2579              ;*                                                                             *
    2580              ;*   Function Uses Regs : AC0,AC0,T0,T1,AR0,XAR0,AR1,XAR1,AR2,AR3,XAR3,SP,M40, *
    2581              ;*                        SATA,SATD,RDM,FRCT,SMUL                              *
    2582              ;*   Stack Frame        : Compact (No Frame Pointer, w/ debug)                 *
    2583              ;*   Total Frame Size   : 14 words                                             *
    2584              ;*                        (2 return address/alignment)                         *
    2585              ;*                        (2 function parameters)                              *
    2586              ;*                        (10 local values)                                    *
    2587              ;*   Min System Stack   : 1 word                                               *
    2588              ;*******************************************************************************
    2589 000000       _mem_alloc:
    2590                      .dwcfi  cfa_offset, 1
    2591                      .dwcfi  save_reg_to_mem, 91, -1
    2592 000000 4EF3          AADD #-13, SP
    2593                      .dwcfi  cfa_offset, 14
    2594              $C$DW$231       .dwtag  DW_TAG_variable, DW_AT_name("base_mem")
    2595                      .dwattr $C$DW$231, DW_AT_TI_symbol_name("_base_mem")
    2596                      .dwattr $C$DW$231, DW_AT_type(*$C$DW$T$23)
    2597                      .dwattr $C$DW$231, DW_AT_location[DW_OP_bregx 0x24 2]
    2598              $C$DW$232       .dwtag  DW_TAG_variable, DW_AT_name("mem_count")
    2599                      .dwattr $C$DW$232, DW_AT_TI_symbol_name("_mem_count")
    2600                      .dwattr $C$DW$232, DW_AT_type(*$C$DW$T$24)
    2601                      .dwattr $C$DW$232, DW_AT_location[DW_OP_bregx 0x24 4]
    2602              $C$DW$233       .dwtag  DW_TAG_variable, DW_AT_name("size_in_short")
    2603                      .dwattr $C$DW$233, DW_AT_TI_symbol_name("_size_in_short")
TMS320C55x Assembler PC v4.4.1 Wed Sep 13 16:33:30 2017

Tools Copyright (c) 1996-2012 Texas Instruments Incorporated
C:\Users\a0221074\AppData\Local\Temp\0522410                         PAGE   60

    2604                      .dwattr $C$DW$233, DW_AT_type(*$C$DW$T$22)
    2605                      .dwattr $C$DW$233, DW_AT_location[DW_OP_bregx 0x24 6]
    2606              $C$DW$234       .dwtag  DW_TAG_variable, DW_AT_name("max_mem_usage")
    2607                      .dwattr $C$DW$234, DW_AT_TI_symbol_name("_max_mem_usage")
    2608                      .dwattr $C$DW$234, DW_AT_type(*$C$DW$T$11)
    2609                      .dwattr $C$DW$234, DW_AT_location[DW_OP_bregx 0x24 7]
    2610              $C$DW$235       .dwtag  DW_TAG_variable, DW_AT_name("aAlign")
    2611                      .dwattr $C$DW$235, DW_AT_TI_symbol_name("_aAlign")
    2612                      .dwattr $C$DW$235, DW_AT_type(*$C$DW$T$9)
    2613                      .dwattr $C$DW$235, DW_AT_location[DW_OP_bregx 0x24 8]
    2614              $C$DW$236       .dwtag  DW_TAG_variable, DW_AT_name("mesg")
    2615                      .dwattr $C$DW$236, DW_AT_TI_symbol_name("_mesg")
    2616                      .dwattr $C$DW$236, DW_AT_type(*$C$DW$T$77)
    2617                      .dwattr $C$DW$236, DW_AT_location[DW_OP_bregx 0x24 10]
    2618 000002 EB14          MOV XAR3, dbl(*SP(#10))
         000004 B5   
    2619 000005 CA10          MOV AR2, *SP(#8) ; |1429| 
    2620 000007 C50E          MOV T1, *SP(#7) ; |1429| 
    2621 000009 C40C          MOV T0, *SP(#6) ; |1429| 
    2622 00000b EB08          MOV XAR1, dbl(*SP(#4))
         00000d 95   
    2623 00000e EB04          MOV XAR0, dbl(*SP(#2))
         000010 85   
    2624                      .dwpsn  file "C:/Users/a0221074/Desktop/C5000/IBM_Watson_TIdesign_workarea/CSL_bitbucket/c55_csl/c55x
    2625 000011 EC31          AMOV #$C$FSL2, XAR3 ; |1431| 
         000013 BE00 
         000015 0004+
    2626 000017 EB00          MOV XAR3, dbl(*SP(#0))
         000019 B5   
    2627              $C$DW$237       .dwtag  DW_TAG_TI_branch
    2628                      .dwattr $C$DW$237, DW_AT_low_pc(0x00)
    2629                      .dwattr $C$DW$237, DW_AT_name("_printf")
    2630                      .dwattr $C$DW$237, DW_AT_TI_call
    2631 00001a 6C00          CALL #_printf ; |1431| 
         00001c 0000!
    2632                                                      ; call occurs [#_printf] ; |1431| 
    2633                      .dwpsn  file "C:/Users/a0221074/Desktop/C5000/IBM_Watson_TIdesign_workarea/CSL_bitbucket/c55_csl/c55x
    2634              $C$DW$238       .dwtag  DW_TAG_TI_branch
    2635                      .dwattr $C$DW$238, DW_AT_low_pc(0x00)
    2636                      .dwattr $C$DW$238, DW_AT_name("_exit")
    2637                      .dwattr $C$DW$238, DW_AT_TI_call
    2638              
    2639 00001e 6C00          CALL #_exit ; |1432| 
         000020 0000!
    2640 000022 3D04  ||      MOV #0, T0
    2641              
    2642                                                      ; call occurs [#_exit] ; |1432| 
    2643                      .dwpsn  file "C:/Users/a0221074/Desktop/C5000/IBM_Watson_TIdesign_workarea/CSL_bitbucket/c55_csl/c55x
    2644 000024 3C00          MOV #0, AC0 ; |1433| 
    2645                      .dwpsn  file "C:/Users/a0221074/Desktop/C5000/IBM_Watson_TIdesign_workarea/CSL_bitbucket/c55_csl/c55x
    2646 000026 4E0D          AADD #13, SP
    2647                      .dwcfi  cfa_offset, 1
    2648              $C$DW$239       .dwtag  DW_TAG_TI_branch
    2649                      .dwattr $C$DW$239, DW_AT_low_pc(0x00)
    2650                      .dwattr $C$DW$239, DW_AT_TI_return
TMS320C55x Assembler PC v4.4.1 Wed Sep 13 16:33:30 2017

Tools Copyright (c) 1996-2012 Texas Instruments Incorporated
C:\Users\a0221074\AppData\Local\Temp\0522410                         PAGE   61

    2651 000028 4804          RET
    2652                                                      ; return occurs
    2653                      .dwattr $C$DW$224, DW_AT_TI_end_file("C:/Users/a0221074/Desktop/C5000/IBM_Watson_TIdesign_workarea/CS
    2654                      .dwattr $C$DW$224, DW_AT_TI_end_line(0x5c6)
    2655                      .dwattr $C$DW$224, DW_AT_TI_end_column(0x01)
    2656                      .dwendentry
    2657                      .dwendtag $C$DW$224
    2658              
    2659              ;*******************************************************************************
    2660              ;* FAR STRINGS                                                                 *
    2661              ;*******************************************************************************
    2662 000000               .sect   ".const:.string"
    2663                      .align  2
    2664 000000 0072  $C$FSL1:        .string "rb",0
         000001 0062 
         000002 0000 
    2665                      .align  2
    2666 000004 000A  $C$FSL2:        .string 10," DON'T USE THIS FUNCTION, IT'S BUGGY ON THE C55x",10,0
         000005 0020 
         000006 0044 
         000007 004F 
         000008 004E 
         000009 0027 
         00000a 0054 
         00000b 0020 
         00000c 0055 
         00000d 0053 
         00000e 0045 
         00000f 0020 
         000010 0054 
         000011 0048 
         000012 0049 
         000013 0053 
         000014 0020 
         000015 0046 
         000016 0055 
         000017 004E 
         000018 0043 
         000019 0054 
         00001a 0049 
         00001b 004F 
         00001c 004E 
         00001d 002C 
         00001e 0020 
         00001f 0049 
         000020 0054 
         000021 0027 
         000022 0053 
         000023 0020 
         000024 0042 
         000025 0055 
         000026 0047 
         000027 0047 
         000028 0059 
         000029 0020 
TMS320C55x Assembler PC v4.4.1 Wed Sep 13 16:33:30 2017

Tools Copyright (c) 1996-2012 Texas Instruments Incorporated
C:\Users\a0221074\AppData\Local\Temp\0522410                         PAGE   62

         00002a 004F 
         00002b 004E 
         00002c 0020 
         00002d 0054 
         00002e 0048 
         00002f 0045 
         000030 0020 
         000031 0043 
         000032 0035 
         000033 0035 
         000034 0078 
         000035 000A 
         000036 0000 
    2667              ;******************************************************************************
    2668              ;* UNDEFINED EXTERNAL REFERENCES                                              *
    2669              ;******************************************************************************
    2670                      .global _MEM_alloc
    2671                      .global _MEM_free
    2672                      .global _MEM_valloc
    2673                      .global _fclose
    2674                      .global _printf
    2675                      .global _malloc
    2676                      .global _free
    2677                      .global _exit
    2678                      .global _vector_unpacking
    2679                      .global _my_fread
    2680                      .global _my_fopen
    2681                      .global _my_fclose
    2682                      .global _SEG0
    2683                      .global _gWord
    2684                      .global _gNet
    2685                      .global _gHmm
    2686                      .global _gMu
    2687                      .global _gVar
    2688                      .global _gTran
    2689                      .global _gPdf
    2690                      .global _gMixture
    2691                      .global _gGconst
    2692                      .global _gDim
    2693                      .global _gConfig
    2694                      .global _memcpy
    2695              
    2696              ;*******************************************************************************
    2697              ;* TYPE INFORMATION                                                            *
    2698              ;*******************************************************************************
    2699              
    2700              $C$DW$T$94      .dwtag  DW_TAG_enumeration_type
    2701                      .dwattr $C$DW$T$94, DW_AT_byte_size(0x01)
    2702              $C$DW$240       .dwtag  DW_TAG_enumerator, DW_AT_name("eTIesrEngineSuccess"), DW_AT_const_value(0x64)
    2703              $C$DW$241       .dwtag  DW_TAG_enumerator, DW_AT_name("eTIesrEngineEvalCellOverflow"), DW_AT_const_value(0x65
    2704              $C$DW$242       .dwtag  DW_TAG_enumerator, DW_AT_name("eTIesrEngineBeamCellOverflow"), DW_AT_const_value(0x66
    2705              $C$DW$243       .dwtag  DW_TAG_enumerator, DW_AT_name("eTIesrEngineTimeCellOverflow"), DW_AT_const_value(0x67
    2706              $C$DW$244       .dwtag  DW_TAG_enumerator, DW_AT_name("eTIesrEngineSearchSpace"), DW_AT_const_value(0xc8)
    2707              $C$DW$245       .dwtag  DW_TAG_enumerator, DW_AT_name("eTIesrEngineSearchMemoryLimit"), DW_AT_const_value(0xc
    2708              $C$DW$246       .dwtag  DW_TAG_enumerator, DW_AT_name("eTIesrEngineSearchMemorySize"), DW_AT_const_value(0xca
TMS320C55x Assembler PC v4.4.1 Wed Sep 13 16:33:30 2017

Tools Copyright (c) 1996-2012 Texas Instruments Incorporated
C:\Users\a0221074\AppData\Local\Temp\0522410                         PAGE   63

    2709              $C$DW$247       .dwtag  DW_TAG_enumerator, DW_AT_name("eTIesrEngineVQHMMMemorySize"), DW_AT_const_value(0xcb)
    2710              $C$DW$248       .dwtag  DW_TAG_enumerator, DW_AT_name("eTIesrEngineVQHMMGarbage"), DW_AT_const_value(0xcc)
    2711              $C$DW$249       .dwtag  DW_TAG_enumerator, DW_AT_name("eTIesrEngineVQHMMSave"), DW_AT_const_value(0xcd)
    2712              $C$DW$250       .dwtag  DW_TAG_enumerator, DW_AT_name("eTIesrEngineVQHMMLoad"), DW_AT_const_value(0xce)
    2713              $C$DW$251       .dwtag  DW_TAG_enumerator, DW_AT_name("eTIesrEngineCompFail"), DW_AT_const_value(0xcf)
    2714              $C$DW$252       .dwtag  DW_TAG_enumerator, DW_AT_name("eTIesrEngineFeatureMemoryOut"), DW_AT_const_value(0x12
    2715              $C$DW$253       .dwtag  DW_TAG_enumerator, DW_AT_name("eTIesrEngineSegmentMemoryOut"), DW_AT_const_value(0x12
    2716              $C$DW$254       .dwtag  DW_TAG_enumerator, DW_AT_name("eTIesrEngineMuSpaceMemoryOut"), DW_AT_const_value(0x12
    2717              $C$DW$255       .dwtag  DW_TAG_enumerator, DW_AT_name("eTIesrEngineFeatureFrameOut"), DW_AT_const_value(0x12f
    2718              $C$DW$256       .dwtag  DW_TAG_enumerator, DW_AT_name("eTIesrEngineAnswerMemoryOut"), DW_AT_const_value(0x130
    2719              $C$DW$257       .dwtag  DW_TAG_enumerator, DW_AT_name("eTIesrEngineTimeOut"), DW_AT_const_value(0x131)
    2720              $C$DW$258       .dwtag  DW_TAG_enumerator, DW_AT_name("eTIesrEngineNBestMem"), DW_AT_const_value(0x132)
    2721              $C$DW$259       .dwtag  DW_TAG_enumerator, DW_AT_name("eTIesrEngineModelLoadFail"), DW_AT_const_value(0x190)
    2722              $C$DW$260       .dwtag  DW_TAG_enumerator, DW_AT_name("eTIesrEngineAlignmentFail"), DW_AT_const_value(0x191)
    2723              $C$DW$261       .dwtag  DW_TAG_enumerator, DW_AT_name("eTIesrEngineMemorySizeFail"), DW_AT_const_value(0x192)
    2724              $C$DW$262       .dwtag  DW_TAG_enumerator, DW_AT_name("eTIesrEngineFailedJAC"), DW_AT_const_value(0x1a9)
    2725              $C$DW$263       .dwtag  DW_TAG_enumerator, DW_AT_name("eTIesrEngineFeatureDimensionFail"), DW_AT_const_value(
    2726              $C$DW$264       .dwtag  DW_TAG_enumerator, DW_AT_name("eTIesrEngineSegmentSizeCheckFail"), DW_AT_const_value(
    2727              $C$DW$265       .dwtag  DW_TAG_enumerator, DW_AT_name("eTIesrEngineModelFileFail"), DW_AT_const_value(0x1c4)
    2728              $C$DW$266       .dwtag  DW_TAG_enumerator, DW_AT_name("eTIesrEngineSaveFail"), DW_AT_const_value(0x1c5)
    2729              $C$DW$267       .dwtag  DW_TAG_enumerator, DW_AT_name("eTIesrEngineEnrollLoadFail"), DW_AT_const_value(0x1c6)
    2730              $C$DW$268       .dwtag  DW_TAG_enumerator, DW_AT_name("eTIesrEngineBackgoundCreationFail"), DW_AT_const_value
    2731              $C$DW$269       .dwtag  DW_TAG_enumerator, DW_AT_name("eTIesrEngineStateMemoryOut"), DW_AT_const_value(0x1f4)
    2732              $C$DW$270       .dwtag  DW_TAG_enumerator, DW_AT_name("eTIesrEngineSearchMemoryOut"), DW_AT_const_value(0x1f5
    2733              $C$DW$271       .dwtag  DW_TAG_enumerator, DW_AT_name("eTIesrEngineModelMemorySize"), DW_AT_const_value(0x258
    2734              $C$DW$272       .dwtag  DW_TAG_enumerator, DW_AT_name("eTIesrEngineFeatureMemorySize"), DW_AT_const_value(0x2
    2735              $C$DW$273       .dwtag  DW_TAG_enumerator, DW_AT_name("eTIesrEngineNetworkMemorySize"), DW_AT_const_value(0x2
    2736              $C$DW$274       .dwtag  DW_TAG_enumerator, DW_AT_name("eTIesrEngineModelSize"), DW_AT_const_value(0x25b)
    2737              $C$DW$275       .dwtag  DW_TAG_enumerator, DW_AT_name("eTIesrEngineBackTrackMemorySize"), DW_AT_const_value(0
    2738              $C$DW$276       .dwtag  DW_TAG_enumerator, DW_AT_name("eTIesrEngineCMMemorySize"), DW_AT_const_value(0x25d)
    2739              $C$DW$277       .dwtag  DW_TAG_enumerator, DW_AT_name("eTIesrEngineVALTreeMemorySize"), DW_AT_const_value(0x2
    2740              $C$DW$278       .dwtag  DW_TAG_enumerator, DW_AT_name("eTIesrEngineSym2PosMapSize"), DW_AT_const_value(0x25f)
    2741              $C$DW$279       .dwtag  DW_TAG_enumerator, DW_AT_name("eTIesrEngineShortUtterance"), DW_AT_const_value(0x2bc)
    2742              $C$DW$280       .dwtag  DW_TAG_enumerator, DW_AT_name("eTIesrTTSLoadHMM2Phone"), DW_AT_const_value(0x320)
    2743              $C$DW$281       .dwtag  DW_TAG_enumerator, DW_AT_name("eTIesrTTSNoSilencePhone"), DW_AT_const_value(0x321)
    2744              $C$DW$282       .dwtag  DW_TAG_enumerator, DW_AT_name("eTIesrTTSLoadPhone2Voicing"), DW_AT_const_value(0x322)
    2745              $C$DW$283       .dwtag  DW_TAG_enumerator, DW_AT_name("eTIesrTTSLoadPhoneDuration"), DW_AT_const_value(0x323)
    2746              $C$DW$284       .dwtag  DW_TAG_enumerator, DW_AT_name("eTIesrTTSPhoneMismatch"), DW_AT_const_value(0x324)
    2747              $C$DW$285       .dwtag  DW_TAG_enumerator, DW_AT_name("eTIesrTTSPhoneMissWord"), DW_AT_const_value(0x325)
    2748              $C$DW$286       .dwtag  DW_TAG_enumerator, DW_AT_name("eTIesrTTSPhoneDuration"), DW_AT_const_value(0x326)
    2749              $C$DW$287       .dwtag  DW_TAG_enumerator, DW_AT_name("eTIesrTTSPhoneWord"), DW_AT_const_value(0x327)
    2750              $C$DW$288       .dwtag  DW_TAG_enumerator, DW_AT_name("eTIesrTTSSaveTTSMean"), DW_AT_const_value(0x328)
    2751              $C$DW$289       .dwtag  DW_TAG_enumerator, DW_AT_name("eTIesrTTSSaveVoicing"), DW_AT_const_value(0x329)
    2752              $C$DW$290       .dwtag  DW_TAG_enumerator, DW_AT_name("eTIesrTTSSaveDuration"), DW_AT_const_value(0x32a)
    2753              $C$DW$291       .dwtag  DW_TAG_enumerator, DW_AT_name("eTIesrTTSTTS"), DW_AT_const_value(0x32b)
    2754              $C$DW$292       .dwtag  DW_TAG_enumerator, DW_AT_name("eTIesrTTSPhoneList"), DW_AT_const_value(0x32c)
    2755              $C$DW$293       .dwtag  DW_TAG_enumerator, DW_AT_name("eTIesrTTSNumPhones"), DW_AT_const_value(0x32d)
    2756              $C$DW$294       .dwtag  DW_TAG_enumerator, DW_AT_name("eTIesrTTSNumWords"), DW_AT_const_value(0x32e)
    2757              $C$DW$295       .dwtag  DW_TAG_enumerator, DW_AT_name("eTIesrTTSOutputFile"), DW_AT_const_value(0x32f)
    2758              $C$DW$296       .dwtag  DW_TAG_enumerator, DW_AT_name("eTIesrTTSInputMFCC"), DW_AT_const_value(0x330)
    2759              $C$DW$297       .dwtag  DW_TAG_enumerator, DW_AT_name("eTIesrTTSInputDuration"), DW_AT_const_value(0x331)
    2760              $C$DW$298       .dwtag  DW_TAG_enumerator, DW_AT_name("eTIesrTTSInputVoicing"), DW_AT_const_value(0x332)
    2761              $C$DW$299       .dwtag  DW_TAG_enumerator, DW_AT_name("eTIesrTTSNotFound"), DW_AT_const_value(0x333)
    2762              $C$DW$300       .dwtag  DW_TAG_enumerator, DW_AT_name("eTIesrTTSOutputMeanSize"), DW_AT_const_value(0x334)
    2763              $C$DW$301       .dwtag  DW_TAG_enumerator, DW_AT_name("eTIesrTTSOutput"), DW_AT_const_value(0x335)
TMS320C55x Assembler PC v4.4.1 Wed Sep 13 16:33:30 2017

Tools Copyright (c) 1996-2012 Texas Instruments Incorporated
C:\Users\a0221074\AppData\Local\Temp\0522410                         PAGE   64

    2764                      .dwendtag $C$DW$T$94
    2765              
    2766              $C$DW$T$95      .dwtag  DW_TAG_typedef, DW_AT_name("TIesrEngineStatusType")
    2767                      .dwattr $C$DW$T$95, DW_AT_type(*$C$DW$T$94)
    2768                      .dwattr $C$DW$T$95, DW_AT_language(DW_LANG_C)
    2769              
    2770              $C$DW$T$20      .dwtag  DW_TAG_structure_type
    2771                      .dwattr $C$DW$T$20, DW_AT_byte_size(0x0c)
    2772              $C$DW$302       .dwtag  DW_TAG_member
    2773                      .dwattr $C$DW$302, DW_AT_type(*$C$DW$T$10)
    2774                      .dwattr $C$DW$302, DW_AT_name("fd")
    2775                      .dwattr $C$DW$302, DW_AT_TI_symbol_name("_fd")
    2776                      .dwattr $C$DW$302, DW_AT_data_member_location[DW_OP_plus_uconst 0x0]
    2777                      .dwattr $C$DW$302, DW_AT_accessibility(DW_ACCESS_public)
    2778              $C$DW$303       .dwtag  DW_TAG_member
    2779                      .dwattr $C$DW$303, DW_AT_type(*$C$DW$T$19)
    2780                      .dwattr $C$DW$303, DW_AT_name("buf")
    2781                      .dwattr $C$DW$303, DW_AT_TI_symbol_name("_buf")
    2782                      .dwattr $C$DW$303, DW_AT_data_member_location[DW_OP_plus_uconst 0x2]
    2783                      .dwattr $C$DW$303, DW_AT_accessibility(DW_ACCESS_public)
    2784              $C$DW$304       .dwtag  DW_TAG_member
    2785                      .dwattr $C$DW$304, DW_AT_type(*$C$DW$T$19)
    2786                      .dwattr $C$DW$304, DW_AT_name("pos")
    2787                      .dwattr $C$DW$304, DW_AT_TI_symbol_name("_pos")
    2788                      .dwattr $C$DW$304, DW_AT_data_member_location[DW_OP_plus_uconst 0x4]
    2789                      .dwattr $C$DW$304, DW_AT_accessibility(DW_ACCESS_public)
    2790              $C$DW$305       .dwtag  DW_TAG_member
    2791                      .dwattr $C$DW$305, DW_AT_type(*$C$DW$T$19)
    2792                      .dwattr $C$DW$305, DW_AT_name("bufend")
    2793                      .dwattr $C$DW$305, DW_AT_TI_symbol_name("_bufend")
    2794                      .dwattr $C$DW$305, DW_AT_data_member_location[DW_OP_plus_uconst 0x6]
    2795                      .dwattr $C$DW$305, DW_AT_accessibility(DW_ACCESS_public)
    2796              $C$DW$306       .dwtag  DW_TAG_member
    2797                      .dwattr $C$DW$306, DW_AT_type(*$C$DW$T$19)
    2798                      .dwattr $C$DW$306, DW_AT_name("buff_stop")
    2799                      .dwattr $C$DW$306, DW_AT_TI_symbol_name("_buff_stop")
    2800                      .dwattr $C$DW$306, DW_AT_data_member_location[DW_OP_plus_uconst 0x8]
    2801                      .dwattr $C$DW$306, DW_AT_accessibility(DW_ACCESS_public)
    2802              $C$DW$307       .dwtag  DW_TAG_member
    2803                      .dwattr $C$DW$307, DW_AT_type(*$C$DW$T$11)
    2804                      .dwattr $C$DW$307, DW_AT_name("flags")
    2805                      .dwattr $C$DW$307, DW_AT_TI_symbol_name("_flags")
    2806                      .dwattr $C$DW$307, DW_AT_data_member_location[DW_OP_plus_uconst 0xa]
    2807                      .dwattr $C$DW$307, DW_AT_accessibility(DW_ACCESS_public)
    2808                      .dwendtag $C$DW$T$20
    2809              
    2810              $C$DW$T$99      .dwtag  DW_TAG_typedef, DW_AT_name("FILE")
    2811                      .dwattr $C$DW$T$99, DW_AT_type(*$C$DW$T$20)
    2812                      .dwattr $C$DW$T$99, DW_AT_language(DW_LANG_C)
    2813              $C$DW$T$100     .dwtag  DW_TAG_pointer_type
    2814                      .dwattr $C$DW$T$100, DW_AT_type(*$C$DW$T$99)
    2815                      .dwattr $C$DW$T$100, DW_AT_address_class(0x17)
    2816              
    2817              $C$DW$T$21      .dwtag  DW_TAG_structure_type
    2818                      .dwattr $C$DW$T$21, DW_AT_byte_size(0x03)
TMS320C55x Assembler PC v4.4.1 Wed Sep 13 16:33:30 2017

Tools Copyright (c) 1996-2012 Texas Instruments Incorporated
C:\Users\a0221074\AppData\Local\Temp\0522410                         PAGE   65

    2819              $C$DW$308       .dwtag  DW_TAG_member
    2820                      .dwattr $C$DW$308, DW_AT_type(*$C$DW$T$8)
    2821                      .dwattr $C$DW$308, DW_AT_name("num")
    2822                      .dwattr $C$DW$308, DW_AT_TI_symbol_name("_num")
    2823                      .dwattr $C$DW$308, DW_AT_data_member_location[DW_OP_plus_uconst 0x0]
    2824                      .dwattr $C$DW$308, DW_AT_accessibility(DW_ACCESS_public)
    2825              $C$DW$309       .dwtag  DW_TAG_member
    2826                      .dwattr $C$DW$309, DW_AT_type(*$C$DW$T$8)
    2827                      .dwattr $C$DW$309, DW_AT_name("x1")
    2828                      .dwattr $C$DW$309, DW_AT_TI_symbol_name("_x1")
    2829                      .dwattr $C$DW$309, DW_AT_data_member_location[DW_OP_plus_uconst 0x1]
    2830                      .dwattr $C$DW$309, DW_AT_accessibility(DW_ACCESS_public)
    2831              $C$DW$310       .dwtag  DW_TAG_member
    2832                      .dwattr $C$DW$310, DW_AT_type(*$C$DW$T$8)
    2833                      .dwattr $C$DW$310, DW_AT_name("x2")
    2834                      .dwattr $C$DW$310, DW_AT_TI_symbol_name("_x2")
    2835                      .dwattr $C$DW$310, DW_AT_data_member_location[DW_OP_plus_uconst 0x2]
    2836                      .dwattr $C$DW$310, DW_AT_accessibility(DW_ACCESS_public)
    2837                      .dwendtag $C$DW$T$21
    2838              
    2839              $C$DW$T$59      .dwtag  DW_TAG_typedef, DW_AT_name("mel_filter_type")
    2840                      .dwattr $C$DW$T$59, DW_AT_type(*$C$DW$T$21)
    2841                      .dwattr $C$DW$T$59, DW_AT_language(DW_LANG_C)
    2842              $C$DW$311       .dwtag  DW_TAG_TI_far_type
    2843                      .dwattr $C$DW$311, DW_AT_type(*$C$DW$T$59)
    2844              $C$DW$T$60      .dwtag  DW_TAG_const_type
    2845                      .dwattr $C$DW$T$60, DW_AT_type(*$C$DW$311)
    2846              $C$DW$T$61      .dwtag  DW_TAG_pointer_type
    2847                      .dwattr $C$DW$T$61, DW_AT_type(*$C$DW$T$60)
    2848                      .dwattr $C$DW$T$61, DW_AT_address_class(0x17)
    2849              
    2850              $C$DW$T$25      .dwtag  DW_TAG_structure_type
    2851                      .dwattr $C$DW$T$25, DW_AT_byte_size(0x18)
    2852              $C$DW$312       .dwtag  DW_TAG_member
    2853                      .dwattr $C$DW$312, DW_AT_type(*$C$DW$T$22)
    2854                      .dwattr $C$DW$312, DW_AT_name("max_mem_usage")
    2855                      .dwattr $C$DW$312, DW_AT_TI_symbol_name("_max_mem_usage")
    2856                      .dwattr $C$DW$312, DW_AT_data_member_location[DW_OP_plus_uconst 0x0]
    2857                      .dwattr $C$DW$312, DW_AT_accessibility(DW_ACCESS_public)
    2858              $C$DW$313       .dwtag  DW_TAG_member
    2859                      .dwattr $C$DW$313, DW_AT_type(*$C$DW$T$22)
    2860                      .dwattr $C$DW$313, DW_AT_name("n_terminals")
    2861                      .dwattr $C$DW$313, DW_AT_TI_symbol_name("_n_terminals")
    2862                      .dwattr $C$DW$313, DW_AT_data_member_location[DW_OP_plus_uconst 0x1]
    2863                      .dwattr $C$DW$313, DW_AT_accessibility(DW_ACCESS_public)
    2864              $C$DW$314       .dwtag  DW_TAG_member
    2865                      .dwattr $C$DW$314, DW_AT_type(*$C$DW$T$22)
    2866                      .dwattr $C$DW$314, DW_AT_name("n_monophones")
    2867                      .dwattr $C$DW$314, DW_AT_TI_symbol_name("_n_monophones")
    2868                      .dwattr $C$DW$314, DW_AT_data_member_location[DW_OP_plus_uconst 0x2]
    2869                      .dwattr $C$DW$314, DW_AT_accessibility(DW_ACCESS_public)
    2870              $C$DW$315       .dwtag  DW_TAG_member
    2871                      .dwattr $C$DW$315, DW_AT_type(*$C$DW$T$23)
    2872                      .dwattr $C$DW$315, DW_AT_name("hlrTreeBase")
    2873                      .dwattr $C$DW$315, DW_AT_TI_symbol_name("_hlrTreeBase")
TMS320C55x Assembler PC v4.4.1 Wed Sep 13 16:33:30 2017

Tools Copyright (c) 1996-2012 Texas Instruments Incorporated
C:\Users\a0221074\AppData\Local\Temp\0522410                         PAGE   66

    2874                      .dwattr $C$DW$315, DW_AT_data_member_location[DW_OP_plus_uconst 0x4]
    2875                      .dwattr $C$DW$315, DW_AT_accessibility(DW_ACCESS_public)
    2876              $C$DW$316       .dwtag  DW_TAG_member
    2877                      .dwattr $C$DW$316, DW_AT_type(*$C$DW$T$24)
    2878                      .dwattr $C$DW$316, DW_AT_name("hlrTerminal")
    2879                      .dwattr $C$DW$316, DW_AT_TI_symbol_name("_hlrTerminal")
    2880                      .dwattr $C$DW$316, DW_AT_data_member_location[DW_OP_plus_uconst 0x6]
    2881                      .dwattr $C$DW$316, DW_AT_accessibility(DW_ACCESS_public)
    2882              $C$DW$317       .dwtag  DW_TAG_member
    2883                      .dwattr $C$DW$317, DW_AT_type(*$C$DW$T$23)
    2884                      .dwattr $C$DW$317, DW_AT_name("pHMM2phone")
    2885                      .dwattr $C$DW$317, DW_AT_TI_symbol_name("_pHMM2phone")
    2886                      .dwattr $C$DW$317, DW_AT_data_member_location[DW_OP_plus_uconst 0x8]
    2887                      .dwattr $C$DW$317, DW_AT_accessibility(DW_ACCESS_public)
    2888              $C$DW$318       .dwtag  DW_TAG_member
    2889                      .dwattr $C$DW$318, DW_AT_type(*$C$DW$T$24)
    2890                      .dwattr $C$DW$318, DW_AT_name("hlrTransformIndex")
    2891                      .dwattr $C$DW$318, DW_AT_TI_symbol_name("_hlrTransformIndex")
    2892                      .dwattr $C$DW$318, DW_AT_data_member_location[DW_OP_plus_uconst 0xa]
    2893                      .dwattr $C$DW$318, DW_AT_accessibility(DW_ACCESS_public)
    2894              $C$DW$319       .dwtag  DW_TAG_member
    2895                      .dwattr $C$DW$319, DW_AT_type(*$C$DW$T$22)
    2896                      .dwattr $C$DW$319, DW_AT_name("hlr_TRANSFORM_SIZE")
    2897                      .dwattr $C$DW$319, DW_AT_TI_symbol_name("_hlr_TRANSFORM_SIZE")
    2898                      .dwattr $C$DW$319, DW_AT_data_member_location[DW_OP_plus_uconst 0xc]
    2899                      .dwattr $C$DW$319, DW_AT_accessibility(DW_ACCESS_public)
    2900              $C$DW$320       .dwtag  DW_TAG_member
    2901                      .dwattr $C$DW$320, DW_AT_type(*$C$DW$T$23)
    2902                      .dwattr $C$DW$320, DW_AT_name("hlrTransforms")
    2903                      .dwattr $C$DW$320, DW_AT_TI_symbol_name("_hlrTransforms")
    2904                      .dwattr $C$DW$320, DW_AT_data_member_location[DW_OP_plus_uconst 0xe]
    2905                      .dwattr $C$DW$320, DW_AT_accessibility(DW_ACCESS_public)
    2906              $C$DW$321       .dwtag  DW_TAG_member
    2907                      .dwattr $C$DW$321, DW_AT_type(*$C$DW$T$23)
    2908                      .dwattr $C$DW$321, DW_AT_name("pSegStat_dif1")
    2909                      .dwattr $C$DW$321, DW_AT_TI_symbol_name("_pSegStat_dif1")
    2910                      .dwattr $C$DW$321, DW_AT_data_member_location[DW_OP_plus_uconst 0x10]
    2911                      .dwattr $C$DW$321, DW_AT_accessibility(DW_ACCESS_public)
    2912              $C$DW$322       .dwtag  DW_TAG_member
    2913                      .dwattr $C$DW$322, DW_AT_type(*$C$DW$T$23)
    2914                      .dwattr $C$DW$322, DW_AT_name("pSegStat_dif2")
    2915                      .dwattr $C$DW$322, DW_AT_TI_symbol_name("_pSegStat_dif2")
    2916                      .dwattr $C$DW$322, DW_AT_data_member_location[DW_OP_plus_uconst 0x12]
    2917                      .dwattr $C$DW$322, DW_AT_accessibility(DW_ACCESS_public)
    2918              $C$DW$323       .dwtag  DW_TAG_member
    2919                      .dwattr $C$DW$323, DW_AT_type(*$C$DW$T$23)
    2920                      .dwattr $C$DW$323, DW_AT_name("pEnhanced")
    2921                      .dwattr $C$DW$323, DW_AT_TI_symbol_name("_pEnhanced")
    2922                      .dwattr $C$DW$323, DW_AT_data_member_location[DW_OP_plus_uconst 0x14]
    2923                      .dwattr $C$DW$323, DW_AT_accessibility(DW_ACCESS_public)
    2924              $C$DW$324       .dwtag  DW_TAG_member
    2925                      .dwattr $C$DW$324, DW_AT_type(*$C$DW$T$23)
    2926                      .dwattr $C$DW$324, DW_AT_name("bk_node_cnt")
    2927                      .dwattr $C$DW$324, DW_AT_TI_symbol_name("_bk_node_cnt")
    2928                      .dwattr $C$DW$324, DW_AT_data_member_location[DW_OP_plus_uconst 0x16]
TMS320C55x Assembler PC v4.4.1 Wed Sep 13 16:33:30 2017

Tools Copyright (c) 1996-2012 Texas Instruments Incorporated
C:\Users\a0221074\AppData\Local\Temp\0522410                         PAGE   67

    2929                      .dwattr $C$DW$324, DW_AT_accessibility(DW_ACCESS_public)
    2930                      .dwendtag $C$DW$T$25
    2931              
    2932              $C$DW$T$65      .dwtag  DW_TAG_typedef, DW_AT_name("FeaHLRAccType")
    2933                      .dwattr $C$DW$T$65, DW_AT_type(*$C$DW$T$25)
    2934                      .dwattr $C$DW$T$65, DW_AT_language(DW_LANG_C)
    2935              $C$DW$T$66      .dwtag  DW_TAG_pointer_type
    2936                      .dwattr $C$DW$T$66, DW_AT_type(*$C$DW$T$65)
    2937                      .dwattr $C$DW$T$66, DW_AT_address_class(0x17)
    2938              
    2939              $C$DW$T$26      .dwtag  DW_TAG_structure_type
    2940                      .dwattr $C$DW$T$26, DW_AT_byte_size(0x03)
    2941              $C$DW$325       .dwtag  DW_TAG_member
    2942                      .dwattr $C$DW$325, DW_AT_type(*$C$DW$T$9)
    2943                      .dwattr $C$DW$325, DW_AT_name("sym_code")
    2944                      .dwattr $C$DW$325, DW_AT_TI_symbol_name("_sym_code")
    2945                      .dwattr $C$DW$325, DW_AT_data_member_location[DW_OP_plus_uconst 0x0]
    2946                      .dwattr $C$DW$325, DW_AT_accessibility(DW_ACCESS_public)
    2947              $C$DW$326       .dwtag  DW_TAG_member
    2948                      .dwattr $C$DW$326, DW_AT_type(*$C$DW$T$9)
    2949                      .dwattr $C$DW$326, DW_AT_name("start_cell")
    2950                      .dwattr $C$DW$326, DW_AT_TI_symbol_name("_start_cell")
    2951                      .dwattr $C$DW$326, DW_AT_data_member_location[DW_OP_plus_uconst 0x1]
    2952                      .dwattr $C$DW$326, DW_AT_accessibility(DW_ACCESS_public)
    2953              $C$DW$327       .dwtag  DW_TAG_member
    2954                      .dwattr $C$DW$327, DW_AT_type(*$C$DW$T$9)
    2955                      .dwattr $C$DW$327, DW_AT_name("depth")
    2956                      .dwattr $C$DW$327, DW_AT_TI_symbol_name("_depth")
    2957                      .dwattr $C$DW$327, DW_AT_data_member_location[DW_OP_plus_uconst 0x2]
    2958                      .dwattr $C$DW$327, DW_AT_accessibility(DW_ACCESS_public)
    2959                      .dwendtag $C$DW$T$26
    2960              
    2961              $C$DW$T$68      .dwtag  DW_TAG_typedef, DW_AT_name("SymCell")
    2962                      .dwattr $C$DW$T$68, DW_AT_type(*$C$DW$T$26)
    2963                      .dwattr $C$DW$T$68, DW_AT_language(DW_LANG_C)
    2964              $C$DW$T$69      .dwtag  DW_TAG_pointer_type
    2965                      .dwattr $C$DW$T$69, DW_AT_type(*$C$DW$T$68)
    2966                      .dwattr $C$DW$T$69, DW_AT_address_class(0x17)
    2967              
    2968              $C$DW$T$27      .dwtag  DW_TAG_structure_type
    2969                      .dwattr $C$DW$T$27, DW_AT_byte_size(0x03)
    2970              $C$DW$328       .dwtag  DW_TAG_member
    2971                      .dwattr $C$DW$328, DW_AT_type(*$C$DW$T$8)
    2972                      .dwattr $C$DW$328, DW_AT_name("scr")
    2973                      .dwattr $C$DW$328, DW_AT_TI_symbol_name("_scr")
    2974                      .dwattr $C$DW$328, DW_AT_data_member_location[DW_OP_plus_uconst 0x0]
    2975                      .dwattr $C$DW$328, DW_AT_accessibility(DW_ACCESS_public)
    2976              $C$DW$329       .dwtag  DW_TAG_member
    2977                      .dwattr $C$DW$329, DW_AT_type(*$C$DW$T$9)
    2978                      .dwattr $C$DW$329, DW_AT_name("sym")
    2979                      .dwattr $C$DW$329, DW_AT_TI_symbol_name("_sym")
    2980                      .dwattr $C$DW$329, DW_AT_data_member_location[DW_OP_plus_uconst 0x1]
    2981                      .dwattr $C$DW$329, DW_AT_accessibility(DW_ACCESS_public)
    2982              $C$DW$330       .dwtag  DW_TAG_member
    2983                      .dwattr $C$DW$330, DW_AT_type(*$C$DW$T$9)
TMS320C55x Assembler PC v4.4.1 Wed Sep 13 16:33:30 2017

Tools Copyright (c) 1996-2012 Texas Instruments Incorporated
C:\Users\a0221074\AppData\Local\Temp\0522410                         PAGE   68

    2984                      .dwattr $C$DW$330, DW_AT_name("frm")
    2985                      .dwattr $C$DW$330, DW_AT_TI_symbol_name("_frm")
    2986                      .dwattr $C$DW$330, DW_AT_data_member_location[DW_OP_plus_uconst 0x2]
    2987                      .dwattr $C$DW$330, DW_AT_accessibility(DW_ACCESS_public)
    2988                      .dwendtag $C$DW$T$27
    2989              
    2990              $C$DW$T$70      .dwtag  DW_TAG_typedef, DW_AT_name("StateCell")
    2991                      .dwattr $C$DW$T$70, DW_AT_type(*$C$DW$T$27)
    2992                      .dwattr $C$DW$T$70, DW_AT_language(DW_LANG_C)
    2993              $C$DW$T$71      .dwtag  DW_TAG_pointer_type
    2994                      .dwattr $C$DW$T$71, DW_AT_type(*$C$DW$T$70)
    2995                      .dwattr $C$DW$T$71, DW_AT_address_class(0x17)
    2996              
    2997              $C$DW$T$28      .dwtag  DW_TAG_structure_type
    2998                      .dwattr $C$DW$T$28, DW_AT_byte_size(0x02)
    2999              $C$DW$331       .dwtag  DW_TAG_member
    3000                      .dwattr $C$DW$331, DW_AT_type(*$C$DW$T$9)
    3001                      .dwattr $C$DW$331, DW_AT_name("frm")
    3002                      .dwattr $C$DW$331, DW_AT_TI_symbol_name("_frm")
    3003                      .dwattr $C$DW$331, DW_AT_data_member_location[DW_OP_plus_uconst 0x0]
    3004                      .dwattr $C$DW$331, DW_AT_accessibility(DW_ACCESS_public)
    3005              $C$DW$332       .dwtag  DW_TAG_member
    3006                      .dwattr $C$DW$332, DW_AT_type(*$C$DW$T$9)
    3007                      .dwattr $C$DW$332, DW_AT_name("beam_idx")
    3008                      .dwattr $C$DW$332, DW_AT_TI_symbol_name("_beam_idx")
