TMS320C55x Assembler PC v4.4.1 Wed Sep 13 16:33:40 2017

Tools Copyright (c) 1996-2012 Texas Instruments Incorporated
C:\Users\a0221074\AppData\Local\Temp\2132810                         PAGE    1

    5241              ; Temporary Registers Used: None
       1              ;*******************************************************************************
       2              ;* TMS320C55x C/C++ Codegen                                          PC v4.4.1 *
       3              ;* Date/Time created: Wed Sep 13 16:33:38 2017                                 *
       4              ;*******************************************************************************
       5                      .compiler_opts --hll_source=on --mem_model:code=flat --mem_model:data=huge --object_format=coff --sil
       6                      .mmregs
       7                      .cpl_on
       8                      .arms_on
       9                      .c54cm_off
      10                      .asg AR6, FP
      11                      .asg XAR6, XFP
      12                      .asg DPH, MDP
      13                      .model call=c55_std
      14                      .model mem=huge
      15                      .noremark 5002  ; code respects overwrite rules
      16              ;*******************************************************************************
      17              ;* GLOBAL FILE PARAMETERS                                                      *
      18              ;*                                                                             *
      19              ;*   Architecture       : TMS320C55x                                           *
      20              ;*   Optimizing for     : Speed                                                *
      21              ;*   Memory             : Huge Model (23-Bit Data Pointers)                    *
      22              ;*   Calls              : Normal Library ASM calls                             *
      23              ;*   Debug Info         : Standard TI Debug Information                        *
      24              ;*******************************************************************************
      25              
      26              $C$DW$CU        .dwtag  DW_TAG_compile_unit
      27                      .dwattr $C$DW$CU, DW_AT_name("C:/Users/a0221074/Desktop/C5000/IBM_Watson_TIdesign_workarea/CSL_bitbuc
      28                      .dwattr $C$DW$CU, DW_AT_producer("TMS320C55x C/C++ Codegen PC v4.4.1 Copyright (c) 1996-2012 Texas In
      29                      .dwattr $C$DW$CU, DW_AT_TI_version(0x01)
      30                      .dwattr $C$DW$CU, DW_AT_comp_dir("C:\Users\a0221074\Desktop\C5000\IBM_Watson_TIdesign_workarea\CSL_bi
      31              
      32              $C$DW$1 .dwtag  DW_TAG_subprogram, DW_AT_name("malloc")
      33                      .dwattr $C$DW$1, DW_AT_TI_symbol_name("_malloc")
      34                      .dwattr $C$DW$1, DW_AT_type(*$C$DW$T$3)
      35                      .dwattr $C$DW$1, DW_AT_declaration
      36                      .dwattr $C$DW$1, DW_AT_external
      37              $C$DW$2 .dwtag  DW_TAG_formal_parameter
      38                      .dwattr $C$DW$2, DW_AT_type(*$C$DW$T$94)
      39                      .dwendtag $C$DW$1
      40              
      41              
      42              $C$DW$3 .dwtag  DW_TAG_subprogram, DW_AT_name("signal_to_power_spectrum")
      43                      .dwattr $C$DW$3, DW_AT_TI_symbol_name("_signal_to_power_spectrum")
      44                      .dwattr $C$DW$3, DW_AT_declaration
      45                      .dwattr $C$DW$3, DW_AT_external
      46              $C$DW$4 .dwtag  DW_TAG_formal_parameter
      47                      .dwattr $C$DW$4, DW_AT_type(*$C$DW$T$22)
      48              $C$DW$5 .dwtag  DW_TAG_formal_parameter
      49                      .dwattr $C$DW$5, DW_AT_type(*$C$DW$T$22)
      50              $C$DW$6 .dwtag  DW_TAG_formal_parameter
      51                      .dwattr $C$DW$6, DW_AT_type(*$C$DW$T$22)
      52              $C$DW$7 .dwtag  DW_TAG_formal_parameter
      53                      .dwattr $C$DW$7, DW_AT_type(*$C$DW$T$22)
      54              $C$DW$8 .dwtag  DW_TAG_formal_parameter
TMS320C55x Assembler PC v4.4.1 Wed Sep 13 16:33:40 2017

Tools Copyright (c) 1996-2012 Texas Instruments Incorporated
C:\Users\a0221074\AppData\Local\Temp\2132810                         PAGE    2

      55                      .dwattr $C$DW$8, DW_AT_type(*$C$DW$T$93)
      56              $C$DW$9 .dwtag  DW_TAG_formal_parameter
      57                      .dwattr $C$DW$9, DW_AT_type(*$C$DW$T$22)
      58                      .dwendtag $C$DW$3
      59              
      60              
      61              $C$DW$10        .dwtag  DW_TAG_subprogram, DW_AT_name("ss_power_spectrum_to_mfcc")
      62                      .dwattr $C$DW$10, DW_AT_TI_symbol_name("_ss_power_spectrum_to_mfcc")
      63                      .dwattr $C$DW$10, DW_AT_declaration
      64                      .dwattr $C$DW$10, DW_AT_external
      65              $C$DW$11        .dwtag  DW_TAG_formal_parameter
      66                      .dwattr $C$DW$11, DW_AT_type(*$C$DW$T$55)
      67              $C$DW$12        .dwtag  DW_TAG_formal_parameter
      68                      .dwattr $C$DW$12, DW_AT_type(*$C$DW$T$22)
      69              $C$DW$13        .dwtag  DW_TAG_formal_parameter
      70                      .dwattr $C$DW$13, DW_AT_type(*$C$DW$T$22)
      71              $C$DW$14        .dwtag  DW_TAG_formal_parameter
      72                      .dwattr $C$DW$14, DW_AT_type(*$C$DW$T$54)
      73              $C$DW$15        .dwtag  DW_TAG_formal_parameter
      74                      .dwattr $C$DW$15, DW_AT_type(*$C$DW$T$54)
      75              $C$DW$16        .dwtag  DW_TAG_formal_parameter
      76                      .dwattr $C$DW$16, DW_AT_type(*$C$DW$T$59)
      77              $C$DW$17        .dwtag  DW_TAG_formal_parameter
      78                      .dwattr $C$DW$17, DW_AT_type(*$C$DW$T$55)
      79              $C$DW$18        .dwtag  DW_TAG_formal_parameter
      80                      .dwattr $C$DW$18, DW_AT_type(*$C$DW$T$93)
      81              $C$DW$19        .dwtag  DW_TAG_formal_parameter
      82                      .dwattr $C$DW$19, DW_AT_type(*$C$DW$T$99)
      83                      .dwendtag $C$DW$10
      84              
      85              
      86              $C$DW$20        .dwtag  DW_TAG_subprogram, DW_AT_name("ss_est_frmEn")
      87                      .dwattr $C$DW$20, DW_AT_TI_symbol_name("_ss_est_frmEn")
      88                      .dwattr $C$DW$20, DW_AT_type(*$C$DW$T$8)
      89                      .dwattr $C$DW$20, DW_AT_declaration
      90                      .dwattr $C$DW$20, DW_AT_external
      91              $C$DW$21        .dwtag  DW_TAG_formal_parameter
      92                      .dwattr $C$DW$21, DW_AT_type(*$C$DW$T$8)
      93              $C$DW$22        .dwtag  DW_TAG_formal_parameter
      94                      .dwattr $C$DW$22, DW_AT_type(*$C$DW$T$22)
      95              $C$DW$23        .dwtag  DW_TAG_formal_parameter
      96                      .dwattr $C$DW$23, DW_AT_type(*$C$DW$T$8)
      97                      .dwendtag $C$DW$20
      98              
      99              
     100              $C$DW$24        .dwtag  DW_TAG_subprogram, DW_AT_name("ss_update_meanEn")
     101                      .dwattr $C$DW$24, DW_AT_TI_symbol_name("_ss_update_meanEn")
     102                      .dwattr $C$DW$24, DW_AT_type(*$C$DW$T$8)
     103                      .dwattr $C$DW$24, DW_AT_declaration
     104                      .dwattr $C$DW$24, DW_AT_external
     105              $C$DW$25        .dwtag  DW_TAG_formal_parameter
     106                      .dwattr $C$DW$25, DW_AT_type(*$C$DW$T$8)
     107              $C$DW$26        .dwtag  DW_TAG_formal_parameter
     108                      .dwattr $C$DW$26, DW_AT_type(*$C$DW$T$22)
     109                      .dwendtag $C$DW$24
TMS320C55x Assembler PC v4.4.1 Wed Sep 13 16:33:40 2017

Tools Copyright (c) 1996-2012 Texas Instruments Incorporated
C:\Users\a0221074\AppData\Local\Temp\2132810                         PAGE    3

     110              
     111              
     112              $C$DW$27        .dwtag  DW_TAG_subprogram, DW_AT_name("update_level")
     113                      .dwattr $C$DW$27, DW_AT_TI_symbol_name("_update_level")
     114                      .dwattr $C$DW$27, DW_AT_type(*$C$DW$T$8)
     115                      .dwattr $C$DW$27, DW_AT_declaration
     116                      .dwattr $C$DW$27, DW_AT_external
     117              $C$DW$28        .dwtag  DW_TAG_formal_parameter
     118                      .dwattr $C$DW$28, DW_AT_type(*$C$DW$T$8)
     119              $C$DW$29        .dwtag  DW_TAG_formal_parameter
     120                      .dwattr $C$DW$29, DW_AT_type(*$C$DW$T$8)
     121              $C$DW$30        .dwtag  DW_TAG_formal_parameter
     122                      .dwattr $C$DW$30, DW_AT_type(*$C$DW$T$8)
     123              $C$DW$31        .dwtag  DW_TAG_formal_parameter
     124                      .dwattr $C$DW$31, DW_AT_type(*$C$DW$T$8)
     125                      .dwendtag $C$DW$27
     126              
     127              
     128              $C$DW$32        .dwtag  DW_TAG_subprogram, DW_AT_name("hlr_expn")
     129                      .dwattr $C$DW$32, DW_AT_TI_symbol_name("_hlr_expn")
     130                      .dwattr $C$DW$32, DW_AT_type(*$C$DW$T$9)
     131                      .dwattr $C$DW$32, DW_AT_declaration
     132                      .dwattr $C$DW$32, DW_AT_external
     133              $C$DW$33        .dwtag  DW_TAG_formal_parameter
     134                      .dwattr $C$DW$33, DW_AT_type(*$C$DW$T$8)
     135              $C$DW$34        .dwtag  DW_TAG_formal_parameter
     136                      .dwattr $C$DW$34, DW_AT_type(*$C$DW$T$8)
     137                      .dwendtag $C$DW$32
     138              
     139              
     140              $C$DW$35        .dwtag  DW_TAG_subprogram, DW_AT_name("q15_x")
     141                      .dwattr $C$DW$35, DW_AT_TI_symbol_name("_q15_x")
     142                      .dwattr $C$DW$35, DW_AT_type(*$C$DW$T$12)
     143                      .dwattr $C$DW$35, DW_AT_declaration
     144                      .dwattr $C$DW$35, DW_AT_external
     145              $C$DW$36        .dwtag  DW_TAG_formal_parameter
     146                      .dwattr $C$DW$36, DW_AT_type(*$C$DW$T$21)
     147              $C$DW$37        .dwtag  DW_TAG_formal_parameter
     148                      .dwattr $C$DW$37, DW_AT_type(*$C$DW$T$12)
     149                      .dwendtag $C$DW$35
     150              
     151              
     152              $C$DW$38        .dwtag  DW_TAG_subprogram, DW_AT_name("div32_32_Q")
     153                      .dwattr $C$DW$38, DW_AT_TI_symbol_name("_div32_32_Q")
     154                      .dwattr $C$DW$38, DW_AT_type(*$C$DW$T$12)
     155                      .dwattr $C$DW$38, DW_AT_declaration
     156                      .dwattr $C$DW$38, DW_AT_external
     157              $C$DW$39        .dwtag  DW_TAG_formal_parameter
     158                      .dwattr $C$DW$39, DW_AT_type(*$C$DW$T$12)
     159              $C$DW$40        .dwtag  DW_TAG_formal_parameter
     160                      .dwattr $C$DW$40, DW_AT_type(*$C$DW$T$12)
     161              $C$DW$41        .dwtag  DW_TAG_formal_parameter
     162                      .dwattr $C$DW$41, DW_AT_type(*$C$DW$T$21)
     163                      .dwendtag $C$DW$38
     164              
TMS320C55x Assembler PC v4.4.1 Wed Sep 13 16:33:40 2017

Tools Copyright (c) 1996-2012 Texas Instruments Incorporated
C:\Users\a0221074\AppData\Local\Temp\2132810                         PAGE    4

     165              
     166              $C$DW$42        .dwtag  DW_TAG_subprogram, DW_AT_name("log_polyfit")
     167                      .dwattr $C$DW$42, DW_AT_TI_symbol_name("_log_polyfit")
     168                      .dwattr $C$DW$42, DW_AT_type(*$C$DW$T$8)
     169                      .dwattr $C$DW$42, DW_AT_declaration
     170                      .dwattr $C$DW$42, DW_AT_external
     171              $C$DW$43        .dwtag  DW_TAG_formal_parameter
     172                      .dwattr $C$DW$43, DW_AT_type(*$C$DW$T$12)
     173              $C$DW$44        .dwtag  DW_TAG_formal_parameter
     174                      .dwattr $C$DW$44, DW_AT_type(*$C$DW$T$8)
     175                      .dwendtag $C$DW$42
     176              
     177              
     178              $C$DW$45        .dwtag  DW_TAG_subprogram, DW_AT_name("pow_polyfit")
     179                      .dwattr $C$DW$45, DW_AT_TI_symbol_name("_pow_polyfit")
     180                      .dwattr $C$DW$45, DW_AT_type(*$C$DW$T$12)
     181                      .dwattr $C$DW$45, DW_AT_declaration
     182                      .dwattr $C$DW$45, DW_AT_external
     183              $C$DW$46        .dwtag  DW_TAG_formal_parameter
     184                      .dwattr $C$DW$46, DW_AT_type(*$C$DW$T$8)
     185                      .dwendtag $C$DW$45
     186              
     187              ;       C:\ti\ccsv7\tools\compiler\c5500_4.4.1\bin\acp55.exe -@C:\\Users\\a0221074\\AppData\\Local\\Temp\\213
     188 000000               .sect   ".text:_init_spect_sub"
     189                      .clink
     190                      .global _init_spect_sub
     191              
     192              $C$DW$47        .dwtag  DW_TAG_subprogram, DW_AT_name("init_spect_sub")
     193                      .dwattr $C$DW$47, DW_AT_low_pc(_init_spect_sub)
     194                      .dwattr $C$DW$47, DW_AT_high_pc(0x00)
     195                      .dwattr $C$DW$47, DW_AT_TI_symbol_name("_init_spect_sub")
     196                      .dwattr $C$DW$47, DW_AT_external
     197                      .dwattr $C$DW$47, DW_AT_TI_begin_file("C:/Users/a0221074/Desktop/C5000/IBM_Watson_TIdesign_workarea/C
     198                      .dwattr $C$DW$47, DW_AT_TI_begin_line(0x3d)
     199                      .dwattr $C$DW$47, DW_AT_TI_begin_column(0x1d)
     200                      .dwattr $C$DW$47, DW_AT_TI_max_frame_size(0x04)
     201                      .dwpsn  file "C:/Users/a0221074/Desktop/C5000/IBM_Watson_TIdesign_workarea/CSL_bitbucket/c55_csl/c55x
     202              
     203                      .dwfde $C$DW$CIE, _init_spect_sub
     204              $C$DW$48        .dwtag  DW_TAG_formal_parameter, DW_AT_name("noise_smooth")
     205                      .dwattr $C$DW$48, DW_AT_TI_symbol_name("_noise_smooth")
     206                      .dwattr $C$DW$48, DW_AT_type(*$C$DW$T$22)
     207                      .dwattr $C$DW$48, DW_AT_location[DW_OP_reg17]
     208              ;*******************************************************************************
     209              ;* FUNCTION NAME: init_spect_sub                                               *
     210              ;*                                                                             *
     211              ;*   Function Uses Regs : AR0,XAR0,AR3,XAR3,SP,M40,SATA,SATD,RDM,FRCT,SMUL     *
     212              ;*   Stack Frame        : Compact (No Frame Pointer, w/ debug)                 *
     213              ;*   Total Frame Size   : 4 words                                              *
     214              ;*                        (2 return address/alignment)                         *
     215              ;*                        (2 local values)                                     *
     216              ;*   Min System Stack   : 1 word                                               *
     217              ;*******************************************************************************
     218 000000       _init_spect_sub:
     219                      .dwcfi  cfa_offset, 1
TMS320C55x Assembler PC v4.4.1 Wed Sep 13 16:33:40 2017

Tools Copyright (c) 1996-2012 Texas Instruments Incorporated
C:\Users\a0221074\AppData\Local\Temp\2132810                         PAGE    5

     220                      .dwcfi  save_reg_to_mem, 91, -1
     221 000000 4EFD          AADD #-3, SP
     222                      .dwcfi  cfa_offset, 4
     223              $C$DW$49        .dwtag  DW_TAG_variable, DW_AT_name("noise_smooth")
     224                      .dwattr $C$DW$49, DW_AT_TI_symbol_name("_noise_smooth")
     225                      .dwattr $C$DW$49, DW_AT_type(*$C$DW$T$22)
     226                      .dwattr $C$DW$49, DW_AT_location[DW_OP_bregx 0x24 0]
     227 000002 EB00          MOV XAR0, dbl(*SP(#0))
         000004 85   
     228                      .dwpsn  file "C:/Users/a0221074/Desktop/C5000/IBM_Watson_TIdesign_workarea/CSL_bitbucket/c55_csl/c55x
     229 000005 ED00          MOV dbl(*SP(#0)), XAR3
         000007 BF   
     230 000008 FB61          MOV #16384, *AR3 ; |63| 
         00000a 4000 
     231                      .dwpsn  file "C:/Users/a0221074/Desktop/C5000/IBM_Watson_TIdesign_workarea/CSL_bitbucket/c55_csl/c55x
     232 00000c 4E03          AADD #3, SP
     233                      .dwcfi  cfa_offset, 1
     234              $C$DW$50        .dwtag  DW_TAG_TI_branch
     235                      .dwattr $C$DW$50, DW_AT_low_pc(0x00)
     236                      .dwattr $C$DW$50, DW_AT_TI_return
     237 00000e 4804          RET
     238                                                      ; return occurs
     239                      .dwattr $C$DW$47, DW_AT_TI_end_file("C:/Users/a0221074/Desktop/C5000/IBM_Watson_TIdesign_workarea/CSL
     240                      .dwattr $C$DW$47, DW_AT_TI_end_line(0x40)
     241                      .dwattr $C$DW$47, DW_AT_TI_end_column(0x01)
     242                      .dwendentry
     243                      .dwendtag $C$DW$47
     244              
     245 000000               .sect   ".text:_noise_subs"
     246                      .clink
     247                      .global _noise_subs
     248              
     249              $C$DW$51        .dwtag  DW_TAG_subprogram, DW_AT_name("noise_subs")
     250                      .dwattr $C$DW$51, DW_AT_low_pc(_noise_subs)
     251                      .dwattr $C$DW$51, DW_AT_high_pc(0x00)
     252                      .dwattr $C$DW$51, DW_AT_TI_symbol_name("_noise_subs")
     253                      .dwattr $C$DW$51, DW_AT_external
     254                      .dwattr $C$DW$51, DW_AT_TI_begin_file("C:/Users/a0221074/Desktop/C5000/IBM_Watson_TIdesign_workarea/C
     255                      .dwattr $C$DW$51, DW_AT_TI_begin_line(0x49)
     256                      .dwattr $C$DW$51, DW_AT_TI_begin_column(0x1d)
     257                      .dwattr $C$DW$51, DW_AT_TI_max_frame_size(0x22)
     258                      .dwpsn  file "C:/Users/a0221074/Desktop/C5000/IBM_Watson_TIdesign_workarea/CSL_bitbucket/c55_csl/c55x
     259              
     260                      .dwfde $C$DW$CIE, _noise_subs
     261              $C$DW$52        .dwtag  DW_TAG_formal_parameter, DW_AT_name("ps_signal")
     262                      .dwattr $C$DW$52, DW_AT_TI_symbol_name("_ps_signal")
     263                      .dwattr $C$DW$52, DW_AT_type(*$C$DW$T$22)
     264                      .dwattr $C$DW$52, DW_AT_location[DW_OP_reg17]
     265              $C$DW$53        .dwtag  DW_TAG_formal_parameter, DW_AT_name("norm")
     266                      .dwattr $C$DW$53, DW_AT_TI_symbol_name("_norm")
     267                      .dwattr $C$DW$53, DW_AT_type(*$C$DW$T$8)
     268                      .dwattr $C$DW$53, DW_AT_location[DW_OP_reg12]
     269              $C$DW$54        .dwtag  DW_TAG_formal_parameter, DW_AT_name("ps_noisy_smoothed")
     270                      .dwattr $C$DW$54, DW_AT_TI_symbol_name("_ps_noisy_smoothed")
     271                      .dwattr $C$DW$54, DW_AT_type(*$C$DW$T$22)
TMS320C55x Assembler PC v4.4.1 Wed Sep 13 16:33:40 2017

Tools Copyright (c) 1996-2012 Texas Instruments Incorporated
C:\Users\a0221074\AppData\Local\Temp\2132810                         PAGE    6

     272                      .dwattr $C$DW$54, DW_AT_location[DW_OP_reg19]
     273              $C$DW$55        .dwtag  DW_TAG_formal_parameter, DW_AT_name("noise_floor")
     274                      .dwattr $C$DW$55, DW_AT_TI_symbol_name("_noise_floor")
     275                      .dwattr $C$DW$55, DW_AT_type(*$C$DW$T$22)
     276                      .dwattr $C$DW$55, DW_AT_location[DW_OP_reg21]
     277              $C$DW$56        .dwtag  DW_TAG_formal_parameter, DW_AT_name("count_frm")
     278                      .dwattr $C$DW$56, DW_AT_TI_symbol_name("_count_frm")
     279                      .dwattr $C$DW$56, DW_AT_type(*$C$DW$T$9)
     280                      .dwattr $C$DW$56, DW_AT_location[DW_OP_reg13]
     281              $C$DW$57        .dwtag  DW_TAG_formal_parameter, DW_AT_name("noise_smooth")
     282                      .dwattr $C$DW$57, DW_AT_TI_symbol_name("_noise_smooth")
     283                      .dwattr $C$DW$57, DW_AT_type(*$C$DW$T$22)
     284                      .dwattr $C$DW$57, DW_AT_location[DW_OP_reg23]
     285              ;*******************************************************************************
     286              ;* FUNCTION NAME: noise_subs                                                   *
     287              ;*                                                                             *
     288              ;*   Function Uses Regs : AC0,AC0,AC1,AC1,T0,T1,AR0,XAR0,AR1,XAR1,AR2,XAR2,AR3,*
     289              ;*                        XAR3,SP,CARRY,TC1,M40,SATA,SATD,RDM,FRCT,SMUL        *
     290              ;*   Stack Frame        : Compact (No Frame Pointer, w/ debug)                 *
     291              ;*   Total Frame Size   : 34 words                                             *
     292              ;*                        (2 return address/alignment)                         *
     293              ;*                        (32 local values)                                    *
     294              ;*   Min System Stack   : 1 word                                               *
     295              ;*******************************************************************************
     296 000000       _noise_subs:
     297                      .dwcfi  cfa_offset, 1
     298                      .dwcfi  save_reg_to_mem, 91, -1
     299 000000 4EDF          AADD #-33, SP
     300                      .dwcfi  cfa_offset, 34
     301              $C$DW$58        .dwtag  DW_TAG_variable, DW_AT_name("ps_signal")
     302                      .dwattr $C$DW$58, DW_AT_TI_symbol_name("_ps_signal")
     303                      .dwattr $C$DW$58, DW_AT_type(*$C$DW$T$22)
     304                      .dwattr $C$DW$58, DW_AT_location[DW_OP_bregx 0x24 0]
     305              $C$DW$59        .dwtag  DW_TAG_variable, DW_AT_name("norm")
     306                      .dwattr $C$DW$59, DW_AT_TI_symbol_name("_norm")
     307                      .dwattr $C$DW$59, DW_AT_type(*$C$DW$T$8)
     308                      .dwattr $C$DW$59, DW_AT_location[DW_OP_bregx 0x24 2]
     309              $C$DW$60        .dwtag  DW_TAG_variable, DW_AT_name("ps_noisy_smoothed")
     310                      .dwattr $C$DW$60, DW_AT_TI_symbol_name("_ps_noisy_smoothed")
     311                      .dwattr $C$DW$60, DW_AT_type(*$C$DW$T$22)
     312                      .dwattr $C$DW$60, DW_AT_location[DW_OP_bregx 0x24 4]
     313              $C$DW$61        .dwtag  DW_TAG_variable, DW_AT_name("noise_floor")
     314                      .dwattr $C$DW$61, DW_AT_TI_symbol_name("_noise_floor")
     315                      .dwattr $C$DW$61, DW_AT_type(*$C$DW$T$22)
     316                      .dwattr $C$DW$61, DW_AT_location[DW_OP_bregx 0x24 6]
     317              $C$DW$62        .dwtag  DW_TAG_variable, DW_AT_name("count_frm")
     318                      .dwattr $C$DW$62, DW_AT_TI_symbol_name("_count_frm")
     319                      .dwattr $C$DW$62, DW_AT_type(*$C$DW$T$9)
     320                      .dwattr $C$DW$62, DW_AT_location[DW_OP_bregx 0x24 8]
     321              $C$DW$63        .dwtag  DW_TAG_variable, DW_AT_name("noise_smooth")
     322                      .dwattr $C$DW$63, DW_AT_TI_symbol_name("_noise_smooth")
     323                      .dwattr $C$DW$63, DW_AT_type(*$C$DW$T$22)
     324                      .dwattr $C$DW$63, DW_AT_location[DW_OP_bregx 0x24 10]
     325              $C$DW$64        .dwtag  DW_TAG_variable, DW_AT_name("tmp_l")
     326                      .dwattr $C$DW$64, DW_AT_TI_symbol_name("_tmp_l")
TMS320C55x Assembler PC v4.4.1 Wed Sep 13 16:33:40 2017

Tools Copyright (c) 1996-2012 Texas Instruments Incorporated
C:\Users\a0221074\AppData\Local\Temp\2132810                         PAGE    7

     327                      .dwattr $C$DW$64, DW_AT_type(*$C$DW$T$12)
     328                      .dwattr $C$DW$64, DW_AT_location[DW_OP_bregx 0x24 12]
     329              $C$DW$65        .dwtag  DW_TAG_variable, DW_AT_name("reference_lin")
     330                      .dwattr $C$DW$65, DW_AT_TI_symbol_name("_reference_lin")
     331                      .dwattr $C$DW$65, DW_AT_type(*$C$DW$T$12)
     332                      .dwattr $C$DW$65, DW_AT_location[DW_OP_bregx 0x24 14]
     333              $C$DW$66        .dwtag  DW_TAG_variable, DW_AT_name("signal_lin")
     334                      .dwattr $C$DW$66, DW_AT_TI_symbol_name("_signal_lin")
     335                      .dwattr $C$DW$66, DW_AT_type(*$C$DW$T$12)
     336                      .dwattr $C$DW$66, DW_AT_location[DW_OP_bregx 0x24 16]
     337              $C$DW$67        .dwtag  DW_TAG_variable, DW_AT_name("noise_lin")
     338                      .dwattr $C$DW$67, DW_AT_TI_symbol_name("_noise_lin")
     339                      .dwattr $C$DW$67, DW_AT_type(*$C$DW$T$12)
     340                      .dwattr $C$DW$67, DW_AT_location[DW_OP_bregx 0x24 18]
     341              $C$DW$68        .dwtag  DW_TAG_variable, DW_AT_name("clean_lin")
     342                      .dwattr $C$DW$68, DW_AT_TI_symbol_name("_clean_lin")
     343                      .dwattr $C$DW$68, DW_AT_type(*$C$DW$T$12)
     344                      .dwattr $C$DW$68, DW_AT_location[DW_OP_bregx 0x24 20]
     345              $C$DW$69        .dwtag  DW_TAG_variable, DW_AT_name("diff_lin")
     346                      .dwattr $C$DW$69, DW_AT_TI_symbol_name("_diff_lin")
     347                      .dwattr $C$DW$69, DW_AT_type(*$C$DW$T$12)
     348                      .dwattr $C$DW$69, DW_AT_location[DW_OP_bregx 0x24 22]
     349              $C$DW$70        .dwtag  DW_TAG_variable, DW_AT_name("i")
     350                      .dwattr $C$DW$70, DW_AT_TI_symbol_name("_i")
     351                      .dwattr $C$DW$70, DW_AT_type(*$C$DW$T$8)
     352                      .dwattr $C$DW$70, DW_AT_location[DW_OP_bregx 0x24 24]
     353              $C$DW$71        .dwtag  DW_TAG_variable, DW_AT_name("dim")
     354                      .dwattr $C$DW$71, DW_AT_TI_symbol_name("_dim")
     355                      .dwattr $C$DW$71, DW_AT_type(*$C$DW$T$8)
     356                      .dwattr $C$DW$71, DW_AT_location[DW_OP_bregx 0x24 25]
     357              $C$DW$72        .dwtag  DW_TAG_variable, DW_AT_name("signal_abs_log2")
     358                      .dwattr $C$DW$72, DW_AT_TI_symbol_name("_signal_abs_log2")
     359                      .dwattr $C$DW$72, DW_AT_type(*$C$DW$T$8)
     360                      .dwattr $C$DW$72, DW_AT_location[DW_OP_bregx 0x24 26]
     361              $C$DW$73        .dwtag  DW_TAG_variable, DW_AT_name("noise_abs_log2")
     362                      .dwattr $C$DW$73, DW_AT_TI_symbol_name("_noise_abs_log2")
     363                      .dwattr $C$DW$73, DW_AT_type(*$C$DW$T$8)
     364                      .dwattr $C$DW$73, DW_AT_location[DW_OP_bregx 0x24 27]
     365              $C$DW$74        .dwtag  DW_TAG_variable, DW_AT_name("counter_sh")
     366                      .dwattr $C$DW$74, DW_AT_TI_symbol_name("_counter_sh")
     367                      .dwattr $C$DW$74, DW_AT_type(*$C$DW$T$8)
     368                      .dwattr $C$DW$74, DW_AT_location[DW_OP_bregx 0x24 28]
     369              $C$DW$75        .dwtag  DW_TAG_variable, DW_AT_name("max_abs")
     370                      .dwattr $C$DW$75, DW_AT_TI_symbol_name("_max_abs")
     371                      .dwattr $C$DW$75, DW_AT_type(*$C$DW$T$8)
     372                      .dwattr $C$DW$75, DW_AT_location[DW_OP_bregx 0x24 29]
     373              $C$DW$76        .dwtag  DW_TAG_variable, DW_AT_name("norm_pow")
     374                      .dwattr $C$DW$76, DW_AT_TI_symbol_name("_norm_pow")
     375                      .dwattr $C$DW$76, DW_AT_type(*$C$DW$T$8)
     376                      .dwattr $C$DW$76, DW_AT_location[DW_OP_bregx 0x24 30]
     377              $C$DW$77        .dwtag  DW_TAG_variable, DW_AT_name("total_norm")
     378                      .dwattr $C$DW$77, DW_AT_TI_symbol_name("_total_norm")
     379                      .dwattr $C$DW$77, DW_AT_type(*$C$DW$T$8)
     380                      .dwattr $C$DW$77, DW_AT_location[DW_OP_bregx 0x24 31]
     381 000002 EB14          MOV XAR3, dbl(*SP(#10))
TMS320C55x Assembler PC v4.4.1 Wed Sep 13 16:33:40 2017

Tools Copyright (c) 1996-2012 Texas Instruments Incorporated
C:\Users\a0221074\AppData\Local\Temp\2132810                         PAGE    8

         000004 B5   
     382 000005 C510          MOV T1, *SP(#8) ; |75| 
     383 000007 EB0C          MOV XAR2, dbl(*SP(#6))
         000009 A5   
     384 00000a EB08          MOV XAR1, dbl(*SP(#4))
         00000c 95   
     385 00000d C404          MOV T0, *SP(#2) ; |75| 
     386 00000f EB00          MOV XAR0, dbl(*SP(#0))
         000011 85   
     387                      .dwpsn  file "C:/Users/a0221074/Desktop/C5000/IBM_Watson_TIdesign_workarea/CSL_bitbucket/c55_csl/c55x
     388 000012 FB32          MOV #128, *SP(#25) ; |78| 
         000014 0080 
     389                      .dwpsn  file "C:/Users/a0221074/Desktop/C5000/IBM_Watson_TIdesign_workarea/CSL_bitbucket/c55_csl/c55x
     390 000016 E630          MOV #0, *SP(#24) ; |90| 
         000018 00   
     391                      .dwpsn  file "C:/Users/a0221074/Desktop/C5000/IBM_Watson_TIdesign_workarea/CSL_bitbucket/c55_csl/c55x
     392 000019 A932          MOV *SP(#25), AR1 ; |90| 
     393 00001b AA30          MOV *SP(#24), AR2 ; |90| 
     394 00001d 12A8          CMP AR2 >= AR1, TC1 ; |90| 
         00001f 90   
     395 000020 6D64          BCC $C$L20,TC1 ; |90| 
         000022 01C1 
     396                                                      ; branchcc occurs ; |90| 
     397 000024       $C$L1:    
     398 000024       $C$DW$L$_noise_subs$2$B:
     399                      .dwpsn  file "C:/Users/a0221074/Desktop/C5000/IBM_Watson_TIdesign_workarea/CSL_bitbucket/c55_csl/c55x
     400 000024 22A4          MOV AR2, T0
     401 000026 ED00          MOV dbl(*SP(#0)), XAR3
         000028 BF   
     402 000029 A06B          MOV *AR3(T0), AC0 ; |91| 
     403 00002b EB18          MOV AC0, dbl(*SP(#12)) ; |91| 
         00002d 08   
     404                      .dwpsn  file "C:/Users/a0221074/Desktop/C5000/IBM_Watson_TIdesign_workarea/CSL_bitbucket/c55_csl/c55x
     405 00002e ED18          MOV dbl(*SP(#12)), AC0 ; |92| 
         000030 08   
     406 000031 66B0          BCC $C$L2,AC0 <= #0 ; |92| 
     407                                                      ; branchcc occurs ; |92| 
     408 000033       $C$DW$L$_noise_subs$2$E:
     409 000033       $C$DW$L$_noise_subs$3$B:
     410                      .dwpsn  file "C:/Users/a0221074/Desktop/C5000/IBM_Watson_TIdesign_workarea/CSL_bitbucket/c55_csl/c55x
     411 000033 ED18          MOV dbl(*SP(#12)), AC0 ; |93| 
         000035 08   
     412 000036 A404          MOV *SP(#2), T0 ; |93| 
     413              $C$DW$78        .dwtag  DW_TAG_TI_branch
     414                      .dwattr $C$DW$78, DW_AT_low_pc(0x00)
     415                      .dwattr $C$DW$78, DW_AT_name("_log_polyfit")
     416                      .dwattr $C$DW$78, DW_AT_TI_call
     417 000038 6C00          CALL #_log_polyfit ; |93| 
         00003a 0000!
     418                                                      ; call occurs [#_log_polyfit] ; |93| 
     419 00003c C434          MOV T0, *SP(#26) ; |93| 
     420 00003e 4A13          B $C$L5   ; |93| 
     421                                                      ; branch occurs ; |93| 
     422 000040       $C$DW$L$_noise_subs$3$E:
     423 000040       $C$L2:    
TMS320C55x Assembler PC v4.4.1 Wed Sep 13 16:33:40 2017

Tools Copyright (c) 1996-2012 Texas Instruments Incorporated
C:\Users\a0221074\AppData\Local\Temp\2132810                         PAGE    9

     424 000040       $C$DW$L$_noise_subs$4$B:
     425                      .dwpsn  file "C:/Users/a0221074/Desktop/C5000/IBM_Watson_TIdesign_workarea/CSL_bitbucket/c55_csl/c55x
     426 000040 A910          MOV *SP(#8), AR1 ; |95| 
     427 000042 6319          BCC $C$L3,AR1 != #0 ; |95| 
     428                                                      ; branchcc occurs ; |95| 
     429 000044       $C$DW$L$_noise_subs$4$E:
     430 000044       $C$DW$L$_noise_subs$5$B:
     431 000044 7628          MOV #10240, AC0 ; |95| 
         000046 0008 
     432 000048 4A07          B $C$L4   ; |95| 
     433                                                      ; branch occurs ; |95| 
     434 00004a       $C$DW$L$_noise_subs$5$E:
     435 00004a       $C$L3:    
     436 00004a       $C$DW$L$_noise_subs$6$B:
     437 00004a A430          MOV *SP(#24), T0 ; |95| 
     438 00004c ED0C          MOV dbl(*SP(#6)), XAR3
         00004e BF   
     439 00004f A06B          MOV *AR3(T0), AC0 ; |95| 
     440 000051       $C$DW$L$_noise_subs$6$E:
     441 000051       $C$L4:    
     442 000051       $C$DW$L$_noise_subs$7$B:
     443 000051 C034          MOV AC0, *SP(#26) ; |95| 
     444 000053       $C$DW$L$_noise_subs$7$E:
     445 000053       $C$L5:    
     446 000053       $C$DW$L$_noise_subs$8$B:
     447                      .dwpsn  file "C:/Users/a0221074/Desktop/C5000/IBM_Watson_TIdesign_workarea/CSL_bitbucket/c55_csl/c55x
     448 000053 A910          MOV *SP(#8), AR1 ; |97| 
     449 000055 0419          BCC $C$L6,AR1 != #0 ; |97| 
         000057 10   
     450                                                      ; branchcc occurs ; |97| 
     451 000058       $C$DW$L$_noise_subs$8$E:
     452 000058       $C$DW$L$_noise_subs$9$B:
     453                      .dwpsn  file "C:/Users/a0221074/Desktop/C5000/IBM_Watson_TIdesign_workarea/CSL_bitbucket/c55_csl/c55x
     454 000058 ED08          MOV dbl(*SP(#4)), XAR3
         00005a BF   
     455 00005b A430          MOV *SP(#24), T0 ; |97| 
     456 00005d A934          MOV *SP(#26), AR1 ; |97| 
     457 00005f C96B          MOV AR1, *AR3(T0) ; |97| 
     458 000061 A430          MOV *SP(#24), T0 ; |97| 
     459 000063 ED0C          MOV dbl(*SP(#6)), XAR3
         000065 BF   
     460 000066 C96B          MOV AR1, *AR3(T0) ; |97| 
     461 000068       $C$DW$L$_noise_subs$9$E:
     462 000068       $C$L6:    
     463 000068       $C$DW$L$_noise_subs$10$B:
     464                      .dwpsn  file "C:/Users/a0221074/Desktop/C5000/IBM_Watson_TIdesign_workarea/CSL_bitbucket/c55_csl/c55x
     465 000068 ED14          MOV dbl(*SP(#10)), XAR2
         00006a AF   
     466 00006b A430          MOV *SP(#24), T0 ; |101| 
     467 00006d ED08          MOV dbl(*SP(#4)), XAR3
         00006f BF   
     468 000070 767F          MOV #32767, AR1 ; |101| 
         000072 FF98 
     469 000074 D741          SUB *AR2, AR1, T1 ; |101| 
         000076 59   
TMS320C55x Assembler PC v4.4.1 Wed Sep 13 16:33:40 2017

Tools Copyright (c) 1996-2012 Texas Instruments Incorporated
C:\Users\a0221074\AppData\Local\Temp\2132810                         PAGE   10

     470 000077 D36B          MPYM *AR3(T0), T1, AC0 ; |101| 
         000079 05   
     471 00007a ED14          MOV dbl(*SP(#10)), XAR3
         00007c BF   
     472 00007d B134          MOV *SP(#26) << #16, AC1 ; |101| 
     473 00007f D261          MACM *AR3, AC1, AC0 ; |101| 
         000081 01   
     474 000082 EB18          MOV AC0, dbl(*SP(#12)) ; |101| 
         000084 08   
     475                      .dwpsn  file "C:/Users/a0221074/Desktop/C5000/IBM_Watson_TIdesign_workarea/CSL_bitbucket/c55_csl/c55x
     476 000085 A430          MOV *SP(#24), T0 ; |102| 
     477 000087 ED08          MOV dbl(*SP(#4)), XAR3
         000089 BF   
     478 00008a 7640          MOV #16384, AC0 ; |102| 
         00008c 0008 
     479 00008e ED18          ADD dbl(*SP(#12)), AC0, AC0 ; |102| 
         000090 00   
     480 000091 1005          SFTS AC0, #-15, AC0 ; |102| 
         000093 31   
     481 000094 C06B          MOV AC0, *AR3(T0) ; |102| 
     482                      .dwpsn  file "C:/Users/a0221074/Desktop/C5000/IBM_Watson_TIdesign_workarea/CSL_bitbucket/c55_csl/c55x
     483 000096 A430          MOV *SP(#24), T0 ; |105| 
     484 000098 ED08          MOV dbl(*SP(#4)), XAR3
         00009a BF   
     485 00009b A96B          MOV *AR3(T0), AR1 ; |105| 
     486 00009d ED0C          MOV dbl(*SP(#6)), XAR3
         00009f BF   
     487 0000a0 767A          MOV #31457, AR0 ; |105| 
         0000a2 E188 
     488 0000a4 A56B          MOV *AR3(T0), T1 ; |105| 
     489              
     490 0000a6 762F          MOV #12055, AR1 ; |105| 
         0000a8 1798 
     491 0000aa 2394  ||      MOV AR1, T0 ; |105| 
     492              
     493              $C$DW$79        .dwtag  DW_TAG_TI_branch
     494                      .dwattr $C$DW$79, DW_AT_low_pc(0x00)
     495                      .dwattr $C$DW$79, DW_AT_name("_update_level")
     496                      .dwattr $C$DW$79, DW_AT_TI_call
     497 0000ac 6C00          CALL #_update_level ; |105| 
         0000ae 0000!
     498                                                      ; call occurs [#_update_level] ; |105| 
     499 0000b0 ED0C          MOV dbl(*SP(#6)), XAR3
         0000b2 BF   
     500              
     501 0000b3 A430          MOV *SP(#24), T0 ; |105| 
     502 0000b5 2349  ||      MOV T0, AR1 ; |105| 
     503              
     504 0000b7 C96B          MOV AR1, *AR3(T0) ; |105| 
     505                      .dwpsn  file "C:/Users/a0221074/Desktop/C5000/IBM_Watson_TIdesign_workarea/CSL_bitbucket/c55_csl/c55x
     506 0000b9 A430          MOV *SP(#24), T0 ; |109| 
     507 0000bb ED0C          MOV dbl(*SP(#6)), XAR3
         0000bd BF   
     508 0000be A96B          MOV *AR3(T0), AR1 ; |109| 
     509 0000c0 C936          MOV AR1, *SP(#27) ; |109| 
TMS320C55x Assembler PC v4.4.1 Wed Sep 13 16:33:40 2017

Tools Copyright (c) 1996-2012 Texas Instruments Incorporated
C:\Users\a0221074\AppData\Local\Temp\2132810                         PAGE   11

     510                      .dwpsn  file "C:/Users/a0221074/Desktop/C5000/IBM_Watson_TIdesign_workarea/CSL_bitbucket/c55_csl/c55x
     511 0000c2 A934          MOV *SP(#26), AR1 ; |111| 
     512 0000c4 AA36          MOV *SP(#27), AR2 ; |111| 
     513 0000c6 1298          CMP AR2 <= AR1, TC1 ; |111| 
         0000c8 A0   
     514 0000c9 6164          BCC $C$L7,TC1 ; |111| 
     515                                                      ; branchcc occurs ; |111| 
     516 0000cb       $C$DW$L$_noise_subs$10$E:
     517 0000cb       $C$DW$L$_noise_subs$11$B:
     518 0000cb 22A9          MOV AR2, AR1
     519 0000cd       $C$DW$L$_noise_subs$11$E:
     520 0000cd       $C$L7:    
     521 0000cd       $C$DW$L$_noise_subs$12$B:
     522 0000cd C93A          MOV AR1, *SP(#29) ; |111| 
     523                      .dwpsn  file "C:/Users/a0221074/Desktop/C5000/IBM_Watson_TIdesign_workarea/CSL_bitbucket/c55_csl/c55x
     524 0000cf A03A          MOV *SP(#29), AC0 ; |113| 
     525 0000d1 EB18          MOV AC0, dbl(*SP(#12)) ; |113| 
         0000d3 08   
     526                      .dwpsn  file "C:/Users/a0221074/Desktop/C5000/IBM_Watson_TIdesign_workarea/CSL_bitbucket/c55_csl/c55x
     527 0000d4 763D          MOV #15870, AC0 ; |114| 
         0000d6 FE08 
     528 0000d8 ED18          SUB AC0, dbl(*SP(#12)), AC0 ; |114| 
         0000da 04   
     529 0000db EB18          MOV AC0, dbl(*SP(#12)) ; |114| 
         0000dd 08   
     530                      .dwpsn  file "C:/Users/a0221074/Desktop/C5000/IBM_Watson_TIdesign_workarea/CSL_bitbucket/c55_csl/c55x
     531 0000de ED18          MOV dbl(*SP(#12)), AC0 ; |115| 
         0000e0 08   
     532 0000e1 62D0          BCC $C$L8,AC0 >= #0 ; |115| 
     533                                                      ; branchcc occurs ; |115| 
     534 0000e3       $C$DW$L$_noise_subs$12$E:
     535 0000e3       $C$DW$L$_noise_subs$13$B:
     536                      .dwpsn  file "C:/Users/a0221074/Desktop/C5000/IBM_Watson_TIdesign_workarea/CSL_bitbucket/c55_csl/c55x
     537 0000e3 E63C          MOV #0, *SP(#30) ; |115| 
         0000e5 00   
     538 0000e6 4A14          B $C$L10  ; |115| 
     539                                                      ; branch occurs ; |115| 
     540 0000e8       $C$DW$L$_noise_subs$13$E:
     541 0000e8       $C$L8:    
     542 0000e8       $C$DW$L$_noise_subs$14$B:
     543                      .dwpsn  file "C:/Users/a0221074/Desktop/C5000/IBM_Watson_TIdesign_workarea/CSL_bitbucket/c55_csl/c55x
     544 0000e8 ED18          MOV dbl(*SP(#12)), AC0 ; |116| 
         0000ea 08   
     545 0000eb 6290          BCC $C$L9,AC0 != #0 ; |116| 
     546                                                      ; branchcc occurs ; |116| 
     547 0000ed       $C$DW$L$_noise_subs$14$E:
     548 0000ed       $C$DW$L$_noise_subs$15$B:
     549                      .dwpsn  file "C:/Users/a0221074/Desktop/C5000/IBM_Watson_TIdesign_workarea/CSL_bitbucket/c55_csl/c55x
     550 0000ed E63C          MOV #1, *SP(#30) ; |116| 
         0000ef 01   
     551 0000f0 4A0A          B $C$L10  ; |116| 
     552                                                      ; branch occurs ; |116| 
     553 0000f2       $C$DW$L$_noise_subs$15$E:
     554 0000f2       $C$L9:    
     555 0000f2       $C$DW$L$_noise_subs$16$B:
TMS320C55x Assembler PC v4.4.1 Wed Sep 13 16:33:40 2017

Tools Copyright (c) 1996-2012 Texas Instruments Incorporated
C:\Users\a0221074\AppData\Local\Temp\2132810                         PAGE   12

     556                      .dwpsn  file "C:/Users/a0221074/Desktop/C5000/IBM_Watson_TIdesign_workarea/CSL_bitbucket/c55_csl/c55x
     557 0000f2 ED18          MOV dbl(*SP(#12)), AC0 ; |117| 
         0000f4 08   
     558 0000f5 1005          SFTS AC0, #-9, AC0 ; |117| 
         0000f7 37   
     559 0000f8 4010          ADD #1, AC0 ; |117| 
     560 0000fa C03C          MOV AC0, *SP(#30) ; |117| 
     561 0000fc       $C$DW$L$_noise_subs$16$E:
     562 0000fc       $C$L10:    
     563 0000fc       $C$DW$L$_noise_subs$17$B:
     564                      .dwpsn  file "C:/Users/a0221074/Desktop/C5000/IBM_Watson_TIdesign_workarea/CSL_bitbucket/c55_csl/c55x
     565 0000fc F93C          MOV *SP(#30) << #9, AC0 ; |119| 
         0000fe 0908 
     566 000100 D836          SUB AC0, *SP(#27), AR1 ; |119| 
         000102 90   
     567 000103 C936          MOV AR1, *SP(#27) ; |119| 
     568                      .dwpsn  file "C:/Users/a0221074/Desktop/C5000/IBM_Watson_TIdesign_workarea/CSL_bitbucket/c55_csl/c55x
     569 000105 F93C          MOV *SP(#30) << #9, AC0 ; |120| 
         000107 0908 
     570 000109 D834          SUB AC0, *SP(#26), AR1 ; |120| 
         00010b 90   
     571 00010c C934          MOV AR1, *SP(#26) ; |120| 
     572                      .dwpsn  file "C:/Users/a0221074/Desktop/C5000/IBM_Watson_TIdesign_workarea/CSL_bitbucket/c55_csl/c55x
     573              $C$DW$80        .dwtag  DW_TAG_TI_branch
     574                      .dwattr $C$DW$80, DW_AT_low_pc(0x00)
     575                      .dwattr $C$DW$80, DW_AT_name("_pow_polyfit")
     576                      .dwattr $C$DW$80, DW_AT_TI_call
     577              
     578 00010e 6C00          CALL #_pow_polyfit ; |122| 
         000110 0000!
     579 000112 2394  ||      MOV AR1, T0
     580              
     581                                                      ; call occurs [#_pow_polyfit] ; |122| 
     582 000114 EB20          MOV AC0, dbl(*SP(#16)) ; |122| 
         000116 08   
     583                      .dwpsn  file "C:/Users/a0221074/Desktop/C5000/IBM_Watson_TIdesign_workarea/CSL_bitbucket/c55_csl/c55x
     584 000117 A436          MOV *SP(#27), T0 ; |123| 
     585              $C$DW$81        .dwtag  DW_TAG_TI_branch
     586                      .dwattr $C$DW$81, DW_AT_low_pc(0x00)
     587                      .dwattr $C$DW$81, DW_AT_name("_pow_polyfit")
     588                      .dwattr $C$DW$81, DW_AT_TI_call
     589 000119 6C00          CALL #_pow_polyfit ; |123| 
         00011b 0000!
     590                                                      ; call occurs [#_pow_polyfit] ; |123| 
     591 00011d EB24          MOV AC0, dbl(*SP(#18)) ; |123| 
         00011f 08   
     592                      .dwpsn  file "C:/Users/a0221074/Desktop/C5000/IBM_Watson_TIdesign_workarea/CSL_bitbucket/c55_csl/c55x
     593 000120 ED24          MOV dbl(*SP(#18)), AC0 ; |127| 
         000122 08   
     594 000123 1005          SFTS AC0, #-3, AC0 ; |127| 
         000125 3D   
     595 000126 EB1C          MOV AC0, dbl(*SP(#14)) ; |127| 
         000128 08   
     596                      .dwpsn  file "C:/Users/a0221074/Desktop/C5000/IBM_Watson_TIdesign_workarea/CSL_bitbucket/c55_csl/c55x
     597 000129 E638          MOV #0, *SP(#28) ; |129| 
TMS320C55x Assembler PC v4.4.1 Wed Sep 13 16:33:40 2017

Tools Copyright (c) 1996-2012 Texas Instruments Incorporated
C:\Users\a0221074\AppData\Local\Temp\2132810                         PAGE   13

         00012b 00   
     598                      .dwpsn  file "C:/Users/a0221074/Desktop/C5000/IBM_Watson_TIdesign_workarea/CSL_bitbucket/c55_csl/c55x
     599 00012c 7AFC          MOV #-1024 << #16, AC0 ; |130| 
         00012e 000A 
     600 000130 ED24          MOV dbl(*SP(#18)), AC1 ; |130| 
         000132 18   
     601 000133 2810          AND AC1, AC0 ; |130| 
     602 000135 0400          BCC $C$L12,AC0 == #0 ; |130| 
         000137 20   
     603                                                      ; branchcc occurs ; |130| 
     604 000138       $C$DW$L$_noise_subs$17$E:
     605 000138       $C$L11:    
     606 000138       $C$DW$L$_noise_subs$18$B:
     607                      .dwpsn  file "C:/Users/a0221074/Desktop/C5000/IBM_Watson_TIdesign_workarea/CSL_bitbucket/c55_csl/c55x
     608 000138 ED20          MOV dbl(*SP(#16)), AC0 ; |131| 
         00013a 08   
     609 00013b 4440          SFTS AC0, #-1 ; |131| 
     610 00013d EB20          MOV AC0, dbl(*SP(#16)) ; |131| 
         00013f 08   
     611                      .dwpsn  file "C:/Users/a0221074/Desktop/C5000/IBM_Watson_TIdesign_workarea/CSL_bitbucket/c55_csl/c55x
     612 000140 ED24          MOV dbl(*SP(#18)), AC0 ; |132| 
         000142 08   
     613 000143 4440          SFTS AC0, #-1 ; |132| 
     614 000145 EB24          MOV AC0, dbl(*SP(#18)) ; |132| 
         000147 08   
     615                      .dwpsn  file "C:/Users/a0221074/Desktop/C5000/IBM_Watson_TIdesign_workarea/CSL_bitbucket/c55_csl/c55x
     616 000148 F738          ADD #1, *SP(#28) ; |133| 
         00014a 0001 
     617                      .dwpsn  file "C:/Users/a0221074/Desktop/C5000/IBM_Watson_TIdesign_workarea/CSL_bitbucket/c55_csl/c55x
     618 00014c ED24          MOV dbl(*SP(#18)), AC1 ; |134| 
         00014e 18   
     619 00014f 7AFC          MOV #-1024 << #16, AC0 ; |134| 
         000151 000A 
     620 000153 2810          AND AC1, AC0 ; |134| 
     621 000155 0410          BCC $C$L11,AC0 != #0 ; |134| 
         000157 E0   
     622                                                      ; branchcc occurs ; |134| 
     623 000158       $C$DW$L$_noise_subs$18$E:
     624 000158       $C$L12:    
     625 000158       $C$DW$L$_noise_subs$19$B:
     626                      .dwpsn  file "C:/Users/a0221074/Desktop/C5000/IBM_Watson_TIdesign_workarea/CSL_bitbucket/c55_csl/c55x
     627 000158 ED24          MOV dbl(*SP(#18)), AC0 ; |136| 
         00015a 08   
     628 00015b 1045          SFTS AC0, #5, AC1 ; |136| 
         00015d 05   
     629 00015e 1044          SUB AC0 << #1, AC1 ; |136| 
         000160 01   
     630 000161 ED20          SUB AC1, dbl(*SP(#16)), AC0 ; |136| 
         000163 44   
     631 000164 EB2C          MOV AC0, dbl(*SP(#22)) ; |136| 
         000166 08   
     632                      .dwpsn  file "C:/Users/a0221074/Desktop/C5000/IBM_Watson_TIdesign_workarea/CSL_bitbucket/c55_csl/c55x
     633 000167 ED2C          MOV dbl(*SP(#22)), AC0 ; |138| 
         000169 08   
     634 00016a 6450          BCC $C$L13,AC0 >= #0 ; |138| 
TMS320C55x Assembler PC v4.4.1 Wed Sep 13 16:33:40 2017

Tools Copyright (c) 1996-2012 Texas Instruments Incorporated
C:\Users\a0221074\AppData\Local\Temp\2132810                         PAGE   14

     635                                                      ; branchcc occurs ; |138| 
     636 00016c       $C$DW$L$_noise_subs$19$E:
     637 00016c       $C$DW$L$_noise_subs$20$B:
     638                      .dwpsn  file "C:/Users/a0221074/Desktop/C5000/IBM_Watson_TIdesign_workarea/CSL_bitbucket/c55_csl/c55x
     639 00016c ED1C          MOV dbl(*SP(#14)), AC0 ; |138| 
         00016e 08   
     640 00016f EB28          MOV AC0, dbl(*SP(#20)) ; |138| 
         000171 08   
     641 000172 4A23          B $C$L15  ; |138| 
     642                                                      ; branch occurs ; |138| 
     643 000174       $C$DW$L$_noise_subs$20$E:
     644 000174       $C$L13:    
     645 000174       $C$DW$L$_noise_subs$21$B:
     646                      .dwpsn  file "C:/Users/a0221074/Desktop/C5000/IBM_Watson_TIdesign_workarea/CSL_bitbucket/c55_csl/c55x
     647 000174 A538          MOV *SP(#28), T1 ; |141| 
     648 000176 ED2C          MOV dbl(*SP(#22)), AC0 ; |141| 
         000178 08   
     649 000179 5C05          SFTS AC0, T1, AC0 ; |141| 
     650 00017b EB2C          MOV AC0, dbl(*SP(#22)) ; |141| 
         00017d 08   
     651                      .dwpsn  file "C:/Users/a0221074/Desktop/C5000/IBM_Watson_TIdesign_workarea/CSL_bitbucket/c55_csl/c55x
     652 00017e ED2C          MOV dbl(*SP(#22)), AC1 ; |143| 
         000180 18   
     653 000181 ED1C          MOV dbl(*SP(#14)), AC0 ; |143| 
         000183 08   
     654 000184 1218          CMP AC1 >= AC0, TC1 ; |143| 
         000186 00   
     655 000187 6464          BCC $C$L14,TC1 ; |143| 
     656                                                      ; branchcc occurs ; |143| 
     657 000189       $C$DW$L$_noise_subs$21$E:
     658 000189       $C$DW$L$_noise_subs$22$B:
     659                      .dwpsn  file "C:/Users/a0221074/Desktop/C5000/IBM_Watson_TIdesign_workarea/CSL_bitbucket/c55_csl/c55x
     660 000189 ED1C          MOV dbl(*SP(#14)), AC0 ; |143| 
         00018b 08   
     661 00018c EB28          MOV AC0, dbl(*SP(#20)) ; |143| 
         00018e 08   
     662 00018f 4A06          B $C$L15  ; |143| 
     663                                                      ; branch occurs ; |143| 
     664 000191       $C$DW$L$_noise_subs$22$E:
     665 000191       $C$L14:    
     666 000191       $C$DW$L$_noise_subs$23$B:
     667                      .dwpsn  file "C:/Users/a0221074/Desktop/C5000/IBM_Watson_TIdesign_workarea/CSL_bitbucket/c55_csl/c55x
     668 000191 ED2C          MOV dbl(*SP(#22)), AC0 ; |144| 
         000193 08   
     669 000194 EB28          MOV AC0, dbl(*SP(#20)) ; |144| 
         000196 08   
     670 000197       $C$DW$L$_noise_subs$23$E:
     671 000197       $C$L15:    
     672 000197       $C$DW$L$_noise_subs$24$B:
     673                      .dwpsn  file "C:/Users/a0221074/Desktop/C5000/IBM_Watson_TIdesign_workarea/CSL_bitbucket/c55_csl/c55x
     674 000197 A904          MOV *SP(#2), AR1 ; |147| 
     675 000199 D63C          ADD *SP(#30), AR1, AR1 ; |147| 
         00019b 99   
     676 00019c C93E          MOV AR1, *SP(#31) ; |147| 
     677                      .dwpsn  file "C:/Users/a0221074/Desktop/C5000/IBM_Watson_TIdesign_workarea/CSL_bitbucket/c55_csl/c55x
TMS320C55x Assembler PC v4.4.1 Wed Sep 13 16:33:40 2017

Tools Copyright (c) 1996-2012 Texas Instruments Incorporated
C:\Users\a0221074\AppData\Local\Temp\2132810                         PAGE   15

     678 00019e 6629          BCC $C$L16,AR1 < #0 ; |148| 
     679                                                      ; branchcc occurs ; |148| 
     680 0001a0       $C$DW$L$_noise_subs$24$E:
     681 0001a0       $C$DW$L$_noise_subs$25$B:
     682                      .dwpsn  file "C:/Users/a0221074/Desktop/C5000/IBM_Watson_TIdesign_workarea/CSL_bitbucket/c55_csl/c55x
     683              
     684 0001a0 ED28          MOV dbl(*SP(#20)), AC0 ; |148| 
         0001a2 08   
     685 0001a3 2395  ||      MOV AR1, T1 ; |148| 
     686              
     687 0001a5 5C05          SFTS AC0, T1, AC0 ; |148| 
     688 0001a7 EB28          MOV AC0, dbl(*SP(#20)) ; |148| 
         0001a9 08   
     689 0001aa 4A0A          B $C$L17  ; |148| 
     690                                                      ; branch occurs ; |148| 
     691 0001ac       $C$DW$L$_noise_subs$25$E:
     692 0001ac       $C$L16:    
     693 0001ac       $C$DW$L$_noise_subs$26$B:
     694                      .dwpsn  file "C:/Users/a0221074/Desktop/C5000/IBM_Watson_TIdesign_workarea/CSL_bitbucket/c55_csl/c55x
     695              
     696 0001ac ED28          MOV dbl(*SP(#20)), AC0 ; |149| 
         0001ae 08   
     697 0001af 2395  ||      MOV AR1, T1 ; |149| 
     698              
     699 0001b1 5C05          SFTS AC0, T1, AC0 ; |149| 
     700 0001b3 EB28          MOV AC0, dbl(*SP(#20)) ; |149| 
         0001b5 08   
     701 0001b6       $C$DW$L$_noise_subs$26$E:
     702 0001b6       $C$L17:    
     703 0001b6       $C$DW$L$_noise_subs$27$B:
     704                      .dwpsn  file "C:/Users/a0221074/Desktop/C5000/IBM_Watson_TIdesign_workarea/CSL_bitbucket/c55_csl/c55x
     705 0001b6 767F          MOV #32767, AC0 ; |157| 
         0001b8 FF08 
     706 0001ba ED28          MOV dbl(*SP(#20)), AC1 ; |157| 
         0001bc 18   
     707 0001bd 1208          CMP AC1 <= AC0, TC1 ; |157| 
         0001bf 10   
     708 0001c0 65E4          BCC $C$L18,TC1 ; |157| 
     709                                                      ; branchcc occurs ; |157| 
     710 0001c2       $C$DW$L$_noise_subs$27$E:
     711 0001c2       $C$DW$L$_noise_subs$28$B:
     712                      .dwpsn  file "C:/Users/a0221074/Desktop/C5000/IBM_Watson_TIdesign_workarea/CSL_bitbucket/c55_csl/c55x
     713 0001c2 ED00          MOV dbl(*SP(#0)), XAR3
         0001c4 BF   
     714 0001c5 A430          MOV *SP(#24), T0 ; |158| 
     715 0001c7 FB6B          MOV #32767, *AR3(T0) ; |158| 
         0001c9 7FFF 
     716                      .dwpsn  file "C:/Users/a0221074/Desktop/C5000/IBM_Watson_TIdesign_workarea/CSL_bitbucket/c55_csl/c55x
     717 0001cb 4A09          B $C$L19  ; |160| 
     718                                                      ; branch occurs ; |160| 
     719 0001cd       $C$DW$L$_noise_subs$28$E:
     720 0001cd       $C$L18:    
     721 0001cd       $C$DW$L$_noise_subs$29$B:
     722                      .dwpsn  file "C:/Users/a0221074/Desktop/C5000/IBM_Watson_TIdesign_workarea/CSL_bitbucket/c55_csl/c55x
     723 0001cd ED00          MOV dbl(*SP(#0)), XAR3
TMS320C55x Assembler PC v4.4.1 Wed Sep 13 16:33:40 2017

Tools Copyright (c) 1996-2012 Texas Instruments Incorporated
C:\Users\a0221074\AppData\Local\Temp\2132810                         PAGE   16

         0001cf BF   
     724 0001d0 A430          MOV *SP(#24), T0 ; |161| 
     725 0001d2 A92A          MOV *SP(#21), AR1 ; |161| 
     726 0001d4 C96B          MOV AR1, *AR3(T0) ; |161| 
     727 0001d6       $C$DW$L$_noise_subs$29$E:
     728 0001d6       $C$L19:    
     729 0001d6       $C$DW$L$_noise_subs$30$B:
     730                      .dwpsn  file "C:/Users/a0221074/Desktop/C5000/IBM_Watson_TIdesign_workarea/CSL_bitbucket/c55_csl/c55x
     731 0001d6 F730          ADD #1, *SP(#24) ; |90| 
         0001d8 0001 
     732                      .dwpsn  file "C:/Users/a0221074/Desktop/C5000/IBM_Watson_TIdesign_workarea/CSL_bitbucket/c55_csl/c55x
     733 0001da A932          MOV *SP(#25), AR1 ; |90| 
     734 0001dc AA30          MOV *SP(#24), AR2 ; |90| 
     735 0001de 12A4          CMP AR2 < AR1, TC1 ; |90| 
         0001e0 90   
     736 0001e1 6D64          BCC $C$L1,TC1 ; |90| 
         0001e3 FE3F 
     737                                                      ; branchcc occurs ; |90| 
     738 0001e5       $C$DW$L$_noise_subs$30$E:
     739 0001e5       $C$L20:    
     740                      .dwpsn  file "C:/Users/a0221074/Desktop/C5000/IBM_Watson_TIdesign_workarea/CSL_bitbucket/c55_csl/c55x
     741 0001e5 F010          CMP *SP(#8) == #9, TC1 ; |164| 
         0001e7 0009 
     742 0001e9 63F4          BCC $C$L21,!TC1 ; |164| 
     743                                                      ; branchcc occurs ; |164| 
     744                      .dwpsn  file "C:/Users/a0221074/Desktop/C5000/IBM_Watson_TIdesign_workarea/CSL_bitbucket/c55_csl/c55x
     745 0001eb ED14          MOV dbl(*SP(#10)), XAR3
         0001ed BF   
     746 0001ee FB61          MOV #2048, *AR3 ; |164| 
         0001f0 0800 
     747                      .dwpsn  file "C:/Users/a0221074/Desktop/C5000/IBM_Watson_TIdesign_workarea/CSL_bitbucket/c55_csl/c55x
     748 0001f2       $C$L21:    
     749 0001f2 4E21          AADD #33, SP
     750                      .dwcfi  cfa_offset, 1
     751              $C$DW$82        .dwtag  DW_TAG_TI_branch
     752                      .dwattr $C$DW$82, DW_AT_low_pc(0x00)
     753                      .dwattr $C$DW$82, DW_AT_TI_return
     754 0001f4 4804          RET
     755                                                      ; return occurs
     756              
     757              $C$DW$83        .dwtag  DW_TAG_TI_loop
     758                      .dwattr $C$DW$83, DW_AT_name("C:\\Users\\a0221074\\AppData\\Local\\Temp\\2132810:$C$L1:1:1505334818")
     759                      .dwattr $C$DW$83, DW_AT_TI_begin_file("C:/Users/a0221074/Desktop/C5000/IBM_Watson_TIdesign_workarea/C
     760                      .dwattr $C$DW$83, DW_AT_TI_begin_line(0x5a)
     761                      .dwattr $C$DW$83, DW_AT_TI_end_line(0xa2)
     762              $C$DW$84        .dwtag  DW_TAG_TI_loop_range
     763                      .dwattr $C$DW$84, DW_AT_low_pc($C$DW$L$_noise_subs$2$B)
     764                      .dwattr $C$DW$84, DW_AT_high_pc($C$DW$L$_noise_subs$2$E)
     765              $C$DW$85        .dwtag  DW_TAG_TI_loop_range
     766                      .dwattr $C$DW$85, DW_AT_low_pc($C$DW$L$_noise_subs$21$B)
     767                      .dwattr $C$DW$85, DW_AT_high_pc($C$DW$L$_noise_subs$21$E)
     768              $C$DW$86        .dwtag  DW_TAG_TI_loop_range
     769                      .dwattr $C$DW$86, DW_AT_low_pc($C$DW$L$_noise_subs$14$B)
     770                      .dwattr $C$DW$86, DW_AT_high_pc($C$DW$L$_noise_subs$14$E)
     771              $C$DW$87        .dwtag  DW_TAG_TI_loop_range
TMS320C55x Assembler PC v4.4.1 Wed Sep 13 16:33:40 2017

Tools Copyright (c) 1996-2012 Texas Instruments Incorporated
C:\Users\a0221074\AppData\Local\Temp\2132810                         PAGE   17

     772                      .dwattr $C$DW$87, DW_AT_low_pc($C$DW$L$_noise_subs$4$B)
     773                      .dwattr $C$DW$87, DW_AT_high_pc($C$DW$L$_noise_subs$4$E)
     774              $C$DW$88        .dwtag  DW_TAG_TI_loop_range
     775                      .dwattr $C$DW$88, DW_AT_low_pc($C$DW$L$_noise_subs$5$B)
     776                      .dwattr $C$DW$88, DW_AT_high_pc($C$DW$L$_noise_subs$5$E)
     777              $C$DW$89        .dwtag  DW_TAG_TI_loop_range
     778                      .dwattr $C$DW$89, DW_AT_low_pc($C$DW$L$_noise_subs$6$B)
     779                      .dwattr $C$DW$89, DW_AT_high_pc($C$DW$L$_noise_subs$6$E)
     780              $C$DW$90        .dwtag  DW_TAG_TI_loop_range
     781                      .dwattr $C$DW$90, DW_AT_low_pc($C$DW$L$_noise_subs$3$B)
     782                      .dwattr $C$DW$90, DW_AT_high_pc($C$DW$L$_noise_subs$3$E)
     783              $C$DW$91        .dwtag  DW_TAG_TI_loop_range
     784                      .dwattr $C$DW$91, DW_AT_low_pc($C$DW$L$_noise_subs$7$B)
     785                      .dwattr $C$DW$91, DW_AT_high_pc($C$DW$L$_noise_subs$7$E)
     786              $C$DW$92        .dwtag  DW_TAG_TI_loop_range
     787                      .dwattr $C$DW$92, DW_AT_low_pc($C$DW$L$_noise_subs$8$B)
     788                      .dwattr $C$DW$92, DW_AT_high_pc($C$DW$L$_noise_subs$8$E)
     789              $C$DW$93        .dwtag  DW_TAG_TI_loop_range
     790                      .dwattr $C$DW$93, DW_AT_low_pc($C$DW$L$_noise_subs$9$B)
     791                      .dwattr $C$DW$93, DW_AT_high_pc($C$DW$L$_noise_subs$9$E)
     792              $C$DW$94        .dwtag  DW_TAG_TI_loop_range
     793                      .dwattr $C$DW$94, DW_AT_low_pc($C$DW$L$_noise_subs$10$B)
     794                      .dwattr $C$DW$94, DW_AT_high_pc($C$DW$L$_noise_subs$10$E)
     795              $C$DW$95        .dwtag  DW_TAG_TI_loop_range
     796                      .dwattr $C$DW$95, DW_AT_low_pc($C$DW$L$_noise_subs$11$B)
     797                      .dwattr $C$DW$95, DW_AT_high_pc($C$DW$L$_noise_subs$11$E)
     798              $C$DW$96        .dwtag  DW_TAG_TI_loop_range
     799                      .dwattr $C$DW$96, DW_AT_low_pc($C$DW$L$_noise_subs$12$B)
     800                      .dwattr $C$DW$96, DW_AT_high_pc($C$DW$L$_noise_subs$12$E)
     801              $C$DW$97        .dwtag  DW_TAG_TI_loop_range
     802                      .dwattr $C$DW$97, DW_AT_low_pc($C$DW$L$_noise_subs$13$B)
     803                      .dwattr $C$DW$97, DW_AT_high_pc($C$DW$L$_noise_subs$13$E)
     804              $C$DW$98        .dwtag  DW_TAG_TI_loop_range
     805                      .dwattr $C$DW$98, DW_AT_low_pc($C$DW$L$_noise_subs$15$B)
     806                      .dwattr $C$DW$98, DW_AT_high_pc($C$DW$L$_noise_subs$15$E)
     807              $C$DW$99        .dwtag  DW_TAG_TI_loop_range
     808                      .dwattr $C$DW$99, DW_AT_low_pc($C$DW$L$_noise_subs$16$B)
     809                      .dwattr $C$DW$99, DW_AT_high_pc($C$DW$L$_noise_subs$16$E)
     810              $C$DW$100       .dwtag  DW_TAG_TI_loop_range
     811                      .dwattr $C$DW$100, DW_AT_low_pc($C$DW$L$_noise_subs$17$B)
     812                      .dwattr $C$DW$100, DW_AT_high_pc($C$DW$L$_noise_subs$17$E)
     813              $C$DW$101       .dwtag  DW_TAG_TI_loop_range
     814                      .dwattr $C$DW$101, DW_AT_low_pc($C$DW$L$_noise_subs$19$B)
     815                      .dwattr $C$DW$101, DW_AT_high_pc($C$DW$L$_noise_subs$19$E)
     816              $C$DW$102       .dwtag  DW_TAG_TI_loop_range
     817                      .dwattr $C$DW$102, DW_AT_low_pc($C$DW$L$_noise_subs$20$B)
     818                      .dwattr $C$DW$102, DW_AT_high_pc($C$DW$L$_noise_subs$20$E)
     819              $C$DW$103       .dwtag  DW_TAG_TI_loop_range
     820                      .dwattr $C$DW$103, DW_AT_low_pc($C$DW$L$_noise_subs$22$B)
     821                      .dwattr $C$DW$103, DW_AT_high_pc($C$DW$L$_noise_subs$22$E)
     822              $C$DW$104       .dwtag  DW_TAG_TI_loop_range
     823                      .dwattr $C$DW$104, DW_AT_low_pc($C$DW$L$_noise_subs$23$B)
     824                      .dwattr $C$DW$104, DW_AT_high_pc($C$DW$L$_noise_subs$23$E)
     825              $C$DW$105       .dwtag  DW_TAG_TI_loop_range
     826                      .dwattr $C$DW$105, DW_AT_low_pc($C$DW$L$_noise_subs$24$B)
TMS320C55x Assembler PC v4.4.1 Wed Sep 13 16:33:40 2017

Tools Copyright (c) 1996-2012 Texas Instruments Incorporated
C:\Users\a0221074\AppData\Local\Temp\2132810                         PAGE   18

     827                      .dwattr $C$DW$105, DW_AT_high_pc($C$DW$L$_noise_subs$24$E)
     828              $C$DW$106       .dwtag  DW_TAG_TI_loop_range
     829                      .dwattr $C$DW$106, DW_AT_low_pc($C$DW$L$_noise_subs$25$B)
     830                      .dwattr $C$DW$106, DW_AT_high_pc($C$DW$L$_noise_subs$25$E)
     831              $C$DW$107       .dwtag  DW_TAG_TI_loop_range
     832                      .dwattr $C$DW$107, DW_AT_low_pc($C$DW$L$_noise_subs$26$B)
     833                      .dwattr $C$DW$107, DW_AT_high_pc($C$DW$L$_noise_subs$26$E)
     834              $C$DW$108       .dwtag  DW_TAG_TI_loop_range
     835                      .dwattr $C$DW$108, DW_AT_low_pc($C$DW$L$_noise_subs$27$B)
     836                      .dwattr $C$DW$108, DW_AT_high_pc($C$DW$L$_noise_subs$27$E)
     837              $C$DW$109       .dwtag  DW_TAG_TI_loop_range
     838                      .dwattr $C$DW$109, DW_AT_low_pc($C$DW$L$_noise_subs$28$B)
     839                      .dwattr $C$DW$109, DW_AT_high_pc($C$DW$L$_noise_subs$28$E)
     840              $C$DW$110       .dwtag  DW_TAG_TI_loop_range
     841                      .dwattr $C$DW$110, DW_AT_low_pc($C$DW$L$_noise_subs$29$B)
     842                      .dwattr $C$DW$110, DW_AT_high_pc($C$DW$L$_noise_subs$29$E)
     843              $C$DW$111       .dwtag  DW_TAG_TI_loop_range
     844                      .dwattr $C$DW$111, DW_AT_low_pc($C$DW$L$_noise_subs$30$B)
     845                      .dwattr $C$DW$111, DW_AT_high_pc($C$DW$L$_noise_subs$30$E)
     846              
     847              $C$DW$112       .dwtag  DW_TAG_TI_loop
     848                      .dwattr $C$DW$112, DW_AT_name("C:\\Users\\a0221074\\AppData\\Local\\Temp\\2132810:$C$L11:2:1505334818
     849                      .dwattr $C$DW$112, DW_AT_TI_begin_file("C:/Users/a0221074/Desktop/C5000/IBM_Watson_TIdesign_workarea/
     850                      .dwattr $C$DW$112, DW_AT_TI_begin_line(0x82)
     851                      .dwattr $C$DW$112, DW_AT_TI_end_line(0x86)
     852              $C$DW$113       .dwtag  DW_TAG_TI_loop_range
     853                      .dwattr $C$DW$113, DW_AT_low_pc($C$DW$L$_noise_subs$18$B)
     854                      .dwattr $C$DW$113, DW_AT_high_pc($C$DW$L$_noise_subs$18$E)
     855                      .dwendtag $C$DW$112
     856              
     857                      .dwendtag $C$DW$83
     858              
     859                      .dwattr $C$DW$51, DW_AT_TI_end_file("C:/Users/a0221074/Desktop/C5000/IBM_Watson_TIdesign_workarea/CSL
     860                      .dwattr $C$DW$51, DW_AT_TI_end_line(0xac)
     861                      .dwattr $C$DW$51, DW_AT_TI_end_column(0x01)
     862                      .dwendentry
     863                      .dwendtag $C$DW$51
     864              
     865 000000               .sect   ".text:_ss_init"
     866                      .clink
     867              
     868              $C$DW$114       .dwtag  DW_TAG_subprogram, DW_AT_name("ss_init")
     869                      .dwattr $C$DW$114, DW_AT_low_pc(_ss_init)
     870                      .dwattr $C$DW$114, DW_AT_high_pc(0x00)
     871                      .dwattr $C$DW$114, DW_AT_TI_symbol_name("_ss_init")
     872                      .dwattr $C$DW$114, DW_AT_TI_begin_file("C:/Users/a0221074/Desktop/C5000/IBM_Watson_TIdesign_workarea/
     873                      .dwattr $C$DW$114, DW_AT_TI_begin_line(0xae)
     874                      .dwattr $C$DW$114, DW_AT_TI_begin_column(0x0d)
     875                      .dwattr $C$DW$114, DW_AT_TI_max_frame_size(0x04)
     876                      .dwpsn  file "C:/Users/a0221074/Desktop/C5000/IBM_Watson_TIdesign_workarea/CSL_bitbucket/c55_csl/c55x
     877              
     878                      .dwfde $C$DW$CIE, _ss_init
     879              $C$DW$115       .dwtag  DW_TAG_formal_parameter, DW_AT_name("ctrl")
     880                      .dwattr $C$DW$115, DW_AT_TI_symbol_name("_ctrl")
     881                      .dwattr $C$DW$115, DW_AT_type(*$C$DW$T$88)
TMS320C55x Assembler PC v4.4.1 Wed Sep 13 16:33:40 2017

Tools Copyright (c) 1996-2012 Texas Instruments Incorporated
C:\Users\a0221074\AppData\Local\Temp\2132810                         PAGE   19

     882                      .dwattr $C$DW$115, DW_AT_location[DW_OP_reg17]
     883              ;*******************************************************************************
     884              ;* FUNCTION NAME: ss_init                                                      *
     885              ;*                                                                             *
     886              ;*   Function Uses Regs : AR0,XAR0,AR3,XAR3,SP,M40,SATA,SATD,RDM,FRCT,SMUL     *
     887              ;*   Stack Frame        : Compact (No Frame Pointer, w/ debug)                 *
     888              ;*   Total Frame Size   : 4 words                                              *
     889              ;*                        (2 return address/alignment)                         *
     890              ;*                        (2 local values)                                     *
     891              ;*   Min System Stack   : 1 word                                               *
     892              ;*******************************************************************************
     893 000000       _ss_init:
     894                      .dwcfi  cfa_offset, 1
     895                      .dwcfi  save_reg_to_mem, 91, -1
     896 000000 4EFD          AADD #-3, SP
     897                      .dwcfi  cfa_offset, 4
     898              $C$DW$116       .dwtag  DW_TAG_variable, DW_AT_name("ctrl")
     899                      .dwattr $C$DW$116, DW_AT_TI_symbol_name("_ctrl")
     900                      .dwattr $C$DW$116, DW_AT_type(*$C$DW$T$88)
     901                      .dwattr $C$DW$116, DW_AT_location[DW_OP_bregx 0x24 0]
     902 000002 EB00          MOV XAR0, dbl(*SP(#0))
         000004 85   
     903                      .dwpsn  file "C:/Users/a0221074/Desktop/C5000/IBM_Watson_TIdesign_workarea/CSL_bitbucket/c55_csl/c55x
     904 000005 ED00          MOV dbl(*SP(#0)), XAR3
         000007 BF   
     905 000008 E66D          MOV #0, *AR3(#17) ; |176| 
         00000a 0000 
         00000c 11   
     906                      .dwpsn  file "C:/Users/a0221074/Desktop/C5000/IBM_Watson_TIdesign_workarea/CSL_bitbucket/c55_csl/c55x
     907 00000d ED00          MOV dbl(*SP(#0)), XAR3
         00000f BF   
     908 000010 E66D          MOV #0, *AR3(#18) ; |177| 
         000012 0000 
         000014 12   
     909                      .dwpsn  file "C:/Users/a0221074/Desktop/C5000/IBM_Watson_TIdesign_workarea/CSL_bitbucket/c55_csl/c55x
     910 000015 ED00          MOV dbl(*SP(#0)), XAR3
         000017 BF   
     911 000018 E66D          MOV #0, *AR3(#13) ; |178| 
         00001a 0000 
         00001c 0D   
     912                      .dwpsn  file "C:/Users/a0221074/Desktop/C5000/IBM_Watson_TIdesign_workarea/CSL_bitbucket/c55_csl/c55x
     913 00001d ED00          MOV dbl(*SP(#0)), XAR3
         00001f BF   
     914 000020 E66D          MOV #0, *AR3(#14) ; |179| 
         000022 0000 
         000024 0E   
     915                      .dwpsn  file "C:/Users/a0221074/Desktop/C5000/IBM_Watson_TIdesign_workarea/CSL_bitbucket/c55_csl/c55x
     916 000025 ED00          MOV dbl(*SP(#0)), XAR3
         000027 BF   
     917 000028 E67B          MOV #0, *AR3(short(#5)) ; |181| 
         00002a 00   
     918                      .dwpsn  file "C:/Users/a0221074/Desktop/C5000/IBM_Watson_TIdesign_workarea/CSL_bitbucket/c55_csl/c55x
     919 00002b ED00          MOV dbl(*SP(#0)), XAR3
         00002d BF   
     920 00002e E679          MOV #0, *AR3(short(#4)) ; |182| 
TMS320C55x Assembler PC v4.4.1 Wed Sep 13 16:33:40 2017

Tools Copyright (c) 1996-2012 Texas Instruments Incorporated
C:\Users\a0221074\AppData\Local\Temp\2132810                         PAGE   20

         000030 00   
     921                      .dwpsn  file "C:/Users/a0221074/Desktop/C5000/IBM_Watson_TIdesign_workarea/CSL_bitbucket/c55_csl/c55x
     922 000031 4E03          AADD #3, SP
     923                      .dwcfi  cfa_offset, 1
     924              $C$DW$117       .dwtag  DW_TAG_TI_branch
     925                      .dwattr $C$DW$117, DW_AT_low_pc(0x00)
     926                      .dwattr $C$DW$117, DW_AT_TI_return
     927 000033 4804          RET
     928                                                      ; return occurs
     929                      .dwattr $C$DW$114, DW_AT_TI_end_file("C:/Users/a0221074/Desktop/C5000/IBM_Watson_TIdesign_workarea/CS
     930                      .dwattr $C$DW$114, DW_AT_TI_end_line(0xb7)
     931                      .dwattr $C$DW$114, DW_AT_TI_end_column(0x01)
     932                      .dwendentry
     933                      .dwendtag $C$DW$114
     934              
     935 000000               .sect   ".text:_ss_reset"
     936                      .clink
     937                      .global _ss_reset
     938              
     939              $C$DW$118       .dwtag  DW_TAG_subprogram, DW_AT_name("ss_reset")
     940                      .dwattr $C$DW$118, DW_AT_low_pc(_ss_reset)
     941                      .dwattr $C$DW$118, DW_AT_high_pc(0x00)
     942                      .dwattr $C$DW$118, DW_AT_TI_symbol_name("_ss_reset")
     943                      .dwattr $C$DW$118, DW_AT_external
     944                      .dwattr $C$DW$118, DW_AT_TI_begin_file("C:/Users/a0221074/Desktop/C5000/IBM_Watson_TIdesign_workarea/
     945                      .dwattr $C$DW$118, DW_AT_TI_begin_line(0xb9)
     946                      .dwattr $C$DW$118, DW_AT_TI_begin_column(0x06)
     947                      .dwattr $C$DW$118, DW_AT_TI_max_frame_size(0x04)
     948                      .dwpsn  file "C:/Users/a0221074/Desktop/C5000/IBM_Watson_TIdesign_workarea/CSL_bitbucket/c55_csl/c55x
     949              
     950                      .dwfde $C$DW$CIE, _ss_reset
     951              $C$DW$119       .dwtag  DW_TAG_formal_parameter, DW_AT_name("ctrl")
     952                      .dwattr $C$DW$119, DW_AT_TI_symbol_name("_ctrl")
     953                      .dwattr $C$DW$119, DW_AT_type(*$C$DW$T$88)
     954                      .dwattr $C$DW$119, DW_AT_location[DW_OP_reg17]
     955              ;*******************************************************************************
     956              ;* FUNCTION NAME: ss_reset                                                     *
     957              ;*                                                                             *
     958              ;*   Function Uses Regs : AR0,XAR0,AR3,XAR3,SP,M40,SATA,SATD,RDM,FRCT,SMUL     *
     959              ;*   Stack Frame        : Compact (No Frame Pointer, w/ debug)                 *
     960              ;*   Total Frame Size   : 4 words                                              *
     961              ;*                        (2 return address/alignment)                         *
     962              ;*                        (2 local values)                                     *
     963              ;*   Min System Stack   : 1 word                                               *
     964              ;*******************************************************************************
     965 000000       _ss_reset:
     966                      .dwcfi  cfa_offset, 1
     967                      .dwcfi  save_reg_to_mem, 91, -1
     968 000000 4EFD          AADD #-3, SP
     969                      .dwcfi  cfa_offset, 4
     970              $C$DW$120       .dwtag  DW_TAG_variable, DW_AT_name("ctrl")
     971                      .dwattr $C$DW$120, DW_AT_TI_symbol_name("_ctrl")
     972                      .dwattr $C$DW$120, DW_AT_type(*$C$DW$T$88)
     973                      .dwattr $C$DW$120, DW_AT_location[DW_OP_bregx 0x24 0]
     974 000002 EB00          MOV XAR0, dbl(*SP(#0))
TMS320C55x Assembler PC v4.4.1 Wed Sep 13 16:33:40 2017

Tools Copyright (c) 1996-2012 Texas Instruments Incorporated
C:\Users\a0221074\AppData\Local\Temp\2132810                         PAGE   21

         000004 85   
     975                      .dwpsn  file "C:/Users/a0221074/Desktop/C5000/IBM_Watson_TIdesign_workarea/CSL_bitbucket/c55_csl/c55x
     976 000005 ED00          MOV dbl(*SP(#0)), XAR3
         000007 BF   
     977 000008 E66D          MOV #0, *AR3(#17) ; |187| 
         00000a 0000 
         00000c 11   
     978                      .dwpsn  file "C:/Users/a0221074/Desktop/C5000/IBM_Watson_TIdesign_workarea/CSL_bitbucket/c55_csl/c55x
     979 00000d ED00          MOV dbl(*SP(#0)), XAR3
         00000f BF   
     980 000010 E66D          MOV #0, *AR3(#18) ; |188| 
         000012 0000 
         000014 12   
     981                      .dwpsn  file "C:/Users/a0221074/Desktop/C5000/IBM_Watson_TIdesign_workarea/CSL_bitbucket/c55_csl/c55x
     982 000015 ED00          MOV dbl(*SP(#0)), XAR3
         000017 BF   
     983 000018 E67B          MOV #0, *AR3(short(#5)) ; |189| 
         00001a 00   
     984                      .dwpsn  file "C:/Users/a0221074/Desktop/C5000/IBM_Watson_TIdesign_workarea/CSL_bitbucket/c55_csl/c55x
     985 00001b ED00          MOV dbl(*SP(#0)), XAR3
         00001d BF   
     986 00001e E679          MOV #0, *AR3(short(#4)) ; |190| 
         000020 00   
     987                      .dwpsn  file "C:/Users/a0221074/Desktop/C5000/IBM_Watson_TIdesign_workarea/CSL_bitbucket/c55_csl/c55x
     988 000021 4E03          AADD #3, SP
     989                      .dwcfi  cfa_offset, 1
     990              $C$DW$121       .dwtag  DW_TAG_TI_branch
     991                      .dwattr $C$DW$121, DW_AT_low_pc(0x00)
     992                      .dwattr $C$DW$121, DW_AT_TI_return
     993 000023 4804          RET
     994                                                      ; return occurs
     995                      .dwattr $C$DW$118, DW_AT_TI_end_file("C:/Users/a0221074/Desktop/C5000/IBM_Watson_TIdesign_workarea/CS
     996                      .dwattr $C$DW$118, DW_AT_TI_end_line(0xbf)
     997                      .dwattr $C$DW$118, DW_AT_TI_end_column(0x01)
     998                      .dwendentry
     999                      .dwendtag $C$DW$118
    1000              
    1001 000000               .sect   ".text:_ss_set_parm"
    1002                      .clink
    1003                      .global _ss_set_parm
    1004              
    1005              $C$DW$122       .dwtag  DW_TAG_subprogram, DW_AT_name("ss_set_parm")
    1006                      .dwattr $C$DW$122, DW_AT_low_pc(_ss_set_parm)
    1007                      .dwattr $C$DW$122, DW_AT_high_pc(0x00)
    1008                      .dwattr $C$DW$122, DW_AT_TI_symbol_name("_ss_set_parm")
    1009                      .dwattr $C$DW$122, DW_AT_external
    1010                      .dwattr $C$DW$122, DW_AT_TI_begin_file("C:/Users/a0221074/Desktop/C5000/IBM_Watson_TIdesign_workarea/
    1011                      .dwattr $C$DW$122, DW_AT_TI_begin_line(0xc1)
    1012                      .dwattr $C$DW$122, DW_AT_TI_begin_column(0x06)
    1013                      .dwattr $C$DW$122, DW_AT_TI_max_frame_size(0x06)
    1014                      .dwpsn  file "C:/Users/a0221074/Desktop/C5000/IBM_Watson_TIdesign_workarea/CSL_bitbucket/c55_csl/c55x
    1015              
    1016                      .dwfde $C$DW$CIE, _ss_set_parm
    1017              $C$DW$123       .dwtag  DW_TAG_formal_parameter, DW_AT_name("sAlpha")
    1018                      .dwattr $C$DW$123, DW_AT_TI_symbol_name("_sAlpha")
TMS320C55x Assembler PC v4.4.1 Wed Sep 13 16:33:40 2017

Tools Copyright (c) 1996-2012 Texas Instruments Incorporated
C:\Users\a0221074\AppData\Local\Temp\2132810                         PAGE   22

    1019                      .dwattr $C$DW$123, DW_AT_type(*$C$DW$T$21)
    1020                      .dwattr $C$DW$123, DW_AT_location[DW_OP_reg12]
    1021              $C$DW$124       .dwtag  DW_TAG_formal_parameter, DW_AT_name("sBeta")
    1022                      .dwattr $C$DW$124, DW_AT_TI_symbol_name("_sBeta")
    1023                      .dwattr $C$DW$124, DW_AT_type(*$C$DW$T$8)
    1024                      .dwattr $C$DW$124, DW_AT_location[DW_OP_reg13]
    1025              $C$DW$125       .dwtag  DW_TAG_formal_parameter, DW_AT_name("p_ss_crtl")
    1026                      .dwattr $C$DW$125, DW_AT_TI_symbol_name("_p_ss_crtl")
    1027                      .dwattr $C$DW$125, DW_AT_type(*$C$DW$T$88)
    1028                      .dwattr $C$DW$125, DW_AT_location[DW_OP_reg17]
    1029              ;*******************************************************************************
    1030              ;* FUNCTION NAME: ss_set_parm                                                  *
    1031              ;*                                                                             *
    1032              ;*   Function Uses Regs : AC0,AC0,T0,T1,AR0,XAR0,AR1,AR3,XAR3,SP,M40,SATA,SATD,*
    1033              ;*                        RDM,FRCT,SMUL                                        *
    1034              ;*   Stack Frame        : Compact (No Frame Pointer, w/ debug)                 *
    1035              ;*   Total Frame Size   : 6 words                                              *
    1036              ;*                        (2 return address/alignment)                         *
    1037              ;*                        (4 local values)                                     *
    1038              ;*   Min System Stack   : 1 word                                               *
    1039              ;*******************************************************************************
    1040 000000       _ss_set_parm:
    1041                      .dwcfi  cfa_offset, 1
    1042                      .dwcfi  save_reg_to_mem, 91, -1
    1043 000000 4EFB          AADD #-5, SP
    1044                      .dwcfi  cfa_offset, 6
    1045              $C$DW$126       .dwtag  DW_TAG_variable, DW_AT_name("sAlpha")
    1046                      .dwattr $C$DW$126, DW_AT_TI_symbol_name("_sAlpha")
    1047                      .dwattr $C$DW$126, DW_AT_type(*$C$DW$T$21)
    1048                      .dwattr $C$DW$126, DW_AT_location[DW_OP_bregx 0x24 0]
    1049              $C$DW$127       .dwtag  DW_TAG_variable, DW_AT_name("sBeta")
    1050                      .dwattr $C$DW$127, DW_AT_TI_symbol_name("_sBeta")
    1051                      .dwattr $C$DW$127, DW_AT_type(*$C$DW$T$8)
    1052                      .dwattr $C$DW$127, DW_AT_location[DW_OP_bregx 0x24 1]
    1053              $C$DW$128       .dwtag  DW_TAG_variable, DW_AT_name("p_ss_crtl")
    1054                      .dwattr $C$DW$128, DW_AT_TI_symbol_name("_p_ss_crtl")
    1055                      .dwattr $C$DW$128, DW_AT_type(*$C$DW$T$88)
    1056                      .dwattr $C$DW$128, DW_AT_location[DW_OP_bregx 0x24 2]
    1057 000002 EB04          MOV XAR0, dbl(*SP(#2))
         000004 85   
    1058 000005 C502          MOV T1, *SP(#1) ; |194| 
    1059 000007 C400          MOV T0, *SP(#0) ; |194| 
    1060                      .dwpsn  file "C:/Users/a0221074/Desktop/C5000/IBM_Watson_TIdesign_workarea/CSL_bitbucket/c55_csl/c55x
    1061 000009 ED04          MOV dbl(*SP(#2)), XAR3
         00000b BF   
    1062 00000c 90B0          MOV XAR3, AC0
    1063 00000e 6580          BCC $C$L22,AC0 == #0 ; |195| 
    1064                                                      ; branchcc occurs ; |195| 
    1065                      .dwpsn  file "C:/Users/a0221074/Desktop/C5000/IBM_Watson_TIdesign_workarea/CSL_bitbucket/c55_csl/c55x
    1066 000010 2249          MOV T0, AR1
    1067 000012 C973          MOV AR1, *AR3(short(#1)) ; |196| 
    1068                      .dwpsn  file "C:/Users/a0221074/Desktop/C5000/IBM_Watson_TIdesign_workarea/CSL_bitbucket/c55_csl/c55x
    1069 000014 ED04          MOV dbl(*SP(#2)), XAR3
         000016 BF   
    1070 000017 A902          MOV *SP(#1), AR1 ; |197| 
TMS320C55x Assembler PC v4.4.1 Wed Sep 13 16:33:40 2017

Tools Copyright (c) 1996-2012 Texas Instruments Incorporated
C:\Users\a0221074\AppData\Local\Temp\2132810                         PAGE   23

    1071 000019 C975          MOV AR1, *AR3(short(#2)) ; |197| 
    1072                      .dwpsn  file "C:/Users/a0221074/Desktop/C5000/IBM_Watson_TIdesign_workarea/CSL_bitbucket/c55_csl/c55x
    1073 00001b       $C$L22:    
    1074 00001b 4E05          AADD #5, SP
    1075                      .dwcfi  cfa_offset, 1
    1076              $C$DW$129       .dwtag  DW_TAG_TI_branch
    1077                      .dwattr $C$DW$129, DW_AT_low_pc(0x00)
    1078                      .dwattr $C$DW$129, DW_AT_TI_return
    1079 00001d 4804          RET
    1080                                                      ; return occurs
    1081                      .dwattr $C$DW$122, DW_AT_TI_end_file("C:/Users/a0221074/Desktop/C5000/IBM_Watson_TIdesign_workarea/CS
    1082                      .dwattr $C$DW$122, DW_AT_TI_end_line(0xc7)
    1083                      .dwattr $C$DW$122, DW_AT_TI_end_column(0x01)
    1084                      .dwendentry
    1085                      .dwendtag $C$DW$122
    1086              
    1087 000000               .sect   ".text:_ss_VAD"
    1088                      .clink
    1089              
    1090              $C$DW$130       .dwtag  DW_TAG_subprogram, DW_AT_name("ss_VAD")
    1091                      .dwattr $C$DW$130, DW_AT_low_pc(_ss_VAD)
    1092                      .dwattr $C$DW$130, DW_AT_high_pc(0x00)
    1093                      .dwattr $C$DW$130, DW_AT_TI_symbol_name("_ss_VAD")
    1094                      .dwattr $C$DW$130, DW_AT_type(*$C$DW$T$8)
    1095                      .dwattr $C$DW$130, DW_AT_TI_begin_file("C:/Users/a0221074/Desktop/C5000/IBM_Watson_TIdesign_workarea/
    1096                      .dwattr $C$DW$130, DW_AT_TI_begin_line(0xc9)
    1097                      .dwattr $C$DW$130, DW_AT_TI_begin_column(0x10)
    1098                      .dwattr $C$DW$130, DW_AT_TI_max_frame_size(0x08)
    1099                      .dwpsn  file "C:/Users/a0221074/Desktop/C5000/IBM_Watson_TIdesign_workarea/CSL_bitbucket/c55_csl/c55x
    1100              
    1101                      .dwfde $C$DW$CIE, _ss_VAD
    1102              $C$DW$131       .dwtag  DW_TAG_formal_parameter, DW_AT_name("frm_eng")
    1103                      .dwattr $C$DW$131, DW_AT_TI_symbol_name("_frm_eng")
    1104                      .dwattr $C$DW$131, DW_AT_type(*$C$DW$T$8)
    1105                      .dwattr $C$DW$131, DW_AT_location[DW_OP_reg12]
    1106              $C$DW$132       .dwtag  DW_TAG_formal_parameter, DW_AT_name("ctrl")
    1107                      .dwattr $C$DW$132, DW_AT_TI_symbol_name("_ctrl")
    1108                      .dwattr $C$DW$132, DW_AT_type(*$C$DW$T$88)
    1109                      .dwattr $C$DW$132, DW_AT_location[DW_OP_reg17]
    1110              ;*******************************************************************************
    1111              ;* FUNCTION NAME: ss_VAD                                                       *
    1112              ;*                                                                             *
    1113              ;*   Function Uses Regs : T0,AR0,XAR0,AR1,AR2,AR3,XAR3,SP,CARRY,TC1,M40,SATA,  *
    1114              ;*                        SATD,RDM,FRCT,SMUL                                   *
    1115              ;*   Stack Frame        : Compact (No Frame Pointer, w/ debug)                 *
    1116              ;*   Total Frame Size   : 8 words                                              *
    1117              ;*                        (2 return address/alignment)                         *
    1118              ;*                        (6 local values)                                     *
    1119              ;*   Min System Stack   : 1 word                                               *
    1120              ;*******************************************************************************
    1121 000000       _ss_VAD:
    1122                      .dwcfi  cfa_offset, 1
    1123                      .dwcfi  save_reg_to_mem, 91, -1
    1124 000000 4EF9          AADD #-7, SP
    1125                      .dwcfi  cfa_offset, 8
TMS320C55x Assembler PC v4.4.1 Wed Sep 13 16:33:40 2017

Tools Copyright (c) 1996-2012 Texas Instruments Incorporated
C:\Users\a0221074\AppData\Local\Temp\2132810                         PAGE   24

    1126              $C$DW$133       .dwtag  DW_TAG_variable, DW_AT_name("frm_eng")
    1127                      .dwattr $C$DW$133, DW_AT_TI_symbol_name("_frm_eng")
    1128                      .dwattr $C$DW$133, DW_AT_type(*$C$DW$T$8)
    1129                      .dwattr $C$DW$133, DW_AT_location[DW_OP_bregx 0x24 0]
    1130              $C$DW$134       .dwtag  DW_TAG_variable, DW_AT_name("ctrl")
    1131                      .dwattr $C$DW$134, DW_AT_TI_symbol_name("_ctrl")
    1132                      .dwattr $C$DW$134, DW_AT_type(*$C$DW$T$88)
    1133                      .dwattr $C$DW$134, DW_AT_location[DW_OP_bregx 0x24 2]
    1134              $C$DW$135       .dwtag  DW_TAG_variable, DW_AT_name("frmEn")
    1135                      .dwattr $C$DW$135, DW_AT_TI_symbol_name("_frmEn")
    1136                      .dwattr $C$DW$135, DW_AT_type(*$C$DW$T$8)
    1137                      .dwattr $C$DW$135, DW_AT_location[DW_OP_bregx 0x24 4]
    1138              $C$DW$136       .dwtag  DW_TAG_variable, DW_AT_name("flagVADnest")
    1139                      .dwattr $C$DW$136, DW_AT_TI_symbol_name("_flagVADnest")
    1140                      .dwattr $C$DW$136, DW_AT_type(*$C$DW$T$8)
    1141                      .dwattr $C$DW$136, DW_AT_location[DW_OP_bregx 0x24 5]
    1142 000002 EB04          MOV XAR0, dbl(*SP(#2))
         000004 85   
    1143 000005 C400          MOV T0, *SP(#0) ; |202| 
    1144                      .dwpsn  file "C:/Users/a0221074/Desktop/C5000/IBM_Watson_TIdesign_workarea/CSL_bitbucket/c55_csl/c55x
    1145 000007 ED04          MOV dbl(*SP(#2)), XAR0
         000009 8F   
    1146              $C$DW$137       .dwtag  DW_TAG_TI_branch
    1147                      .dwattr $C$DW$137, DW_AT_low_pc(0x00)
    1148                      .dwattr $C$DW$137, DW_AT_name("_ss_update_meanEn")
    1149                      .dwattr $C$DW$137, DW_AT_TI_call
    1150 00000a 6C00          CALL #_ss_update_meanEn ; |203| 
         00000c 0000!
    1151                                                      ; call occurs [#_ss_update_meanEn] ; |203| 
    1152 00000e C408          MOV T0, *SP(#4) ; |203| 
    1153                      .dwpsn  file "C:/Users/a0221074/Desktop/C5000/IBM_Watson_TIdesign_workarea/CSL_bitbucket/c55_csl/c55x
    1154 000010 E60A          MOV #0, *SP(#5) ; |204| 
         000012 00   
    1155                      .dwpsn  file "C:/Users/a0221074/Desktop/C5000/IBM_Watson_TIdesign_workarea/CSL_bitbucket/c55_csl/c55x
    1156 000013 ED04          MOV dbl(*SP(#2)), XAR3
         000015 BF   
    1157 000016 A908          MOV *SP(#4), AR1 ; |206| 
    1158 000018 C96D          MOV AR1, *AR3(#12) ; |206| 
         00001a 000C 
    1159                      .dwpsn  file "C:/Users/a0221074/Desktop/C5000/IBM_Watson_TIdesign_workarea/CSL_bitbucket/c55_csl/c55x
    1160 00001c ED04          MOV dbl(*SP(#2)), XAR3
         00001e BF   
    1161              
    1162 00001f A979          MOV *AR3(short(#4)), AR1 ; |207| 
    1163 000021 3D4A  ||      MOV #4, AR2
    1164              
    1165 000023 12A8          CMP AR1 <= AR2, TC1 ; |207| 
         000025 90   
    1166 000026 0464          BCC $C$L26,TC1 ; |207| 
         000028 4D   
    1167                                                      ; branchcc occurs ; |207| 
    1168                      .dwpsn  file "C:/Users/a0221074/Desktop/C5000/IBM_Watson_TIdesign_workarea/CSL_bitbucket/c55_csl/c55x
    1169 000029 A96D          MOV *AR3(#13), AR1 ; |208| 
         00002b 000D 
    1170 00002d 7601          MOV #480, AR2 ; |208| 
TMS320C55x Assembler PC v4.4.1 Wed Sep 13 16:33:40 2017

Tools Copyright (c) 1996-2012 Texas Instruments Incorporated
C:\Users\a0221074\AppData\Local\Temp\2132810                         PAGE   25

         00002f E0A8 
    1171 000031 D808          SUB AR1, *SP(#4), AR1 ; |208| 
         000033 99   
    1172 000034 12A8          CMP AR1 <= AR2, TC1 ; |208| 
         000036 90   
    1173 000037 6764          BCC $C$L23,TC1 ; |208| 
    1174                                                      ; branchcc occurs ; |208| 
    1175                      .dwpsn  file "C:/Users/a0221074/Desktop/C5000/IBM_Watson_TIdesign_workarea/CSL_bitbucket/c55_csl/c55x
    1176 000039 E60A          MOV #1, *SP(#5) ; |209| 
         00003b 01   
    1177                      .dwpsn  file "C:/Users/a0221074/Desktop/C5000/IBM_Watson_TIdesign_workarea/CSL_bitbucket/c55_csl/c55x
    1178 00003c ED04          MOV dbl(*SP(#2)), XAR3
         00003e BF   
    1179 00003f F76D          ADD #1, *AR3(#17) ; |210| 
         000041 0001 
         000043 0011 
    1180                      .dwpsn  file "C:/Users/a0221074/Desktop/C5000/IBM_Watson_TIdesign_workarea/CSL_bitbucket/c55_csl/c55x
    1181 000045 4A2F          B $C$L26  ; |211| 
    1182                                                      ; branch occurs ; |211| 
    1183 000047       $C$L23:    
    1184                      .dwpsn  file "C:/Users/a0221074/Desktop/C5000/IBM_Watson_TIdesign_workarea/CSL_bitbucket/c55_csl/c55x
    1185 000047 3CFA          MOV #15, AR2
    1186 000049 A96D          MOV *AR3(#17), AR1 ; |212| 
         00004b 0011 
    1187 00004d 12A8          CMP AR1 <= AR2, TC1 ; |212| 
         00004f 90   
    1188 000050 62E4          BCC $C$L24,TC1 ; |212| 
    1189                                                      ; branchcc occurs ; |212| 
    1190                      .dwpsn  file "C:/Users/a0221074/Desktop/C5000/IBM_Watson_TIdesign_workarea/CSL_bitbucket/c55_csl/c55x
    1191 000052 E66D          MOV #5, *AR3(#18) ; |213| 
         000054 0500 
         000056 12   
    1192 000057       $C$L24:    
    1193                      .dwpsn  file "C:/Users/a0221074/Desktop/C5000/IBM_Watson_TIdesign_workarea/CSL_bitbucket/c55_csl/c55x
    1194 000057 ED04          MOV dbl(*SP(#2)), XAR3
         000059 BF   
    1195 00005a E66D          MOV #0, *AR3(#17) ; |214| 
         00005c 0000 
         00005e 11   
    1196                      .dwpsn  file "C:/Users/a0221074/Desktop/C5000/IBM_Watson_TIdesign_workarea/CSL_bitbucket/c55_csl/c55x
    1197 00005f ED04          MOV dbl(*SP(#2)), XAR3
         000061 BF   
    1198 000062 A96D          MOV *AR3(#18), AR1 ; |215| 
         000064 0012 
    1199 000066 6589          BCC $C$L25,AR1 == #0 ; |215| 
    1200                                                      ; branchcc occurs ; |215| 
    1201                      .dwpsn  file "C:/Users/a0221074/Desktop/C5000/IBM_Watson_TIdesign_workarea/CSL_bitbucket/c55_csl/c55x
    1202 000068 F76D          SUB #1, *AR3(#18) ; |216| 
         00006a FFFF 
         00006c 0012 
    1203                      .dwpsn  file "C:/Users/a0221074/Desktop/C5000/IBM_Watson_TIdesign_workarea/CSL_bitbucket/c55_csl/c55x
    1204 00006e E60A          MOV #1, *SP(#5) ; |217| 
         000070 01   
    1205                      .dwpsn  file "C:/Users/a0221074/Desktop/C5000/IBM_Watson_TIdesign_workarea/CSL_bitbucket/c55_csl/c55x
    1206 000071 4A03          B $C$L26  ; |218| 
TMS320C55x Assembler PC v4.4.1 Wed Sep 13 16:33:40 2017

Tools Copyright (c) 1996-2012 Texas Instruments Incorporated
C:\Users\a0221074\AppData\Local\Temp\2132810                         PAGE   26

    1207                                                      ; branch occurs ; |218| 
    1208 000073       $C$L25:    
    1209                      .dwpsn  file "C:/Users/a0221074/Desktop/C5000/IBM_Watson_TIdesign_workarea/CSL_bitbucket/c55_csl/c55x
    1210 000073 E60A          MOV #0, *SP(#5) ; |220| 
         000075 00   
    1211 000076       $C$L26:    
    1212                      .dwpsn  file "C:/Users/a0221074/Desktop/C5000/IBM_Watson_TIdesign_workarea/CSL_bitbucket/c55_csl/c55x
    1213 000076 A40A          MOV *SP(#5), T0 ; |223| 
    1214                      .dwpsn  file "C:/Users/a0221074/Desktop/C5000/IBM_Watson_TIdesign_workarea/CSL_bitbucket/c55_csl/c55x
    1215 000078 4E07          AADD #7, SP
    1216                      .dwcfi  cfa_offset, 1
    1217              $C$DW$138       .dwtag  DW_TAG_TI_branch
    1218                      .dwattr $C$DW$138, DW_AT_low_pc(0x00)
    1219                      .dwattr $C$DW$138, DW_AT_TI_return
    1220 00007a 4804          RET
    1221                                                      ; return occurs
    1222                      .dwattr $C$DW$130, DW_AT_TI_end_file("C:/Users/a0221074/Desktop/C5000/IBM_Watson_TIdesign_workarea/CS
    1223                      .dwattr $C$DW$130, DW_AT_TI_end_line(0xe0)
    1224                      .dwattr $C$DW$130, DW_AT_TI_end_column(0x01)
    1225                      .dwendentry
    1226                      .dwendtag $C$DW$130
    1227              
    1228 000000               .sect   ".text:_ss_noise_subs"
    1229                      .clink
    1230              
    1231              $C$DW$139       .dwtag  DW_TAG_subprogram, DW_AT_name("ss_noise_subs")
    1232                      .dwattr $C$DW$139, DW_AT_low_pc(_ss_noise_subs)
    1233                      .dwattr $C$DW$139, DW_AT_high_pc(0x00)
    1234                      .dwattr $C$DW$139, DW_AT_TI_symbol_name("_ss_noise_subs")
    1235                      .dwattr $C$DW$139, DW_AT_TI_begin_file("C:/Users/a0221074/Desktop/C5000/IBM_Watson_TIdesign_workarea/
    1236                      .dwattr $C$DW$139, DW_AT_TI_begin_line(0xe5)
    1237                      .dwattr $C$DW$139, DW_AT_TI_begin_column(0x0d)
    1238                      .dwattr $C$DW$139, DW_AT_TI_max_frame_size(0x2a)
    1239                      .dwpsn  file "C:/Users/a0221074/Desktop/C5000/IBM_Watson_TIdesign_workarea/CSL_bitbucket/c55_csl/c55x
    1240              
    1241                      .dwfde $C$DW$CIE, _ss_noise_subs
    1242              $C$DW$140       .dwtag  DW_TAG_formal_parameter, DW_AT_name("pds_signal")
    1243                      .dwattr $C$DW$140, DW_AT_TI_symbol_name("_pds_signal")
    1244                      .dwattr $C$DW$140, DW_AT_type(*$C$DW$T$22)
    1245                      .dwattr $C$DW$140, DW_AT_location[DW_OP_reg17]
    1246              $C$DW$141       .dwtag  DW_TAG_formal_parameter, DW_AT_name("norm")
    1247                      .dwattr $C$DW$141, DW_AT_TI_symbol_name("_norm")
    1248                      .dwattr $C$DW$141, DW_AT_type(*$C$DW$T$8)
    1249                      .dwattr $C$DW$141, DW_AT_location[DW_OP_reg12]
    1250              $C$DW$142       .dwtag  DW_TAG_formal_parameter, DW_AT_name("noise_floor")
    1251                      .dwattr $C$DW$142, DW_AT_TI_symbol_name("_noise_floor")
    1252                      .dwattr $C$DW$142, DW_AT_type(*$C$DW$T$22)
    1253                      .dwattr $C$DW$142, DW_AT_location[DW_OP_reg19]
    1254              $C$DW$143       .dwtag  DW_TAG_formal_parameter, DW_AT_name("snr")
    1255                      .dwattr $C$DW$143, DW_AT_TI_symbol_name("_snr")
    1256                      .dwattr $C$DW$143, DW_AT_type(*$C$DW$T$22)
    1257                      .dwattr $C$DW$143, DW_AT_location[DW_OP_reg21]
    1258              $C$DW$144       .dwtag  DW_TAG_formal_parameter, DW_AT_name("count_frm")
    1259                      .dwattr $C$DW$144, DW_AT_TI_symbol_name("_count_frm")
    1260                      .dwattr $C$DW$144, DW_AT_type(*$C$DW$T$9)
TMS320C55x Assembler PC v4.4.1 Wed Sep 13 16:33:40 2017

Tools Copyright (c) 1996-2012 Texas Instruments Incorporated
C:\Users\a0221074\AppData\Local\Temp\2132810                         PAGE   27

    1261                      .dwattr $C$DW$144, DW_AT_location[DW_OP_reg13]
    1262              $C$DW$145       .dwtag  DW_TAG_formal_parameter, DW_AT_name("ctrl")
    1263                      .dwattr $C$DW$145, DW_AT_TI_symbol_name("_ctrl")
    1264                      .dwattr $C$DW$145, DW_AT_type(*$C$DW$T$88)
    1265                      .dwattr $C$DW$145, DW_AT_location[DW_OP_reg23]
    1266              ;*******************************************************************************
    1267              ;* FUNCTION NAME: ss_noise_subs                                                *
    1268              ;*                                                                             *
    1269              ;*   Function Uses Regs : AC0,AC0,AC1,AC1,T0,T1,AR0,XAR0,AR1,XAR1,AR2,XAR2,AR3,*
    1270              ;*                        XAR3,SP,CARRY,TC1,M40,SATA,SATD,RDM,FRCT,SMUL        *
    1271              ;*   Stack Frame        : Compact (No Frame Pointer, w/ debug)                 *
    1272              ;*   Total Frame Size   : 42 words                                             *
    1273              ;*                        (2 return address/alignment)                         *
    1274              ;*                        (40 local values)                                    *
    1275              ;*   Min System Stack   : 1 word                                               *
    1276              ;*******************************************************************************
    1277 000000       _ss_noise_subs:
    1278                      .dwcfi  cfa_offset, 1
    1279                      .dwcfi  save_reg_to_mem, 91, -1
    1280 000000 4ED7          AADD #-41, SP
    1281                      .dwcfi  cfa_offset, 42
    1282              $C$DW$146       .dwtag  DW_TAG_variable, DW_AT_name("pds_signal")
    1283                      .dwattr $C$DW$146, DW_AT_TI_symbol_name("_pds_signal")
    1284                      .dwattr $C$DW$146, DW_AT_type(*$C$DW$T$22)
    1285                      .dwattr $C$DW$146, DW_AT_location[DW_OP_bregx 0x24 0]
    1286              $C$DW$147       .dwtag  DW_TAG_variable, DW_AT_name("norm")
    1287                      .dwattr $C$DW$147, DW_AT_TI_symbol_name("_norm")
    1288                      .dwattr $C$DW$147, DW_AT_type(*$C$DW$T$8)
    1289                      .dwattr $C$DW$147, DW_AT_location[DW_OP_bregx 0x24 2]
    1290              $C$DW$148       .dwtag  DW_TAG_variable, DW_AT_name("noise_floor")
    1291                      .dwattr $C$DW$148, DW_AT_TI_symbol_name("_noise_floor")
    1292                      .dwattr $C$DW$148, DW_AT_type(*$C$DW$T$22)
    1293                      .dwattr $C$DW$148, DW_AT_location[DW_OP_bregx 0x24 4]
    1294              $C$DW$149       .dwtag  DW_TAG_variable, DW_AT_name("snr")
    1295                      .dwattr $C$DW$149, DW_AT_TI_symbol_name("_snr")
    1296                      .dwattr $C$DW$149, DW_AT_type(*$C$DW$T$22)
    1297                      .dwattr $C$DW$149, DW_AT_location[DW_OP_bregx 0x24 6]
    1298              $C$DW$150       .dwtag  DW_TAG_variable, DW_AT_name("count_frm")
    1299                      .dwattr $C$DW$150, DW_AT_TI_symbol_name("_count_frm")
    1300                      .dwattr $C$DW$150, DW_AT_type(*$C$DW$T$9)
    1301                      .dwattr $C$DW$150, DW_AT_location[DW_OP_bregx 0x24 8]
    1302              $C$DW$151       .dwtag  DW_TAG_variable, DW_AT_name("ctrl")
    1303                      .dwattr $C$DW$151, DW_AT_TI_symbol_name("_ctrl")
    1304                      .dwattr $C$DW$151, DW_AT_type(*$C$DW$T$88)
    1305                      .dwattr $C$DW$151, DW_AT_location[DW_OP_bregx 0x24 10]
    1306              $C$DW$152       .dwtag  DW_TAG_variable, DW_AT_name("tmp_l")
    1307                      .dwattr $C$DW$152, DW_AT_TI_symbol_name("_tmp_l")
    1308                      .dwattr $C$DW$152, DW_AT_type(*$C$DW$T$12)
    1309                      .dwattr $C$DW$152, DW_AT_location[DW_OP_bregx 0x24 12]
    1310              $C$DW$153       .dwtag  DW_TAG_variable, DW_AT_name("ltmp2")
    1311                      .dwattr $C$DW$153, DW_AT_TI_symbol_name("_ltmp2")
    1312                      .dwattr $C$DW$153, DW_AT_type(*$C$DW$T$12)
    1313                      .dwattr $C$DW$153, DW_AT_location[DW_OP_bregx 0x24 14]
    1314              $C$DW$154       .dwtag  DW_TAG_variable, DW_AT_name("signal_lin")
    1315                      .dwattr $C$DW$154, DW_AT_TI_symbol_name("_signal_lin")
TMS320C55x Assembler PC v4.4.1 Wed Sep 13 16:33:40 2017

Tools Copyright (c) 1996-2012 Texas Instruments Incorporated
C:\Users\a0221074\AppData\Local\Temp\2132810                         PAGE   28

    1316                      .dwattr $C$DW$154, DW_AT_type(*$C$DW$T$12)
    1317                      .dwattr $C$DW$154, DW_AT_location[DW_OP_bregx 0x24 16]
    1318              $C$DW$155       .dwtag  DW_TAG_variable, DW_AT_name("clean_lin")
    1319                      .dwattr $C$DW$155, DW_AT_TI_symbol_name("_clean_lin")
    1320                      .dwattr $C$DW$155, DW_AT_type(*$C$DW$T$12)
    1321                      .dwattr $C$DW$155, DW_AT_location[DW_OP_bregx 0x24 18]
    1322              $C$DW$156       .dwtag  DW_TAG_variable, DW_AT_name("lIndic")
    1323                      .dwattr $C$DW$156, DW_AT_TI_symbol_name("_lIndic")
    1324                      .dwattr $C$DW$156, DW_AT_type(*$C$DW$T$12)
    1325                      .dwattr $C$DW$156, DW_AT_location[DW_OP_bregx 0x24 20]
    1326              $C$DW$157       .dwtag  DW_TAG_variable, DW_AT_name("Q15")
    1327                      .dwattr $C$DW$157, DW_AT_TI_symbol_name("_Q15")
    1328                      .dwattr $C$DW$157, DW_AT_type(*$C$DW$T$21)
    1329                      .dwattr $C$DW$157, DW_AT_location[DW_OP_bregx 0x24 22]
    1330              $C$DW$158       .dwtag  DW_TAG_variable, DW_AT_name("i")
    1331                      .dwattr $C$DW$158, DW_AT_TI_symbol_name("_i")
    1332                      .dwattr $C$DW$158, DW_AT_type(*$C$DW$T$8)
    1333                      .dwattr $C$DW$158, DW_AT_location[DW_OP_bregx 0x24 23]
    1334              $C$DW$159       .dwtag  DW_TAG_variable, DW_AT_name("dim")
    1335                      .dwattr $C$DW$159, DW_AT_TI_symbol_name("_dim")
    1336                      .dwattr $C$DW$159, DW_AT_type(*$C$DW$T$8)
    1337                      .dwattr $C$DW$159, DW_AT_location[DW_OP_bregx 0x24 24]
    1338              $C$DW$160       .dwtag  DW_TAG_variable, DW_AT_name("signal_abs_log2")
    1339                      .dwattr $C$DW$160, DW_AT_TI_symbol_name("_signal_abs_log2")
    1340                      .dwattr $C$DW$160, DW_AT_type(*$C$DW$T$8)
    1341                      .dwattr $C$DW$160, DW_AT_location[DW_OP_bregx 0x24 25]
    1342              $C$DW$161       .dwtag  DW_TAG_variable, DW_AT_name("noise_abs_log2")
    1343                      .dwattr $C$DW$161, DW_AT_TI_symbol_name("_noise_abs_log2")
    1344                      .dwattr $C$DW$161, DW_AT_type(*$C$DW$T$8)
    1345                      .dwattr $C$DW$161, DW_AT_location[DW_OP_bregx 0x24 26]
    1346              $C$DW$162       .dwtag  DW_TAG_variable, DW_AT_name("norm_pow")
    1347                      .dwattr $C$DW$162, DW_AT_TI_symbol_name("_norm_pow")
    1348                      .dwattr $C$DW$162, DW_AT_type(*$C$DW$T$8)
    1349                      .dwattr $C$DW$162, DW_AT_location[DW_OP_bregx 0x24 27]
    1350              $C$DW$163       .dwtag  DW_TAG_variable, DW_AT_name("total_norm")
    1351                      .dwattr $C$DW$163, DW_AT_TI_symbol_name("_total_norm")
    1352                      .dwattr $C$DW$163, DW_AT_type(*$C$DW$T$8)
    1353                      .dwattr $C$DW$163, DW_AT_location[DW_OP_bregx 0x24 28]
    1354              $C$DW$164       .dwtag  DW_TAG_variable, DW_AT_name("onemalpha_p")
    1355                      .dwattr $C$DW$164, DW_AT_TI_symbol_name("_onemalpha_p")
    1356                      .dwattr $C$DW$164, DW_AT_type(*$C$DW$T$21)
    1357                      .dwattr $C$DW$164, DW_AT_location[DW_OP_bregx 0x24 29]
    1358              $C$DW$165       .dwtag  DW_TAG_variable, DW_AT_name("lgain_fm1")
    1359                      .dwattr $C$DW$165, DW_AT_TI_symbol_name("_lgain_fm1")
    1360                      .dwattr $C$DW$165, DW_AT_type(*$C$DW$T$12)
    1361                      .dwattr $C$DW$165, DW_AT_location[DW_OP_bregx 0x24 30]
    1362              $C$DW$166       .dwtag  DW_TAG_variable, DW_AT_name("gain")
    1363                      .dwattr $C$DW$166, DW_AT_TI_symbol_name("_gain")
    1364                      .dwattr $C$DW$166, DW_AT_type(*$C$DW$T$12)
    1365                      .dwattr $C$DW$166, DW_AT_location[DW_OP_bregx 0x24 32]
    1366              $C$DW$167       .dwtag  DW_TAG_variable, DW_AT_name("sLongTermNoise")
    1367                      .dwattr $C$DW$167, DW_AT_TI_symbol_name("_sLongTermNoise")
    1368                      .dwattr $C$DW$167, DW_AT_type(*$C$DW$T$22)
    1369                      .dwattr $C$DW$167, DW_AT_location[DW_OP_bregx 0x24 34]
    1370              $C$DW$168       .dwtag  DW_TAG_variable, DW_AT_name("alpha_smooth")
TMS320C55x Assembler PC v4.4.1 Wed Sep 13 16:33:40 2017

Tools Copyright (c) 1996-2012 Texas Instruments Incorporated
C:\Users\a0221074\AppData\Local\Temp\2132810                         PAGE   29

    1371                      .dwattr $C$DW$168, DW_AT_TI_symbol_name("_alpha_smooth")
    1372                      .dwattr $C$DW$168, DW_AT_type(*$C$DW$T$9)
    1373                      .dwattr $C$DW$168, DW_AT_location[DW_OP_bregx 0x24 36]
    1374 000002 EB14          MOV XAR3, dbl(*SP(#10))
         000004 B5   
    1375 000005 C510          MOV T1, *SP(#8) ; |232| 
    1376 000007 EB0C          MOV XAR2, dbl(*SP(#6))
         000009 A5   
    1377 00000a EB08          MOV XAR1, dbl(*SP(#4))
         00000c 95   
    1378 00000d C404          MOV T0, *SP(#2) ; |232| 
    1379 00000f EB00          MOV XAR0, dbl(*SP(#0))
         000011 85   
    1380                      .dwpsn  file "C:/Users/a0221074/Desktop/C5000/IBM_Watson_TIdesign_workarea/CSL_bitbucket/c55_csl/c55x
    1381 000012 FB2C          MOV #32767, *SP(#22) ; |236| 
         000014 7FFF 
    1382                      .dwpsn  file "C:/Users/a0221074/Desktop/C5000/IBM_Watson_TIdesign_workarea/CSL_bitbucket/c55_csl/c55x
    1383 000016 FB30          MOV #128, *SP(#24) ; |237| 
         000018 0080 
    1384                      .dwpsn  file "C:/Users/a0221074/Desktop/C5000/IBM_Watson_TIdesign_workarea/CSL_bitbucket/c55_csl/c55x
    1385 00001a ED14          MOV dbl(*SP(#10)), XAR3
         00001c BF   
    1386 00001d A02C          MOV *SP(#22), AC0 ; |240| 
    1387 00001f DF61          SUB uns(*AR3), AC0, AC0 ; |240| 
         000021 0F   
    1388 000022 C03A          MOV AC0, *SP(#29) ; |240| 
    1389                      .dwpsn  file "C:/Users/a0221074/Desktop/C5000/IBM_Watson_TIdesign_workarea/CSL_bitbucket/c55_csl/c55x
    1390 000024 ED14          MOV dbl(*SP(#10)), XAR3
         000026 BF   
    1391 000027 ED6D          MOV dbl(*AR3(#10)), XAR3
         000029 BF00 
         00002b 0A   
    1392 00002c EB44          MOV XAR3, dbl(*SP(#34))
         00002e B5   
    1393                      .dwpsn  file "C:/Users/a0221074/Desktop/C5000/IBM_Watson_TIdesign_workarea/CSL_bitbucket/c55_csl/c55x
    1394 00002f A504          MOV *SP(#2), T1 ; |245| 
    1395 000031 A430          MOV *SP(#24), T0 ; |245| 
    1396 000033 ED00          MOV dbl(*SP(#0)), XAR0
         000035 8F   
    1397              $C$DW$169       .dwtag  DW_TAG_TI_branch
    1398                      .dwattr $C$DW$169, DW_AT_low_pc(0x00)
    1399                      .dwattr $C$DW$169, DW_AT_name("_ss_est_frmEn")
    1400                      .dwattr $C$DW$169, DW_AT_TI_call
    1401 000036 6C00          CALL #_ss_est_frmEn ; |245| 
         000038 0000!
    1402                                                      ; call occurs [#_ss_est_frmEn] ; |245| 
    1403 00003a C432          MOV T0, *SP(#25) ; |245| 
    1404                      .dwpsn  file "C:/Users/a0221074/Desktop/C5000/IBM_Watson_TIdesign_workarea/CSL_bitbucket/c55_csl/c55x
    1405 00003c ED14          MOV dbl(*SP(#10)), XAR0
         00003e 8F   
    1406              $C$DW$170       .dwtag  DW_TAG_TI_branch
    1407                      .dwattr $C$DW$170, DW_AT_low_pc(0x00)
    1408                      .dwattr $C$DW$170, DW_AT_name("_ss_VAD")
    1409                      .dwattr $C$DW$170, DW_AT_TI_call
    1410 00003f 6C00          CALL #_ss_VAD ; |246| 
TMS320C55x Assembler PC v4.4.1 Wed Sep 13 16:33:40 2017

Tools Copyright (c) 1996-2012 Texas Instruments Incorporated
C:\Users\a0221074\AppData\Local\Temp\2132810                         PAGE   30

         000041 0000+
    1411                                                      ; call occurs [#_ss_VAD] ; |246| 
    1412 000043 6484          BCC $C$L27,T0 == #0 ; |246| 
    1413                                                      ; branchcc occurs ; |246| 
    1414                      .dwpsn  file "C:/Users/a0221074/Desktop/C5000/IBM_Watson_TIdesign_workarea/CSL_bitbucket/c55_csl/c55x
    1415 000045 767F          MOV #32767, AC0 ; |247| 
         000047 FF08 
    1416 000049 EB28          MOV AC0, dbl(*SP(#20)) ; |247| 
         00004b 08   
    1417 00004c 4A05          B $C$L28  ; |247| 
    1418                                                      ; branch occurs ; |247| 
    1419 00004e       $C$L27:    
    1420                      .dwpsn  file "C:/Users/a0221074/Desktop/C5000/IBM_Watson_TIdesign_workarea/CSL_bitbucket/c55_csl/c55x
    1421 00004e 3C00          MOV #0, AC0 ; |248| 
    1422 000050 EB28          MOV AC0, dbl(*SP(#20)) ; |248| 
         000052 08   
    1423 000053       $C$L28:    
    1424                      .dwpsn  file "C:/Users/a0221074/Desktop/C5000/IBM_Watson_TIdesign_workarea/CSL_bitbucket/c55_csl/c55x
    1425 000053 ED14          MOV dbl(*SP(#10)), XAR3
         000055 BF   
    1426 000056 A461          MOV *AR3, T0 ; |255| 
    1427 000058 DF7B          MOV uns(*AR3(short(#5))), AC0 ; |255| 
         00005a 05   
    1428              $C$DW$171       .dwtag  DW_TAG_TI_branch
    1429                      .dwattr $C$DW$171, DW_AT_low_pc(0x00)
    1430                      .dwattr $C$DW$171, DW_AT_name("_q15_x")
    1431                      .dwattr $C$DW$171, DW_AT_TI_call
    1432 00005b 6C00          CALL #_q15_x ; |255| 
         00005d 0000!
    1433                                                      ; call occurs [#_q15_x] ; |255| 
    1434 00005f EB4C          MOV AC0, dbl(*SP(#38)) ; |255| 
         000061 08   
    1435 000062 A43A          MOV *SP(#29), T0 ; |255| 
    1436 000064 ED28          MOV dbl(*SP(#20)), AC0 ; |255| 
         000066 08   
    1437              $C$DW$172       .dwtag  DW_TAG_TI_branch
    1438                      .dwattr $C$DW$172, DW_AT_low_pc(0x00)
    1439                      .dwattr $C$DW$172, DW_AT_name("_q15_x")
    1440                      .dwattr $C$DW$172, DW_AT_TI_call
    1441 000067 6C00          CALL #_q15_x ; |255| 
         000069 0000!
    1442                                                      ; call occurs [#_q15_x] ; |255| 
    1443 00006b ED14          MOV dbl(*SP(#10)), XAR3
         00006d BF   
    1444 00006e ED4C          MOV dbl(*SP(#38)), AC1 ; |255| 
         000070 18   
    1445 000071 2401          ADD AC0, AC1 ; |255| 
    1446 000073 EB4C          MOV AC1, dbl(*SP(#38)) ; |255| 
         000075 18   
    1447 000076 A94E          MOV *SP(#39), AR1 ; |255| 
    1448 000078 C97B          MOV AR1, *AR3(short(#5)) ; |255| 
    1449                      .dwpsn  file "C:/Users/a0221074/Desktop/C5000/IBM_Watson_TIdesign_workarea/CSL_bitbucket/c55_csl/c55x
    1450 00007a E62E          MOV #0, *SP(#23) ; |257| 
         00007c 00   
    1451                      .dwpsn  file "C:/Users/a0221074/Desktop/C5000/IBM_Watson_TIdesign_workarea/CSL_bitbucket/c55_csl/c55x
TMS320C55x Assembler PC v4.4.1 Wed Sep 13 16:33:40 2017

Tools Copyright (c) 1996-2012 Texas Instruments Incorporated
C:\Users\a0221074\AppData\Local\Temp\2132810                         PAGE   31

    1452 00007d A930          MOV *SP(#24), AR1 ; |257| 
    1453 00007f AA2E          MOV *SP(#23), AR2 ; |257| 
    1454 000081 12A8          CMP AR2 >= AR1, TC1 ; |257| 
         000083 90   
    1455 000084 6D64          BCC $C$L69,TC1 ; |257| 
         000086 0430 
    1456                                                      ; branchcc occurs ; |257| 
    1457 000088       $C$L29:    
    1458 000088       $C$DW$L$_ss_noise_subs$5$B:
    1459                      .dwpsn  file "C:/Users/a0221074/Desktop/C5000/IBM_Watson_TIdesign_workarea/CSL_bitbucket/c55_csl/c55x
    1460 000088 22A4          MOV AR2, T0
    1461 00008a ED00          MOV dbl(*SP(#0)), XAR3
         00008c BF   
    1462 00008d A06B          MOV *AR3(T0), AC0 ; |258| 
    1463 00008f EB18          MOV AC0, dbl(*SP(#12)) ; |258| 
         000091 08   
    1464                      .dwpsn  file "C:/Users/a0221074/Desktop/C5000/IBM_Watson_TIdesign_workarea/CSL_bitbucket/c55_csl/c55x
    1465 000092 ED18          MOV dbl(*SP(#12)), AC0 ; |259| 
         000094 08   
    1466 000095 66B0          BCC $C$L30,AC0 <= #0 ; |259| 
    1467                                                      ; branchcc occurs ; |259| 
    1468 000097       $C$DW$L$_ss_noise_subs$5$E:
    1469 000097       $C$DW$L$_ss_noise_subs$6$B:
    1470                      .dwpsn  file "C:/Users/a0221074/Desktop/C5000/IBM_Watson_TIdesign_workarea/CSL_bitbucket/c55_csl/c55x
    1471 000097 ED18          MOV dbl(*SP(#12)), AC0 ; |260| 
         000099 08   
    1472 00009a A404          MOV *SP(#2), T0 ; |260| 
    1473              $C$DW$173       .dwtag  DW_TAG_TI_branch
    1474                      .dwattr $C$DW$173, DW_AT_low_pc(0x00)
    1475                      .dwattr $C$DW$173, DW_AT_name("_log_polyfit")
    1476                      .dwattr $C$DW$173, DW_AT_TI_call
    1477 00009c 6C00          CALL #_log_polyfit ; |260| 
         00009e 0000!
    1478                                                      ; call occurs [#_log_polyfit] ; |260| 
    1479 0000a0 C432          MOV T0, *SP(#25) ; |260| 
    1480 0000a2 4A16          B $C$L33  ; |260| 
    1481                                                      ; branch occurs ; |260| 
    1482 0000a4       $C$DW$L$_ss_noise_subs$6$E:
    1483 0000a4       $C$L30:    
    1484 0000a4       $C$DW$L$_ss_noise_subs$7$B:
    1485                      .dwpsn  file "C:/Users/a0221074/Desktop/C5000/IBM_Watson_TIdesign_workarea/CSL_bitbucket/c55_csl/c55x
    1486 0000a4 ED14          MOV dbl(*SP(#10)), XAR3
         0000a6 BF   
    1487 0000a7 A979          MOV *AR3(short(#4)), AR1 ; |262| 
    1488 0000a9 6319          BCC $C$L31,AR1 != #0 ; |262| 
    1489                                                      ; branchcc occurs ; |262| 
    1490 0000ab       $C$DW$L$_ss_noise_subs$7$E:
    1491 0000ab       $C$DW$L$_ss_noise_subs$8$B:
    1492 0000ab 76F2          MOV #-3401, AR1 ; |262| 
         0000ad B798 
    1493 0000af 4A07          B $C$L32  ; |262| 
    1494                                                      ; branch occurs ; |262| 
    1495 0000b1       $C$DW$L$_ss_noise_subs$8$E:
    1496 0000b1       $C$L31:    
    1497 0000b1       $C$DW$L$_ss_noise_subs$9$B:
TMS320C55x Assembler PC v4.4.1 Wed Sep 13 16:33:40 2017

Tools Copyright (c) 1996-2012 Texas Instruments Incorporated
C:\Users\a0221074\AppData\Local\Temp\2132810                         PAGE   32

    1498 0000b1 A42E          MOV *SP(#23), T0 ; |262| 
    1499 0000b3 ED08          MOV dbl(*SP(#4)), XAR3
         0000b5 BF   
    1500 0000b6 A96B          MOV *AR3(T0), AR1 ; |262| 
    1501 0000b8       $C$DW$L$_ss_noise_subs$9$E:
    1502 0000b8       $C$L32:    
    1503 0000b8       $C$DW$L$_ss_noise_subs$10$B:
    1504 0000b8 C932          MOV AR1, *SP(#25) ; |262| 
    1505 0000ba       $C$DW$L$_ss_noise_subs$10$E:
    1506 0000ba       $C$L33:    
    1507 0000ba       $C$DW$L$_ss_noise_subs$11$B:
    1508                      .dwpsn  file "C:/Users/a0221074/Desktop/C5000/IBM_Watson_TIdesign_workarea/CSL_bitbucket/c55_csl/c55x
    1509 0000ba A910          MOV *SP(#8), AR1 ; |265| 
    1510 0000bc 0419          BCC $C$L34,AR1 != #0 ; |265| 
         0000be 1C   
    1511                                                      ; branchcc occurs ; |265| 
    1512 0000bf       $C$DW$L$_ss_noise_subs$11$E:
    1513 0000bf       $C$DW$L$_ss_noise_subs$12$B:
    1514                      .dwpsn  file "C:/Users/a0221074/Desktop/C5000/IBM_Watson_TIdesign_workarea/CSL_bitbucket/c55_csl/c55x
    1515 0000bf ED08          MOV dbl(*SP(#4)), XAR3
         0000c1 BF   
    1516 0000c2 A42E          MOV *SP(#23), T0 ; |266| 
    1517 0000c4 A932          MOV *SP(#25), AR1 ; |266| 
    1518 0000c6 C96B          MOV AR1, *AR3(T0) ; |266| 
    1519                      .dwpsn  file "C:/Users/a0221074/Desktop/C5000/IBM_Watson_TIdesign_workarea/CSL_bitbucket/c55_csl/c55x
    1520 0000c8 ED44          MOV dbl(*SP(#34)), XAR3
         0000ca BF   
    1521 0000cb A42E          MOV *SP(#23), T0 ; |267| 
    1522 0000cd 2249          MOV T0, AR1
    1523 0000cf ED08          MOV dbl(*SP(#4)), XAR2
         0000d1 AF   
    1524 0000d2 1490          AADD AR1, AR3 ; |267| 
         0000d4 B0   
    1525 0000d5 805D          MOV *AR2(T0), *AR3 ; |267| 
         0000d7 84   
    1526                      .dwpsn  file "C:/Users/a0221074/Desktop/C5000/IBM_Watson_TIdesign_workarea/CSL_bitbucket/c55_csl/c55x
    1527 0000d8 0602          B $C$L53  ; |268| 
         0000da 3F   
    1528                                                      ; branch occurs ; |268| 
    1529 0000db       $C$DW$L$_ss_noise_subs$12$E:
    1530 0000db       $C$L34:    
    1531 0000db       $C$DW$L$_ss_noise_subs$13$B:
    1532                      .dwpsn  file "C:/Users/a0221074/Desktop/C5000/IBM_Watson_TIdesign_workarea/CSL_bitbucket/c55_csl/c55x
    1533 0000db 3CAA          MOV #10, AR2
    1534 0000dd 12A4          CMPU AR1 > AR2, TC1 ; |270| 
         0000df 94   
    1535 0000e0 6D64          BCC $C$L38,TC1 ; |270| 
         0000e2 0080 
    1536                                                      ; branchcc occurs ; |270| 
    1537 0000e4       $C$DW$L$_ss_noise_subs$13$E:
    1538 0000e4       $C$DW$L$_ss_noise_subs$14$B:
    1539                      .dwpsn  file "C:/Users/a0221074/Desktop/C5000/IBM_Watson_TIdesign_workarea/CSL_bitbucket/c55_csl/c55x
    1540 0000e4 DF10          MOV uns(*SP(#8)), AC0 ; |271| 
         0000e6 05   
    1541 0000e7 1005          SFTS AC0, #15, AC0 ; |271| 
TMS320C55x Assembler PC v4.4.1 Wed Sep 13 16:33:40 2017

Tools Copyright (c) 1996-2012 Texas Instruments Incorporated
C:\Users\a0221074\AppData\Local\Temp\2132810                         PAGE   33

         0000e9 0F   
    1542 0000ea EB18          MOV AC0, dbl(*SP(#12)) ; |271| 
         0000ec 08   
    1543                      .dwpsn  file "C:/Users/a0221074/Desktop/C5000/IBM_Watson_TIdesign_workarea/CSL_bitbucket/c55_csl/c55x
    1544 0000ed A910          MOV *SP(#8), AR1 ; |272| 
    1545 0000ef 4019          ADD #1, AR1 ; |272| 
    1546 0000f1 7DFF          AND #0xffff, AR1, AC1 ; |272| 
         0000f3 FF19 
    1547 0000f5 ED18          MOV dbl(*SP(#12)), AC0 ; |272| 
         0000f7 08   
    1548              $C$DW$174       .dwtag  DW_TAG_TI_branch
    1549                      .dwattr $C$DW$174, DW_AT_low_pc(0x00)
    1550                      .dwattr $C$DW$174, DW_AT_name("__divli")
    1551                      .dwattr $C$DW$174, DW_AT_TI_call
    1552 0000f8 6C00          CALL #__divli ; |272| 
         0000fa 0000!
    1553                                                      ; call occurs [#__divli] ; |272| 
    1554 0000fc EB18          MOV AC0, dbl(*SP(#12)) ; |272| 
         0000fe 08   
    1555                      .dwpsn  file "C:/Users/a0221074/Desktop/C5000/IBM_Watson_TIdesign_workarea/CSL_bitbucket/c55_csl/c55x
    1556 0000ff 7680          MOV #-32768, AC0 ; |273| 
         000101 0008 
    1557 000103 ED18          MOV dbl(*SP(#12)), AC1 ; |273| 
         000105 18   
    1558 000106 1208          CMP AC1 <= AC0, TC1 ; |273| 
         000108 10   
    1559 000109 61E4          BCC $C$L35,TC1 ; |273| 
    1560                                                      ; branchcc occurs ; |273| 
    1561 00010b       $C$DW$L$_ss_noise_subs$14$E:
    1562 00010b       $C$DW$L$_ss_noise_subs$15$B:
    1563 00010b ED18          MOV dbl(*SP(#12)), AC0 ; |273| 
         00010d 08   
    1564 00010e       $C$DW$L$_ss_noise_subs$15$E:
    1565 00010e       $C$L35:    
    1566 00010e       $C$DW$L$_ss_noise_subs$16$B:
    1567 00010e 767F          MOV #32767, AC1 ; |273| 
         000110 FF18 
    1568 000112 1208          CMP AC0 >= AC1, TC1 ; |273| 
         000114 10   
    1569 000115 0464          BCC $C$L36,TC1 ; |273| 
         000117 11   
    1570                                                      ; branchcc occurs ; |273| 
    1571 000118       $C$DW$L$_ss_noise_subs$16$E:
    1572 000118       $C$DW$L$_ss_noise_subs$17$B:
    1573 000118 7680          MOV #-32768, AC0 ; |273| 
         00011a 0008 
    1574 00011c ED18          MOV dbl(*SP(#12)), AC1 ; |273| 
         00011e 18   
    1575 00011f 1208          CMP AC1 <= AC0, TC1 ; |273| 
         000121 10   
    1576 000122 64E4          BCC $C$L37,TC1 ; |273| 
    1577                                                      ; branchcc occurs ; |273| 
    1578 000124       $C$DW$L$_ss_noise_subs$17$E:
    1579 000124       $C$DW$L$_ss_noise_subs$18$B:
    1580 000124 ED18          MOV dbl(*SP(#12)), AC0 ; |273| 
TMS320C55x Assembler PC v4.4.1 Wed Sep 13 16:33:40 2017

Tools Copyright (c) 1996-2012 Texas Instruments Incorporated
C:\Users\a0221074\AppData\Local\Temp\2132810                         PAGE   34

         000126 08   
    1581 000127 4A04          B $C$L37  ; |273| 
    1582                                                      ; branch occurs ; |273| 
    1583 000129       $C$DW$L$_ss_noise_subs$18$E:
    1584 000129       $C$L36:    
    1585 000129       $C$DW$L$_ss_noise_subs$19$B:
    1586 000129 767F          MOV #32767, AC0 ; |273| 
         00012b FF08 
    1587 00012d       $C$DW$L$_ss_noise_subs$19$E:
    1588 00012d       $C$L37:    
    1589 00012d       $C$DW$L$_ss_noise_subs$20$B:
    1590 00012d C048          MOV AC0, *SP(#36) ; |273| 
    1591                      .dwpsn  file "C:/Users/a0221074/Desktop/C5000/IBM_Watson_TIdesign_workarea/CSL_bitbucket/c55_csl/c55x
    1592 00012f 3C00          MOV #0, AC0 ; |275| 
    1593 000131 7E80          OR #0x8000, AC0, AC0 ; |275| 
         000133 0000 
    1594 000135 DF48          SUB uns(*SP(#36)), AC0, AC0 ; |275| 
         000137 0F   
    1595              
    1596 000138 A032          MOV *SP(#25), AC0 ; |275| 
    1597 00013a 2304  ||      MOV AC0, T0 ; |275| 
    1598              
    1599              $C$DW$175       .dwtag  DW_TAG_TI_branch
    1600                      .dwattr $C$DW$175, DW_AT_low_pc(0x00)
    1601                      .dwattr $C$DW$175, DW_AT_name("_q15_x")
    1602                      .dwattr $C$DW$175, DW_AT_TI_call
    1603 00013c 6C00          CALL #_q15_x ; |275| 
         00013e 0000!
    1604                                                      ; call occurs [#_q15_x] ; |275| 
    1605 000140 A42E          MOV *SP(#23), T0 ; |275| 
    1606 000142 ED08          MOV dbl(*SP(#4)), XAR3
         000144 BF   
    1607 000145 EB4C          MOV AC0, dbl(*SP(#38)) ; |275| 
         000147 08   
    1608 000148 A06B          MOV *AR3(T0), AC0 ; |275| 
    1609 00014a A448          MOV *SP(#36), T0 ; |275| 
    1610              $C$DW$176       .dwtag  DW_TAG_TI_branch
    1611                      .dwattr $C$DW$176, DW_AT_low_pc(0x00)
    1612                      .dwattr $C$DW$176, DW_AT_name("_q15_x")
    1613                      .dwattr $C$DW$176, DW_AT_TI_call
    1614 00014c 6C00          CALL #_q15_x ; |275| 
         00014e 0000!
    1615                                                      ; call occurs [#_q15_x] ; |275| 
    1616 000150 A42E          MOV *SP(#23), T0 ; |275| 
    1617 000152 ED08          MOV dbl(*SP(#4)), XAR3
         000154 BF   
    1618 000155 ED4C          MOV dbl(*SP(#38)), AC1 ; |275| 
         000157 18   
    1619 000158 2401          ADD AC0, AC1 ; |275| 
    1620 00015a EB4C          MOV AC1, dbl(*SP(#38)) ; |275| 
         00015c 18   
    1621 00015d A94E          MOV *SP(#39), AR1 ; |275| 
    1622 00015f C96B          MOV AR1, *AR3(T0) ; |275| 
    1623                      .dwpsn  file "C:/Users/a0221074/Desktop/C5000/IBM_Watson_TIdesign_workarea/CSL_bitbucket/c55_csl/c55x
    1624 000161 0601          B $C$L47  ; |278| 
TMS320C55x Assembler PC v4.4.1 Wed Sep 13 16:33:40 2017

Tools Copyright (c) 1996-2012 Texas Instruments Incorporated
C:\Users\a0221074\AppData\Local\Temp\2132810                         PAGE   35

         000163 22   
    1625                                                      ; branch occurs ; |278| 
    1626 000164       $C$DW$L$_ss_noise_subs$20$E:
    1627 000164       $C$L38:    
    1628 000164       $C$DW$L$_ss_noise_subs$21$B:
    1629                      .dwpsn  file "C:/Users/a0221074/Desktop/C5000/IBM_Watson_TIdesign_workarea/CSL_bitbucket/c55_csl/c55x
    1630 000164 ED14          MOV dbl(*SP(#10)), XAR3
         000166 BF   
    1631 000167 7619          MOV #6553, AR2 ; |278| 
         000169 99A8 
    1632 00016b A97B          MOV *AR3(short(#5)), AR1 ; |278| 
    1633 00016d 1298          CMPU AR1 >= AR2, TC1 ; |278| 
         00016f A4   
    1634 000170 6D64          BCC $C$L47,TC1 ; |278| 
         000172 0112 
    1635                                                      ; branchcc occurs ; |278| 
    1636 000174       $C$DW$L$_ss_noise_subs$21$E:
    1637 000174       $C$DW$L$_ss_noise_subs$22$B:
    1638                      .dwpsn  file "C:/Users/a0221074/Desktop/C5000/IBM_Watson_TIdesign_workarea/CSL_bitbucket/c55_csl/c55x
    1639 000174 A42E          MOV *SP(#23), T0 ; |279| 
    1640 000176 ED44          MOV dbl(*SP(#34)), XAR3
         000178 BF   
    1641 000179 A932          MOV *SP(#25), AR1 ; |279| 
    1642 00017b AA6B          MOV *AR3(T0), AR2 ; |279| 
    1643 00017d 1294          CMP AR2 > AR1, TC1 ; |279| 
         00017f A0   
    1644 000180 67E4          BCC $C$L39,TC1 ; |279| 
    1645                                                      ; branchcc occurs ; |279| 
    1646 000182       $C$DW$L$_ss_noise_subs$22$E:
    1647 000182       $C$DW$L$_ss_noise_subs$23$B:
    1648                      .dwpsn  file "C:/Users/a0221074/Desktop/C5000/IBM_Watson_TIdesign_workarea/CSL_bitbucket/c55_csl/c55x
    1649 000182 A132          MOV *SP(#25), AC1 ; |280| 
    1650 000184 A06B          MOV *AR3(T0), AC0 ; |280| 
    1651              $C$DW$177       .dwtag  DW_TAG_TI_branch
    1652                      .dwattr $C$DW$177, DW_AT_low_pc(0x00)
    1653                      .dwattr $C$DW$177, DW_AT_name("_div32_32_Q")
    1654                      .dwattr $C$DW$177, DW_AT_TI_call
    1655              
    1656 000186 6C00          CALL #_div32_32_Q ; |280| 
         000188 0000!
    1657 00018a 3D94  ||      MOV #9, T0
    1658              
    1659                                                      ; call occurs [#_div32_32_Q] ; |280| 
    1660 00018c EB18          MOV AC0, dbl(*SP(#12)) ; |280| 
         00018e 08   
    1661 00018f 4A0D          B $C$L40  ; |280| 
    1662                                                      ; branch occurs ; |280| 
    1663 000191       $C$DW$L$_ss_noise_subs$23$E:
    1664 000191       $C$L39:    
    1665 000191       $C$DW$L$_ss_noise_subs$24$B:
    1666                      .dwpsn  file "C:/Users/a0221074/Desktop/C5000/IBM_Watson_TIdesign_workarea/CSL_bitbucket/c55_csl/c55x
    1667 000191 A032          MOV *SP(#25), AC0 ; |282| 
    1668 000193 A16B          MOV *AR3(T0), AC1 ; |282| 
    1669              $C$DW$178       .dwtag  DW_TAG_TI_branch
    1670                      .dwattr $C$DW$178, DW_AT_low_pc(0x00)
TMS320C55x Assembler PC v4.4.1 Wed Sep 13 16:33:40 2017

Tools Copyright (c) 1996-2012 Texas Instruments Incorporated
C:\Users\a0221074\AppData\Local\Temp\2132810                         PAGE   36

    1671                      .dwattr $C$DW$178, DW_AT_name("_div32_32_Q")
    1672                      .dwattr $C$DW$178, DW_AT_TI_call
    1673              
    1674 000195 6C00          CALL #_div32_32_Q ; |282| 
         000197 0000!
    1675 000199 3D94  ||      MOV #9, T0
    1676              
    1677                                                      ; call occurs [#_div32_32_Q] ; |282| 
    1678 00019b EB18          MOV AC0, dbl(*SP(#12)) ; |282| 
         00019d 08   
    1679 00019e       $C$DW$L$_ss_noise_subs$24$E:
    1680 00019e       $C$L40:    
    1681 00019e       $C$DW$L$_ss_noise_subs$25$B:
    1682                      .dwpsn  file "C:/Users/a0221074/Desktop/C5000/IBM_Watson_TIdesign_workarea/CSL_bitbucket/c55_csl/c55x
    1683 00019e 7602          MOV #512, AC0 ; |283| 
         0001a0 0008 
    1684 0001a2 ED18          SUB dbl(*SP(#12)), AC0, AC0 ; |283| 
         0001a4 02   
    1685 0001a5 EB18          MOV AC0, dbl(*SP(#12)) ; |283| 
         0001a7 08   
    1686                      .dwpsn  file "C:/Users/a0221074/Desktop/C5000/IBM_Watson_TIdesign_workarea/CSL_bitbucket/c55_csl/c55x
    1687 0001a8 ED18          MOV dbl(*SP(#12)), AC1 ; |284| 
         0001aa 18   
    1688 0001ab ED18          MOV dbl(*SP(#12)), AC0 ; |284| 
         0001ad 08   
    1689              $C$DW$179       .dwtag  DW_TAG_TI_branch
    1690                      .dwattr $C$DW$179, DW_AT_low_pc(0x00)
    1691                      .dwattr $C$DW$179, DW_AT_name("__mpyli")
    1692                      .dwattr $C$DW$179, DW_AT_TI_call
    1693 0001ae 6C00          CALL #__mpyli ; |284| 
         0001b0 0000!
    1694                                                      ; call occurs [#__mpyli] ; |284| 
    1695 0001b2 EB40          MOV AC0, dbl(*SP(#32)) ; |284| 
         0001b4 08   
    1696                      .dwpsn  file "C:/Users/a0221074/Desktop/C5000/IBM_Watson_TIdesign_workarea/CSL_bitbucket/c55_csl/c55x
    1697 0001b5 ED40          MOV dbl(*SP(#32)), AC0 ; |285| 
         0001b7 08   
    1698 0001b8 1005          SFTS AC0, #-9, AC0 ; |285| 
         0001ba 37   
    1699 0001bb EB40          MOV AC0, dbl(*SP(#32)) ; |285| 
         0001bd 08   
    1700                      .dwpsn  file "C:/Users/a0221074/Desktop/C5000/IBM_Watson_TIdesign_workarea/CSL_bitbucket/c55_csl/c55x
    1701 0001be ED44          MOV dbl(*SP(#34)), XAR3
         0001c0 BF   
    1702 0001c1 A42E          MOV *SP(#23), T0 ; |287| 
    1703 0001c3 A96B          MOV *AR3(T0), AR1 ; |287| 
    1704 0001c5 ED08          MOV dbl(*SP(#4)), XAR3
         0001c7 BF   
    1705 0001c8 D86B          SUB AR1, *AR3(T0), AR1 ; |287| 
         0001ca 99   
    1706 0001cb 2290          MOV AR1, AC0
    1707 0001cd EB18          MOV AC0, dbl(*SP(#12)) ; |287| 
         0001cf 08   
    1708                      .dwpsn  file "C:/Users/a0221074/Desktop/C5000/IBM_Watson_TIdesign_workarea/CSL_bitbucket/c55_csl/c55x
    1709 0001d0 A42E          MOV *SP(#23), T0 ; |288| 
TMS320C55x Assembler PC v4.4.1 Wed Sep 13 16:33:40 2017

Tools Copyright (c) 1996-2012 Texas Instruments Incorporated
C:\Users\a0221074\AppData\Local\Temp\2132810                         PAGE   37

    1710 0001d2 ED44          MOV dbl(*SP(#34)), XAR3
         0001d4 BF   
    1711 0001d5 A932          MOV *SP(#25), AR1 ; |288| 
    1712 0001d7 AA6B          MOV *AR3(T0), AR2 ; |288| 
    1713 0001d9 1294          CMP AR2 > AR1, TC1 ; |288| 
         0001db A0   
    1714 0001dc 0464          BCC $C$L41,TC1 ; |288| 
         0001de 10   
    1715                                                      ; branchcc occurs ; |288| 
    1716 0001df       $C$DW$L$_ss_noise_subs$25$E:
    1717 0001df       $C$DW$L$_ss_noise_subs$26$B:
    1718                      .dwpsn  file "C:/Users/a0221074/Desktop/C5000/IBM_Watson_TIdesign_workarea/CSL_bitbucket/c55_csl/c55x
    1719 0001df A132          MOV *SP(#25), AC1 ; |289| 
    1720 0001e1 ED18          MOV dbl(*SP(#12)), AC0 ; |289| 
         0001e3 08   
    1721              $C$DW$180       .dwtag  DW_TAG_TI_branch
    1722                      .dwattr $C$DW$180, DW_AT_low_pc(0x00)
    1723                      .dwattr $C$DW$180, DW_AT_name("_div32_32_Q")
    1724                      .dwattr $C$DW$180, DW_AT_TI_call
    1725              
    1726 0001e4 6C00          CALL #_div32_32_Q ; |289| 
         0001e6 0000!
    1727 0001e8 3D94  ||      MOV #9, T0
    1728              
    1729                                                      ; call occurs [#_div32_32_Q] ; |289| 
    1730 0001ea EB18          MOV AC0, dbl(*SP(#12)) ; |289| 
         0001ec 08   
    1731 0001ed 4A0E          B $C$L42  ; |289| 
    1732                                                      ; branch occurs ; |289| 
    1733 0001ef       $C$DW$L$_ss_noise_subs$26$E:
    1734 0001ef       $C$L41:    
    1735 0001ef       $C$DW$L$_ss_noise_subs$27$B:
    1736                      .dwpsn  file "C:/Users/a0221074/Desktop/C5000/IBM_Watson_TIdesign_workarea/CSL_bitbucket/c55_csl/c55x
    1737 0001ef ED18          MOV dbl(*SP(#12)), AC0 ; |291| 
         0001f1 08   
    1738 0001f2 A16B          MOV *AR3(T0), AC1 ; |291| 
    1739              $C$DW$181       .dwtag  DW_TAG_TI_branch
    1740                      .dwattr $C$DW$181, DW_AT_low_pc(0x00)
    1741                      .dwattr $C$DW$181, DW_AT_name("_div32_32_Q")
    1742                      .dwattr $C$DW$181, DW_AT_TI_call
    1743              
    1744 0001f4 6C00          CALL #_div32_32_Q ; |291| 
         0001f6 0000!
    1745 0001f8 3D94  ||      MOV #9, T0
    1746              
    1747                                                      ; call occurs [#_div32_32_Q] ; |291| 
    1748 0001fa EB18          MOV AC0, dbl(*SP(#12)) ; |291| 
         0001fc 08   
    1749 0001fd       $C$DW$L$_ss_noise_subs$27$E:
    1750 0001fd       $C$L42:    
    1751 0001fd       $C$DW$L$_ss_noise_subs$28$B:
    1752                      .dwpsn  file "C:/Users/a0221074/Desktop/C5000/IBM_Watson_TIdesign_workarea/CSL_bitbucket/c55_csl/c55x
    1753 0001fd ED18          MOV dbl(*SP(#12)), AC0 ; |292| 
         0001ff 08   
    1754 000200 ED18          MOV dbl(*SP(#12)), AC1 ; |292| 
TMS320C55x Assembler PC v4.4.1 Wed Sep 13 16:33:40 2017

Tools Copyright (c) 1996-2012 Texas Instruments Incorporated
C:\Users\a0221074\AppData\Local\Temp\2132810                         PAGE   38

         000202 18   
    1755              $C$DW$182       .dwtag  DW_TAG_TI_branch
    1756                      .dwattr $C$DW$182, DW_AT_low_pc(0x00)
    1757                      .dwattr $C$DW$182, DW_AT_name("__mpyli")
    1758                      .dwattr $C$DW$182, DW_AT_TI_call
    1759 000203 6C00          CALL #__mpyli ; |292| 
         000205 0000!
    1760                                                      ; call occurs [#__mpyli] ; |292| 
    1761 000207 EB18          MOV AC0, dbl(*SP(#12)) ; |292| 
         000209 08   
    1762                      .dwpsn  file "C:/Users/a0221074/Desktop/C5000/IBM_Watson_TIdesign_workarea/CSL_bitbucket/c55_csl/c55x
    1763 00020a ED18          MOV dbl(*SP(#12)), AC0 ; |293| 
         00020c 08   
    1764 00020d 1005          SFTS AC0, #-9, AC0 ; |293| 
         00020f 37   
    1765 000210 EB18          MOV AC0, dbl(*SP(#12)) ; |293| 
         000212 08   
    1766                      .dwpsn  file "C:/Users/a0221074/Desktop/C5000/IBM_Watson_TIdesign_workarea/CSL_bitbucket/c55_csl/c55x
    1767 000213 ED40          MOV dbl(*SP(#32)), AC0 ; |294| 
         000215 08   
    1768 000216 ED18          ADD dbl(*SP(#12)), AC0, AC0 ; |294| 
         000218 00   
    1769 000219 EB18          MOV AC0, dbl(*SP(#12)) ; |294| 
         00021b 08   
    1770                      .dwpsn  file "C:/Users/a0221074/Desktop/C5000/IBM_Watson_TIdesign_workarea/CSL_bitbucket/c55_csl/c55x
    1771 00021c ED18          MOV dbl(*SP(#12)), AC0 ; |296| 
         00021e 08   
    1772 00021f 6290          BCC $C$L43,AC0 != #0 ; |296| 
    1773                                                      ; branchcc occurs ; |296| 
    1774 000221       $C$DW$L$_ss_noise_subs$28$E:
    1775 000221       $C$DW$L$_ss_noise_subs$29$B:
    1776                      .dwpsn  file "C:/Users/a0221074/Desktop/C5000/IBM_Watson_TIdesign_workarea/CSL_bitbucket/c55_csl/c55x
    1777 000221 E648          MOV #0, *SP(#36) ; |296| 
         000223 00   
    1778 000224 4A0E          B $C$L44  ; |296| 
    1779                                                      ; branch occurs ; |296| 
    1780 000226       $C$DW$L$_ss_noise_subs$29$E:
    1781 000226       $C$L43:    
    1782 000226       $C$DW$L$_ss_noise_subs$30$B:
    1783                      .dwpsn  file "C:/Users/a0221074/Desktop/C5000/IBM_Watson_TIdesign_workarea/CSL_bitbucket/c55_csl/c55x
    1784 000226 ED40          MOV dbl(*SP(#32)), AC0 ; |298| 
         000228 08   
    1785 000229 ED18          MOV dbl(*SP(#12)), AC1 ; |298| 
         00022b 18   
    1786              $C$DW$183       .dwtag  DW_TAG_TI_branch
    1787                      .dwattr $C$DW$183, DW_AT_low_pc(0x00)
    1788                      .dwattr $C$DW$183, DW_AT_name("_div32_32_Q")
    1789                      .dwattr $C$DW$183, DW_AT_TI_call
    1790              
    1791 00022c 6C00          CALL #_div32_32_Q ; |298| 
         00022e 0000!
    1792 000230 3DF4  ||      MOV #15, T0
    1793              
    1794                                                      ; call occurs [#_div32_32_Q] ; |298| 
    1795 000232 C048          MOV AC0, *SP(#36) ; |298| 
TMS320C55x Assembler PC v4.4.1 Wed Sep 13 16:33:40 2017

Tools Copyright (c) 1996-2012 Texas Instruments Incorporated
C:\Users\a0221074\AppData\Local\Temp\2132810                         PAGE   39

    1796 000234       $C$DW$L$_ss_noise_subs$30$E:
    1797 000234       $C$L44:    
    1798 000234       $C$DW$L$_ss_noise_subs$31$B:
    1799                      .dwpsn  file "C:/Users/a0221074/Desktop/C5000/IBM_Watson_TIdesign_workarea/CSL_bitbucket/c55_csl/c55x
    1800 000234 A948          MOV *SP(#36), AR1 ; |300| 
    1801 000236 7626          MOV #9830, AR2 ; |300| 
         000238 66A8 
    1802 00023a 1298          CMPU AR2 <= AR1, TC1 ; |300| 
         00023c A4   
    1803 00023d 6264          BCC $C$L45,TC1 ; |300| 
    1804                                                      ; branchcc occurs ; |300| 
    1805 00023f       $C$DW$L$_ss_noise_subs$31$E:
    1806 00023f       $C$DW$L$_ss_noise_subs$32$B:
    1807 00023f 7626          MOV #9830, AR1 ; |300| 
         000241 6698 
    1808 000243       $C$DW$L$_ss_noise_subs$32$E:
    1809 000243       $C$L45:    
    1810 000243       $C$DW$L$_ss_noise_subs$33$B:
    1811 000243 C948          MOV AR1, *SP(#36) ; |300| 
    1812                      .dwpsn  file "C:/Users/a0221074/Desktop/C5000/IBM_Watson_TIdesign_workarea/CSL_bitbucket/c55_csl/c55x
    1813 000245 767C          MOV #31785, AR2 ; |301| 
         000247 29A8 
    1814 000249 12A8          CMPU AR2 >= AR1, TC1 ; |301| 
         00024b 94   
    1815 00024c 6264          BCC $C$L46,TC1 ; |301| 
    1816                                                      ; branchcc occurs ; |301| 
    1817 00024e       $C$DW$L$_ss_noise_subs$33$E:
    1818 00024e       $C$DW$L$_ss_noise_subs$34$B:
    1819 00024e 767C          MOV #31785, AR1 ; |301| 
         000250 2998 
    1820 000252       $C$DW$L$_ss_noise_subs$34$E:
    1821 000252       $C$L46:    
    1822 000252       $C$DW$L$_ss_noise_subs$35$B:
    1823 000252 C948          MOV AR1, *SP(#36) ; |301| 
    1824                      .dwpsn  file "C:/Users/a0221074/Desktop/C5000/IBM_Watson_TIdesign_workarea/CSL_bitbucket/c55_csl/c55x
    1825 000254 3C00          MOV #0, AC0 ; |303| 
    1826 000256 7E80          OR #0x8000, AC0, AC0 ; |303| 
         000258 0000 
    1827 00025a DF48          SUB uns(*SP(#36)), AC0, AC0 ; |303| 
         00025c 0F   
    1828              
    1829 00025d A032          MOV *SP(#25), AC0 ; |303| 
    1830 00025f 2304  ||      MOV AC0, T0 ; |303| 
    1831              
    1832              $C$DW$184       .dwtag  DW_TAG_TI_branch
    1833                      .dwattr $C$DW$184, DW_AT_low_pc(0x00)
    1834                      .dwattr $C$DW$184, DW_AT_name("_q15_x")
    1835                      .dwattr $C$DW$184, DW_AT_TI_call
    1836 000261 6C00          CALL #_q15_x ; |303| 
         000263 0000!
    1837                                                      ; call occurs [#_q15_x] ; |303| 
    1838 000265 A42E          MOV *SP(#23), T0 ; |303| 
    1839 000267 ED08          MOV dbl(*SP(#4)), XAR3
         000269 BF   
    1840 00026a EB4C          MOV AC0, dbl(*SP(#38)) ; |303| 
TMS320C55x Assembler PC v4.4.1 Wed Sep 13 16:33:40 2017

Tools Copyright (c) 1996-2012 Texas Instruments Incorporated
C:\Users\a0221074\AppData\Local\Temp\2132810                         PAGE   40

         00026c 08   
    1841 00026d A06B          MOV *AR3(T0), AC0 ; |303| 
    1842 00026f A448          MOV *SP(#36), T0 ; |303| 
    1843              $C$DW$185       .dwtag  DW_TAG_TI_branch
    1844                      .dwattr $C$DW$185, DW_AT_low_pc(0x00)
    1845                      .dwattr $C$DW$185, DW_AT_name("_q15_x")
    1846                      .dwattr $C$DW$185, DW_AT_TI_call
    1847 000271 6C00          CALL #_q15_x ; |303| 
         000273 0000!
    1848                                                      ; call occurs [#_q15_x] ; |303| 
    1849 000275 A42E          MOV *SP(#23), T0 ; |303| 
    1850 000277 ED08          MOV dbl(*SP(#4)), XAR3
         000279 BF   
    1851 00027a ED4C          MOV dbl(*SP(#38)), AC1 ; |303| 
         00027c 18   
    1852 00027d 2401          ADD AC0, AC1 ; |303| 
    1853 00027f EB4C          MOV AC1, dbl(*SP(#38)) ; |303| 
         000281 18   
    1854 000282 A94E          MOV *SP(#39), AR1 ; |303| 
    1855 000284 C96B          MOV AR1, *AR3(T0) ; |303| 
    1856 000286       $C$DW$L$_ss_noise_subs$35$E:
    1857 000286       $C$L47:    
    1858 000286       $C$DW$L$_ss_noise_subs$36$B:
    1859                      .dwpsn  file "C:/Users/a0221074/Desktop/C5000/IBM_Watson_TIdesign_workarea/CSL_bitbucket/c55_csl/c55x
    1860              
    1861 000286 A910          MOV *SP(#8), AR1 ; |308| 
    1862 000288 3DAA  ||      MOV #10, AR2
    1863              
    1864 00028a 12A4          CMPU AR1 > AR2, TC1 ; |308| 
         00028c 94   
    1865 00028d 0464          BCC $C$L51,TC1 ; |308| 
         00028f 4D   
    1866                                                      ; branchcc occurs ; |308| 
    1867 000290       $C$DW$L$_ss_noise_subs$36$E:
    1868 000290       $C$DW$L$_ss_noise_subs$37$B:
    1869                      .dwpsn  file "C:/Users/a0221074/Desktop/C5000/IBM_Watson_TIdesign_workarea/CSL_bitbucket/c55_csl/c55x
    1870 000290 DF10          MOV uns(*SP(#8)), AC0 ; |309| 
         000292 05   
    1871 000293 1005          SFTS AC0, #15, AC0 ; |309| 
         000295 0F   
    1872 000296 EB18          MOV AC0, dbl(*SP(#12)) ; |309| 
         000298 08   
    1873                      .dwpsn  file "C:/Users/a0221074/Desktop/C5000/IBM_Watson_TIdesign_workarea/CSL_bitbucket/c55_csl/c55x
    1874 000299 A910          MOV *SP(#8), AR1 ; |310| 
    1875 00029b 4019          ADD #1, AR1 ; |310| 
    1876 00029d 7DFF          AND #0xffff, AR1, AC1 ; |310| 
         00029f FF19 
    1877 0002a1 ED18          MOV dbl(*SP(#12)), AC0 ; |310| 
         0002a3 08   
    1878              $C$DW$186       .dwtag  DW_TAG_TI_branch
    1879                      .dwattr $C$DW$186, DW_AT_low_pc(0x00)
    1880                      .dwattr $C$DW$186, DW_AT_name("__divli")
    1881                      .dwattr $C$DW$186, DW_AT_TI_call
    1882 0002a4 6C00          CALL #__divli ; |310| 
         0002a6 0000!
TMS320C55x Assembler PC v4.4.1 Wed Sep 13 16:33:40 2017

Tools Copyright (c) 1996-2012 Texas Instruments Incorporated
C:\Users\a0221074\AppData\Local\Temp\2132810                         PAGE   41

    1883                                                      ; call occurs [#__divli] ; |310| 
    1884 0002a8 EB18          MOV AC0, dbl(*SP(#12)) ; |310| 
         0002aa 08   
    1885                      .dwpsn  file "C:/Users/a0221074/Desktop/C5000/IBM_Watson_TIdesign_workarea/CSL_bitbucket/c55_csl/c55x
    1886 0002ab 7680          MOV #-32768, AC0 ; |311| 
         0002ad 0008 
    1887 0002af ED18          MOV dbl(*SP(#12)), AC1 ; |311| 
         0002b1 18   
    1888 0002b2 1208          CMP AC1 <= AC0, TC1 ; |311| 
         0002b4 10   
    1889 0002b5 61E4          BCC $C$L48,TC1 ; |311| 
    1890                                                      ; branchcc occurs ; |311| 
    1891 0002b7       $C$DW$L$_ss_noise_subs$37$E:
    1892 0002b7       $C$DW$L$_ss_noise_subs$38$B:
    1893 0002b7 ED18          MOV dbl(*SP(#12)), AC0 ; |311| 
         0002b9 08   
    1894 0002ba       $C$DW$L$_ss_noise_subs$38$E:
    1895 0002ba       $C$L48:    
    1896 0002ba       $C$DW$L$_ss_noise_subs$39$B:
    1897 0002ba 767F          MOV #32767, AC1 ; |311| 
         0002bc FF18 
    1898 0002be 1208          CMP AC0 >= AC1, TC1 ; |311| 
         0002c0 10   
    1899 0002c1 0464          BCC $C$L49,TC1 ; |311| 
         0002c3 11   
    1900                                                      ; branchcc occurs ; |311| 
    1901 0002c4       $C$DW$L$_ss_noise_subs$39$E:
    1902 0002c4       $C$DW$L$_ss_noise_subs$40$B:
    1903 0002c4 7680          MOV #-32768, AC0 ; |311| 
         0002c6 0008 
    1904 0002c8 ED18          MOV dbl(*SP(#12)), AC1 ; |311| 
         0002ca 18   
    1905 0002cb 1208          CMP AC1 <= AC0, TC1 ; |311| 
         0002cd 10   
    1906 0002ce 64E4          BCC $C$L50,TC1 ; |311| 
    1907                                                      ; branchcc occurs ; |311| 
    1908 0002d0       $C$DW$L$_ss_noise_subs$40$E:
    1909 0002d0       $C$DW$L$_ss_noise_subs$41$B:
    1910 0002d0 ED18          MOV dbl(*SP(#12)), AC0 ; |311| 
         0002d2 08   
    1911 0002d3 4A04          B $C$L50  ; |311| 
    1912                                                      ; branch occurs ; |311| 
    1913 0002d5       $C$DW$L$_ss_noise_subs$41$E:
    1914 0002d5       $C$L49:    
    1915 0002d5       $C$DW$L$_ss_noise_subs$42$B:
    1916 0002d5 767F          MOV #32767, AC0 ; |311| 
         0002d7 FF08 
    1917 0002d9       $C$DW$L$_ss_noise_subs$42$E:
    1918 0002d9       $C$L50:    
    1919 0002d9       $C$DW$L$_ss_noise_subs$43$B:
    1920 0002d9 C048          MOV AC0, *SP(#36) ; |311| 
    1921                      .dwpsn  file "C:/Users/a0221074/Desktop/C5000/IBM_Watson_TIdesign_workarea/CSL_bitbucket/c55_csl/c55x
    1922 0002db 4A04          B $C$L52  ; |312| 
    1923                                                      ; branch occurs ; |312| 
    1924 0002dd       $C$DW$L$_ss_noise_subs$43$E:
TMS320C55x Assembler PC v4.4.1 Wed Sep 13 16:33:40 2017

Tools Copyright (c) 1996-2012 Texas Instruments Incorporated
C:\Users\a0221074\AppData\Local\Temp\2132810                         PAGE   42

    1925 0002dd       $C$L51:    
    1926 0002dd       $C$DW$L$_ss_noise_subs$44$B:
    1927                      .dwpsn  file "C:/Users/a0221074/Desktop/C5000/IBM_Watson_TIdesign_workarea/CSL_bitbucket/c55_csl/c55x
    1928 0002dd FB48          MOV #29491, *SP(#36) ; |314| 
         0002df 7333 
    1929 0002e1       $C$DW$L$_ss_noise_subs$44$E:
    1930 0002e1       $C$L52:    
    1931 0002e1       $C$DW$L$_ss_noise_subs$45$B:
    1932                      .dwpsn  file "C:/Users/a0221074/Desktop/C5000/IBM_Watson_TIdesign_workarea/CSL_bitbucket/c55_csl/c55x
    1933 0002e1 ED08          MOV dbl(*SP(#4)), XAR3
         0002e3 BF   
    1934 0002e4 A42E          MOV *SP(#23), T0 ; |315| 
    1935 0002e6 3C00          MOV #0, AC0 ; |315| 
    1936 0002e8 7E80          OR #0x8000, AC0, AC0 ; |315| 
         0002ea 0000 
    1937 0002ec DF48          SUB uns(*SP(#36)), AC0, AC0 ; |315| 
         0002ee 0F   
    1938              
    1939 0002ef A06B          MOV *AR3(T0), AC0 ; |315| 
    1940 0002f1 2309  ||      MOV AC0, AR1 ; |315| 
    1941              
    1942              $C$DW$187       .dwtag  DW_TAG_TI_branch
    1943                      .dwattr $C$DW$187, DW_AT_low_pc(0x00)
    1944                      .dwattr $C$DW$187, DW_AT_name("_q15_x")
    1945                      .dwattr $C$DW$187, DW_AT_TI_call
    1946              
    1947 0002f3 6C00          CALL #_q15_x ; |315| 
         0002f5 0000!
    1948 0002f7 2394  ||      MOV AR1, T0 ; |315| 
    1949              
    1950                                                      ; call occurs [#_q15_x] ; |315| 
    1951 0002f9 A42E          MOV *SP(#23), T0 ; |315| 
    1952 0002fb ED44          MOV dbl(*SP(#34)), XAR3
         0002fd BF   
    1953 0002fe EB4C          MOV AC0, dbl(*SP(#38)) ; |315| 
         000300 08   
    1954 000301 A06B          MOV *AR3(T0), AC0 ; |315| 
    1955 000303 A448          MOV *SP(#36), T0 ; |315| 
    1956              $C$DW$188       .dwtag  DW_TAG_TI_branch
    1957                      .dwattr $C$DW$188, DW_AT_low_pc(0x00)
    1958                      .dwattr $C$DW$188, DW_AT_name("_q15_x")
    1959                      .dwattr $C$DW$188, DW_AT_TI_call
    1960 000305 6C00          CALL #_q15_x ; |315| 
         000307 0000!
    1961                                                      ; call occurs [#_q15_x] ; |315| 
    1962 000309 A42E          MOV *SP(#23), T0 ; |315| 
    1963 00030b ED44          MOV dbl(*SP(#34)), XAR3
         00030d BF   
    1964 00030e ED4C          MOV dbl(*SP(#38)), AC1 ; |315| 
         000310 18   
    1965 000311 2401          ADD AC0, AC1 ; |315| 
    1966 000313 EB4C          MOV AC1, dbl(*SP(#38)) ; |315| 
         000315 18   
    1967 000316 A94E          MOV *SP(#39), AR1 ; |315| 
    1968 000318 C96B          MOV AR1, *AR3(T0) ; |315| 
TMS320C55x Assembler PC v4.4.1 Wed Sep 13 16:33:40 2017

Tools Copyright (c) 1996-2012 Texas Instruments Incorporated
C:\Users\a0221074\AppData\Local\Temp\2132810                         PAGE   43

    1969 00031a       $C$DW$L$_ss_noise_subs$45$E:
    1970 00031a       $C$L53:    
    1971 00031a       $C$DW$L$_ss_noise_subs$46$B:
    1972                      .dwpsn  file "C:/Users/a0221074/Desktop/C5000/IBM_Watson_TIdesign_workarea/CSL_bitbucket/c55_csl/c55x
    1973 00031a A42E          MOV *SP(#23), T0 ; |319| 
    1974 00031c ED08          MOV dbl(*SP(#4)), XAR3
         00031e BF   
    1975 00031f A96B          MOV *AR3(T0), AR1 ; |319| 
    1976 000321 C934          MOV AR1, *SP(#26) ; |319| 
    1977                      .dwpsn  file "C:/Users/a0221074/Desktop/C5000/IBM_Watson_TIdesign_workarea/CSL_bitbucket/c55_csl/c55x
    1978 000323 A910          MOV *SP(#8), AR1 ; |321| 
    1979 000325 6719          BCC $C$L54,AR1 != #0 ; |321| 
    1980                                                      ; branchcc occurs ; |321| 
    1981 000327       $C$DW$L$_ss_noise_subs$46$E:
    1982 000327       $C$DW$L$_ss_noise_subs$47$B:
    1983                      .dwpsn  file "C:/Users/a0221074/Desktop/C5000/IBM_Watson_TIdesign_workarea/CSL_bitbucket/c55_csl/c55x
    1984 000327 ED0C          MOV dbl(*SP(#6)), XAR3
         000329 BF   
    1985 00032a A42E          MOV *SP(#23), T0 ; |322| 
    1986 00032c A934          MOV *SP(#26), AR1 ; |322| 
    1987 00032e D832          SUB AR1, *SP(#25), AR1 ; |322| 
         000330 99   
    1988 000331 C96B          MOV AR1, *AR3(T0) ; |322| 
    1989 000333 4A2B          B $C$L55  ; |322| 
    1990                                                      ; branch occurs ; |322| 
    1991 000335       $C$DW$L$_ss_noise_subs$47$E:
    1992 000335       $C$L54:    
    1993 000335       $C$DW$L$_ss_noise_subs$48$B:
    1994                      .dwpsn  file "C:/Users/a0221074/Desktop/C5000/IBM_Watson_TIdesign_workarea/CSL_bitbucket/c55_csl/c55x
    1995 000335 A42E          MOV *SP(#23), T0 ; |324| 
    1996 000337 ED0C          MOV dbl(*SP(#6)), XAR3
         000339 BF   
    1997 00033a A06B          MOV *AR3(T0), AC0 ; |324| 
    1998 00033c 760C          MOV #3276, T0 ; |324| 
         00033e CC48 
    1999              $C$DW$189       .dwtag  DW_TAG_TI_branch
    2000                      .dwattr $C$DW$189, DW_AT_low_pc(0x00)
    2001                      .dwattr $C$DW$189, DW_AT_name("_q15_x")
    2002                      .dwattr $C$DW$189, DW_AT_TI_call
    2003 000340 6C00          CALL #_q15_x ; |324| 
         000342 0000!
    2004                                                      ; call occurs [#_q15_x] ; |324| 
    2005 000344 A934          MOV *SP(#26), AR1 ; |324| 
    2006 000346 7673          MOV #29491, T0 ; |324| 
         000348 3348 
    2007 00034a EB4C          MOV AC0, dbl(*SP(#38)) ; |324| 
         00034c 08   
    2008 00034d D832          SUB AR1, *SP(#25), AR1 ; |324| 
         00034f 99   
    2009              $C$DW$190       .dwtag  DW_TAG_TI_branch
    2010                      .dwattr $C$DW$190, DW_AT_low_pc(0x00)
    2011                      .dwattr $C$DW$190, DW_AT_name("_q15_x")
    2012                      .dwattr $C$DW$190, DW_AT_TI_call
    2013              
    2014 000350 6C00          CALL #_q15_x ; |324| 
TMS320C55x Assembler PC v4.4.1 Wed Sep 13 16:33:40 2017

Tools Copyright (c) 1996-2012 Texas Instruments Incorporated
C:\Users\a0221074\AppData\Local\Temp\2132810                         PAGE   44

         000352 0000!
    2015 000354 2390  ||      MOV AR1, AC0
    2016              
    2017                                                      ; call occurs [#_q15_x] ; |324| 
    2018 000356 A42E          MOV *SP(#23), T0 ; |324| 
    2019 000358 ED0C          MOV dbl(*SP(#6)), XAR3
         00035a BF   
    2020 00035b ED4C          ADD dbl(*SP(#38)), AC0, AC0 ; |324| 
         00035d 00   
    2021 00035e C06B          MOV AC0, *AR3(T0) ; |324| 
    2022 000360       $C$DW$L$_ss_noise_subs$48$E:
    2023 000360       $C$L55:    
    2024 000360       $C$DW$L$_ss_noise_subs$49$B:
    2025                      .dwpsn  file "C:/Users/a0221074/Desktop/C5000/IBM_Watson_TIdesign_workarea/CSL_bitbucket/c55_csl/c55x
    2026 000360 A42E          MOV *SP(#23), T0 ; |325| 
    2027 000362 ED0C          MOV dbl(*SP(#6)), XAR3
         000364 BF   
    2028 000365 A96B          MOV *AR3(T0), AR1 ; |325| 
    2029 000367 3499          NEG AR1, AR1 ; |325| 
    2030 000369 2290          MOV AR1, AC0
    2031 00036b EB18          MOV AC0, dbl(*SP(#12)) ; |325| 
         00036d 08   
    2032                      .dwpsn  file "C:/Users/a0221074/Desktop/C5000/IBM_Watson_TIdesign_workarea/CSL_bitbucket/c55_csl/c55x
    2033 00036e ED18          MOV dbl(*SP(#12)), AC1 ; |339| 
         000370 18   
    2034 000371 76FF          MOV #-127, AC0 ; |339| 
         000373 8108 
    2035 000375 1214          CMP AC1 < AC0, TC1 ; |339| 
         000377 00   
    2036 000378 6564          BCC $C$L56,TC1 ; |339| 
    2037                                                      ; branchcc occurs ; |339| 
    2038 00037a       $C$DW$L$_ss_noise_subs$49$E:
    2039 00037a       $C$DW$L$_ss_noise_subs$50$B:
    2040                      .dwpsn  file "C:/Users/a0221074/Desktop/C5000/IBM_Watson_TIdesign_workarea/CSL_bitbucket/c55_csl/c55x
    2041 00037a 76FA          MOV #-1361, AC0 ; |340| 
         00037c AF08 
    2042 00037e EB18          MOV AC0, dbl(*SP(#12)) ; |340| 
         000380 08   
    2043                      .dwpsn  file "C:/Users/a0221074/Desktop/C5000/IBM_Watson_TIdesign_workarea/CSL_bitbucket/c55_csl/c55x
    2044 000381 0600          B $C$L58  ; |341| 
         000383 4F   
    2045                                                      ; branch occurs ; |341| 
    2046 000384       $C$DW$L$_ss_noise_subs$50$E:
    2047 000384       $C$L56:    
    2048 000384       $C$DW$L$_ss_noise_subs$51$B:
    2049                      .dwpsn  file "C:/Users/a0221074/Desktop/C5000/IBM_Watson_TIdesign_workarea/CSL_bitbucket/c55_csl/c55x
    2050 000384 ED18          MOV dbl(*SP(#12)), AC0 ; |342| 
         000386 08   
    2051 000387 7601          MOV #355, AC1 ; |342| 
         000389 6318 
    2052              $C$DW$191       .dwtag  DW_TAG_TI_branch
    2053                      .dwattr $C$DW$191, DW_AT_low_pc(0x00)
    2054                      .dwattr $C$DW$191, DW_AT_name("__mpyli")
    2055                      .dwattr $C$DW$191, DW_AT_TI_call
    2056 00038b 6C00          CALL #__mpyli ; |342| 
TMS320C55x Assembler PC v4.4.1 Wed Sep 13 16:33:40 2017

Tools Copyright (c) 1996-2012 Texas Instruments Incorporated
C:\Users\a0221074\AppData\Local\Temp\2132810                         PAGE   45

         00038d 0000!
    2057                                                      ; call occurs [#__mpyli] ; |342| 
    2058 00038f EB18          MOV AC0, dbl(*SP(#12)) ; |342| 
         000391 08   
    2059                      .dwpsn  file "C:/Users/a0221074/Desktop/C5000/IBM_Watson_TIdesign_workarea/CSL_bitbucket/c55_csl/c55x
    2060 000392 ED18          MOV dbl(*SP(#12)), AC0 ; |343| 
         000394 08   
    2061 000395 1005          SFTS AC0, #-9, AC0 ; |343| 
         000397 37   
    2062 000398 EB18          MOV AC0, dbl(*SP(#12)) ; |343| 
         00039a 08   
    2063                      .dwpsn  file "C:/Users/a0221074/Desktop/C5000/IBM_Watson_TIdesign_workarea/CSL_bitbucket/c55_csl/c55x
    2064 00039b A41A          MOV *SP(#13), T0 ; |344| 
    2065              $C$DW$192       .dwtag  DW_TAG_TI_branch
    2066                      .dwattr $C$DW$192, DW_AT_low_pc(0x00)
    2067                      .dwattr $C$DW$192, DW_AT_name("_hlr_expn")
    2068                      .dwattr $C$DW$192, DW_AT_TI_call
    2069              
    2070 00039d 6C00          CALL #_hlr_expn ; |344| 
         00039f 0000!
    2071 0003a1 3D95  ||      MOV #9, T1
    2072              
    2073                                                      ; call occurs [#_hlr_expn] ; |344| 
    2074 0003a3 7DFF          AND #0xffff, T0, AC0 ; |344| 
         0003a5 FF04 
    2075 0003a7 EB18          MOV AC0, dbl(*SP(#12)) ; |344| 
         0003a9 08   
    2076                      .dwpsn  file "C:/Users/a0221074/Desktop/C5000/IBM_Watson_TIdesign_workarea/CSL_bitbucket/c55_csl/c55x
    2077 0003aa DF2C          MOV uns(*SP(#22)), AC0 ; |345| 
         0003ac 05   
    2078 0003ad ED18          SUB dbl(*SP(#12)), AC0, AC0 ; |345| 
         0003af 02   
    2079 0003b0 EB18          MOV AC0, dbl(*SP(#12)) ; |345| 
         0003b2 08   
    2080                      .dwpsn  file "C:/Users/a0221074/Desktop/C5000/IBM_Watson_TIdesign_workarea/CSL_bitbucket/c55_csl/c55x
    2081 0003b3 ED18          MOV dbl(*SP(#12)), AC0 ; |346| 
         0003b5 08   
    2082              $C$DW$193       .dwtag  DW_TAG_TI_branch
    2083                      .dwattr $C$DW$193, DW_AT_low_pc(0x00)
    2084                      .dwattr $C$DW$193, DW_AT_name("_log_polyfit")
    2085                      .dwattr $C$DW$193, DW_AT_TI_call
    2086              
    2087 0003b6 6C00          CALL #_log_polyfit ; |346| 
         0003b8 0000!
    2088 0003ba 3DF4  ||      MOV #15, T0
    2089              
    2090                                                      ; call occurs [#_log_polyfit] ; |346| 
    2091 0003bc 2240          MOV T0, AC0
    2092 0003be EB18          MOV AC0, dbl(*SP(#12)) ; |346| 
         0003c0 08   
    2093                      .dwpsn  file "C:/Users/a0221074/Desktop/C5000/IBM_Watson_TIdesign_workarea/CSL_bitbucket/c55_csl/c55x
    2094 0003c1 76FA          MOV #-1361, AC0 ; |347| 
         0003c3 AF08 
    2095 0003c5 ED18          MOV dbl(*SP(#12)), AC1 ; |347| 
         0003c7 18   
TMS320C55x Assembler PC v4.4.1 Wed Sep 13 16:33:40 2017

Tools Copyright (c) 1996-2012 Texas Instruments Incorporated
C:\Users\a0221074\AppData\Local\Temp\2132810                         PAGE   46

    2096 0003c8 1208          CMP AC1 <= AC0, TC1 ; |347| 
         0003ca 10   
    2097 0003cb 61E4          BCC $C$L57,TC1 ; |347| 
    2098                                                      ; branchcc occurs ; |347| 
    2099 0003cd       $C$DW$L$_ss_noise_subs$51$E:
    2100 0003cd       $C$DW$L$_ss_noise_subs$52$B:
    2101 0003cd ED18          MOV dbl(*SP(#12)), AC0 ; |347| 
         0003cf 08   
    2102 0003d0       $C$DW$L$_ss_noise_subs$52$E:
    2103 0003d0       $C$L57:    
    2104 0003d0       $C$DW$L$_ss_noise_subs$53$B:
    2105 0003d0 EB18          MOV AC0, dbl(*SP(#12)) ; |347| 
         0003d2 08   
    2106 0003d3       $C$DW$L$_ss_noise_subs$53$E:
    2107 0003d3       $C$L58:    
    2108 0003d3       $C$DW$L$_ss_noise_subs$54$B:
    2109                      .dwpsn  file "C:/Users/a0221074/Desktop/C5000/IBM_Watson_TIdesign_workarea/CSL_bitbucket/c55_csl/c55x
    2110 0003d3 ED18          MOV dbl(*SP(#12)), AC0 ; |350| 
         0003d5 08   
    2111 0003d6 EB1C          MOV AC0, dbl(*SP(#14)) ; |350| 
         0003d8 08   
    2112                      .dwpsn  file "C:/Users/a0221074/Desktop/C5000/IBM_Watson_TIdesign_workarea/CSL_bitbucket/c55_csl/c55x
    2113 0003d9 A92E          MOV *SP(#23), AR1 ; |351| 
    2114 0003db 0439          BCC $C$L59,AR1 <= #0 ; |351| 
         0003dd 19   
    2115                                                      ; branchcc occurs ; |351| 
    2116 0003de       $C$DW$L$_ss_noise_subs$54$E:
    2117 0003de       $C$DW$L$_ss_noise_subs$55$B:
    2118                      .dwpsn  file "C:/Users/a0221074/Desktop/C5000/IBM_Watson_TIdesign_workarea/CSL_bitbucket/c55_csl/c55x
    2119 0003de ED1C          MOV dbl(*SP(#14)), AC0 ; |353| 
         0003e0 08   
    2120 0003e1 1045          SFTS AC0, #3, AC1 ; |353| 
         0003e3 03   
    2121 0003e4 2601          SUB AC0, AC1 ; |353| 
    2122 0003e6 ED3C          ADD dbl(*SP(#30)), AC1, AC0 ; |353| 
         0003e8 40   
    2123 0003e9 EB40          MOV AC0, dbl(*SP(#32)) ; |353| 
         0003eb 08   
    2124                      .dwpsn  file "C:/Users/a0221074/Desktop/C5000/IBM_Watson_TIdesign_workarea/CSL_bitbucket/c55_csl/c55x
    2125 0003ec ED40          MOV dbl(*SP(#32)), AC0 ; |354| 
         0003ee 08   
    2126 0003ef 1005          SFTS AC0, #-3, AC0 ; |354| 
         0003f1 3D   
    2127 0003f2 EB40          MOV AC0, dbl(*SP(#32)) ; |354| 
         0003f4 08   
    2128                      .dwpsn  file "C:/Users/a0221074/Desktop/C5000/IBM_Watson_TIdesign_workarea/CSL_bitbucket/c55_csl/c55x
    2129 0003f5 4A06          B $C$L60  ; |355| 
    2130                                                      ; branch occurs ; |355| 
    2131 0003f7       $C$DW$L$_ss_noise_subs$55$E:
    2132 0003f7       $C$L59:    
    2133 0003f7       $C$DW$L$_ss_noise_subs$56$B:
    2134                      .dwpsn  file "C:/Users/a0221074/Desktop/C5000/IBM_Watson_TIdesign_workarea/CSL_bitbucket/c55_csl/c55x
    2135 0003f7 ED18          MOV dbl(*SP(#12)), AC0 ; |355| 
         0003f9 08   
    2136 0003fa EB40          MOV AC0, dbl(*SP(#32)) ; |355| 
TMS320C55x Assembler PC v4.4.1 Wed Sep 13 16:33:40 2017

Tools Copyright (c) 1996-2012 Texas Instruments Incorporated
C:\Users\a0221074\AppData\Local\Temp\2132810                         PAGE   47

         0003fc 08   
    2137 0003fd       $C$DW$L$_ss_noise_subs$56$E:
    2138 0003fd       $C$L60:    
    2139 0003fd       $C$DW$L$_ss_noise_subs$57$B:
    2140                      .dwpsn  file "C:/Users/a0221074/Desktop/C5000/IBM_Watson_TIdesign_workarea/CSL_bitbucket/c55_csl/c55x
    2141 0003fd ED40          MOV dbl(*SP(#32)), AC0 ; |356| 
         0003ff 08   
    2142 000400 EB3C          MOV AC0, dbl(*SP(#30)) ; |356| 
         000402 08   
    2143                      .dwpsn  file "C:/Users/a0221074/Desktop/C5000/IBM_Watson_TIdesign_workarea/CSL_bitbucket/c55_csl/c55x
    2144 000403 A032          MOV *SP(#25), AC0 ; |363| 
    2145 000405 ED40          ADD dbl(*SP(#32)), AC0, AC0 ; |363| 
         000407 00   
    2146 000408 EB1C          MOV AC0, dbl(*SP(#14)) ; |363| 
         00040a 08   
    2147                      .dwpsn  file "C:/Users/a0221074/Desktop/C5000/IBM_Watson_TIdesign_workarea/CSL_bitbucket/c55_csl/c55x
    2148 00040b ED1C          MOV dbl(*SP(#14)), AC0 ; |366| 
         00040d 08   
    2149 00040e EB18          MOV AC0, dbl(*SP(#12)) ; |366| 
         000410 08   
    2150                      .dwpsn  file "C:/Users/a0221074/Desktop/C5000/IBM_Watson_TIdesign_workarea/CSL_bitbucket/c55_csl/c55x
    2151 000411 763D          MOV #15870, AC0 ; |367| 
         000413 FE08 
    2152 000415 ED18          SUB AC0, dbl(*SP(#12)), AC0 ; |367| 
         000417 04   
    2153 000418 EB18          MOV AC0, dbl(*SP(#12)) ; |367| 
         00041a 08   
    2154                      .dwpsn  file "C:/Users/a0221074/Desktop/C5000/IBM_Watson_TIdesign_workarea/CSL_bitbucket/c55_csl/c55x
    2155 00041b ED18          MOV dbl(*SP(#12)), AC0 ; |368| 
         00041d 08   
    2156 00041e 62D0          BCC $C$L61,AC0 >= #0 ; |368| 
    2157                                                      ; branchcc occurs ; |368| 
    2158 000420       $C$DW$L$_ss_noise_subs$57$E:
    2159 000420       $C$DW$L$_ss_noise_subs$58$B:
    2160                      .dwpsn  file "C:/Users/a0221074/Desktop/C5000/IBM_Watson_TIdesign_workarea/CSL_bitbucket/c55_csl/c55x
    2161 000420 E636          MOV #0, *SP(#27) ; |368| 
         000422 00   
    2162 000423 4A14          B $C$L63  ; |368| 
    2163                                                      ; branch occurs ; |368| 
    2164 000425       $C$DW$L$_ss_noise_subs$58$E:
    2165 000425       $C$L61:    
    2166 000425       $C$DW$L$_ss_noise_subs$59$B:
    2167                      .dwpsn  file "C:/Users/a0221074/Desktop/C5000/IBM_Watson_TIdesign_workarea/CSL_bitbucket/c55_csl/c55x
    2168 000425 ED18          MOV dbl(*SP(#12)), AC0 ; |369| 
         000427 08   
    2169 000428 6290          BCC $C$L62,AC0 != #0 ; |369| 
    2170                                                      ; branchcc occurs ; |369| 
    2171 00042a       $C$DW$L$_ss_noise_subs$59$E:
    2172 00042a       $C$DW$L$_ss_noise_subs$60$B:
    2173                      .dwpsn  file "C:/Users/a0221074/Desktop/C5000/IBM_Watson_TIdesign_workarea/CSL_bitbucket/c55_csl/c55x
    2174 00042a E636          MOV #1, *SP(#27) ; |369| 
         00042c 01   
    2175 00042d 4A0A          B $C$L63  ; |369| 
    2176                                                      ; branch occurs ; |369| 
    2177 00042f       $C$DW$L$_ss_noise_subs$60$E:
TMS320C55x Assembler PC v4.4.1 Wed Sep 13 16:33:40 2017

Tools Copyright (c) 1996-2012 Texas Instruments Incorporated
C:\Users\a0221074\AppData\Local\Temp\2132810                         PAGE   48

    2178 00042f       $C$L62:    
    2179 00042f       $C$DW$L$_ss_noise_subs$61$B:
    2180                      .dwpsn  file "C:/Users/a0221074/Desktop/C5000/IBM_Watson_TIdesign_workarea/CSL_bitbucket/c55_csl/c55x
    2181 00042f ED18          MOV dbl(*SP(#12)), AC0 ; |370| 
         000431 08   
    2182 000432 1005          SFTS AC0, #-9, AC0 ; |370| 
         000434 37   
    2183 000435 4010          ADD #1, AC0 ; |370| 
    2184 000437 C036          MOV AC0, *SP(#27) ; |370| 
    2185 000439       $C$DW$L$_ss_noise_subs$61$E:
    2186 000439       $C$L63:    
    2187 000439       $C$DW$L$_ss_noise_subs$62$B:
    2188                      .dwpsn  file "C:/Users/a0221074/Desktop/C5000/IBM_Watson_TIdesign_workarea/CSL_bitbucket/c55_csl/c55x
    2189 000439 A91E          MOV *SP(#15), AR1 ; |372| 
    2190 00043b C932          MOV AR1, *SP(#25) ; |372| 
    2191                      .dwpsn  file "C:/Users/a0221074/Desktop/C5000/IBM_Watson_TIdesign_workarea/CSL_bitbucket/c55_csl/c55x
    2192 00043d F936          MOV *SP(#27) << #9, AC0 ; |373| 
         00043f 0908 
    2193 000441 D832          SUB AC0, *SP(#25), AR1 ; |373| 
         000443 90   
    2194 000444 C932          MOV AR1, *SP(#25) ; |373| 
    2195                      .dwpsn  file "C:/Users/a0221074/Desktop/C5000/IBM_Watson_TIdesign_workarea/CSL_bitbucket/c55_csl/c55x
    2196              $C$DW$194       .dwtag  DW_TAG_TI_branch
    2197                      .dwattr $C$DW$194, DW_AT_low_pc(0x00)
    2198                      .dwattr $C$DW$194, DW_AT_name("_pow_polyfit")
    2199                      .dwattr $C$DW$194, DW_AT_TI_call
    2200              
    2201 000446 6C00          CALL #_pow_polyfit ; |374| 
         000448 0000!
    2202 00044a 2394  ||      MOV AR1, T0
    2203              
    2204                                                      ; call occurs [#_pow_polyfit] ; |374| 
    2205 00044c EB20          MOV AC0, dbl(*SP(#16)) ; |374| 
         00044e 08   
    2206                      .dwpsn  file "C:/Users/a0221074/Desktop/C5000/IBM_Watson_TIdesign_workarea/CSL_bitbucket/c55_csl/c55x
    2207 00044f ED20          MOV dbl(*SP(#16)), AC0 ; |376| 
         000451 08   
    2208 000452 EB24          MOV AC0, dbl(*SP(#18)) ; |376| 
         000454 08   
    2209                      .dwpsn  file "C:/Users/a0221074/Desktop/C5000/IBM_Watson_TIdesign_workarea/CSL_bitbucket/c55_csl/c55x
    2210 000455 A904          MOV *SP(#2), AR1 ; |378| 
    2211 000457 D636          ADD *SP(#27), AR1, AR1 ; |378| 
         000459 99   
    2212 00045a C938          MOV AR1, *SP(#28) ; |378| 
    2213                      .dwpsn  file "C:/Users/a0221074/Desktop/C5000/IBM_Watson_TIdesign_workarea/CSL_bitbucket/c55_csl/c55x
    2214 00045c 6629          BCC $C$L64,AR1 < #0 ; |379| 
    2215                                                      ; branchcc occurs ; |379| 
    2216 00045e       $C$DW$L$_ss_noise_subs$62$E:
    2217 00045e       $C$DW$L$_ss_noise_subs$63$B:
    2218                      .dwpsn  file "C:/Users/a0221074/Desktop/C5000/IBM_Watson_TIdesign_workarea/CSL_bitbucket/c55_csl/c55x
    2219              
    2220 00045e ED24          MOV dbl(*SP(#18)), AC0 ; |379| 
         000460 08   
    2221 000461 2395  ||      MOV AR1, T1 ; |379| 
    2222              
TMS320C55x Assembler PC v4.4.1 Wed Sep 13 16:33:40 2017

Tools Copyright (c) 1996-2012 Texas Instruments Incorporated
C:\Users\a0221074\AppData\Local\Temp\2132810                         PAGE   49

    2223 000463 5C05          SFTS AC0, T1, AC0 ; |379| 
    2224 000465 EB24          MOV AC0, dbl(*SP(#18)) ; |379| 
         000467 08   
    2225 000468 4A0A          B $C$L65  ; |379| 
    2226                                                      ; branch occurs ; |379| 
    2227 00046a       $C$DW$L$_ss_noise_subs$63$E:
    2228 00046a       $C$L64:    
    2229 00046a       $C$DW$L$_ss_noise_subs$64$B:
    2230                      .dwpsn  file "C:/Users/a0221074/Desktop/C5000/IBM_Watson_TIdesign_workarea/CSL_bitbucket/c55_csl/c55x
    2231              
    2232 00046a ED24          MOV dbl(*SP(#18)), AC0 ; |380| 
         00046c 08   
    2233 00046d 2395  ||      MOV AR1, T1 ; |380| 
    2234              
    2235 00046f 5C05          SFTS AC0, T1, AC0 ; |380| 
    2236 000471 EB24          MOV AC0, dbl(*SP(#18)) ; |380| 
         000473 08   
    2237 000474       $C$DW$L$_ss_noise_subs$64$E:
    2238 000474       $C$L65:    
    2239 000474       $C$DW$L$_ss_noise_subs$65$B:
    2240                      .dwpsn  file "C:/Users/a0221074/Desktop/C5000/IBM_Watson_TIdesign_workarea/CSL_bitbucket/c55_csl/c55x
    2241 000474 7680          MOV #-32768, AC0 ; |382| 
         000476 0008 
    2242 000478 ED24          MOV dbl(*SP(#18)), AC1 ; |382| 
         00047a 18   
    2243 00047b 1208          CMP AC1 <= AC0, TC1 ; |382| 
         00047d 10   
    2244 00047e 61E4          BCC $C$L66,TC1 ; |382| 
    2245                                                      ; branchcc occurs ; |382| 
    2246 000480       $C$DW$L$_ss_noise_subs$65$E:
    2247 000480       $C$DW$L$_ss_noise_subs$66$B:
    2248 000480 ED24          MOV dbl(*SP(#18)), AC0 ; |382| 
         000482 08   
    2249 000483       $C$DW$L$_ss_noise_subs$66$E:
    2250 000483       $C$L66:    
    2251 000483       $C$DW$L$_ss_noise_subs$67$B:
    2252 000483 767F          MOV #32767, AC1 ; |382| 
         000485 FF18 
    2253 000487 1208          CMP AC0 >= AC1, TC1 ; |382| 
         000489 10   
    2254 00048a 0464          BCC $C$L67,TC1 ; |382| 
         00048c 11   
    2255                                                      ; branchcc occurs ; |382| 
    2256 00048d       $C$DW$L$_ss_noise_subs$67$E:
    2257 00048d       $C$DW$L$_ss_noise_subs$68$B:
    2258 00048d 7680          MOV #-32768, AC0 ; |382| 
         00048f 0008 
    2259 000491 ED24          MOV dbl(*SP(#18)), AC1 ; |382| 
         000493 18   
    2260 000494 1208          CMP AC1 <= AC0, TC1 ; |382| 
         000496 10   
    2261 000497 64E4          BCC $C$L68,TC1 ; |382| 
    2262                                                      ; branchcc occurs ; |382| 
    2263 000499       $C$DW$L$_ss_noise_subs$68$E:
    2264 000499       $C$DW$L$_ss_noise_subs$69$B:
TMS320C55x Assembler PC v4.4.1 Wed Sep 13 16:33:40 2017

Tools Copyright (c) 1996-2012 Texas Instruments Incorporated
C:\Users\a0221074\AppData\Local\Temp\2132810                         PAGE   50

    2265 000499 ED24          MOV dbl(*SP(#18)), AC0 ; |382| 
         00049b 08   
    2266 00049c 4A04          B $C$L68  ; |382| 
    2267                                                      ; branch occurs ; |382| 
    2268 00049e       $C$DW$L$_ss_noise_subs$69$E:
    2269 00049e       $C$L67:    
    2270 00049e       $C$DW$L$_ss_noise_subs$70$B:
    2271 00049e 767F          MOV #32767, AC0 ; |382| 
         0004a0 FF08 
    2272 0004a2       $C$DW$L$_ss_noise_subs$70$E:
    2273 0004a2       $C$L68:    
    2274 0004a2       $C$DW$L$_ss_noise_subs$71$B:
    2275 0004a2 ED00          MOV dbl(*SP(#0)), XAR3
         0004a4 BF   
    2276 0004a5 A42E          MOV *SP(#23), T0 ; |382| 
    2277 0004a7 C06B          MOV AC0, *AR3(T0) ; |382| 
    2278                      .dwpsn  file "C:/Users/a0221074/Desktop/C5000/IBM_Watson_TIdesign_workarea/CSL_bitbucket/c55_csl/c55x
    2279 0004a9 F72E          ADD #1, *SP(#23) ; |257| 
         0004ab 0001 
    2280                      .dwpsn  file "C:/Users/a0221074/Desktop/C5000/IBM_Watson_TIdesign_workarea/CSL_bitbucket/c55_csl/c55x
    2281 0004ad A930          MOV *SP(#24), AR1 ; |257| 
    2282 0004af AA2E          MOV *SP(#23), AR2 ; |257| 
    2283 0004b1 12A4          CMP AR2 < AR1, TC1 ; |257| 
         0004b3 90   
    2284 0004b4 6D64          BCC $C$L29,TC1 ; |257| 
         0004b6 FBD0 
    2285                                                      ; branchcc occurs ; |257| 
    2286 0004b8       $C$DW$L$_ss_noise_subs$71$E:
    2287 0004b8       $C$L69:    
    2288                      .dwpsn  file "C:/Users/a0221074/Desktop/C5000/IBM_Watson_TIdesign_workarea/CSL_bitbucket/c55_csl/c55x
    2289              
    2290 0004b8 A910          MOV *SP(#8), AR1 ; |390| 
    2291 0004ba 3D9A  ||      MOV #9, AR2
    2292              
    2293 0004bc 12A4          CMPU AR1 > AR2, TC1 ; |390| 
         0004be 94   
    2294 0004bf 65E4          BCC $C$L70,TC1 ; |390| 
    2295                                                      ; branchcc occurs ; |390| 
    2296                      .dwpsn  file "C:/Users/a0221074/Desktop/C5000/IBM_Watson_TIdesign_workarea/CSL_bitbucket/c55_csl/c55x
    2297 0004c1 ED14          MOV dbl(*SP(#10)), XAR3
         0004c3 BF   
    2298 0004c4 A96D          MOV *AR3(#13), AR1 ; |392| 
         0004c6 000D 
    2299 0004c8 C96D          MOV AR1, *AR3(#15) ; |392| 
         0004ca 000F 
    2300                      .dwpsn  file "C:/Users/a0221074/Desktop/C5000/IBM_Watson_TIdesign_workarea/CSL_bitbucket/c55_csl/c55x
    2301 0004cc       $C$L70:    
    2302 0004cc 4E29          AADD #41, SP
    2303                      .dwcfi  cfa_offset, 1
    2304              $C$DW$195       .dwtag  DW_TAG_TI_branch
    2305                      .dwattr $C$DW$195, DW_AT_low_pc(0x00)
    2306                      .dwattr $C$DW$195, DW_AT_TI_return
    2307 0004ce 4804          RET
    2308                                                      ; return occurs
    2309              
TMS320C55x Assembler PC v4.4.1 Wed Sep 13 16:33:40 2017

Tools Copyright (c) 1996-2012 Texas Instruments Incorporated
C:\Users\a0221074\AppData\Local\Temp\2132810                         PAGE   51

    2310              $C$DW$196       .dwtag  DW_TAG_TI_loop
    2311                      .dwattr $C$DW$196, DW_AT_name("C:\\Users\\a0221074\\AppData\\Local\\Temp\\2132810:$C$L29:1:1505334818
    2312                      .dwattr $C$DW$196, DW_AT_TI_begin_file("C:/Users/a0221074/Desktop/C5000/IBM_Watson_TIdesign_workarea/
    2313                      .dwattr $C$DW$196, DW_AT_TI_begin_line(0x101)
    2314                      .dwattr $C$DW$196, DW_AT_TI_end_line(0x17f)
    2315              $C$DW$197       .dwtag  DW_TAG_TI_loop_range
    2316                      .dwattr $C$DW$197, DW_AT_low_pc($C$DW$L$_ss_noise_subs$5$B)
    2317                      .dwattr $C$DW$197, DW_AT_high_pc($C$DW$L$_ss_noise_subs$5$E)
    2318              $C$DW$198       .dwtag  DW_TAG_TI_loop_range
    2319                      .dwattr $C$DW$198, DW_AT_low_pc($C$DW$L$_ss_noise_subs$59$B)
    2320                      .dwattr $C$DW$198, DW_AT_high_pc($C$DW$L$_ss_noise_subs$59$E)
    2321              $C$DW$199       .dwtag  DW_TAG_TI_loop_range
    2322                      .dwattr $C$DW$199, DW_AT_low_pc($C$DW$L$_ss_noise_subs$51$B)
    2323                      .dwattr $C$DW$199, DW_AT_high_pc($C$DW$L$_ss_noise_subs$51$E)
    2324              $C$DW$200       .dwtag  DW_TAG_TI_loop_range
    2325                      .dwattr $C$DW$200, DW_AT_low_pc($C$DW$L$_ss_noise_subs$52$B)
    2326                      .dwattr $C$DW$200, DW_AT_high_pc($C$DW$L$_ss_noise_subs$52$E)
    2327              $C$DW$201       .dwtag  DW_TAG_TI_loop_range
    2328                      .dwattr $C$DW$201, DW_AT_low_pc($C$DW$L$_ss_noise_subs$22$B)
    2329                      .dwattr $C$DW$201, DW_AT_high_pc($C$DW$L$_ss_noise_subs$22$E)
    2330              $C$DW$202       .dwtag  DW_TAG_TI_loop_range
    2331                      .dwattr $C$DW$202, DW_AT_low_pc($C$DW$L$_ss_noise_subs$23$B)
    2332                      .dwattr $C$DW$202, DW_AT_high_pc($C$DW$L$_ss_noise_subs$23$E)
    2333              $C$DW$203       .dwtag  DW_TAG_TI_loop_range
    2334                      .dwattr $C$DW$203, DW_AT_low_pc($C$DW$L$_ss_noise_subs$24$B)
    2335                      .dwattr $C$DW$203, DW_AT_high_pc($C$DW$L$_ss_noise_subs$24$E)
    2336              $C$DW$204       .dwtag  DW_TAG_TI_loop_range
    2337                      .dwattr $C$DW$204, DW_AT_low_pc($C$DW$L$_ss_noise_subs$25$B)
    2338                      .dwattr $C$DW$204, DW_AT_high_pc($C$DW$L$_ss_noise_subs$25$E)
    2339              $C$DW$205       .dwtag  DW_TAG_TI_loop_range
    2340                      .dwattr $C$DW$205, DW_AT_low_pc($C$DW$L$_ss_noise_subs$26$B)
    2341                      .dwattr $C$DW$205, DW_AT_high_pc($C$DW$L$_ss_noise_subs$26$E)
    2342              $C$DW$206       .dwtag  DW_TAG_TI_loop_range
    2343                      .dwattr $C$DW$206, DW_AT_low_pc($C$DW$L$_ss_noise_subs$27$B)
    2344                      .dwattr $C$DW$206, DW_AT_high_pc($C$DW$L$_ss_noise_subs$27$E)
    2345              $C$DW$207       .dwtag  DW_TAG_TI_loop_range
    2346                      .dwattr $C$DW$207, DW_AT_low_pc($C$DW$L$_ss_noise_subs$28$B)
    2347                      .dwattr $C$DW$207, DW_AT_high_pc($C$DW$L$_ss_noise_subs$28$E)
    2348              $C$DW$208       .dwtag  DW_TAG_TI_loop_range
    2349                      .dwattr $C$DW$208, DW_AT_low_pc($C$DW$L$_ss_noise_subs$29$B)
    2350                      .dwattr $C$DW$208, DW_AT_high_pc($C$DW$L$_ss_noise_subs$29$E)
    2351              $C$DW$209       .dwtag  DW_TAG_TI_loop_range
    2352                      .dwattr $C$DW$209, DW_AT_low_pc($C$DW$L$_ss_noise_subs$30$B)
    2353                      .dwattr $C$DW$209, DW_AT_high_pc($C$DW$L$_ss_noise_subs$30$E)
    2354              $C$DW$210       .dwtag  DW_TAG_TI_loop_range
    2355                      .dwattr $C$DW$210, DW_AT_low_pc($C$DW$L$_ss_noise_subs$31$B)
    2356                      .dwattr $C$DW$210, DW_AT_high_pc($C$DW$L$_ss_noise_subs$31$E)
    2357              $C$DW$211       .dwtag  DW_TAG_TI_loop_range
    2358                      .dwattr $C$DW$211, DW_AT_low_pc($C$DW$L$_ss_noise_subs$32$B)
    2359                      .dwattr $C$DW$211, DW_AT_high_pc($C$DW$L$_ss_noise_subs$32$E)
    2360              $C$DW$212       .dwtag  DW_TAG_TI_loop_range
    2361                      .dwattr $C$DW$212, DW_AT_low_pc($C$DW$L$_ss_noise_subs$33$B)
    2362                      .dwattr $C$DW$212, DW_AT_high_pc($C$DW$L$_ss_noise_subs$33$E)
    2363              $C$DW$213       .dwtag  DW_TAG_TI_loop_range
    2364                      .dwattr $C$DW$213, DW_AT_low_pc($C$DW$L$_ss_noise_subs$34$B)
TMS320C55x Assembler PC v4.4.1 Wed Sep 13 16:33:40 2017

Tools Copyright (c) 1996-2012 Texas Instruments Incorporated
C:\Users\a0221074\AppData\Local\Temp\2132810                         PAGE   52

    2365                      .dwattr $C$DW$213, DW_AT_high_pc($C$DW$L$_ss_noise_subs$34$E)
    2366              $C$DW$214       .dwtag  DW_TAG_TI_loop_range
    2367                      .dwattr $C$DW$214, DW_AT_low_pc($C$DW$L$_ss_noise_subs$13$B)
    2368                      .dwattr $C$DW$214, DW_AT_high_pc($C$DW$L$_ss_noise_subs$13$E)
    2369              $C$DW$215       .dwtag  DW_TAG_TI_loop_range
    2370                      .dwattr $C$DW$215, DW_AT_low_pc($C$DW$L$_ss_noise_subs$14$B)
    2371                      .dwattr $C$DW$215, DW_AT_high_pc($C$DW$L$_ss_noise_subs$14$E)
    2372              $C$DW$216       .dwtag  DW_TAG_TI_loop_range
    2373                      .dwattr $C$DW$216, DW_AT_low_pc($C$DW$L$_ss_noise_subs$15$B)
    2374                      .dwattr $C$DW$216, DW_AT_high_pc($C$DW$L$_ss_noise_subs$15$E)
    2375              $C$DW$217       .dwtag  DW_TAG_TI_loop_range
    2376                      .dwattr $C$DW$217, DW_AT_low_pc($C$DW$L$_ss_noise_subs$16$B)
    2377                      .dwattr $C$DW$217, DW_AT_high_pc($C$DW$L$_ss_noise_subs$16$E)
    2378              $C$DW$218       .dwtag  DW_TAG_TI_loop_range
    2379                      .dwattr $C$DW$218, DW_AT_low_pc($C$DW$L$_ss_noise_subs$17$B)
    2380                      .dwattr $C$DW$218, DW_AT_high_pc($C$DW$L$_ss_noise_subs$17$E)
    2381              $C$DW$219       .dwtag  DW_TAG_TI_loop_range
    2382                      .dwattr $C$DW$219, DW_AT_low_pc($C$DW$L$_ss_noise_subs$18$B)
    2383                      .dwattr $C$DW$219, DW_AT_high_pc($C$DW$L$_ss_noise_subs$18$E)
    2384              $C$DW$220       .dwtag  DW_TAG_TI_loop_range
    2385                      .dwattr $C$DW$220, DW_AT_low_pc($C$DW$L$_ss_noise_subs$19$B)
    2386                      .dwattr $C$DW$220, DW_AT_high_pc($C$DW$L$_ss_noise_subs$19$E)
    2387              $C$DW$221       .dwtag  DW_TAG_TI_loop_range
    2388                      .dwattr $C$DW$221, DW_AT_low_pc($C$DW$L$_ss_noise_subs$20$B)
    2389                      .dwattr $C$DW$221, DW_AT_high_pc($C$DW$L$_ss_noise_subs$20$E)
    2390              $C$DW$222       .dwtag  DW_TAG_TI_loop_range
    2391                      .dwattr $C$DW$222, DW_AT_low_pc($C$DW$L$_ss_noise_subs$21$B)
    2392                      .dwattr $C$DW$222, DW_AT_high_pc($C$DW$L$_ss_noise_subs$21$E)
    2393              $C$DW$223       .dwtag  DW_TAG_TI_loop_range
    2394                      .dwattr $C$DW$223, DW_AT_low_pc($C$DW$L$_ss_noise_subs$35$B)
    2395                      .dwattr $C$DW$223, DW_AT_high_pc($C$DW$L$_ss_noise_subs$35$E)
    2396              $C$DW$224       .dwtag  DW_TAG_TI_loop_range
    2397                      .dwattr $C$DW$224, DW_AT_low_pc($C$DW$L$_ss_noise_subs$36$B)
    2398                      .dwattr $C$DW$224, DW_AT_high_pc($C$DW$L$_ss_noise_subs$36$E)
    2399              $C$DW$225       .dwtag  DW_TAG_TI_loop_range
    2400                      .dwattr $C$DW$225, DW_AT_low_pc($C$DW$L$_ss_noise_subs$37$B)
    2401                      .dwattr $C$DW$225, DW_AT_high_pc($C$DW$L$_ss_noise_subs$37$E)
    2402              $C$DW$226       .dwtag  DW_TAG_TI_loop_range
    2403                      .dwattr $C$DW$226, DW_AT_low_pc($C$DW$L$_ss_noise_subs$38$B)
    2404                      .dwattr $C$DW$226, DW_AT_high_pc($C$DW$L$_ss_noise_subs$38$E)
    2405              $C$DW$227       .dwtag  DW_TAG_TI_loop_range
    2406                      .dwattr $C$DW$227, DW_AT_low_pc($C$DW$L$_ss_noise_subs$39$B)
    2407                      .dwattr $C$DW$227, DW_AT_high_pc($C$DW$L$_ss_noise_subs$39$E)
    2408              $C$DW$228       .dwtag  DW_TAG_TI_loop_range
    2409                      .dwattr $C$DW$228, DW_AT_low_pc($C$DW$L$_ss_noise_subs$40$B)
    2410                      .dwattr $C$DW$228, DW_AT_high_pc($C$DW$L$_ss_noise_subs$40$E)
    2411              $C$DW$229       .dwtag  DW_TAG_TI_loop_range
    2412                      .dwattr $C$DW$229, DW_AT_low_pc($C$DW$L$_ss_noise_subs$41$B)
    2413                      .dwattr $C$DW$229, DW_AT_high_pc($C$DW$L$_ss_noise_subs$41$E)
    2414              $C$DW$230       .dwtag  DW_TAG_TI_loop_range
    2415                      .dwattr $C$DW$230, DW_AT_low_pc($C$DW$L$_ss_noise_subs$42$B)
    2416                      .dwattr $C$DW$230, DW_AT_high_pc($C$DW$L$_ss_noise_subs$42$E)
    2417              $C$DW$231       .dwtag  DW_TAG_TI_loop_range
    2418                      .dwattr $C$DW$231, DW_AT_low_pc($C$DW$L$_ss_noise_subs$43$B)
    2419                      .dwattr $C$DW$231, DW_AT_high_pc($C$DW$L$_ss_noise_subs$43$E)
TMS320C55x Assembler PC v4.4.1 Wed Sep 13 16:33:40 2017

Tools Copyright (c) 1996-2012 Texas Instruments Incorporated
C:\Users\a0221074\AppData\Local\Temp\2132810                         PAGE   53

    2420              $C$DW$232       .dwtag  DW_TAG_TI_loop_range
    2421                      .dwattr $C$DW$232, DW_AT_low_pc($C$DW$L$_ss_noise_subs$44$B)
    2422                      .dwattr $C$DW$232, DW_AT_high_pc($C$DW$L$_ss_noise_subs$44$E)
    2423              $C$DW$233       .dwtag  DW_TAG_TI_loop_range
    2424                      .dwattr $C$DW$233, DW_AT_low_pc($C$DW$L$_ss_noise_subs$7$B)
    2425                      .dwattr $C$DW$233, DW_AT_high_pc($C$DW$L$_ss_noise_subs$7$E)
    2426              $C$DW$234       .dwtag  DW_TAG_TI_loop_range
    2427                      .dwattr $C$DW$234, DW_AT_low_pc($C$DW$L$_ss_noise_subs$8$B)
    2428                      .dwattr $C$DW$234, DW_AT_high_pc($C$DW$L$_ss_noise_subs$8$E)
    2429              $C$DW$235       .dwtag  DW_TAG_TI_loop_range
    2430                      .dwattr $C$DW$235, DW_AT_low_pc($C$DW$L$_ss_noise_subs$9$B)
    2431                      .dwattr $C$DW$235, DW_AT_high_pc($C$DW$L$_ss_noise_subs$9$E)
    2432              $C$DW$236       .dwtag  DW_TAG_TI_loop_range
    2433                      .dwattr $C$DW$236, DW_AT_low_pc($C$DW$L$_ss_noise_subs$6$B)
    2434                      .dwattr $C$DW$236, DW_AT_high_pc($C$DW$L$_ss_noise_subs$6$E)
    2435              $C$DW$237       .dwtag  DW_TAG_TI_loop_range
    2436                      .dwattr $C$DW$237, DW_AT_low_pc($C$DW$L$_ss_noise_subs$10$B)
    2437                      .dwattr $C$DW$237, DW_AT_high_pc($C$DW$L$_ss_noise_subs$10$E)
    2438              $C$DW$238       .dwtag  DW_TAG_TI_loop_range
    2439                      .dwattr $C$DW$238, DW_AT_low_pc($C$DW$L$_ss_noise_subs$11$B)
    2440                      .dwattr $C$DW$238, DW_AT_high_pc($C$DW$L$_ss_noise_subs$11$E)
    2441              $C$DW$239       .dwtag  DW_TAG_TI_loop_range
    2442                      .dwattr $C$DW$239, DW_AT_low_pc($C$DW$L$_ss_noise_subs$12$B)
    2443                      .dwattr $C$DW$239, DW_AT_high_pc($C$DW$L$_ss_noise_subs$12$E)
    2444              $C$DW$240       .dwtag  DW_TAG_TI_loop_range
    2445                      .dwattr $C$DW$240, DW_AT_low_pc($C$DW$L$_ss_noise_subs$45$B)
    2446                      .dwattr $C$DW$240, DW_AT_high_pc($C$DW$L$_ss_noise_subs$45$E)
    2447              $C$DW$241       .dwtag  DW_TAG_TI_loop_range
    2448                      .dwattr $C$DW$241, DW_AT_low_pc($C$DW$L$_ss_noise_subs$46$B)
    2449                      .dwattr $C$DW$241, DW_AT_high_pc($C$DW$L$_ss_noise_subs$46$E)
    2450              $C$DW$242       .dwtag  DW_TAG_TI_loop_range
    2451                      .dwattr $C$DW$242, DW_AT_low_pc($C$DW$L$_ss_noise_subs$47$B)
    2452                      .dwattr $C$DW$242, DW_AT_high_pc($C$DW$L$_ss_noise_subs$47$E)
    2453              $C$DW$243       .dwtag  DW_TAG_TI_loop_range
    2454                      .dwattr $C$DW$243, DW_AT_low_pc($C$DW$L$_ss_noise_subs$48$B)
    2455                      .dwattr $C$DW$243, DW_AT_high_pc($C$DW$L$_ss_noise_subs$48$E)
    2456              $C$DW$244       .dwtag  DW_TAG_TI_loop_range
    2457                      .dwattr $C$DW$244, DW_AT_low_pc($C$DW$L$_ss_noise_subs$49$B)
    2458                      .dwattr $C$DW$244, DW_AT_high_pc($C$DW$L$_ss_noise_subs$49$E)
    2459              $C$DW$245       .dwtag  DW_TAG_TI_loop_range
    2460                      .dwattr $C$DW$245, DW_AT_low_pc($C$DW$L$_ss_noise_subs$50$B)
    2461                      .dwattr $C$DW$245, DW_AT_high_pc($C$DW$L$_ss_noise_subs$50$E)
    2462              $C$DW$246       .dwtag  DW_TAG_TI_loop_range
    2463                      .dwattr $C$DW$246, DW_AT_low_pc($C$DW$L$_ss_noise_subs$53$B)
    2464                      .dwattr $C$DW$246, DW_AT_high_pc($C$DW$L$_ss_noise_subs$53$E)
    2465              $C$DW$247       .dwtag  DW_TAG_TI_loop_range
    2466                      .dwattr $C$DW$247, DW_AT_low_pc($C$DW$L$_ss_noise_subs$54$B)
    2467                      .dwattr $C$DW$247, DW_AT_high_pc($C$DW$L$_ss_noise_subs$54$E)
    2468              $C$DW$248       .dwtag  DW_TAG_TI_loop_range
    2469                      .dwattr $C$DW$248, DW_AT_low_pc($C$DW$L$_ss_noise_subs$55$B)
    2470                      .dwattr $C$DW$248, DW_AT_high_pc($C$DW$L$_ss_noise_subs$55$E)
    2471              $C$DW$249       .dwtag  DW_TAG_TI_loop_range
    2472                      .dwattr $C$DW$249, DW_AT_low_pc($C$DW$L$_ss_noise_subs$56$B)
    2473                      .dwattr $C$DW$249, DW_AT_high_pc($C$DW$L$_ss_noise_subs$56$E)
    2474              $C$DW$250       .dwtag  DW_TAG_TI_loop_range
TMS320C55x Assembler PC v4.4.1 Wed Sep 13 16:33:40 2017

Tools Copyright (c) 1996-2012 Texas Instruments Incorporated
C:\Users\a0221074\AppData\Local\Temp\2132810                         PAGE   54

    2475                      .dwattr $C$DW$250, DW_AT_low_pc($C$DW$L$_ss_noise_subs$57$B)
    2476                      .dwattr $C$DW$250, DW_AT_high_pc($C$DW$L$_ss_noise_subs$57$E)
    2477              $C$DW$251       .dwtag  DW_TAG_TI_loop_range
    2478                      .dwattr $C$DW$251, DW_AT_low_pc($C$DW$L$_ss_noise_subs$58$B)
    2479                      .dwattr $C$DW$251, DW_AT_high_pc($C$DW$L$_ss_noise_subs$58$E)
    2480              $C$DW$252       .dwtag  DW_TAG_TI_loop_range
    2481                      .dwattr $C$DW$252, DW_AT_low_pc($C$DW$L$_ss_noise_subs$60$B)
    2482                      .dwattr $C$DW$252, DW_AT_high_pc($C$DW$L$_ss_noise_subs$60$E)
    2483              $C$DW$253       .dwtag  DW_TAG_TI_loop_range
    2484                      .dwattr $C$DW$253, DW_AT_low_pc($C$DW$L$_ss_noise_subs$61$B)
    2485                      .dwattr $C$DW$253, DW_AT_high_pc($C$DW$L$_ss_noise_subs$61$E)
    2486              $C$DW$254       .dwtag  DW_TAG_TI_loop_range
    2487                      .dwattr $C$DW$254, DW_AT_low_pc($C$DW$L$_ss_noise_subs$62$B)
    2488                      .dwattr $C$DW$254, DW_AT_high_pc($C$DW$L$_ss_noise_subs$62$E)
    2489              $C$DW$255       .dwtag  DW_TAG_TI_loop_range
    2490                      .dwattr $C$DW$255, DW_AT_low_pc($C$DW$L$_ss_noise_subs$63$B)
    2491                      .dwattr $C$DW$255, DW_AT_high_pc($C$DW$L$_ss_noise_subs$63$E)
    2492              $C$DW$256       .dwtag  DW_TAG_TI_loop_range
    2493                      .dwattr $C$DW$256, DW_AT_low_pc($C$DW$L$_ss_noise_subs$64$B)
    2494                      .dwattr $C$DW$256, DW_AT_high_pc($C$DW$L$_ss_noise_subs$64$E)
    2495              $C$DW$257       .dwtag  DW_TAG_TI_loop_range
    2496                      .dwattr $C$DW$257, DW_AT_low_pc($C$DW$L$_ss_noise_subs$65$B)
    2497                      .dwattr $C$DW$257, DW_AT_high_pc($C$DW$L$_ss_noise_subs$65$E)
    2498              $C$DW$258       .dwtag  DW_TAG_TI_loop_range
    2499                      .dwattr $C$DW$258, DW_AT_low_pc($C$DW$L$_ss_noise_subs$66$B)
    2500                      .dwattr $C$DW$258, DW_AT_high_pc($C$DW$L$_ss_noise_subs$66$E)
    2501              $C$DW$259       .dwtag  DW_TAG_TI_loop_range
    2502                      .dwattr $C$DW$259, DW_AT_low_pc($C$DW$L$_ss_noise_subs$67$B)
    2503                      .dwattr $C$DW$259, DW_AT_high_pc($C$DW$L$_ss_noise_subs$67$E)
    2504              $C$DW$260       .dwtag  DW_TAG_TI_loop_range
    2505                      .dwattr $C$DW$260, DW_AT_low_pc($C$DW$L$_ss_noise_subs$68$B)
    2506                      .dwattr $C$DW$260, DW_AT_high_pc($C$DW$L$_ss_noise_subs$68$E)
    2507              $C$DW$261       .dwtag  DW_TAG_TI_loop_range
    2508                      .dwattr $C$DW$261, DW_AT_low_pc($C$DW$L$_ss_noise_subs$69$B)
    2509                      .dwattr $C$DW$261, DW_AT_high_pc($C$DW$L$_ss_noise_subs$69$E)
    2510              $C$DW$262       .dwtag  DW_TAG_TI_loop_range
    2511                      .dwattr $C$DW$262, DW_AT_low_pc($C$DW$L$_ss_noise_subs$70$B)
    2512                      .dwattr $C$DW$262, DW_AT_high_pc($C$DW$L$_ss_noise_subs$70$E)
    2513              $C$DW$263       .dwtag  DW_TAG_TI_loop_range
    2514                      .dwattr $C$DW$263, DW_AT_low_pc($C$DW$L$_ss_noise_subs$71$B)
    2515                      .dwattr $C$DW$263, DW_AT_high_pc($C$DW$L$_ss_noise_subs$71$E)
    2516                      .dwendtag $C$DW$196
    2517              
    2518                      .dwattr $C$DW$139, DW_AT_TI_end_file("C:/Users/a0221074/Desktop/C5000/IBM_Watson_TIdesign_workarea/CS
    2519                      .dwattr $C$DW$139, DW_AT_TI_end_line(0x18a)
    2520                      .dwattr $C$DW$139, DW_AT_TI_end_column(0x01)
    2521                      .dwendentry
    2522                      .dwendtag $C$DW$139
    2523              
    2524 000000               .sect   ".text:_ss_mfcc_a_window"
    2525                      .clink
    2526                      .global _ss_mfcc_a_window
    2527              
    2528              $C$DW$264       .dwtag  DW_TAG_subprogram, DW_AT_name("ss_mfcc_a_window")
    2529                      .dwattr $C$DW$264, DW_AT_low_pc(_ss_mfcc_a_window)
TMS320C55x Assembler PC v4.4.1 Wed Sep 13 16:33:40 2017

Tools Copyright (c) 1996-2012 Texas Instruments Incorporated
C:\Users\a0221074\AppData\Local\Temp\2132810                         PAGE   55

    2530                      .dwattr $C$DW$264, DW_AT_high_pc(0x00)
    2531                      .dwattr $C$DW$264, DW_AT_TI_symbol_name("_ss_mfcc_a_window")
    2532                      .dwattr $C$DW$264, DW_AT_external
    2533                      .dwattr $C$DW$264, DW_AT_type(*$C$DW$T$8)
    2534                      .dwattr $C$DW$264, DW_AT_TI_begin_file("C:/Users/a0221074/Desktop/C5000/IBM_Watson_TIdesign_workarea/
    2535                      .dwattr $C$DW$264, DW_AT_TI_begin_line(0x1ac)
    2536                      .dwattr $C$DW$264, DW_AT_TI_begin_column(0x01)
    2537                      .dwattr $C$DW$264, DW_AT_TI_max_frame_size(0x294)
    2538                      .dwpsn  file "C:/Users/a0221074/Desktop/C5000/IBM_Watson_TIdesign_workarea/CSL_bitbucket/c55_csl/c55x
    2539              
    2540                      .dwfde $C$DW$CIE, _ss_mfcc_a_window
    2541              $C$DW$265       .dwtag  DW_TAG_formal_parameter, DW_AT_name("sig")
    2542                      .dwattr $C$DW$265, DW_AT_TI_symbol_name("_sig")
    2543                      .dwattr $C$DW$265, DW_AT_type(*$C$DW$T$22)
    2544                      .dwattr $C$DW$265, DW_AT_location[DW_OP_reg17]
    2545              $C$DW$266       .dwtag  DW_TAG_formal_parameter, DW_AT_name("mfcc")
    2546                      .dwattr $C$DW$266, DW_AT_TI_symbol_name("_mfcc")
    2547                      .dwattr $C$DW$266, DW_AT_type(*$C$DW$T$22)
    2548                      .dwattr $C$DW$266, DW_AT_location[DW_OP_reg19]
    2549              $C$DW$267       .dwtag  DW_TAG_formal_parameter, DW_AT_name("log_mel_energy")
    2550                      .dwattr $C$DW$267, DW_AT_TI_symbol_name("_log_mel_energy")
    2551                      .dwattr $C$DW$267, DW_AT_type(*$C$DW$T$22)
    2552                      .dwattr $C$DW$267, DW_AT_location[DW_OP_reg21]
    2553              $C$DW$268       .dwtag  DW_TAG_formal_parameter, DW_AT_name("n_mfcc")
    2554                      .dwattr $C$DW$268, DW_AT_TI_symbol_name("_n_mfcc")
    2555                      .dwattr $C$DW$268, DW_AT_type(*$C$DW$T$54)
    2556                      .dwattr $C$DW$268, DW_AT_location[DW_OP_reg12]
    2557              $C$DW$269       .dwtag  DW_TAG_formal_parameter, DW_AT_name("n_filter")
    2558                      .dwattr $C$DW$269, DW_AT_TI_symbol_name("_n_filter")
    2559                      .dwattr $C$DW$269, DW_AT_type(*$C$DW$T$54)
    2560                      .dwattr $C$DW$269, DW_AT_location[DW_OP_reg13]
    2561              $C$DW$270       .dwtag  DW_TAG_formal_parameter, DW_AT_name("mel_filter")
    2562                      .dwattr $C$DW$270, DW_AT_TI_symbol_name("_mel_filter")
    2563                      .dwattr $C$DW$270, DW_AT_type(*$C$DW$T$59)
    2564                      .dwattr $C$DW$270, DW_AT_location[DW_OP_reg23]
    2565              $C$DW$271       .dwtag  DW_TAG_formal_parameter, DW_AT_name("cosxfm")
    2566                      .dwattr $C$DW$271, DW_AT_TI_symbol_name("_cosxfm")
    2567                      .dwattr $C$DW$271, DW_AT_type(*$C$DW$T$99)
    2568                      .dwattr $C$DW$271, DW_AT_location[DW_OP_reg25]
    2569              $C$DW$272       .dwtag  DW_TAG_formal_parameter, DW_AT_name("power_spectrum")
    2570                      .dwattr $C$DW$272, DW_AT_TI_symbol_name("_power_spectrum")
    2571                      .dwattr $C$DW$272, DW_AT_type(*$C$DW$T$22)
    2572                      .dwattr $C$DW$272, DW_AT_location[DW_OP_bregx 0x24 660]
    2573              $C$DW$273       .dwtag  DW_TAG_formal_parameter, DW_AT_name("mu_scale_p2")
    2574                      .dwattr $C$DW$273, DW_AT_TI_symbol_name("_mu_scale_p2")
    2575                      .dwattr $C$DW$273, DW_AT_type(*$C$DW$T$55)
    2576                      .dwattr $C$DW$273, DW_AT_location[DW_OP_bregx 0x24 662]
    2577              $C$DW$274       .dwtag  DW_TAG_formal_parameter, DW_AT_name("var_norm")
    2578                      .dwattr $C$DW$274, DW_AT_TI_symbol_name("_var_norm")
    2579                      .dwattr $C$DW$274, DW_AT_type(*$C$DW$T$93)
    2580                      .dwattr $C$DW$274, DW_AT_location[DW_OP_bregx 0x24 664]
    2581              $C$DW$275       .dwtag  DW_TAG_formal_parameter, DW_AT_name("last_sig")
    2582                      .dwattr $C$DW$275, DW_AT_TI_symbol_name("_last_sig")
    2583                      .dwattr $C$DW$275, DW_AT_type(*$C$DW$T$22)
    2584                      .dwattr $C$DW$275, DW_AT_location[DW_OP_bregx 0x24 666]
TMS320C55x Assembler PC v4.4.1 Wed Sep 13 16:33:40 2017

Tools Copyright (c) 1996-2012 Texas Instruments Incorporated
C:\Users\a0221074\AppData\Local\Temp\2132810                         PAGE   56

    2585              $C$DW$276       .dwtag  DW_TAG_formal_parameter, DW_AT_name("p_ss_crtl")
    2586                      .dwattr $C$DW$276, DW_AT_TI_symbol_name("_p_ss_crtl")
    2587                      .dwattr $C$DW$276, DW_AT_type(*$C$DW$T$88)
    2588                      .dwattr $C$DW$276, DW_AT_location[DW_OP_bregx 0x24 668]
    2589              ;*******************************************************************************
    2590              ;* FUNCTION NAME: ss_mfcc_a_window                                             *
    2591              ;*                                                                             *
    2592              ;*   Function Uses Regs : T0,T1,AR0,XAR0,AR1,XAR1,AR2,XAR2,AR3,XAR3,AR4,XAR4,  *
    2593              ;*                        FP,XFP,SP,CARRY,M40,SATA,SATD,RDM,FRCT,SMUL          *
    2594              ;*   Save On Entry Regs : FP                                                   *
    2595              ;*   Stack Frame        : Full (Frame Pointer in AR6, w/ debug)                *
    2596              ;*   Total Frame Size   : 660 words                                            *
    2597              ;*                        (1 return address/alignment)                         *
    2598              ;*                        (4 function parameters)                              *
    2599              ;*                        (654 local values)                                   *
    2600              ;*                        (1 register save area)                               *
    2601              ;*   Min System Stack   : 2 words                                              *
    2602              ;*******************************************************************************
    2603 000000       _ss_mfcc_a_window:
    2604                      .dwcfi  cfa_offset, 1
    2605                      .dwcfi  save_reg_to_mem, 91, -1
    2606 000000 50E5          PSHBOTH XFP
    2607                      .dwcfi  cfa_offset, 2
    2608                      .dwcfi  save_reg_to_mem, 32, -2
    2609 000002 F79A          ADD #-658, mmap(SP)
         000004 FD6E 
         000006 98   
    2610 000007 EC00          AMAR *SP(#0), XFP
         000009 EE   
    2611                      .dwcfi  cfa_offset, 660
    2612              $C$DW$277       .dwtag  DW_TAG_variable, DW_AT_name("sig")
    2613                      .dwattr $C$DW$277, DW_AT_TI_symbol_name("_sig")
    2614                      .dwattr $C$DW$277, DW_AT_type(*$C$DW$T$22)
    2615                      .dwattr $C$DW$277, DW_AT_location[DW_OP_bregx 0x24 4]
    2616              $C$DW$278       .dwtag  DW_TAG_variable, DW_AT_name("mfcc")
    2617                      .dwattr $C$DW$278, DW_AT_TI_symbol_name("_mfcc")
    2618                      .dwattr $C$DW$278, DW_AT_type(*$C$DW$T$22)
    2619                      .dwattr $C$DW$278, DW_AT_location[DW_OP_bregx 0x24 6]
    2620              $C$DW$279       .dwtag  DW_TAG_variable, DW_AT_name("log_mel_energy")
    2621                      .dwattr $C$DW$279, DW_AT_TI_symbol_name("_log_mel_energy")
    2622                      .dwattr $C$DW$279, DW_AT_type(*$C$DW$T$22)
    2623                      .dwattr $C$DW$279, DW_AT_location[DW_OP_bregx 0x24 8]
    2624              $C$DW$280       .dwtag  DW_TAG_variable, DW_AT_name("n_mfcc")
    2625                      .dwattr $C$DW$280, DW_AT_TI_symbol_name("_n_mfcc")
    2626                      .dwattr $C$DW$280, DW_AT_type(*$C$DW$T$54)
    2627                      .dwattr $C$DW$280, DW_AT_location[DW_OP_bregx 0x24 10]
    2628              $C$DW$281       .dwtag  DW_TAG_variable, DW_AT_name("n_filter")
    2629                      .dwattr $C$DW$281, DW_AT_TI_symbol_name("_n_filter")
    2630                      .dwattr $C$DW$281, DW_AT_type(*$C$DW$T$54)
    2631                      .dwattr $C$DW$281, DW_AT_location[DW_OP_bregx 0x24 11]
    2632              $C$DW$282       .dwtag  DW_TAG_variable, DW_AT_name("mel_filter")
    2633                      .dwattr $C$DW$282, DW_AT_TI_symbol_name("_mel_filter")
    2634                      .dwattr $C$DW$282, DW_AT_type(*$C$DW$T$59)
    2635                      .dwattr $C$DW$282, DW_AT_location[DW_OP_bregx 0x24 12]
    2636              $C$DW$283       .dwtag  DW_TAG_variable, DW_AT_name("cosxfm")
TMS320C55x Assembler PC v4.4.1 Wed Sep 13 16:33:40 2017

Tools Copyright (c) 1996-2012 Texas Instruments Incorporated
C:\Users\a0221074\AppData\Local\Temp\2132810                         PAGE   57

    2637                      .dwattr $C$DW$283, DW_AT_TI_symbol_name("_cosxfm")
    2638                      .dwattr $C$DW$283, DW_AT_type(*$C$DW$T$99)
    2639                      .dwattr $C$DW$283, DW_AT_location[DW_OP_bregx 0x24 14]
    2640              $C$DW$284       .dwtag  DW_TAG_variable, DW_AT_name("real_sig")
    2641                      .dwattr $C$DW$284, DW_AT_TI_symbol_name("_real_sig")
    2642                      .dwattr $C$DW$284, DW_AT_type(*$C$DW$T$51)
    2643                      .dwattr $C$DW$284, DW_AT_location[DW_OP_bregx 0x24 16]
    2644              $C$DW$285       .dwtag  DW_TAG_variable, DW_AT_name("imag_sig")
    2645                      .dwattr $C$DW$285, DW_AT_TI_symbol_name("_imag_sig")
    2646                      .dwattr $C$DW$285, DW_AT_type(*$C$DW$T$51)
    2647                      .dwattr $C$DW$285, DW_AT_location[DW_OP_bregx 0x24 272]
    2648              $C$DW$286       .dwtag  DW_TAG_variable, DW_AT_name("ps_psd")
    2649                      .dwattr $C$DW$286, DW_AT_TI_symbol_name("_ps_psd")
    2650                      .dwattr $C$DW$286, DW_AT_type(*$C$DW$T$60)
    2651                      .dwattr $C$DW$286, DW_AT_location[DW_OP_bregx 0x24 528]
    2652              $C$DW$287       .dwtag  DW_TAG_variable, DW_AT_name("is")
    2653                      .dwattr $C$DW$287, DW_AT_TI_symbol_name("_is")
    2654                      .dwattr $C$DW$287, DW_AT_type(*$C$DW$T$8)
    2655                      .dwattr $C$DW$287, DW_AT_location[DW_OP_bregx 0x24 656]
    2656              $C$DW$288       .dwtag  DW_TAG_variable, DW_AT_name("norm")
    2657                      .dwattr $C$DW$288, DW_AT_TI_symbol_name("_norm")
    2658                      .dwattr $C$DW$288, DW_AT_type(*$C$DW$T$8)
    2659                      .dwattr $C$DW$288, DW_AT_location[DW_OP_bregx 0x24 657]
    2660 00000a EB1C          MOV XAR4, dbl(*SP(#14))
         00000c C5   
    2661 00000d EB18          MOV XAR3, dbl(*SP(#12))
         00000f B5   
    2662 000010 C516          MOV T1, *SP(#11) ; |434| 
    2663 000012 C414          MOV T0, *SP(#10) ; |434| 
    2664 000014 EB10          MOV XAR2, dbl(*SP(#8))
         000016 A5   
    2665 000017 EB0C          MOV XAR1, dbl(*SP(#6))
         000019 95   
    2666 00001a EB08          MOV XAR0, dbl(*SP(#4))
         00001c 85   
    2667                      .dwpsn  file "C:/Users/a0221074/Desktop/C5000/IBM_Watson_TIdesign_workarea/CSL_bitbucket/c55_csl/c55x
    2668 00001d EC00          AMAR *SP(#0), XAR2
         00001f AE   
    2669 000020 EC20          AMAR *SP(#16), XAR1
         000022 9E   
    2670 000023 B44F          AMAR *+AR2(#272)
         000025 0110 
    2671 000027 EDCD          MOV dbl(*FP(#666)), XAR3
         000029 BF02 
         00002b 9A   
    2672 00002c EB00          MOV XAR3, dbl(*SP(#0))
         00002e B5   
    2673 00002f ED08          MOV dbl(*SP(#4)), XAR0
         000031 8F   
    2674 000032 EDCD          MOV dbl(*FP(#664)), XAR4
         000034 CF02 
         000036 98   
    2675 000037 EDCD          MOV dbl(*FP(#660)), XAR3
         000039 BF02 
         00003b 94   
TMS320C55x Assembler PC v4.4.1 Wed Sep 13 16:33:40 2017

Tools Copyright (c) 1996-2012 Texas Instruments Incorporated
C:\Users\a0221074\AppData\Local\Temp\2132810                         PAGE   58

    2676              $C$DW$289       .dwtag  DW_TAG_TI_branch
    2677                      .dwattr $C$DW$289, DW_AT_low_pc(0x00)
    2678                      .dwattr $C$DW$289, DW_AT_name("_signal_to_power_spectrum")
    2679                      .dwattr $C$DW$289, DW_AT_TI_call
    2680 00003c 6C00          CALL #_signal_to_power_spectrum ; |440| 
         00003e 0000!
    2681                                                      ; call occurs [#_signal_to_power_spectrum] ; |440| 
    2682                      .dwpsn  file "C:/Users/a0221074/Desktop/C5000/IBM_Watson_TIdesign_workarea/CSL_bitbucket/c55_csl/c55x
    2683 000040 E6CD          MOV #127, *FP(#656) ; |442| 
         000042 7F02 
         000044 90   
    2684                      .dwpsn  file "C:/Users/a0221074/Desktop/C5000/IBM_Watson_TIdesign_workarea/CSL_bitbucket/c55_csl/c55x
    2685 000045 A9CD          MOV *FP(#656), AR1 ; |442| 
         000047 0290 
    2686 000049 0429          BCC $C$L72,AR1 < #0 ; |442| 
         00004b 21   
    2687                                                      ; branchcc occurs ; |442| 
    2688 00004c       $C$L71:    
    2689 00004c       $C$DW$L$_ss_mfcc_a_window$2$B:
    2690                      .dwpsn  file "C:/Users/a0221074/Desktop/C5000/IBM_Watson_TIdesign_workarea/CSL_bitbucket/c55_csl/c55x
    2691 00004c EDCD          MOV dbl(*FP(#660)), XAR2
         00004e AF02 
         000050 94   
    2692 000051 2294          MOV AR1, T0
    2693 000053 EC00          AMAR *SP(#0), XAR3
         000055 BE   
    2694 000056 B46F          AMAR *+AR3(#528)
         000058 0210 
    2695 00005a 1490          AADD AR1, AR3 ; |442| 
         00005c B0   
    2696 00005d 805D          MOV *AR2(T0), *AR3 ; |442| 
         00005f 84   
    2697                      .dwpsn  file "C:/Users/a0221074/Desktop/C5000/IBM_Watson_TIdesign_workarea/CSL_bitbucket/c55_csl/c55x
    2698 000060 F7CD          SUB #1, *FP(#656) ; |442| 
         000062 FFFF 
         000064 0290 
    2699                      .dwpsn  file "C:/Users/a0221074/Desktop/C5000/IBM_Watson_TIdesign_workarea/CSL_bitbucket/c55_csl/c55x
    2700 000066 A9CD          MOV *FP(#656), AR1 ; |442| 
         000068 0290 
    2701 00006a 0459          BCC $C$L71,AR1 >= #0 ; |442| 
         00006c DF   
    2702                                                      ; branchcc occurs ; |442| 
    2703 00006d       $C$DW$L$_ss_mfcc_a_window$2$E:
    2704 00006d       $C$L72:    
    2705                      .dwpsn  file "C:/Users/a0221074/Desktop/C5000/IBM_Watson_TIdesign_workarea/CSL_bitbucket/c55_csl/c55x
    2706 00006d EDCD          MOV dbl(*FP(#664)), XAR3
         00006f BF02 
         000071 98   
    2707 000072 EDCD          MOV dbl(*FP(#664)), XAR2
         000074 AF02 
         000076 98   
    2708 000077 A973          MOV *AR3(short(#1)), AR1 ; |444| 
    2709 000079 D641          ADD *AR2, AR1, AR1 ; |444| 
         00007b 99   
    2710 00007c 4289          SUB #8, AR1 ; |444| 
TMS320C55x Assembler PC v4.4.1 Wed Sep 13 16:33:40 2017

Tools Copyright (c) 1996-2012 Texas Instruments Incorporated
C:\Users\a0221074\AppData\Local\Temp\2132810                         PAGE   59

    2711 00007e 5090          SFTL AR1, #1 ; |444| 
    2712 000080 D675          ADD *AR3(short(#2)), AR1, AR1 ; |444| 
         000082 99   
    2713 000083 7C00          SUB #17, AR1, AR1 ; |444| 
         000085 1199 
    2714 000087 C9CD          MOV AR1, *FP(#657) ; |444| 
         000089 0291 
    2715                      .dwpsn  file "C:/Users/a0221074/Desktop/C5000/IBM_Watson_TIdesign_workarea/CSL_bitbucket/c55_csl/c55x
    2716 00008b EDCD          MOV dbl(*FP(#668)), XAR3
         00008d BF02 
         00008f 9C   
    2717 000090 EC00          AMAR *SP(#0), XAR0
         000092 8E   
    2718 000093 A4CD          MOV *FP(#657), T0 ; |447| 
         000095 0291 
    2719 000097 B40F          AMAR *+AR0(#528)
         000099 0210 
    2720 00009b A579          MOV *AR3(short(#4)), T1 ; |447| 
    2721 00009d ED7D          MOV dbl(*AR3(short(#6))), XAR1
         00009f 9F   
    2722 0000a0 ED6D          MOV dbl(*AR3(#8)), XAR2
         0000a2 AF00 
         0000a4 08   
    2723              $C$DW$290       .dwtag  DW_TAG_TI_branch
    2724                      .dwattr $C$DW$290, DW_AT_low_pc(0x00)
    2725                      .dwattr $C$DW$290, DW_AT_name("_ss_noise_subs")
    2726                      .dwattr $C$DW$290, DW_AT_TI_call
    2727 0000a5 6C00          CALL #_ss_noise_subs ; |447| 
         0000a7 0000+
    2728                                                      ; call occurs [#_ss_noise_subs] ; |447| 
    2729                      .dwpsn  file "C:/Users/a0221074/Desktop/C5000/IBM_Watson_TIdesign_workarea/CSL_bitbucket/c55_csl/c55x
    2730 0000a9 EC00          AMAR *SP(#0), XAR0
         0000ab 8E   
    2731 0000ac EDCD          MOV dbl(*FP(#664)), XAR3
         0000ae BF02 
         0000b0 98   
    2732 0000b1 B40F          AMAR *+AR0(#528)
         0000b3 0210 
    2733 0000b5 EB00          MOV XAR3, dbl(*SP(#0))
         0000b7 B5   
    2734 0000b8 ED1C          MOV dbl(*SP(#14)), XAR3
         0000ba BF   
    2735 0000bb EB04          MOV XAR3, dbl(*SP(#2))
         0000bd B5   
    2736 0000be A414          MOV *SP(#10), T0 ; |450| 
    2737 0000c0 A516          MOV *SP(#11), T1 ; |450| 
    2738 0000c2 EDCD          MOV dbl(*FP(#662)), XAR4
         0000c4 CF02 
         0000c6 96   
    2739 0000c7 ED0C          MOV dbl(*SP(#6)), XAR1
         0000c9 9F   
    2740 0000ca ED18          MOV dbl(*SP(#12)), XAR3
         0000cc BF   
    2741 0000cd ED10          MOV dbl(*SP(#8)), XAR2
         0000cf AF   
TMS320C55x Assembler PC v4.4.1 Wed Sep 13 16:33:40 2017

Tools Copyright (c) 1996-2012 Texas Instruments Incorporated
C:\Users\a0221074\AppData\Local\Temp\2132810                         PAGE   60

    2742              $C$DW$291       .dwtag  DW_TAG_TI_branch
    2743                      .dwattr $C$DW$291, DW_AT_low_pc(0x00)
    2744                      .dwattr $C$DW$291, DW_AT_name("_ss_power_spectrum_to_mfcc")
    2745                      .dwattr $C$DW$291, DW_AT_TI_call
    2746 0000d0 6C00          CALL #_ss_power_spectrum_to_mfcc ; |450| 
         0000d2 0000!
    2747                                                      ; call occurs [#_ss_power_spectrum_to_mfcc] ; |450| 
    2748                      .dwpsn  file "C:/Users/a0221074/Desktop/C5000/IBM_Watson_TIdesign_workarea/CSL_bitbucket/c55_csl/c55x
    2749 0000d4 EDCD          MOV dbl(*FP(#668)), XAR3
         0000d6 BF02 
         0000d8 9C   
    2750 0000d9 F779          ADD #1, *AR3(short(#4)) ; |464| 
         0000db 0001 
    2751                      .dwpsn  file "C:/Users/a0221074/Desktop/C5000/IBM_Watson_TIdesign_workarea/CSL_bitbucket/c55_csl/c55x
    2752 0000dd 3C14          MOV #1, T0
    2753                      .dwpsn  file "C:/Users/a0221074/Desktop/C5000/IBM_Watson_TIdesign_workarea/CSL_bitbucket/c55_csl/c55x
    2754 0000df F79A          ADD #658, mmap(SP)
         0000e1 0292 
         0000e3 98   
    2755                      .dwcfi  cfa_offset, 2
    2756 0000e4 50E4          POPBOTH XFP
    2757                      .dwcfi  restore_reg, 32
    2758                      .dwcfi  cfa_offset, 1
    2759              $C$DW$292       .dwtag  DW_TAG_TI_branch
    2760                      .dwattr $C$DW$292, DW_AT_low_pc(0x00)
    2761                      .dwattr $C$DW$292, DW_AT_TI_return
    2762 0000e6 4804          RET
    2763                                                      ; return occurs
    2764              
    2765              $C$DW$293       .dwtag  DW_TAG_TI_loop
    2766                      .dwattr $C$DW$293, DW_AT_name("C:\\Users\\a0221074\\AppData\\Local\\Temp\\2132810:$C$L71:1:1505334818
    2767                      .dwattr $C$DW$293, DW_AT_TI_begin_file("C:/Users/a0221074/Desktop/C5000/IBM_Watson_TIdesign_workarea/
    2768                      .dwattr $C$DW$293, DW_AT_TI_begin_line(0x1ba)
    2769                      .dwattr $C$DW$293, DW_AT_TI_end_line(0x1ba)
    2770              $C$DW$294       .dwtag  DW_TAG_TI_loop_range
    2771                      .dwattr $C$DW$294, DW_AT_low_pc($C$DW$L$_ss_mfcc_a_window$2$B)
    2772                      .dwattr $C$DW$294, DW_AT_high_pc($C$DW$L$_ss_mfcc_a_window$2$E)
    2773                      .dwendtag $C$DW$293
    2774              
    2775                      .dwattr $C$DW$264, DW_AT_TI_end_file("C:/Users/a0221074/Desktop/C5000/IBM_Watson_TIdesign_workarea/CS
    2776                      .dwattr $C$DW$264, DW_AT_TI_end_line(0x1d3)
    2777                      .dwattr $C$DW$264, DW_AT_TI_end_column(0x01)
    2778                      .dwendentry
    2779                      .dwendtag $C$DW$264
    2780              
    2781 000000               .sect   ".text:_ss_set_default"
    2782                      .clink
    2783                      .global _ss_set_default
    2784              
    2785              $C$DW$295       .dwtag  DW_TAG_subprogram, DW_AT_name("ss_set_default")
    2786                      .dwattr $C$DW$295, DW_AT_low_pc(_ss_set_default)
    2787                      .dwattr $C$DW$295, DW_AT_high_pc(0x00)
    2788                      .dwattr $C$DW$295, DW_AT_TI_symbol_name("_ss_set_default")
    2789                      .dwattr $C$DW$295, DW_AT_external
    2790                      .dwattr $C$DW$295, DW_AT_TI_begin_file("C:/Users/a0221074/Desktop/C5000/IBM_Watson_TIdesign_workarea/
TMS320C55x Assembler PC v4.4.1 Wed Sep 13 16:33:40 2017

Tools Copyright (c) 1996-2012 Texas Instruments Incorporated
C:\Users\a0221074\AppData\Local\Temp\2132810                         PAGE   61

    2791                      .dwattr $C$DW$295, DW_AT_TI_begin_line(0x1d5)
    2792                      .dwattr $C$DW$295, DW_AT_TI_begin_column(0x06)
    2793                      .dwattr $C$DW$295, DW_AT_TI_max_frame_size(0x04)
    2794                      .dwpsn  file "C:/Users/a0221074/Desktop/C5000/IBM_Watson_TIdesign_workarea/CSL_bitbucket/c55_csl/c55x
    2795              
    2796                      .dwfde $C$DW$CIE, _ss_set_default
    2797              $C$DW$296       .dwtag  DW_TAG_formal_parameter, DW_AT_name("ns")
    2798                      .dwattr $C$DW$296, DW_AT_TI_symbol_name("_ns")
    2799                      .dwattr $C$DW$296, DW_AT_type(*$C$DW$T$88)
    2800                      .dwattr $C$DW$296, DW_AT_location[DW_OP_reg17]
    2801              ;*******************************************************************************
    2802              ;* FUNCTION NAME: ss_set_default                                               *
    2803              ;*                                                                             *
    2804              ;*   Function Uses Regs : AR0,XAR0,AR3,XAR3,SP,M40,SATA,SATD,RDM,FRCT,SMUL     *
    2805              ;*   Stack Frame        : Compact (No Frame Pointer, w/ debug)                 *
    2806              ;*   Total Frame Size   : 4 words                                              *
    2807              ;*                        (2 return address/alignment)                         *
    2808              ;*                        (2 local values)                                     *
    2809              ;*   Min System Stack   : 1 word                                               *
    2810              ;*******************************************************************************
    2811 000000       _ss_set_default:
    2812                      .dwcfi  cfa_offset, 1
    2813                      .dwcfi  save_reg_to_mem, 91, -1
    2814 000000 4EFD          AADD #-3, SP
    2815                      .dwcfi  cfa_offset, 4
    2816              $C$DW$297       .dwtag  DW_TAG_variable, DW_AT_name("ns")
    2817                      .dwattr $C$DW$297, DW_AT_TI_symbol_name("_ns")
    2818                      .dwattr $C$DW$297, DW_AT_type(*$C$DW$T$88)
    2819                      .dwattr $C$DW$297, DW_AT_location[DW_OP_bregx 0x24 0]
    2820 000002 EB00          MOV XAR0, dbl(*SP(#0))
         000004 85   
    2821                      .dwpsn  file "C:/Users/a0221074/Desktop/C5000/IBM_Watson_TIdesign_workarea/CSL_bitbucket/c55_csl/c55x
    2822 000005 ED00          MOV dbl(*SP(#0)), XAR3
         000007 BF   
    2823 000008 FB73          MOV #29491, *AR3(short(#1)) ; |472| 
         00000a 7333 
    2824                      .dwpsn  file "C:/Users/a0221074/Desktop/C5000/IBM_Watson_TIdesign_workarea/CSL_bitbucket/c55_csl/c55x
    2825 00000c ED00          MOV dbl(*SP(#0)), XAR3
         00000e BF   
    2826 00000f E675          MOV #3, *AR3(short(#2)) ; |473| 
         000011 03   
    2827                      .dwpsn  file "C:/Users/a0221074/Desktop/C5000/IBM_Watson_TIdesign_workarea/CSL_bitbucket/c55_csl/c55x
    2828 000012 ED00          MOV dbl(*SP(#0)), XAR3
         000014 BF   
    2829 000015 FB61          MOV #6554, *AR3 ; |475| 
         000017 199A 
    2830                      .dwpsn  file "C:/Users/a0221074/Desktop/C5000/IBM_Watson_TIdesign_workarea/CSL_bitbucket/c55_csl/c55x
    2831 000019 ED00          MOV dbl(*SP(#0)), XAR3
         00001b BF   
    2832 00001c FB77          MOV #32440, *AR3(short(#3)) ; |476| 
         00001e 7EB8 
    2833                      .dwpsn  file "C:/Users/a0221074/Desktop/C5000/IBM_Watson_TIdesign_workarea/CSL_bitbucket/c55_csl/c55x
    2834 000020 4E03          AADD #3, SP
    2835                      .dwcfi  cfa_offset, 1
    2836              $C$DW$298       .dwtag  DW_TAG_TI_branch
TMS320C55x Assembler PC v4.4.1 Wed Sep 13 16:33:40 2017

Tools Copyright (c) 1996-2012 Texas Instruments Incorporated
C:\Users\a0221074\AppData\Local\Temp\2132810                         PAGE   62

    2837                      .dwattr $C$DW$298, DW_AT_low_pc(0x00)
    2838                      .dwattr $C$DW$298, DW_AT_TI_return
    2839 000022 4804          RET
    2840                                                      ; return occurs
    2841                      .dwattr $C$DW$295, DW_AT_TI_end_file("C:/Users/a0221074/Desktop/C5000/IBM_Watson_TIdesign_workarea/CS
    2842                      .dwattr $C$DW$295, DW_AT_TI_end_line(0x1de)
    2843                      .dwattr $C$DW$295, DW_AT_TI_end_column(0x01)
    2844                      .dwendentry
    2845                      .dwendtag $C$DW$295
    2846              
    2847 000000               .sect   ".text:_ss_open"
    2848                      .clink
    2849                      .global _ss_open
    2850              
    2851              $C$DW$299       .dwtag  DW_TAG_subprogram, DW_AT_name("ss_open")
    2852                      .dwattr $C$DW$299, DW_AT_low_pc(_ss_open)
    2853                      .dwattr $C$DW$299, DW_AT_high_pc(0x00)
    2854                      .dwattr $C$DW$299, DW_AT_TI_symbol_name("_ss_open")
    2855                      .dwattr $C$DW$299, DW_AT_external
    2856                      .dwattr $C$DW$299, DW_AT_TI_begin_file("C:/Users/a0221074/Desktop/C5000/IBM_Watson_TIdesign_workarea/
    2857                      .dwattr $C$DW$299, DW_AT_TI_begin_line(0x1e0)
    2858                      .dwattr $C$DW$299, DW_AT_TI_begin_column(0x1d)
    2859                      .dwattr $C$DW$299, DW_AT_TI_max_frame_size(0x06)
    2860                      .dwpsn  file "C:/Users/a0221074/Desktop/C5000/IBM_Watson_TIdesign_workarea/CSL_bitbucket/c55_csl/c55x
    2861              
    2862                      .dwfde $C$DW$CIE, _ss_open
    2863              $C$DW$300       .dwtag  DW_TAG_formal_parameter, DW_AT_name("ns")
    2864                      .dwattr $C$DW$300, DW_AT_TI_symbol_name("_ns")
    2865                      .dwattr $C$DW$300, DW_AT_type(*$C$DW$T$88)
    2866                      .dwattr $C$DW$300, DW_AT_location[DW_OP_reg17]
    2867              $C$DW$301       .dwtag  DW_TAG_formal_parameter, DW_AT_name("gv")
    2868                      .dwattr $C$DW$301, DW_AT_TI_symbol_name("_gv")
    2869                      .dwattr $C$DW$301, DW_AT_type(*$C$DW$T$110)
    2870                      .dwattr $C$DW$301, DW_AT_location[DW_OP_reg19]
    2871              ;*******************************************************************************
    2872              ;* FUNCTION NAME: ss_open                                                      *
    2873              ;*                                                                             *
    2874              ;*   Function Uses Regs : AC0,AC0,AR0,XAR0,AR1,XAR1,AR3,XAR3,SP,M40,SATA,SATD, *
    2875              ;*                        RDM,FRCT,SMUL                                        *
    2876              ;*   Stack Frame        : Compact (No Frame Pointer, w/ debug)                 *
    2877              ;*   Total Frame Size   : 6 words                                              *
    2878              ;*                        (2 return address/alignment)                         *
    2879              ;*                        (4 local values)                                     *
    2880              ;*   Min System Stack   : 1 word                                               *
    2881              ;*******************************************************************************
    2882 000000       _ss_open:
    2883                      .dwcfi  cfa_offset, 1
    2884                      .dwcfi  save_reg_to_mem, 91, -1
    2885 000000 4EFB          AADD #-5, SP
    2886                      .dwcfi  cfa_offset, 6
    2887              $C$DW$302       .dwtag  DW_TAG_variable, DW_AT_name("ns")
    2888                      .dwattr $C$DW$302, DW_AT_TI_symbol_name("_ns")
    2889                      .dwattr $C$DW$302, DW_AT_type(*$C$DW$T$88)
    2890                      .dwattr $C$DW$302, DW_AT_location[DW_OP_bregx 0x24 0]
    2891              $C$DW$303       .dwtag  DW_TAG_variable, DW_AT_name("gv")
TMS320C55x Assembler PC v4.4.1 Wed Sep 13 16:33:40 2017

Tools Copyright (c) 1996-2012 Texas Instruments Incorporated
C:\Users\a0221074\AppData\Local\Temp\2132810                         PAGE   63

    2892                      .dwattr $C$DW$303, DW_AT_TI_symbol_name("_gv")
    2893                      .dwattr $C$DW$303, DW_AT_type(*$C$DW$T$110)
    2894                      .dwattr $C$DW$303, DW_AT_location[DW_OP_bregx 0x24 2]
    2895 000002 EB04          MOV XAR1, dbl(*SP(#2))
         000004 95   
    2896 000005 EB00          MOV XAR0, dbl(*SP(#0))
         000007 85   
    2897                      .dwpsn  file "C:/Users/a0221074/Desktop/C5000/IBM_Watson_TIdesign_workarea/CSL_bitbucket/c55_csl/c55x
    2898 000008 7600          MOV #128, AC0 ; |487| 
         00000a 8008 
    2899              $C$DW$304       .dwtag  DW_TAG_TI_branch
    2900                      .dwattr $C$DW$304, DW_AT_low_pc(0x00)
    2901                      .dwattr $C$DW$304, DW_AT_name("_malloc")
    2902                      .dwattr $C$DW$304, DW_AT_TI_call
    2903 00000c 6C00          CALL #_malloc ; |487| 
         00000e 0000!
    2904                                                      ; call occurs [#_malloc] ; |487| 
    2905 000010 ED00          MOV dbl(*SP(#0)), XAR3
         000012 BF   
    2906 000013 EB7D          MOV XAR0, dbl(*AR3(short(#6)))
         000015 85   
    2907                      .dwpsn  file "C:/Users/a0221074/Desktop/C5000/IBM_Watson_TIdesign_workarea/CSL_bitbucket/c55_csl/c55x
    2908 000016 7600          MOV #128, AC0 ; |494| 
         000018 8008 
    2909              $C$DW$305       .dwtag  DW_TAG_TI_branch
    2910                      .dwattr $C$DW$305, DW_AT_low_pc(0x00)
    2911                      .dwattr $C$DW$305, DW_AT_name("_malloc")
    2912                      .dwattr $C$DW$305, DW_AT_TI_call
    2913 00001a 6C00          CALL #_malloc ; |494| 
         00001c 0000!
    2914                                                      ; call occurs [#_malloc] ; |494| 
    2915 00001e ED00          MOV dbl(*SP(#0)), XAR3
         000020 BF   
    2916 000021 EB6D          MOV XAR0, dbl(*AR3(#8))
         000023 8500 
         000025 08   
    2917                      .dwpsn  file "C:/Users/a0221074/Desktop/C5000/IBM_Watson_TIdesign_workarea/CSL_bitbucket/c55_csl/c55x
    2918 000026 7600          MOV #128, AC0 ; |501| 
         000028 8008 
    2919              $C$DW$306       .dwtag  DW_TAG_TI_branch
    2920                      .dwattr $C$DW$306, DW_AT_low_pc(0x00)
    2921                      .dwattr $C$DW$306, DW_AT_name("_malloc")
    2922                      .dwattr $C$DW$306, DW_AT_TI_call
    2923 00002a 6C00          CALL #_malloc ; |501| 
         00002c 0000!
    2924                                                      ; call occurs [#_malloc] ; |501| 
    2925 00002e ED00          MOV dbl(*SP(#0)), XAR3
         000030 BF   
    2926 000031 EB6D          MOV XAR0, dbl(*AR3(#10))
         000033 8500 
         000035 0A   
    2927                      .dwpsn  file "C:/Users/a0221074/Desktop/C5000/IBM_Watson_TIdesign_workarea/CSL_bitbucket/c55_csl/c55x
    2928 000036 ED00          MOV dbl(*SP(#0)), XAR0
         000038 8F   
    2929              $C$DW$307       .dwtag  DW_TAG_TI_branch
TMS320C55x Assembler PC v4.4.1 Wed Sep 13 16:33:40 2017

Tools Copyright (c) 1996-2012 Texas Instruments Incorporated
C:\Users\a0221074\AppData\Local\Temp\2132810                         PAGE   64

    2930                      .dwattr $C$DW$307, DW_AT_low_pc(0x00)
    2931                      .dwattr $C$DW$307, DW_AT_name("_ss_set_default")
    2932                      .dwattr $C$DW$307, DW_AT_TI_call
    2933 000039 6C00          CALL #_ss_set_default ; |502| 
         00003b 0000+
    2934                                                      ; call occurs [#_ss_set_default] ; |502| 
    2935                      .dwpsn  file "C:/Users/a0221074/Desktop/C5000/IBM_Watson_TIdesign_workarea/CSL_bitbucket/c55_csl/c55x
    2936 00003d ED00          MOV dbl(*SP(#0)), XAR0
         00003f 8F   
    2937              $C$DW$308       .dwtag  DW_TAG_TI_branch
    2938                      .dwattr $C$DW$308, DW_AT_low_pc(0x00)
    2939                      .dwattr $C$DW$308, DW_AT_name("_ss_init")
    2940                      .dwattr $C$DW$308, DW_AT_TI_call
    2941 000040 6C00          CALL #_ss_init ; |503| 
         000042 0000+
    2942                                                      ; call occurs [#_ss_init] ; |503| 
    2943                      .dwpsn  file "C:/Users/a0221074/Desktop/C5000/IBM_Watson_TIdesign_workarea/CSL_bitbucket/c55_csl/c55x
    2944 000044 4E05          AADD #5, SP
    2945                      .dwcfi  cfa_offset, 1
    2946              $C$DW$309       .dwtag  DW_TAG_TI_branch
    2947                      .dwattr $C$DW$309, DW_AT_low_pc(0x00)
    2948                      .dwattr $C$DW$309, DW_AT_TI_return
    2949 000046 4804          RET
    2950                                                      ; return occurs
    2951                      .dwattr $C$DW$299, DW_AT_TI_end_file("C:/Users/a0221074/Desktop/C5000/IBM_Watson_TIdesign_workarea/CS
    2952                      .dwattr $C$DW$299, DW_AT_TI_end_line(0x1f8)
    2953                      .dwattr $C$DW$299, DW_AT_TI_end_column(0x01)
    2954                      .dwendentry
    2955                      .dwendtag $C$DW$299
    2956              
    2957 000000               .sect   ".text:_ss_close"
    2958                      .clink
    2959                      .global _ss_close
    2960              
    2961              $C$DW$310       .dwtag  DW_TAG_subprogram, DW_AT_name("ss_close")
    2962                      .dwattr $C$DW$310, DW_AT_low_pc(_ss_close)
    2963                      .dwattr $C$DW$310, DW_AT_high_pc(0x00)
    2964                      .dwattr $C$DW$310, DW_AT_TI_symbol_name("_ss_close")
    2965                      .dwattr $C$DW$310, DW_AT_external
    2966                      .dwattr $C$DW$310, DW_AT_TI_begin_file("C:/Users/a0221074/Desktop/C5000/IBM_Watson_TIdesign_workarea/
    2967                      .dwattr $C$DW$310, DW_AT_TI_begin_line(0x1fa)
    2968                      .dwattr $C$DW$310, DW_AT_TI_begin_column(0x1d)
    2969                      .dwattr $C$DW$310, DW_AT_TI_max_frame_size(0x04)
    2970                      .dwpsn  file "C:/Users/a0221074/Desktop/C5000/IBM_Watson_TIdesign_workarea/CSL_bitbucket/c55_csl/c55x
    2971              
    2972                      .dwfde $C$DW$CIE, _ss_close
    2973              $C$DW$311       .dwtag  DW_TAG_formal_parameter, DW_AT_name("gv")
    2974                      .dwattr $C$DW$311, DW_AT_TI_symbol_name("_gv")
    2975                      .dwattr $C$DW$311, DW_AT_type(*$C$DW$T$110)
    2976                      .dwattr $C$DW$311, DW_AT_location[DW_OP_reg17]
    2977              ;*******************************************************************************
    2978              ;* FUNCTION NAME: ss_close                                                     *
    2979              ;*                                                                             *
    2980              ;*   Function Uses Regs : AR0,XAR0,SP,M40,SATA,SATD,RDM,FRCT,SMUL              *
    2981              ;*   Stack Frame        : Compact (No Frame Pointer, w/ debug)                 *
TMS320C55x Assembler PC v4.4.1 Wed Sep 13 16:33:40 2017

Tools Copyright (c) 1996-2012 Texas Instruments Incorporated
C:\Users\a0221074\AppData\Local\Temp\2132810                         PAGE   65

    2982              ;*   Total Frame Size   : 4 words                                              *
    2983              ;*                        (2 return address/alignment)                         *
    2984              ;*                        (2 local values)                                     *
    2985              ;*   Min System Stack   : 1 word                                               *
    2986              ;*******************************************************************************
    2987 000000       _ss_close:
    2988                      .dwcfi  cfa_offset, 1
    2989                      .dwcfi  save_reg_to_mem, 91, -1
    2990 000000 4EFD          AADD #-3, SP
    2991                      .dwcfi  cfa_offset, 4
    2992              $C$DW$312       .dwtag  DW_TAG_variable, DW_AT_name("gv")
    2993                      .dwattr $C$DW$312, DW_AT_TI_symbol_name("_gv")
    2994                      .dwattr $C$DW$312, DW_AT_type(*$C$DW$T$110)
    2995                      .dwattr $C$DW$312, DW_AT_location[DW_OP_bregx 0x24 0]
    2996 000002 EB00          MOV XAR0, dbl(*SP(#0))
         000004 85   
    2997                      .dwpsn  file "C:/Users/a0221074/Desktop/C5000/IBM_Watson_TIdesign_workarea/CSL_bitbucket/c55_csl/c55x
    2998 000005 4E03          AADD #3, SP
    2999                      .dwcfi  cfa_offset, 1
    3000              $C$DW$313       .dwtag  DW_TAG_TI_branch
    3001                      .dwattr $C$DW$313, DW_AT_low_pc(0x00)
    3002                      .dwattr $C$DW$313, DW_AT_TI_return
    3003 000007 4804          RET
    3004                                                      ; return occurs
    3005                      .dwattr $C$DW$310, DW_AT_TI_end_file("C:/Users/a0221074/Desktop/C5000/IBM_Watson_TIdesign_workarea/CS
    3006                      .dwattr $C$DW$310, DW_AT_TI_end_line(0x202)
    3007                      .dwattr $C$DW$310, DW_AT_TI_end_column(0x01)
    3008                      .dwendentry
    3009                      .dwendtag $C$DW$310
    3010              
    3011              ;******************************************************************************
    3012              ;* UNDEFINED EXTERNAL REFERENCES                                              *
    3013              ;******************************************************************************
    3014                      .global _malloc
    3015                      .global _signal_to_power_spectrum
    3016                      .global _ss_power_spectrum_to_mfcc
    3017                      .global _ss_est_frmEn
    3018                      .global _ss_update_meanEn
    3019                      .global _update_level
    3020                      .global _hlr_expn
    3021                      .global _q15_x
    3022                      .global _div32_32_Q
    3023                      .global _log_polyfit
    3024                      .global _pow_polyfit
    3025                      .global __divli
    3026                      .global __mpyli
    3027              
    3028              ;*******************************************************************************
    3029              ;* TYPE INFORMATION                                                            *
    3030              ;*******************************************************************************
    3031              
    3032              $C$DW$T$19      .dwtag  DW_TAG_structure_type
    3033                      .dwattr $C$DW$T$19, DW_AT_byte_size(0x03)
    3034              $C$DW$314       .dwtag  DW_TAG_member
    3035                      .dwattr $C$DW$314, DW_AT_type(*$C$DW$T$8)
TMS320C55x Assembler PC v4.4.1 Wed Sep 13 16:33:40 2017

Tools Copyright (c) 1996-2012 Texas Instruments Incorporated
C:\Users\a0221074\AppData\Local\Temp\2132810                         PAGE   66

    3036                      .dwattr $C$DW$314, DW_AT_name("norm0")
    3037                      .dwattr $C$DW$314, DW_AT_TI_symbol_name("_norm0")
    3038                      .dwattr $C$DW$314, DW_AT_data_member_location[DW_OP_plus_uconst 0x0]
    3039                      .dwattr $C$DW$314, DW_AT_accessibility(DW_ACCESS_public)
    3040              $C$DW$315       .dwtag  DW_TAG_member
    3041                      .dwattr $C$DW$315, DW_AT_type(*$C$DW$T$8)
    3042                      .dwattr $C$DW$315, DW_AT_name("norm1")
    3043                      .dwattr $C$DW$315, DW_AT_TI_symbol_name("_norm1")
    3044                      .dwattr $C$DW$315, DW_AT_data_member_location[DW_OP_plus_uconst 0x1]
    3045                      .dwattr $C$DW$315, DW_AT_accessibility(DW_ACCESS_public)
    3046              $C$DW$316       .dwtag  DW_TAG_member
    3047                      .dwattr $C$DW$316, DW_AT_type(*$C$DW$T$8)
    3048                      .dwattr $C$DW$316, DW_AT_name("norm2")
    3049                      .dwattr $C$DW$316, DW_AT_TI_symbol_name("_norm2")
    3050                      .dwattr $C$DW$316, DW_AT_data_member_location[DW_OP_plus_uconst 0x2]
    3051                      .dwattr $C$DW$316, DW_AT_accessibility(DW_ACCESS_public)
    3052                      .dwendtag $C$DW$T$19
    3053              
    3054              $C$DW$T$92      .dwtag  DW_TAG_typedef, DW_AT_name("NormType")
    3055                      .dwattr $C$DW$T$92, DW_AT_type(*$C$DW$T$19)
    3056                      .dwattr $C$DW$T$92, DW_AT_language(DW_LANG_C)
    3057              $C$DW$T$93      .dwtag  DW_TAG_pointer_type
    3058                      .dwattr $C$DW$T$93, DW_AT_type(*$C$DW$T$92)
    3059                      .dwattr $C$DW$T$93, DW_AT_address_class(0x17)
    3060              
    3061              $C$DW$T$20      .dwtag  DW_TAG_structure_type
    3062                      .dwattr $C$DW$T$20, DW_AT_byte_size(0x03)
    3063              $C$DW$317       .dwtag  DW_TAG_member
    3064                      .dwattr $C$DW$317, DW_AT_type(*$C$DW$T$8)
    3065                      .dwattr $C$DW$317, DW_AT_name("num")
    3066                      .dwattr $C$DW$317, DW_AT_TI_symbol_name("_num")
    3067                      .dwattr $C$DW$317, DW_AT_data_member_location[DW_OP_plus_uconst 0x0]
    3068                      .dwattr $C$DW$317, DW_AT_accessibility(DW_ACCESS_public)
    3069              $C$DW$318       .dwtag  DW_TAG_member
    3070                      .dwattr $C$DW$318, DW_AT_type(*$C$DW$T$8)
    3071                      .dwattr $C$DW$318, DW_AT_name("x1")
    3072                      .dwattr $C$DW$318, DW_AT_TI_symbol_name("_x1")
    3073                      .dwattr $C$DW$318, DW_AT_data_member_location[DW_OP_plus_uconst 0x1]
    3074                      .dwattr $C$DW$318, DW_AT_accessibility(DW_ACCESS_public)
    3075              $C$DW$319       .dwtag  DW_TAG_member
    3076                      .dwattr $C$DW$319, DW_AT_type(*$C$DW$T$8)
    3077                      .dwattr $C$DW$319, DW_AT_name("x2")
    3078                      .dwattr $C$DW$319, DW_AT_TI_symbol_name("_x2")
    3079                      .dwattr $C$DW$319, DW_AT_data_member_location[DW_OP_plus_uconst 0x2]
    3080                      .dwattr $C$DW$319, DW_AT_accessibility(DW_ACCESS_public)
    3081                      .dwendtag $C$DW$T$20
    3082              
    3083              $C$DW$T$57      .dwtag  DW_TAG_typedef, DW_AT_name("mel_filter_type")
    3084                      .dwattr $C$DW$T$57, DW_AT_type(*$C$DW$T$20)
    3085                      .dwattr $C$DW$T$57, DW_AT_language(DW_LANG_C)
    3086              $C$DW$320       .dwtag  DW_TAG_TI_far_type
    3087                      .dwattr $C$DW$320, DW_AT_type(*$C$DW$T$57)
    3088              $C$DW$T$58      .dwtag  DW_TAG_const_type
    3089                      .dwattr $C$DW$T$58, DW_AT_type(*$C$DW$320)
    3090              $C$DW$T$59      .dwtag  DW_TAG_pointer_type
TMS320C55x Assembler PC v4.4.1 Wed Sep 13 16:33:40 2017

Tools Copyright (c) 1996-2012 Texas Instruments Incorporated
C:\Users\a0221074\AppData\Local\Temp\2132810                         PAGE   67

    3091                      .dwattr $C$DW$T$59, DW_AT_type(*$C$DW$T$58)
    3092                      .dwattr $C$DW$T$59, DW_AT_address_class(0x17)
    3093              
    3094              $C$DW$T$23      .dwtag  DW_TAG_structure_type
    3095                      .dwattr $C$DW$T$23, DW_AT_byte_size(0x14)
    3096              $C$DW$321       .dwtag  DW_TAG_member
    3097                      .dwattr $C$DW$321, DW_AT_type(*$C$DW$T$21)
    3098                      .dwattr $C$DW$321, DW_AT_name("alpha_p")
    3099                      .dwattr $C$DW$321, DW_AT_TI_symbol_name("_alpha_p")
    3100                      .dwattr $C$DW$321, DW_AT_data_member_location[DW_OP_plus_uconst 0x0]
    3101                      .dwattr $C$DW$321, DW_AT_accessibility(DW_ACCESS_public)
    3102              $C$DW$322       .dwtag  DW_TAG_member
    3103                      .dwattr $C$DW$322, DW_AT_type(*$C$DW$T$21)
    3104                      .dwattr $C$DW$322, DW_AT_name("sAlpha")
    3105                      .dwattr $C$DW$322, DW_AT_TI_symbol_name("_sAlpha")
    3106                      .dwattr $C$DW$322, DW_AT_data_member_location[DW_OP_plus_uconst 0x1]
    3107                      .dwattr $C$DW$322, DW_AT_accessibility(DW_ACCESS_public)
    3108              $C$DW$323       .dwtag  DW_TAG_member
    3109                      .dwattr $C$DW$323, DW_AT_type(*$C$DW$T$8)
    3110                      .dwattr $C$DW$323, DW_AT_name("sBeta")
    3111                      .dwattr $C$DW$323, DW_AT_TI_symbol_name("_sBeta")
    3112                      .dwattr $C$DW$323, DW_AT_data_member_location[DW_OP_plus_uconst 0x2]
    3113                      .dwattr $C$DW$323, DW_AT_accessibility(DW_ACCESS_public)
    3114              $C$DW$324       .dwtag  DW_TAG_member
    3115                      .dwattr $C$DW$324, DW_AT_type(*$C$DW$T$8)
    3116                      .dwattr $C$DW$324, DW_AT_name("lambdaLTEhigherE")
    3117                      .dwattr $C$DW$324, DW_AT_TI_symbol_name("_lambdaLTEhigherE")
    3118                      .dwattr $C$DW$324, DW_AT_data_member_location[DW_OP_plus_uconst 0x3]
    3119                      .dwattr $C$DW$324, DW_AT_accessibility(DW_ACCESS_public)
    3120              $C$DW$325       .dwtag  DW_TAG_member
    3121                      .dwattr $C$DW$325, DW_AT_type(*$C$DW$T$8)
    3122                      .dwattr $C$DW$325, DW_AT_name("frm_count")
    3123                      .dwattr $C$DW$325, DW_AT_TI_symbol_name("_frm_count")
    3124                      .dwattr $C$DW$325, DW_AT_data_member_location[DW_OP_plus_uconst 0x4]
    3125                      .dwattr $C$DW$325, DW_AT_accessibility(DW_ACCESS_public)
    3126              $C$DW$326       .dwtag  DW_TAG_member
    3127                      .dwattr $C$DW$326, DW_AT_type(*$C$DW$T$21)
    3128                      .dwattr $C$DW$326, DW_AT_name("prob_sp")
    3129                      .dwattr $C$DW$326, DW_AT_TI_symbol_name("_prob_sp")
    3130                      .dwattr $C$DW$326, DW_AT_data_member_location[DW_OP_plus_uconst 0x5]
    3131                      .dwattr $C$DW$326, DW_AT_accessibility(DW_ACCESS_public)
    3132              $C$DW$327       .dwtag  DW_TAG_member
    3133                      .dwattr $C$DW$327, DW_AT_type(*$C$DW$T$22)
