TMS320C55x Assembler PC v4.4.1 Wed Sep 13 16:33:48 2017

Tools Copyright (c) 1996-2012 Texas Instruments Incorporated
C:\Users\a0221074\AppData\Local\Temp\1193610                         PAGE    1

    6131              ; Temporary Registers Used: None
       1              ;*******************************************************************************
       2              ;* TMS320C55x C/C++ Codegen                                          PC v4.4.1 *
       3              ;* Date/Time created: Wed Sep 13 16:33:46 2017                                 *
       4              ;*******************************************************************************
       5                      .compiler_opts --hll_source=on --mem_model:code=flat --mem_model:data=huge --object_format=coff --sil
       6                      .mmregs
       7                      .cpl_on
       8                      .arms_on
       9                      .c54cm_off
      10                      .asg AR6, FP
      11                      .asg XAR6, XFP
      12                      .asg DPH, MDP
      13                      .model call=c55_std
      14                      .model mem=huge
      15                      .noremark 5002  ; code respects overwrite rules
      16              ;*******************************************************************************
      17              ;* GLOBAL FILE PARAMETERS                                                      *
      18              ;*                                                                             *
      19              ;*   Architecture       : TMS320C55x                                           *
      20              ;*   Optimizing for     : Speed                                                *
      21              ;*   Memory             : Huge Model (23-Bit Data Pointers)                    *
      22              ;*   Calls              : Normal Library ASM calls                             *
      23              ;*   Debug Info         : Standard TI Debug Information                        *
      24              ;*******************************************************************************
      25              
      26              $C$DW$CU        .dwtag  DW_TAG_compile_unit
      27                      .dwattr $C$DW$CU, DW_AT_name("C:/Users/a0221074/Desktop/C5000/IBM_Watson_TIdesign_workarea/CSL_bitbuc
      28                      .dwattr $C$DW$CU, DW_AT_producer("TMS320C55x C/C++ Codegen PC v4.4.1 Copyright (c) 1996-2012 Texas In
      29                      .dwattr $C$DW$CU, DW_AT_TI_version(0x01)
      30                      .dwattr $C$DW$CU, DW_AT_comp_dir("C:\Users\a0221074\Desktop\C5000\IBM_Watson_TIdesign_workarea\CSL_bi
      31              
      32              $C$DW$1 .dwtag  DW_TAG_subprogram, DW_AT_name("MEM_alloc")
      33                      .dwattr $C$DW$1, DW_AT_TI_symbol_name("_MEM_alloc")
      34                      .dwattr $C$DW$1, DW_AT_type(*$C$DW$T$103)
      35                      .dwattr $C$DW$1, DW_AT_declaration
      36                      .dwattr $C$DW$1, DW_AT_external
      37              $C$DW$2 .dwtag  DW_TAG_formal_parameter
      38                      .dwattr $C$DW$2, DW_AT_type(*$C$DW$T$104)
      39              $C$DW$3 .dwtag  DW_TAG_formal_parameter
      40                      .dwattr $C$DW$3, DW_AT_type(*$C$DW$T$105)
      41              $C$DW$4 .dwtag  DW_TAG_formal_parameter
      42                      .dwattr $C$DW$4, DW_AT_type(*$C$DW$T$105)
      43                      .dwendtag $C$DW$1
      44              
      45              
      46              $C$DW$5 .dwtag  DW_TAG_subprogram, DW_AT_name("hlr_expn_q")
      47                      .dwattr $C$DW$5, DW_AT_TI_symbol_name("_hlr_expn_q")
      48                      .dwattr $C$DW$5, DW_AT_type(*$C$DW$T$9)
      49                      .dwattr $C$DW$5, DW_AT_declaration
      50                      .dwattr $C$DW$5, DW_AT_external
      51              $C$DW$6 .dwtag  DW_TAG_formal_parameter
      52                      .dwattr $C$DW$6, DW_AT_type(*$C$DW$T$8)
      53              $C$DW$7 .dwtag  DW_TAG_formal_parameter
      54                      .dwattr $C$DW$7, DW_AT_type(*$C$DW$T$8)
TMS320C55x Assembler PC v4.4.1 Wed Sep 13 16:33:48 2017

Tools Copyright (c) 1996-2012 Texas Instruments Incorporated
C:\Users\a0221074\AppData\Local\Temp\1193610                         PAGE    2

      55              $C$DW$8 .dwtag  DW_TAG_formal_parameter
      56                      .dwattr $C$DW$8, DW_AT_type(*$C$DW$T$23)
      57                      .dwendtag $C$DW$5
      58              
      59              
      60              $C$DW$9 .dwtag  DW_TAG_subprogram, DW_AT_name("fx_sqrt")
      61                      .dwattr $C$DW$9, DW_AT_TI_symbol_name("_fx_sqrt")
      62                      .dwattr $C$DW$9, DW_AT_type(*$C$DW$T$12)
      63                      .dwattr $C$DW$9, DW_AT_declaration
      64                      .dwattr $C$DW$9, DW_AT_external
      65              $C$DW$10        .dwtag  DW_TAG_formal_parameter
      66                      .dwattr $C$DW$10, DW_AT_type(*$C$DW$T$12)
      67                      .dwendtag $C$DW$9
      68              
      69              
      70              $C$DW$11        .dwtag  DW_TAG_subprogram, DW_AT_name("vector_unpacking")
      71                      .dwattr $C$DW$11, DW_AT_TI_symbol_name("_vector_unpacking")
      72                      .dwattr $C$DW$11, DW_AT_declaration
      73                      .dwattr $C$DW$11, DW_AT_external
      74              $C$DW$12        .dwtag  DW_TAG_formal_parameter
      75                      .dwattr $C$DW$12, DW_AT_type(*$C$DW$T$109)
      76              $C$DW$13        .dwtag  DW_TAG_formal_parameter
      77                      .dwattr $C$DW$13, DW_AT_type(*$C$DW$T$23)
      78              $C$DW$14        .dwtag  DW_TAG_formal_parameter
      79                      .dwattr $C$DW$14, DW_AT_type(*$C$DW$T$56)
      80              $C$DW$15        .dwtag  DW_TAG_formal_parameter
      81                      .dwattr $C$DW$15, DW_AT_type(*$C$DW$T$8)
      82                      .dwendtag $C$DW$11
      83              
      84              
      85              $C$DW$16        .dwtag  DW_TAG_subprogram, DW_AT_name("my_fwrite")
      86                      .dwattr $C$DW$16, DW_AT_TI_symbol_name("_my_fwrite")
      87                      .dwattr $C$DW$16, DW_AT_type(*$C$DW$T$105)
      88                      .dwattr $C$DW$16, DW_AT_declaration
      89                      .dwattr $C$DW$16, DW_AT_external
      90              $C$DW$17        .dwtag  DW_TAG_formal_parameter
      91                      .dwattr $C$DW$17, DW_AT_type(*$C$DW$T$3)
      92              $C$DW$18        .dwtag  DW_TAG_formal_parameter
      93                      .dwattr $C$DW$18, DW_AT_type(*$C$DW$T$105)
      94              $C$DW$19        .dwtag  DW_TAG_formal_parameter
      95                      .dwattr $C$DW$19, DW_AT_type(*$C$DW$T$105)
      96              $C$DW$20        .dwtag  DW_TAG_formal_parameter
      97                      .dwattr $C$DW$20, DW_AT_type(*$C$DW$T$99)
      98                      .dwendtag $C$DW$16
      99              
     100              $C$DW$21        .dwtag  DW_TAG_variable, DW_AT_name("SEG0")
     101                      .dwattr $C$DW$21, DW_AT_TI_symbol_name("_SEG0")
     102                      .dwattr $C$DW$21, DW_AT_type(*$C$DW$T$104)
     103                      .dwattr $C$DW$21, DW_AT_declaration
     104                      .dwattr $C$DW$21, DW_AT_external
     105                      .global _u_rj_perc_core
     106 000000               .sect   ".const"
     107                      .align  1
     108 000000       _u_rj_perc_core:
     109 000000 4000          .field  16384,16                        ; _u_rj_perc_core @ 0
TMS320C55x Assembler PC v4.4.1 Wed Sep 13 16:33:48 2017

Tools Copyright (c) 1996-2012 Texas Instruments Incorporated
C:\Users\a0221074\AppData\Local\Temp\1193610                         PAGE    3

     110              
     111              $C$DW$22        .dwtag  DW_TAG_variable, DW_AT_name("u_rj_perc_core")
     112                      .dwattr $C$DW$22, DW_AT_TI_symbol_name("_u_rj_perc_core")
     113                      .dwattr $C$DW$22, DW_AT_location[DW_OP_addr _u_rj_perc_core]
     114                      .dwattr $C$DW$22, DW_AT_type(*$C$DW$T$138)
     115                      .dwattr $C$DW$22, DW_AT_external
     116                      .global _u_rj_perc_inte
     117 000001               .sect   ".const"
     118                      .align  1
     119 000001       _u_rj_perc_inte:
     120 000001 0000          .field  0,16                    ; _u_rj_perc_inte @ 0
     121              
     122              $C$DW$23        .dwtag  DW_TAG_variable, DW_AT_name("u_rj_perc_inte")
     123                      .dwattr $C$DW$23, DW_AT_TI_symbol_name("_u_rj_perc_inte")
     124                      .dwattr $C$DW$23, DW_AT_location[DW_OP_addr _u_rj_perc_inte]
     125                      .dwattr $C$DW$23, DW_AT_type(*$C$DW$T$138)
     126                      .dwattr $C$DW$23, DW_AT_external
     127                      .global _GBG_num_ids
     128 000002               .sect   ".const"
     129                      .align  1
     130 000002       _GBG_num_ids:
     131 000002 0009          .field  9,16                    ; _GBG_num_ids @ 0
     132              
     133              $C$DW$24        .dwtag  DW_TAG_variable, DW_AT_name("GBG_num_ids")
     134                      .dwattr $C$DW$24, DW_AT_TI_symbol_name("_GBG_num_ids")
     135                      .dwattr $C$DW$24, DW_AT_location[DW_OP_addr _GBG_num_ids]
     136                      .dwattr $C$DW$24, DW_AT_type(*$C$DW$T$138)
     137                      .dwattr $C$DW$24, DW_AT_external
     138                      .global _GBG_HNOISE
     139 000003               .sect   ".const"
     140                      .align  1
     141 000003       _GBG_HNOISE:
     142 000003 2EE0          .field  12000,16                        ; _GBG_HNOISE @ 0
     143              
     144              $C$DW$25        .dwtag  DW_TAG_variable, DW_AT_name("GBG_HNOISE")
     145                      .dwattr $C$DW$25, DW_AT_TI_symbol_name("_GBG_HNOISE")
     146                      .dwattr $C$DW$25, DW_AT_location[DW_OP_addr _GBG_HNOISE]
     147                      .dwattr $C$DW$25, DW_AT_type(*$C$DW$T$138)
     148                      .dwattr $C$DW$25, DW_AT_external
     149                      .global _GBG_VAD_VERIFY_TH_HNOISE
     150 000004               .sect   ".const"
     151                      .align  1
     152 000004       _GBG_VAD_VERIFY_TH_HNOISE:
     153 000004 0050          .field  80,16                   ; _GBG_VAD_VERIFY_TH_HNOISE @ 0
     154              
     155              $C$DW$26        .dwtag  DW_TAG_variable, DW_AT_name("GBG_VAD_VERIFY_TH_HNOISE")
     156                      .dwattr $C$DW$26, DW_AT_TI_symbol_name("_GBG_VAD_VERIFY_TH_HNOISE")
     157                      .dwattr $C$DW$26, DW_AT_location[DW_OP_addr _GBG_VAD_VERIFY_TH_HNOISE]
     158                      .dwattr $C$DW$26, DW_AT_type(*$C$DW$T$138)
     159                      .dwattr $C$DW$26, DW_AT_external
     160                      .global _GBG_VAD_VERIFY_TH_LNOISE
     161 000005               .sect   ".const"
     162                      .align  1
     163 000005       _GBG_VAD_VERIFY_TH_LNOISE:
     164 000005 0096          .field  150,16                  ; _GBG_VAD_VERIFY_TH_LNOISE @ 0
TMS320C55x Assembler PC v4.4.1 Wed Sep 13 16:33:48 2017

Tools Copyright (c) 1996-2012 Texas Instruments Incorporated
C:\Users\a0221074\AppData\Local\Temp\1193610                         PAGE    4

     165              
     166              $C$DW$27        .dwtag  DW_TAG_variable, DW_AT_name("GBG_VAD_VERIFY_TH_LNOISE")
     167                      .dwattr $C$DW$27, DW_AT_TI_symbol_name("_GBG_VAD_VERIFY_TH_LNOISE")
     168                      .dwattr $C$DW$27, DW_AT_location[DW_OP_addr _GBG_VAD_VERIFY_TH_LNOISE]
     169                      .dwattr $C$DW$27, DW_AT_type(*$C$DW$T$138)
     170                      .dwattr $C$DW$27, DW_AT_external
     171                      .global _GBG_NUM_SIL
     172 000006               .sect   ".const"
     173                      .align  1
     174 000006       _GBG_NUM_SIL:
     175 000006 0014          .field  20,16                   ; _GBG_NUM_SIL @ 0
     176              
     177              $C$DW$28        .dwtag  DW_TAG_variable, DW_AT_name("GBG_NUM_SIL")
     178                      .dwattr $C$DW$28, DW_AT_TI_symbol_name("_GBG_NUM_SIL")
     179                      .dwattr $C$DW$28, DW_AT_location[DW_OP_addr _GBG_NUM_SIL]
     180                      .dwattr $C$DW$28, DW_AT_type(*$C$DW$T$138)
     181                      .dwattr $C$DW$28, DW_AT_external
     182                      .global _u_low_is_speech
     183 000007               .sect   ".const"
     184                      .align  1
     185 000007       _u_low_is_speech:
     186 000007 0006          .field  6,16                    ; _u_low_is_speech @ 0
     187              
     188              $C$DW$29        .dwtag  DW_TAG_variable, DW_AT_name("u_low_is_speech")
     189                      .dwattr $C$DW$29, DW_AT_TI_symbol_name("_u_low_is_speech")
     190                      .dwattr $C$DW$29, DW_AT_location[DW_OP_addr _u_low_is_speech]
     191                      .dwattr $C$DW$29, DW_AT_type(*$C$DW$T$138)
     192                      .dwattr $C$DW$29, DW_AT_external
     193                      .global _GBG_NUM_AFTER_PEAK_TO_TRIGGER_END_SPEECH
     194 000008               .sect   ".const"
     195                      .align  1
     196 000008       _GBG_NUM_AFTER_PEAK_TO_TRIGGER_END_SPEECH:
     197 000008 0096          .field  150,16                  ; _GBG_NUM_AFTER_PEAK_TO_TRIGGER_END_SPEECH @ 0
     198              
     199              $C$DW$30        .dwtag  DW_TAG_variable, DW_AT_name("GBG_NUM_AFTER_PEAK_TO_TRIGGER_END_SPEECH")
     200                      .dwattr $C$DW$30, DW_AT_TI_symbol_name("_GBG_NUM_AFTER_PEAK_TO_TRIGGER_END_SPEECH")
     201                      .dwattr $C$DW$30, DW_AT_location[DW_OP_addr _GBG_NUM_AFTER_PEAK_TO_TRIGGER_END_SPEECH]
     202                      .dwattr $C$DW$30, DW_AT_type(*$C$DW$T$55)
     203                      .dwattr $C$DW$30, DW_AT_external
     204                      .global _GBG_END_SPEECH_START
     205 000009               .sect   ".const"
     206                      .align  1
     207 000009       _GBG_END_SPEECH_START:
     208 000009 001E          .field  30,16                   ; _GBG_END_SPEECH_START @ 0
     209              
     210              $C$DW$31        .dwtag  DW_TAG_variable, DW_AT_name("GBG_END_SPEECH_START")
     211                      .dwattr $C$DW$31, DW_AT_TI_symbol_name("_GBG_END_SPEECH_START")
     212                      .dwattr $C$DW$31, DW_AT_location[DW_OP_addr _GBG_END_SPEECH_START]
     213                      .dwattr $C$DW$31, DW_AT_type(*$C$DW$T$55)
     214                      .dwattr $C$DW$31, DW_AT_external
     215                      .global _GBG_END_SPEECH_CNT_TH
     216 00000a               .sect   ".const"
     217                      .align  1
     218 00000a       _GBG_END_SPEECH_CNT_TH:
     219 00000a 0050          .field  80,16                   ; _GBG_END_SPEECH_CNT_TH @ 0
TMS320C55x Assembler PC v4.4.1 Wed Sep 13 16:33:48 2017

Tools Copyright (c) 1996-2012 Texas Instruments Incorporated
C:\Users\a0221074\AppData\Local\Temp\1193610                         PAGE    5

     220              
     221              $C$DW$32        .dwtag  DW_TAG_variable, DW_AT_name("GBG_END_SPEECH_CNT_TH")
     222                      .dwattr $C$DW$32, DW_AT_TI_symbol_name("_GBG_END_SPEECH_CNT_TH")
     223                      .dwattr $C$DW$32, DW_AT_location[DW_OP_addr _GBG_END_SPEECH_CNT_TH]
     224                      .dwattr $C$DW$32, DW_AT_type(*$C$DW$T$55)
     225                      .dwattr $C$DW$32, DW_AT_external
     226                      .global _GBG_END_SPEECH_TH_PERC
     227 00000b               .sect   ".const"
     228                      .align  1
     229 00000b       _GBG_END_SPEECH_TH_PERC:
     230 00000b 0CCD          .field  3277,16                 ; _GBG_END_SPEECH_TH_PERC @ 0
     231              
     232              $C$DW$33        .dwtag  DW_TAG_variable, DW_AT_name("GBG_END_SPEECH_TH_PERC")
     233                      .dwattr $C$DW$33, DW_AT_TI_symbol_name("_GBG_END_SPEECH_TH_PERC")
     234                      .dwattr $C$DW$33, DW_AT_location[DW_OP_addr _GBG_END_SPEECH_TH_PERC]
     235                      .dwattr $C$DW$33, DW_AT_type(*$C$DW$T$138)
     236                      .dwattr $C$DW$33, DW_AT_external
     237                      .global _GBG_post_threshold
     238 00000c               .sect   ".const"
     239                      .align  1
     240 00000c       _GBG_post_threshold:
     241 00000c 0006          .field  6,16                    ; _GBG_post_threshold @ 0
     242              
     243              $C$DW$34        .dwtag  DW_TAG_variable, DW_AT_name("GBG_post_threshold")
     244                      .dwattr $C$DW$34, DW_AT_TI_symbol_name("_GBG_post_threshold")
     245                      .dwattr $C$DW$34, DW_AT_location[DW_OP_addr _GBG_post_threshold]
     246                      .dwattr $C$DW$34, DW_AT_type(*$C$DW$T$55)
     247                      .dwattr $C$DW$34, DW_AT_external
     248                      .global _GS_LOW_SCORE
     249 00000d               .sect   ".const"
     250                      .align  1
     251 00000d       _GS_LOW_SCORE:
     252 00000d E058          .field  -8104,16                        ; _GS_LOW_SCORE @ 0
     253              
     254              $C$DW$35        .dwtag  DW_TAG_variable, DW_AT_name("GS_LOW_SCORE")
     255                      .dwattr $C$DW$35, DW_AT_TI_symbol_name("_GS_LOW_SCORE")
     256                      .dwattr $C$DW$35, DW_AT_location[DW_OP_addr _GS_LOW_SCORE]
     257                      .dwattr $C$DW$35, DW_AT_type(*$C$DW$T$55)
     258                      .dwattr $C$DW$35, DW_AT_external
     259                      .global _CM_UV_ACC
     260 000000               .sect   ".const:_CM_UV_ACC"
     261                      .clink
     262                      .align  1
     263 000000       _CM_UV_ACC:
     264 000000 EDB3          .field  -4685,16                        ; _CM_UV_ACC[0] @ 0
     265 000001 0080          .field  128,16                  ; _CM_UV_ACC[1] @ 16
     266 000002 00CE          .field  206,16                  ; _CM_UV_ACC[2] @ 32
     267              
     268              $C$DW$36        .dwtag  DW_TAG_variable, DW_AT_name("CM_UV_ACC")
     269                      .dwattr $C$DW$36, DW_AT_TI_symbol_name("_CM_UV_ACC")
     270                      .dwattr $C$DW$36, DW_AT_location[DW_OP_addr _CM_UV_ACC]
     271                      .dwattr $C$DW$36, DW_AT_type(*$C$DW$T$122)
     272                      .dwattr $C$DW$36, DW_AT_external
     273                      .global _CM_UV_REJ
     274 000000               .sect   ".const:_CM_UV_REJ"
TMS320C55x Assembler PC v4.4.1 Wed Sep 13 16:33:48 2017

Tools Copyright (c) 1996-2012 Texas Instruments Incorporated
C:\Users\a0221074\AppData\Local\Temp\1193610                         PAGE    6

     275                      .clink
     276                      .align  1
     277 000000       _CM_UV_REJ:
     278 000000 D9BF          .field  -9793,16                        ; _CM_UV_REJ[0] @ 0
     279 000001 0005          .field  5,16                    ; _CM_UV_REJ[1] @ 16
     280 000002 019C          .field  412,16                  ; _CM_UV_REJ[2] @ 32
     281              
     282              $C$DW$37        .dwtag  DW_TAG_variable, DW_AT_name("CM_UV_REJ")
     283                      .dwattr $C$DW$37, DW_AT_TI_symbol_name("_CM_UV_REJ")
     284                      .dwattr $C$DW$37, DW_AT_location[DW_OP_addr _CM_UV_REJ]
     285                      .dwattr $C$DW$37, DW_AT_type(*$C$DW$T$122)
     286                      .dwattr $C$DW$37, DW_AT_external
     287                      .global _CM_LOGIST_PARA
     288 000000               .sect   ".const:_CM_LOGIST_PARA"
     289                      .clink
     290                      .align  1
     291 000000       _CM_LOGIST_PARA:
     292 000000 0179          .field  377,16                  ; _CM_LOGIST_PARA[0] @ 0
     293 000001 003E          .field  62,16                   ; _CM_LOGIST_PARA[1] @ 16
     294 000002 FFEE          .field  -18,16                  ; _CM_LOGIST_PARA[2] @ 32
     295              
     296              $C$DW$38        .dwtag  DW_TAG_variable, DW_AT_name("CM_LOGIST_PARA")
     297                      .dwattr $C$DW$38, DW_AT_TI_symbol_name("_CM_LOGIST_PARA")
     298                      .dwattr $C$DW$38, DW_AT_location[DW_OP_addr _CM_LOGIST_PARA]
     299                      .dwattr $C$DW$38, DW_AT_type(*$C$DW$T$122)
     300                      .dwattr $C$DW$38, DW_AT_external
     301                      .global _CM_NBEST_LOW_CONF
     302 00000e               .sect   ".const"
     303                      .align  1
     304 00000e       _CM_NBEST_LOW_CONF:
     305 00000e FFCE          .field  -50,16                  ; _CM_NBEST_LOW_CONF @ 0
     306              
     307              $C$DW$39        .dwtag  DW_TAG_variable, DW_AT_name("CM_NBEST_LOW_CONF")
     308                      .dwattr $C$DW$39, DW_AT_TI_symbol_name("_CM_NBEST_LOW_CONF")
     309                      .dwattr $C$DW$39, DW_AT_location[DW_OP_addr _CM_NBEST_LOW_CONF]
     310                      .dwattr $C$DW$39, DW_AT_type(*$C$DW$T$55)
     311                      .dwattr $C$DW$39, DW_AT_external
     312              ;       C:\ti\ccsv7\tools\compiler\c5500_4.4.1\bin\acp55.exe -@C:\\Users\\a0221074\\AppData\\Local\\Temp\\119
     313 000000               .sect   ".text:_rj_dist"
     314                      .clink
     315              
     316              $C$DW$40        .dwtag  DW_TAG_subprogram, DW_AT_name("rj_dist")
     317                      .dwattr $C$DW$40, DW_AT_low_pc(_rj_dist)
     318                      .dwattr $C$DW$40, DW_AT_high_pc(0x00)
     319                      .dwattr $C$DW$40, DW_AT_TI_symbol_name("_rj_dist")
     320                      .dwattr $C$DW$40, DW_AT_type(*$C$DW$T$8)
     321                      .dwattr $C$DW$40, DW_AT_TI_begin_file("C:/Users/a0221074/Desktop/C5000/IBM_Watson_TIdesign_workarea/C
     322                      .dwattr $C$DW$40, DW_AT_TI_begin_line(0x1ef)
     323                      .dwattr $C$DW$40, DW_AT_TI_begin_column(0x0e)
     324                      .dwattr $C$DW$40, DW_AT_TI_max_frame_size(0x0a)
     325                      .dwpsn  file "C:/Users/a0221074/Desktop/C5000/IBM_Watson_TIdesign_workarea/CSL_bitbucket/c55_csl/c55x
     326              
     327                      .dwfde $C$DW$CIE, _rj_dist
     328              $C$DW$41        .dwtag  DW_TAG_formal_parameter, DW_AT_name("mfcc_feat")
     329                      .dwattr $C$DW$41, DW_AT_TI_symbol_name("_mfcc_feat")
TMS320C55x Assembler PC v4.4.1 Wed Sep 13 16:33:48 2017

Tools Copyright (c) 1996-2012 Texas Instruments Incorporated
C:\Users\a0221074\AppData\Local\Temp\1193610                         PAGE    7

     330                      .dwattr $C$DW$41, DW_AT_type(*$C$DW$T$23)
     331                      .dwattr $C$DW$41, DW_AT_location[DW_OP_reg17]
     332              $C$DW$42        .dwtag  DW_TAG_formal_parameter, DW_AT_name("mean")
     333                      .dwattr $C$DW$42, DW_AT_TI_symbol_name("_mean")
     334                      .dwattr $C$DW$42, DW_AT_type(*$C$DW$T$23)
     335                      .dwattr $C$DW$42, DW_AT_location[DW_OP_reg19]
     336              $C$DW$43        .dwtag  DW_TAG_formal_parameter, DW_AT_name("inv")
     337                      .dwattr $C$DW$43, DW_AT_TI_symbol_name("_inv")
     338                      .dwattr $C$DW$43, DW_AT_type(*$C$DW$T$23)
     339                      .dwattr $C$DW$43, DW_AT_location[DW_OP_reg21]
     340              $C$DW$44        .dwtag  DW_TAG_formal_parameter, DW_AT_name("gconst")
     341                      .dwattr $C$DW$44, DW_AT_TI_symbol_name("_gconst")
     342                      .dwattr $C$DW$44, DW_AT_type(*$C$DW$T$8)
     343                      .dwattr $C$DW$44, DW_AT_location[DW_OP_reg12]
     344              $C$DW$45        .dwtag  DW_TAG_formal_parameter, DW_AT_name("dm")
     345                      .dwattr $C$DW$45, DW_AT_TI_symbol_name("_dm")
     346                      .dwattr $C$DW$45, DW_AT_type(*$C$DW$T$8)
     347                      .dwattr $C$DW$45, DW_AT_location[DW_OP_reg13]
     348              ;*******************************************************************************
     349              ;* FUNCTION NAME: rj_dist                                                      *
     350              ;*                                                                             *
     351              ;*   Function Uses Regs : AC0,AC0,AC1,AC1,AC2,AC2,AC3,AC3,T0,T1,AR0,XAR0,AR1,  *
     352              ;*                        XAR1,AR2,XAR2,AR3,XAR3,SP,CARRY,TC1,M40,SATA,SATD,   *
     353              ;*                        RDM,FRCT,SMUL                                        *
     354              ;*   Stack Frame        : Compact (No Frame Pointer, w/ debug)                 *
     355              ;*   Total Frame Size   : 10 words                                             *
     356              ;*                        (2 return address/alignment)                         *
     357              ;*                        (8 local values)                                     *
     358              ;*   Min System Stack   : 1 word                                               *
     359              ;*******************************************************************************
     360 000000       _rj_dist:
     361                      .dwcfi  cfa_offset, 1
     362                      .dwcfi  save_reg_to_mem, 91, -1
     363 000000 4EF7          AADD #-9, SP
     364                      .dwcfi  cfa_offset, 10
     365              $C$DW$46        .dwtag  DW_TAG_variable, DW_AT_name("mfcc_feat")
     366                      .dwattr $C$DW$46, DW_AT_TI_symbol_name("_mfcc_feat")
     367                      .dwattr $C$DW$46, DW_AT_type(*$C$DW$T$23)
     368                      .dwattr $C$DW$46, DW_AT_location[DW_OP_bregx 0x24 0]
     369              $C$DW$47        .dwtag  DW_TAG_variable, DW_AT_name("mean")
     370                      .dwattr $C$DW$47, DW_AT_TI_symbol_name("_mean")
     371                      .dwattr $C$DW$47, DW_AT_type(*$C$DW$T$23)
     372                      .dwattr $C$DW$47, DW_AT_location[DW_OP_bregx 0x24 2]
     373              $C$DW$48        .dwtag  DW_TAG_variable, DW_AT_name("inv")
     374                      .dwattr $C$DW$48, DW_AT_TI_symbol_name("_inv")
     375                      .dwattr $C$DW$48, DW_AT_type(*$C$DW$T$23)
     376                      .dwattr $C$DW$48, DW_AT_location[DW_OP_bregx 0x24 4]
     377              $C$DW$49        .dwtag  DW_TAG_variable, DW_AT_name("gconst")
     378                      .dwattr $C$DW$49, DW_AT_TI_symbol_name("_gconst")
     379                      .dwattr $C$DW$49, DW_AT_type(*$C$DW$T$8)
     380                      .dwattr $C$DW$49, DW_AT_location[DW_OP_bregx 0x24 6]
     381              $C$DW$50        .dwtag  DW_TAG_variable, DW_AT_name("dm")
     382                      .dwattr $C$DW$50, DW_AT_TI_symbol_name("_dm")
     383                      .dwattr $C$DW$50, DW_AT_type(*$C$DW$T$8)
     384                      .dwattr $C$DW$50, DW_AT_location[DW_OP_bregx 0x24 7]
TMS320C55x Assembler PC v4.4.1 Wed Sep 13 16:33:48 2017

Tools Copyright (c) 1996-2012 Texas Instruments Incorporated
C:\Users\a0221074\AppData\Local\Temp\1193610                         PAGE    8

     385              ;* AC1   assigned to _td
     386              $C$DW$51        .dwtag  DW_TAG_variable, DW_AT_name("td")
     387                      .dwattr $C$DW$51, DW_AT_TI_symbol_name("_td")
     388                      .dwattr $C$DW$51, DW_AT_type(*$C$DW$T$12)
     389                      .dwattr $C$DW$51, DW_AT_location[DW_OP_reg3]
     390              ;* AC2   assigned to _dist
     391              $C$DW$52        .dwtag  DW_TAG_variable, DW_AT_name("dist")
     392                      .dwattr $C$DW$52, DW_AT_TI_symbol_name("_dist")
     393                      .dwattr $C$DW$52, DW_AT_type(*$C$DW$T$12)
     394                      .dwattr $C$DW$52, DW_AT_location[DW_OP_reg6]
     395              ;* AR1   assigned to _i
     396              $C$DW$53        .dwtag  DW_TAG_variable, DW_AT_name("i")
     397                      .dwattr $C$DW$53, DW_AT_TI_symbol_name("_i")
     398                      .dwattr $C$DW$53, DW_AT_type(*$C$DW$T$8)
     399                      .dwattr $C$DW$53, DW_AT_location[DW_OP_reg18]
     400 000002 C50E          MOV T1, *SP(#7) ; |496| 
     401 000004 C40C          MOV T0, *SP(#6) ; |496| 
     402 000006 EB08          MOV XAR2, dbl(*SP(#4))
         000008 A5   
     403 000009 EB04          MOV XAR1, dbl(*SP(#2))
         00000b 95   
     404 00000c EB00          MOV XAR0, dbl(*SP(#0))
         00000e 85   
     405                      .dwpsn  file "C:/Users/a0221074/Desktop/C5000/IBM_Watson_TIdesign_workarea/CSL_bitbucket/c55_csl/c55x
     406 00000f 3C02          MOV #0, AC2 ; |498| 
     407                      .dwpsn  file "C:/Users/a0221074/Desktop/C5000/IBM_Watson_TIdesign_workarea/CSL_bitbucket/c55_csl/c55x
     408 000011 A90E          MOV *SP(#7), AR1 ; |501| 
     409 000013 4219          SUB #1, AR1, AR1 ; |501| 
     410                      .dwpsn  file "C:/Users/a0221074/Desktop/C5000/IBM_Watson_TIdesign_workarea/CSL_bitbucket/c55_csl/c55x
     411 000015 0429          BCC $C$L2,AR1 < #0 ; |501| 
         000017 3A   
     412                                                      ; branchcc occurs ; |501| 
     413 000018       $C$L1:    
     414 000018       $C$DW$L$_rj_dist$2$B:
     415                      .dwpsn  file "C:/Users/a0221074/Desktop/C5000/IBM_Watson_TIdesign_workarea/CSL_bitbucket/c55_csl/c55x
     416 000018 2294          MOV AR1, T0 ; |502| 
     417 00001a ED04          MOV dbl(*SP(#2)), XAR3
         00001c BF   
     418 00001d AA6B          MOV *AR3(T0), AR2 ; |502| 
     419 00001f ED00          MOV dbl(*SP(#0)), XAR3
         000021 BF   
     420 000022 D86B          SUB AR2, *AR3(T0), AR2 ; |502| 
         000024 AA   
     421 000025 22A1          MOV AR2, AC1
     422                      .dwpsn  file "C:/Users/a0221074/Desktop/C5000/IBM_Watson_TIdesign_workarea/CSL_bitbucket/c55_csl/c55x
     423              $C$DW$54        .dwtag  DW_TAG_TI_branch
     424                      .dwattr $C$DW$54, DW_AT_low_pc(0x00)
     425                      .dwattr $C$DW$54, DW_AT_name("__mpyli")
     426                      .dwattr $C$DW$54, DW_AT_TI_call
     427              
     428 000027 6C00          CALL #__mpyli ; |503| 
         000029 0000!
     429 00002b 1B00  ||      OR #0, AC1, AC0
         00002d 01   
     430              
TMS320C55x Assembler PC v4.4.1 Wed Sep 13 16:33:48 2017

Tools Copyright (c) 1996-2012 Texas Instruments Incorporated
C:\Users\a0221074\AppData\Local\Temp\1193610                         PAGE    9

     431                                                      ; call occurs [#__mpyli] ; |503| 
     432 00002e 1A00          OR #0, AC0, AC1
         000030 10   
     433                      .dwpsn  file "C:/Users/a0221074/Desktop/C5000/IBM_Watson_TIdesign_workarea/CSL_bitbucket/c55_csl/c55x
     434 000031 1055          SFTS AC1, #-11, AC1 ; |504| 
         000033 35   
     435                      .dwpsn  file "C:/Users/a0221074/Desktop/C5000/IBM_Watson_TIdesign_workarea/CSL_bitbucket/c55_csl/c55x
     436 000034 2294          MOV AR1, T0 ; |505| 
     437 000036 ED08          MOV dbl(*SP(#4)), XAR3
         000038 BF   
     438              
     439 000039 A36B          MOV *AR3(T0), AC3 ; |505| 
     440 00003b 1B00  ||      OR #0, AC1, AC0
         00003d 01   
     441              
     442              $C$DW$55        .dwtag  DW_TAG_TI_branch
     443                      .dwattr $C$DW$55, DW_AT_low_pc(0x00)
     444                      .dwattr $C$DW$55, DW_AT_name("__mpyli")
     445                      .dwattr $C$DW$55, DW_AT_TI_call
     446              
     447 00003e 6C00          CALL #__mpyli ; |505| 
         000040 0000!
     448 000042 1B00  ||      OR #0, AC3, AC1
         000044 13   
     449              
     450                                                      ; call occurs [#__mpyli] ; |505| 
     451 000045 1A00          OR #0, AC0, AC1
         000047 10   
     452                      .dwpsn  file "C:/Users/a0221074/Desktop/C5000/IBM_Watson_TIdesign_workarea/CSL_bitbucket/c55_csl/c55x
     453 000048 1055          SFTS AC1, #-14, AC1 ; |506| 
         00004a 32   
     454                      .dwpsn  file "C:/Users/a0221074/Desktop/C5000/IBM_Watson_TIdesign_workarea/CSL_bitbucket/c55_csl/c55x
     455 00004b 2612          SUB AC1, AC2 ; |507| 
     456                      .dwpsn  file "C:/Users/a0221074/Desktop/C5000/IBM_Watson_TIdesign_workarea/CSL_bitbucket/c55_csl/c55x
     457 00004d 4219          SUB #1, AR1 ; |501| 
     458                      .dwpsn  file "C:/Users/a0221074/Desktop/C5000/IBM_Watson_TIdesign_workarea/CSL_bitbucket/c55_csl/c55x
     459 00004f 0459          BCC $C$L1,AR1 >= #0 ; |501| 
         000051 C6   
     460                                                      ; branchcc occurs ; |501| 
     461 000052       $C$DW$L$_rj_dist$2$E:
     462 000052       $C$L2:    
     463                      .dwpsn  file "C:/Users/a0221074/Desktop/C5000/IBM_Watson_TIdesign_workarea/CSL_bitbucket/c55_csl/c55x
     464 000052 D70C          SUB *SP(#6), AC2, AC2 ; |509| 
         000054 22   
     465                      .dwpsn  file "C:/Users/a0221074/Desktop/C5000/IBM_Watson_TIdesign_workarea/CSL_bitbucket/c55_csl/c55x
     466 000055 4442          SFTS AC2, #-1 ; |510| 
     467                      .dwpsn  file "C:/Users/a0221074/Desktop/C5000/IBM_Watson_TIdesign_workarea/CSL_bitbucket/c55_csl/c55x
     468 000057 7680          MOV #-32768, AC0 ; |512| 
         000059 0008 
     469 00005b 1208          CMP AC2 <= AC0, TC1 ; |512| 
         00005d 20   
     470 00005e 61E4          BCC $C$L3,TC1 ; |512| 
     471                                                      ; branchcc occurs ; |512| 
     472 000060 1A00          OR #0, AC2, AC0
         000062 02   
TMS320C55x Assembler PC v4.4.1 Wed Sep 13 16:33:48 2017

Tools Copyright (c) 1996-2012 Texas Instruments Incorporated
C:\Users\a0221074\AppData\Local\Temp\1193610                         PAGE   10

     473 000063       $C$L3:    
     474 000063 767F          MOV #32767, AC1 ; |512| 
         000065 FF18 
     475 000067 1208          CMP AC0 >= AC1, TC1 ; |512| 
         000069 10   
     476 00006a 67E4          BCC $C$L4,TC1 ; |512| 
     477                                                      ; branchcc occurs ; |512| 
     478 00006c 7680          MOV #-32768, AC0 ; |512| 
         00006e 0008 
     479 000070 1208          CMP AC2 <= AC0, TC1 ; |512| 
         000072 20   
     480 000073 6574          BCC $C$L5,!TC1 ; |512| 
     481                                                      ; branchcc occurs ; |512| 
     482 000075 7680          MOV #-32768, AC2 ; |512| 
         000077 0028 
     483 000079 4A04          B $C$L5   ; |512| 
     484                                                      ; branch occurs ; |512| 
     485 00007b       $C$L4:    
     486 00007b 767F          MOV #32767, AC2 ; |512| 
         00007d FF28 
     487 00007f       $C$L5:    
     488                      .dwpsn  file "C:/Users/a0221074/Desktop/C5000/IBM_Watson_TIdesign_workarea/CSL_bitbucket/c55_csl/c55x
     489 00007f 2224          MOV AC2, T0 ; |512| 
     490 000081 4E09          AADD #9, SP ; |512| 
     491                      .dwcfi  cfa_offset, 1
     492              $C$DW$56        .dwtag  DW_TAG_TI_branch
     493                      .dwattr $C$DW$56, DW_AT_low_pc(0x00)
     494                      .dwattr $C$DW$56, DW_AT_TI_return
     495 000083 4804          RET       ; |512| 
     496                                                      ; return occurs ; |512| 
     497              
     498              $C$DW$57        .dwtag  DW_TAG_TI_loop
     499                      .dwattr $C$DW$57, DW_AT_name("C:\\Users\\a0221074\\AppData\\Local\\Temp\\1193610:$C$L1:1:1505334826")
     500                      .dwattr $C$DW$57, DW_AT_TI_begin_file("C:/Users/a0221074/Desktop/C5000/IBM_Watson_TIdesign_workarea/C
     501                      .dwattr $C$DW$57, DW_AT_TI_begin_line(0x1f5)
     502                      .dwattr $C$DW$57, DW_AT_TI_end_line(0x1fc)
     503              $C$DW$58        .dwtag  DW_TAG_TI_loop_range
     504                      .dwattr $C$DW$58, DW_AT_low_pc($C$DW$L$_rj_dist$2$B)
     505                      .dwattr $C$DW$58, DW_AT_high_pc($C$DW$L$_rj_dist$2$E)
     506                      .dwendtag $C$DW$57
     507              
     508                      .dwattr $C$DW$40, DW_AT_TI_end_file("C:/Users/a0221074/Desktop/C5000/IBM_Watson_TIdesign_workarea/CSL
     509                      .dwattr $C$DW$40, DW_AT_TI_end_line(0x201)
     510                      .dwattr $C$DW$40, DW_AT_TI_end_column(0x01)
     511                      .dwendentry
     512                      .dwendtag $C$DW$40
     513              
     514 000000               .sect   ".text:_mlp_update"
     515                      .clink
     516                      .global _mlp_update
     517              
     518              $C$DW$59        .dwtag  DW_TAG_subprogram, DW_AT_name("mlp_update")
     519                      .dwattr $C$DW$59, DW_AT_low_pc(_mlp_update)
     520                      .dwattr $C$DW$59, DW_AT_high_pc(0x00)
     521                      .dwattr $C$DW$59, DW_AT_TI_symbol_name("_mlp_update")
TMS320C55x Assembler PC v4.4.1 Wed Sep 13 16:33:48 2017

Tools Copyright (c) 1996-2012 Texas Instruments Incorporated
C:\Users\a0221074\AppData\Local\Temp\1193610                         PAGE   11

     522                      .dwattr $C$DW$59, DW_AT_external
     523                      .dwattr $C$DW$59, DW_AT_TI_begin_file("C:/Users/a0221074/Desktop/C5000/IBM_Watson_TIdesign_workarea/C
     524                      .dwattr $C$DW$59, DW_AT_TI_begin_line(0x595)
     525                      .dwattr $C$DW$59, DW_AT_TI_begin_column(0x06)
     526                      .dwattr $C$DW$59, DW_AT_TI_max_frame_size(0x08)
     527                      .dwpsn  file "C:/Users/a0221074/Desktop/C5000/IBM_Watson_TIdesign_workarea/CSL_bitbucket/c55_csl/c55x
     528              
     529                      .dwfde $C$DW$CIE, _mlp_update
     530              $C$DW$60        .dwtag  DW_TAG_formal_parameter, DW_AT_name("gv")
     531                      .dwattr $C$DW$60, DW_AT_TI_symbol_name("_gv")
     532                      .dwattr $C$DW$60, DW_AT_type(*$C$DW$T$96)
     533                      .dwattr $C$DW$60, DW_AT_location[DW_OP_reg17]
     534              $C$DW$61        .dwtag  DW_TAG_formal_parameter, DW_AT_name("hmm_idx")
     535                      .dwattr $C$DW$61, DW_AT_TI_symbol_name("_hmm_idx")
     536                      .dwattr $C$DW$61, DW_AT_type(*$C$DW$T$8)
     537                      .dwattr $C$DW$61, DW_AT_location[DW_OP_reg12]
     538              $C$DW$62        .dwtag  DW_TAG_formal_parameter, DW_AT_name("score")
     539                      .dwattr $C$DW$62, DW_AT_TI_symbol_name("_score")
     540                      .dwattr $C$DW$62, DW_AT_type(*$C$DW$T$12)
     541                      .dwattr $C$DW$62, DW_AT_location[DW_OP_reg0]
     542              ;*******************************************************************************
     543              ;* FUNCTION NAME: mlp_update                                                   *
     544              ;*                                                                             *
     545              ;*   Function Uses Regs : AC0,AC0,T0,AR0,XAR0,SP,M40,SATA,SATD,RDM,FRCT,SMUL   *
     546              ;*   Stack Frame        : Compact (No Frame Pointer, w/ debug)                 *
     547              ;*   Total Frame Size   : 8 words                                              *
     548              ;*                        (2 return address/alignment)                         *
     549              ;*                        (6 local values)                                     *
     550              ;*   Min System Stack   : 1 word                                               *
     551              ;*******************************************************************************
     552 000000       _mlp_update:
     553                      .dwcfi  cfa_offset, 1
     554                      .dwcfi  save_reg_to_mem, 91, -1
     555 000000 4EF9          AADD #-7, SP
     556                      .dwcfi  cfa_offset, 8
     557              $C$DW$63        .dwtag  DW_TAG_variable, DW_AT_name("gv")
     558                      .dwattr $C$DW$63, DW_AT_TI_symbol_name("_gv")
     559                      .dwattr $C$DW$63, DW_AT_type(*$C$DW$T$96)
     560                      .dwattr $C$DW$63, DW_AT_location[DW_OP_bregx 0x24 0]
     561              $C$DW$64        .dwtag  DW_TAG_variable, DW_AT_name("hmm_idx")
     562                      .dwattr $C$DW$64, DW_AT_TI_symbol_name("_hmm_idx")
     563                      .dwattr $C$DW$64, DW_AT_type(*$C$DW$T$8)
     564                      .dwattr $C$DW$64, DW_AT_location[DW_OP_bregx 0x24 2]
     565              $C$DW$65        .dwtag  DW_TAG_variable, DW_AT_name("score")
     566                      .dwattr $C$DW$65, DW_AT_TI_symbol_name("_score")
     567                      .dwattr $C$DW$65, DW_AT_type(*$C$DW$T$12)
     568                      .dwattr $C$DW$65, DW_AT_location[DW_OP_bregx 0x24 4]
     569 000002 EB08          MOV AC0, dbl(*SP(#4)) ; |1430| 
         000004 08   
     570 000005 C404          MOV T0, *SP(#2) ; |1430| 
     571 000007 EB00          MOV XAR0, dbl(*SP(#0))
         000009 85   
     572                      .dwpsn  file "C:/Users/a0221074/Desktop/C5000/IBM_Watson_TIdesign_workarea/CSL_bitbucket/c55_csl/c55x
     573 00000a 4E07          AADD #7, SP
     574                      .dwcfi  cfa_offset, 1
TMS320C55x Assembler PC v4.4.1 Wed Sep 13 16:33:48 2017

Tools Copyright (c) 1996-2012 Texas Instruments Incorporated
C:\Users\a0221074\AppData\Local\Temp\1193610                         PAGE   12

     575              $C$DW$66        .dwtag  DW_TAG_TI_branch
     576                      .dwattr $C$DW$66, DW_AT_low_pc(0x00)
     577                      .dwattr $C$DW$66, DW_AT_TI_return
     578 00000c 4804          RET
     579                                                      ; return occurs
     580                      .dwattr $C$DW$59, DW_AT_TI_end_file("C:/Users/a0221074/Desktop/C5000/IBM_Watson_TIdesign_workarea/CSL
     581                      .dwattr $C$DW$59, DW_AT_TI_end_line(0x5a4)
     582                      .dwattr $C$DW$59, DW_AT_TI_end_column(0x01)
     583                      .dwendentry
     584                      .dwendtag $C$DW$59
     585              
     586 000000               .sect   ".text:_mlp_open"
     587                      .clink
     588                      .global _mlp_open
     589              
     590              $C$DW$67        .dwtag  DW_TAG_subprogram, DW_AT_name("mlp_open")
     591                      .dwattr $C$DW$67, DW_AT_low_pc(_mlp_open)
     592                      .dwattr $C$DW$67, DW_AT_high_pc(0x00)
     593                      .dwattr $C$DW$67, DW_AT_TI_symbol_name("_mlp_open")
     594                      .dwattr $C$DW$67, DW_AT_external
     595                      .dwattr $C$DW$67, DW_AT_TI_begin_file("C:/Users/a0221074/Desktop/C5000/IBM_Watson_TIdesign_workarea/C
     596                      .dwattr $C$DW$67, DW_AT_TI_begin_line(0x5a7)
     597                      .dwattr $C$DW$67, DW_AT_TI_begin_column(0x06)
     598                      .dwattr $C$DW$67, DW_AT_TI_max_frame_size(0x04)
     599                      .dwpsn  file "C:/Users/a0221074/Desktop/C5000/IBM_Watson_TIdesign_workarea/CSL_bitbucket/c55_csl/c55x
     600              
     601                      .dwfde $C$DW$CIE, _mlp_open
     602              $C$DW$68        .dwtag  DW_TAG_formal_parameter, DW_AT_name("gv")
     603                      .dwattr $C$DW$68, DW_AT_TI_symbol_name("_gv")
     604                      .dwattr $C$DW$68, DW_AT_type(*$C$DW$T$96)
     605                      .dwattr $C$DW$68, DW_AT_location[DW_OP_reg17]
     606              ;*******************************************************************************
     607              ;* FUNCTION NAME: mlp_open                                                     *
     608              ;*                                                                             *
     609              ;*   Function Uses Regs : AR0,XAR0,SP,M40,SATA,SATD,RDM,FRCT,SMUL              *
     610              ;*   Stack Frame        : Compact (No Frame Pointer, w/ debug)                 *
     611              ;*   Total Frame Size   : 4 words                                              *
     612              ;*                        (2 return address/alignment)                         *
     613              ;*                        (2 local values)                                     *
     614              ;*   Min System Stack   : 1 word                                               *
     615              ;*******************************************************************************
     616 000000       _mlp_open:
     617                      .dwcfi  cfa_offset, 1
     618                      .dwcfi  save_reg_to_mem, 91, -1
     619 000000 4EFD          AADD #-3, SP
     620                      .dwcfi  cfa_offset, 4
     621              $C$DW$69        .dwtag  DW_TAG_variable, DW_AT_name("gv")
     622                      .dwattr $C$DW$69, DW_AT_TI_symbol_name("_gv")
     623                      .dwattr $C$DW$69, DW_AT_type(*$C$DW$T$96)
     624                      .dwattr $C$DW$69, DW_AT_location[DW_OP_bregx 0x24 0]
     625 000002 EB00          MOV XAR0, dbl(*SP(#0))
         000004 85   
     626                      .dwpsn  file "C:/Users/a0221074/Desktop/C5000/IBM_Watson_TIdesign_workarea/CSL_bitbucket/c55_csl/c55x
     627 000005 4E03          AADD #3, SP
     628                      .dwcfi  cfa_offset, 1
TMS320C55x Assembler PC v4.4.1 Wed Sep 13 16:33:48 2017

Tools Copyright (c) 1996-2012 Texas Instruments Incorporated
C:\Users\a0221074\AppData\Local\Temp\1193610                         PAGE   13

     629              $C$DW$70        .dwtag  DW_TAG_TI_branch
     630                      .dwattr $C$DW$70, DW_AT_low_pc(0x00)
     631                      .dwattr $C$DW$70, DW_AT_TI_return
     632 000007 4804          RET
     633                                                      ; return occurs
     634                      .dwattr $C$DW$67, DW_AT_TI_end_file("C:/Users/a0221074/Desktop/C5000/IBM_Watson_TIdesign_workarea/CSL
     635                      .dwattr $C$DW$67, DW_AT_TI_end_line(0x5b6)
     636                      .dwattr $C$DW$67, DW_AT_TI_end_column(0x01)
     637                      .dwendentry
     638                      .dwendtag $C$DW$67
     639              
     640 000000               .sect   ".text:_mlp_init"
     641                      .clink
     642                      .global _mlp_init
     643              
     644              $C$DW$71        .dwtag  DW_TAG_subprogram, DW_AT_name("mlp_init")
     645                      .dwattr $C$DW$71, DW_AT_low_pc(_mlp_init)
     646                      .dwattr $C$DW$71, DW_AT_high_pc(0x00)
     647                      .dwattr $C$DW$71, DW_AT_TI_symbol_name("_mlp_init")
     648                      .dwattr $C$DW$71, DW_AT_external
     649                      .dwattr $C$DW$71, DW_AT_TI_begin_file("C:/Users/a0221074/Desktop/C5000/IBM_Watson_TIdesign_workarea/C
     650                      .dwattr $C$DW$71, DW_AT_TI_begin_line(0x5b8)
     651                      .dwattr $C$DW$71, DW_AT_TI_begin_column(0x06)
     652                      .dwattr $C$DW$71, DW_AT_TI_max_frame_size(0x04)
     653                      .dwpsn  file "C:/Users/a0221074/Desktop/C5000/IBM_Watson_TIdesign_workarea/CSL_bitbucket/c55_csl/c55x
     654              
     655                      .dwfde $C$DW$CIE, _mlp_init
     656              $C$DW$72        .dwtag  DW_TAG_formal_parameter, DW_AT_name("gv")
     657                      .dwattr $C$DW$72, DW_AT_TI_symbol_name("_gv")
     658                      .dwattr $C$DW$72, DW_AT_type(*$C$DW$T$96)
     659                      .dwattr $C$DW$72, DW_AT_location[DW_OP_reg17]
     660              ;*******************************************************************************
     661              ;* FUNCTION NAME: mlp_init                                                     *
     662              ;*                                                                             *
     663              ;*   Function Uses Regs : AR0,XAR0,SP,M40,SATA,SATD,RDM,FRCT,SMUL              *
     664              ;*   Stack Frame        : Compact (No Frame Pointer, w/ debug)                 *
     665              ;*   Total Frame Size   : 4 words                                              *
     666              ;*                        (2 return address/alignment)                         *
     667              ;*                        (2 local values)                                     *
     668              ;*   Min System Stack   : 1 word                                               *
     669              ;*******************************************************************************
     670 000000       _mlp_init:
     671                      .dwcfi  cfa_offset, 1
     672                      .dwcfi  save_reg_to_mem, 91, -1
     673 000000 4EFD          AADD #-3, SP
     674                      .dwcfi  cfa_offset, 4
     675              $C$DW$73        .dwtag  DW_TAG_variable, DW_AT_name("gv")
     676                      .dwattr $C$DW$73, DW_AT_TI_symbol_name("_gv")
     677                      .dwattr $C$DW$73, DW_AT_type(*$C$DW$T$96)
     678                      .dwattr $C$DW$73, DW_AT_location[DW_OP_bregx 0x24 0]
     679 000002 EB00          MOV XAR0, dbl(*SP(#0))
         000004 85   
     680                      .dwpsn  file "C:/Users/a0221074/Desktop/C5000/IBM_Watson_TIdesign_workarea/CSL_bitbucket/c55_csl/c55x
     681 000005 4E03          AADD #3, SP
     682                      .dwcfi  cfa_offset, 1
TMS320C55x Assembler PC v4.4.1 Wed Sep 13 16:33:48 2017

Tools Copyright (c) 1996-2012 Texas Instruments Incorporated
C:\Users\a0221074\AppData\Local\Temp\1193610                         PAGE   14

     683              $C$DW$74        .dwtag  DW_TAG_TI_branch
     684                      .dwattr $C$DW$74, DW_AT_low_pc(0x00)
     685                      .dwattr $C$DW$74, DW_AT_TI_return
     686 000007 4804          RET
     687                                                      ; return occurs
     688                      .dwattr $C$DW$71, DW_AT_TI_end_file("C:/Users/a0221074/Desktop/C5000/IBM_Watson_TIdesign_workarea/CSL
     689                      .dwattr $C$DW$71, DW_AT_TI_end_line(0x5be)
     690                      .dwattr $C$DW$71, DW_AT_TI_end_column(0x01)
     691                      .dwendentry
     692                      .dwendtag $C$DW$71
     693              
     694 000000               .sect   ".text:_mlp_close"
     695                      .clink
     696                      .global _mlp_close
     697              
     698              $C$DW$75        .dwtag  DW_TAG_subprogram, DW_AT_name("mlp_close")
     699                      .dwattr $C$DW$75, DW_AT_low_pc(_mlp_close)
     700                      .dwattr $C$DW$75, DW_AT_high_pc(0x00)
     701                      .dwattr $C$DW$75, DW_AT_TI_symbol_name("_mlp_close")
     702                      .dwattr $C$DW$75, DW_AT_external
     703                      .dwattr $C$DW$75, DW_AT_TI_begin_file("C:/Users/a0221074/Desktop/C5000/IBM_Watson_TIdesign_workarea/C
     704                      .dwattr $C$DW$75, DW_AT_TI_begin_line(0x5c1)
     705                      .dwattr $C$DW$75, DW_AT_TI_begin_column(0x06)
     706                      .dwattr $C$DW$75, DW_AT_TI_max_frame_size(0x04)
     707                      .dwpsn  file "C:/Users/a0221074/Desktop/C5000/IBM_Watson_TIdesign_workarea/CSL_bitbucket/c55_csl/c55x
     708              
     709                      .dwfde $C$DW$CIE, _mlp_close
     710              $C$DW$76        .dwtag  DW_TAG_formal_parameter, DW_AT_name("gv")
     711                      .dwattr $C$DW$76, DW_AT_TI_symbol_name("_gv")
     712                      .dwattr $C$DW$76, DW_AT_type(*$C$DW$T$96)
     713                      .dwattr $C$DW$76, DW_AT_location[DW_OP_reg17]
     714              ;*******************************************************************************
     715              ;* FUNCTION NAME: mlp_close                                                    *
     716              ;*                                                                             *
     717              ;*   Function Uses Regs : AR0,XAR0,SP,M40,SATA,SATD,RDM,FRCT,SMUL              *
     718              ;*   Stack Frame        : Compact (No Frame Pointer, w/ debug)                 *
     719              ;*   Total Frame Size   : 4 words                                              *
     720              ;*                        (2 return address/alignment)                         *
     721              ;*                        (2 local values)                                     *
     722              ;*   Min System Stack   : 1 word                                               *
     723              ;*******************************************************************************
     724 000000       _mlp_close:
     725                      .dwcfi  cfa_offset, 1
     726                      .dwcfi  save_reg_to_mem, 91, -1
     727 000000 4EFD          AADD #-3, SP
     728                      .dwcfi  cfa_offset, 4
     729              $C$DW$77        .dwtag  DW_TAG_variable, DW_AT_name("gv")
     730                      .dwattr $C$DW$77, DW_AT_TI_symbol_name("_gv")
     731                      .dwattr $C$DW$77, DW_AT_type(*$C$DW$T$96)
     732                      .dwattr $C$DW$77, DW_AT_location[DW_OP_bregx 0x24 0]
     733 000002 EB00          MOV XAR0, dbl(*SP(#0))
         000004 85   
     734                      .dwpsn  file "C:/Users/a0221074/Desktop/C5000/IBM_Watson_TIdesign_workarea/CSL_bitbucket/c55_csl/c55x
     735 000005 4E03          AADD #3, SP
     736                      .dwcfi  cfa_offset, 1
TMS320C55x Assembler PC v4.4.1 Wed Sep 13 16:33:48 2017

Tools Copyright (c) 1996-2012 Texas Instruments Incorporated
C:\Users\a0221074\AppData\Local\Temp\1193610                         PAGE   15

     737              $C$DW$78        .dwtag  DW_TAG_TI_branch
     738                      .dwattr $C$DW$78, DW_AT_low_pc(0x00)
     739                      .dwattr $C$DW$78, DW_AT_TI_return
     740 000007 4804          RET
     741                                                      ; return occurs
     742                      .dwattr $C$DW$75, DW_AT_TI_end_file("C:/Users/a0221074/Desktop/C5000/IBM_Watson_TIdesign_workarea/CSL
     743                      .dwattr $C$DW$75, DW_AT_TI_end_line(0x5c6)
     744                      .dwattr $C$DW$75, DW_AT_TI_end_column(0x01)
     745                      .dwendentry
     746                      .dwendtag $C$DW$75
     747              
     748 000000               .sect   ".text:_mlp_threshold"
     749                      .clink
     750                      .global _mlp_threshold
     751              
     752              $C$DW$79        .dwtag  DW_TAG_subprogram, DW_AT_name("mlp_threshold")
     753                      .dwattr $C$DW$79, DW_AT_low_pc(_mlp_threshold)
     754                      .dwattr $C$DW$79, DW_AT_high_pc(0x00)
     755                      .dwattr $C$DW$79, DW_AT_TI_symbol_name("_mlp_threshold")
     756                      .dwattr $C$DW$79, DW_AT_external
     757                      .dwattr $C$DW$79, DW_AT_type(*$C$DW$T$8)
     758                      .dwattr $C$DW$79, DW_AT_TI_begin_file("C:/Users/a0221074/Desktop/C5000/IBM_Watson_TIdesign_workarea/C
     759                      .dwattr $C$DW$79, DW_AT_TI_begin_line(0x5ce)
     760                      .dwattr $C$DW$79, DW_AT_TI_begin_column(0x07)
     761                      .dwattr $C$DW$79, DW_AT_TI_max_frame_size(0x06)
     762                      .dwpsn  file "C:/Users/a0221074/Desktop/C5000/IBM_Watson_TIdesign_workarea/CSL_bitbucket/c55_csl/c55x
     763              
     764                      .dwfde $C$DW$CIE, _mlp_threshold
     765              $C$DW$80        .dwtag  DW_TAG_formal_parameter, DW_AT_name("gv")
     766                      .dwattr $C$DW$80, DW_AT_TI_symbol_name("_gv")
     767                      .dwattr $C$DW$80, DW_AT_type(*$C$DW$T$96)
     768                      .dwattr $C$DW$80, DW_AT_location[DW_OP_reg17]
     769              $C$DW$81        .dwtag  DW_TAG_formal_parameter, DW_AT_name("th_default")
     770                      .dwattr $C$DW$81, DW_AT_TI_symbol_name("_th_default")
     771                      .dwattr $C$DW$81, DW_AT_type(*$C$DW$T$12)
     772                      .dwattr $C$DW$81, DW_AT_location[DW_OP_reg0]
     773              $C$DW$82        .dwtag  DW_TAG_formal_parameter, DW_AT_name("beam_width")
     774                      .dwattr $C$DW$82, DW_AT_TI_symbol_name("_beam_width")
     775                      .dwattr $C$DW$82, DW_AT_type(*$C$DW$T$8)
     776                      .dwattr $C$DW$82, DW_AT_location[DW_OP_reg12]
     777              ;*******************************************************************************
     778              ;* FUNCTION NAME: mlp_threshold                                                *
     779              ;*                                                                             *
     780              ;*   Function Uses Regs : AC0,AC0,T0,AR0,XAR0,SP,M40,SATA,SATD,RDM,FRCT,SMUL   *
     781              ;*   Stack Frame        : Compact (No Frame Pointer, w/ debug)                 *
     782              ;*   Total Frame Size   : 6 words                                              *
     783              ;*                        (1 return address/alignment)                         *
     784              ;*                        (5 local values)                                     *
     785              ;*   Min System Stack   : 1 word                                               *
     786              ;*******************************************************************************
     787 000000       _mlp_threshold:
     788                      .dwcfi  cfa_offset, 1
     789                      .dwcfi  save_reg_to_mem, 91, -1
     790 000000 4EFB          AADD #-5, SP
     791                      .dwcfi  cfa_offset, 6
TMS320C55x Assembler PC v4.4.1 Wed Sep 13 16:33:48 2017

Tools Copyright (c) 1996-2012 Texas Instruments Incorporated
C:\Users\a0221074\AppData\Local\Temp\1193610                         PAGE   16

     792              $C$DW$83        .dwtag  DW_TAG_variable, DW_AT_name("gv")
     793                      .dwattr $C$DW$83, DW_AT_TI_symbol_name("_gv")
     794                      .dwattr $C$DW$83, DW_AT_type(*$C$DW$T$96)
     795                      .dwattr $C$DW$83, DW_AT_location[DW_OP_bregx 0x24 0]
     796              $C$DW$84        .dwtag  DW_TAG_variable, DW_AT_name("th_default")
     797                      .dwattr $C$DW$84, DW_AT_TI_symbol_name("_th_default")
     798                      .dwattr $C$DW$84, DW_AT_type(*$C$DW$T$12)
     799                      .dwattr $C$DW$84, DW_AT_location[DW_OP_bregx 0x24 2]
     800              $C$DW$85        .dwtag  DW_TAG_variable, DW_AT_name("beam_width")
     801                      .dwattr $C$DW$85, DW_AT_TI_symbol_name("_beam_width")
     802                      .dwattr $C$DW$85, DW_AT_type(*$C$DW$T$8)
     803                      .dwattr $C$DW$85, DW_AT_location[DW_OP_bregx 0x24 4]
     804 000002 C408          MOV T0, *SP(#4) ; |1487| 
     805 000004 EB04          MOV AC0, dbl(*SP(#2)) ; |1487| 
         000006 08   
     806 000007 EB00          MOV XAR0, dbl(*SP(#0))
         000009 85   
     807                      .dwpsn  file "C:/Users/a0221074/Desktop/C5000/IBM_Watson_TIdesign_workarea/CSL_bitbucket/c55_csl/c55x
     808 00000a 3C04          MOV #0, T0
     809                      .dwpsn  file "C:/Users/a0221074/Desktop/C5000/IBM_Watson_TIdesign_workarea/CSL_bitbucket/c55_csl/c55x
     810 00000c 4E05          AADD #5, SP
     811                      .dwcfi  cfa_offset, 1
     812              $C$DW$86        .dwtag  DW_TAG_TI_branch
     813                      .dwattr $C$DW$86, DW_AT_low_pc(0x00)
     814                      .dwattr $C$DW$86, DW_AT_TI_return
     815 00000e 4804          RET
     816                                                      ; return occurs
     817                      .dwattr $C$DW$79, DW_AT_TI_end_file("C:/Users/a0221074/Desktop/C5000/IBM_Watson_TIdesign_workarea/CSL
     818                      .dwattr $C$DW$79, DW_AT_TI_end_line(0x5ef)
     819                      .dwattr $C$DW$79, DW_AT_TI_end_column(0x01)
     820                      .dwendentry
     821                      .dwendtag $C$DW$79
     822              
     823 000000               .sect   ".text:_cm_freeze"
     824                      .clink
     825                      .global _cm_freeze
     826              
     827              $C$DW$87        .dwtag  DW_TAG_subprogram, DW_AT_name("cm_freeze")
     828                      .dwattr $C$DW$87, DW_AT_low_pc(_cm_freeze)
     829                      .dwattr $C$DW$87, DW_AT_high_pc(0x00)
     830                      .dwattr $C$DW$87, DW_AT_TI_symbol_name("_cm_freeze")
     831                      .dwattr $C$DW$87, DW_AT_external
     832                      .dwattr $C$DW$87, DW_AT_TI_begin_file("C:/Users/a0221074/Desktop/C5000/IBM_Watson_TIdesign_workarea/C
     833                      .dwattr $C$DW$87, DW_AT_TI_begin_line(0x5fc)
     834                      .dwattr $C$DW$87, DW_AT_TI_begin_column(0x1d)
     835                      .dwattr $C$DW$87, DW_AT_TI_max_frame_size(0x04)
     836                      .dwpsn  file "C:/Users/a0221074/Desktop/C5000/IBM_Watson_TIdesign_workarea/CSL_bitbucket/c55_csl/c55x
     837              
     838                      .dwfde $C$DW$CIE, _cm_freeze
     839              $C$DW$88        .dwtag  DW_TAG_formal_parameter, DW_AT_name("pconf")
     840                      .dwattr $C$DW$88, DW_AT_TI_symbol_name("_pconf")
     841                      .dwattr $C$DW$88, DW_AT_type(*$C$DW$T$91)
     842                      .dwattr $C$DW$88, DW_AT_location[DW_OP_reg17]
     843              ;*******************************************************************************
     844              ;* FUNCTION NAME: cm_freeze                                                    *
TMS320C55x Assembler PC v4.4.1 Wed Sep 13 16:33:48 2017

Tools Copyright (c) 1996-2012 Texas Instruments Incorporated
C:\Users\a0221074\AppData\Local\Temp\1193610                         PAGE   17

     845              ;*                                                                             *
     846              ;*   Function Uses Regs : AC0,AC0,AR0,XAR0,AR3,XAR3,SP,M40,SATA,SATD,RDM,FRCT, *
     847              ;*                        SMUL                                                 *
     848              ;*   Stack Frame        : Compact (No Frame Pointer, w/ debug)                 *
     849              ;*   Total Frame Size   : 4 words                                              *
     850              ;*                        (2 return address/alignment)                         *
     851              ;*                        (2 local values)                                     *
     852              ;*   Min System Stack   : 1 word                                               *
     853              ;*******************************************************************************
     854 000000       _cm_freeze:
     855                      .dwcfi  cfa_offset, 1
     856                      .dwcfi  save_reg_to_mem, 91, -1
     857 000000 4EFD          AADD #-3, SP
     858                      .dwcfi  cfa_offset, 4
     859              $C$DW$89        .dwtag  DW_TAG_variable, DW_AT_name("pconf")
     860                      .dwattr $C$DW$89, DW_AT_TI_symbol_name("_pconf")
     861                      .dwattr $C$DW$89, DW_AT_type(*$C$DW$T$91)
     862                      .dwattr $C$DW$89, DW_AT_location[DW_OP_bregx 0x24 0]
     863 000002 EB00          MOV XAR0, dbl(*SP(#0))
         000004 85   
     864                      .dwpsn  file "C:/Users/a0221074/Desktop/C5000/IBM_Watson_TIdesign_workarea/CSL_bitbucket/c55_csl/c55x
     865 000005 ED00          MOV dbl(*SP(#0)), XAR3
         000007 BF   
     866 000008 90B0          MOV XAR3, AC0
     867 00000a 6280          BCC $C$L6,AC0 == #0 ; |1534| 
     868                                                      ; branchcc occurs ; |1534| 
     869                      .dwpsn  file "C:/Users/a0221074/Desktop/C5000/IBM_Watson_TIdesign_workarea/CSL_bitbucket/c55_csl/c55x
     870 00000c E66D          MOV #0, *AR3(#1310) ; |1535| 
         00000e 0005 
         000010 1E   
     871                      .dwpsn  file "C:/Users/a0221074/Desktop/C5000/IBM_Watson_TIdesign_workarea/CSL_bitbucket/c55_csl/c55x
     872 000011       $C$L6:    
     873 000011 4E03          AADD #3, SP
     874                      .dwcfi  cfa_offset, 1
     875              $C$DW$90        .dwtag  DW_TAG_TI_branch
     876                      .dwattr $C$DW$90, DW_AT_low_pc(0x00)
     877                      .dwattr $C$DW$90, DW_AT_TI_return
     878 000013 4804          RET
     879                                                      ; return occurs
     880                      .dwattr $C$DW$87, DW_AT_TI_end_file("C:/Users/a0221074/Desktop/C5000/IBM_Watson_TIdesign_workarea/CSL
     881                      .dwattr $C$DW$87, DW_AT_TI_end_line(0x600)
     882                      .dwattr $C$DW$87, DW_AT_TI_end_column(0x01)
     883                      .dwendentry
     884                      .dwendtag $C$DW$87
     885              
     886 000000               .sect   ".text:_cm_antiscr"
     887                      .clink
     888                      .global _cm_antiscr
     889              
     890              $C$DW$91        .dwtag  DW_TAG_subprogram, DW_AT_name("cm_antiscr")
     891                      .dwattr $C$DW$91, DW_AT_low_pc(_cm_antiscr)
     892                      .dwattr $C$DW$91, DW_AT_high_pc(0x00)
     893                      .dwattr $C$DW$91, DW_AT_TI_symbol_name("_cm_antiscr")
     894                      .dwattr $C$DW$91, DW_AT_external
     895                      .dwattr $C$DW$91, DW_AT_type(*$C$DW$T$23)
TMS320C55x Assembler PC v4.4.1 Wed Sep 13 16:33:48 2017

Tools Copyright (c) 1996-2012 Texas Instruments Incorporated
C:\Users\a0221074\AppData\Local\Temp\1193610                         PAGE   18

     896                      .dwattr $C$DW$91, DW_AT_TI_begin_file("C:/Users/a0221074/Desktop/C5000/IBM_Watson_TIdesign_workarea/C
     897                      .dwattr $C$DW$91, DW_AT_TI_begin_line(0x602)
     898                      .dwattr $C$DW$91, DW_AT_TI_begin_column(0x09)
     899                      .dwattr $C$DW$91, DW_AT_TI_max_frame_size(0x04)
     900                      .dwpsn  file "C:/Users/a0221074/Desktop/C5000/IBM_Watson_TIdesign_workarea/CSL_bitbucket/c55_csl/c55x
     901              
     902                      .dwfde $C$DW$CIE, _cm_antiscr
     903              $C$DW$92        .dwtag  DW_TAG_formal_parameter, DW_AT_name("pconf")
     904                      .dwattr $C$DW$92, DW_AT_TI_symbol_name("_pconf")
     905                      .dwattr $C$DW$92, DW_AT_type(*$C$DW$T$91)
     906                      .dwattr $C$DW$92, DW_AT_location[DW_OP_reg17]
     907              $C$DW$93        .dwtag  DW_TAG_formal_parameter, DW_AT_name("frm_cnt")
     908                      .dwattr $C$DW$93, DW_AT_TI_symbol_name("_frm_cnt")
     909                      .dwattr $C$DW$93, DW_AT_type(*$C$DW$T$22)
     910                      .dwattr $C$DW$93, DW_AT_location[DW_OP_reg12]
     911              ;*******************************************************************************
     912              ;* FUNCTION NAME: cm_antiscr                                                   *
     913              ;*                                                                             *
     914              ;*   Function Uses Regs : AC0,AC0,T0,AR0,XAR0,AR1,AR2,AR3,XAR3,SP,TC1,M40,SATA,*
     915              ;*                        SATD,RDM,FRCT,SMUL                                   *
     916              ;*   Stack Frame        : Compact (No Frame Pointer, w/ debug)                 *
     917              ;*   Total Frame Size   : 4 words                                              *
     918              ;*                        (1 return address/alignment)                         *
     919              ;*                        (3 local values)                                     *
     920              ;*   Min System Stack   : 1 word                                               *
     921              ;*******************************************************************************
     922 000000       _cm_antiscr:
     923                      .dwcfi  cfa_offset, 1
     924                      .dwcfi  save_reg_to_mem, 91, -1
     925 000000 4EFD          AADD #-3, SP
     926                      .dwcfi  cfa_offset, 4
     927              $C$DW$94        .dwtag  DW_TAG_variable, DW_AT_name("pconf")
     928                      .dwattr $C$DW$94, DW_AT_TI_symbol_name("_pconf")
     929                      .dwattr $C$DW$94, DW_AT_type(*$C$DW$T$91)
     930                      .dwattr $C$DW$94, DW_AT_location[DW_OP_bregx 0x24 0]
     931              $C$DW$95        .dwtag  DW_TAG_variable, DW_AT_name("frm_cnt")
     932                      .dwattr $C$DW$95, DW_AT_TI_symbol_name("_frm_cnt")
     933                      .dwattr $C$DW$95, DW_AT_type(*$C$DW$T$22)
     934                      .dwattr $C$DW$95, DW_AT_location[DW_OP_bregx 0x24 2]
     935 000002 C404          MOV T0, *SP(#2) ; |1539| 
     936 000004 EB00          MOV XAR0, dbl(*SP(#0))
         000006 85   
     937                      .dwpsn  file "C:/Users/a0221074/Desktop/C5000/IBM_Watson_TIdesign_workarea/CSL_bitbucket/c55_csl/c55x
     938 000007 7601          MOV #500, AR2 ; |1541| 
         000009 F4A8 
     939 00000b A904          MOV *SP(#2), AR1 ; |1541| 
     940 00000d 1294          CMPU AR1 < AR2, TC1 ; |1541| 
         00000f A4   
     941 000010 6464          BCC $C$L7,TC1 ; |1541| 
     942                                                      ; branchcc occurs ; |1541| 
     943                      .dwpsn  file "C:/Users/a0221074/Desktop/C5000/IBM_Watson_TIdesign_workarea/CSL_bitbucket/c55_csl/c55x
     944 000012 EC31          AMOV #0, XAR0 ; |1541| 
         000014 8E00 
         000016 0000 
     945 000018 4A10          B $C$L8   ; |1541| 
TMS320C55x Assembler PC v4.4.1 Wed Sep 13 16:33:48 2017

Tools Copyright (c) 1996-2012 Texas Instruments Incorporated
C:\Users\a0221074\AppData\Local\Temp\1193610                         PAGE   19

     946                                                      ; branch occurs ; |1541| 
     947 00001a       $C$L7:    
     948                      .dwpsn  file "C:/Users/a0221074/Desktop/C5000/IBM_Watson_TIdesign_workarea/CSL_bitbucket/c55_csl/c55x
     949 00001a ED00          MOV dbl(*SP(#0)), XAR3
         00001c BF   
     950 00001d ED6D          MOV dbl(*AR3(#1312)), XAR0
         00001f 8F05 
         000021 20   
     951 000022 DF04          MOV uns(*SP(#2)), AC0 ; |1542| 
         000024 05   
     952 000025 900B          MOV AC0, XAR3
     953 000027 14B1          AADD XAR3, XAR0 ; |1542| 
         000029 80   
     954 00002a       $C$L8:    
     955                      .dwpsn  file "C:/Users/a0221074/Desktop/C5000/IBM_Watson_TIdesign_workarea/CSL_bitbucket/c55_csl/c55x
     956 00002a 4E03          AADD #3, SP
     957                      .dwcfi  cfa_offset, 1
     958              $C$DW$96        .dwtag  DW_TAG_TI_branch
     959                      .dwattr $C$DW$96, DW_AT_low_pc(0x00)
     960                      .dwattr $C$DW$96, DW_AT_TI_return
     961 00002c 4804          RET
     962                                                      ; return occurs
     963                      .dwattr $C$DW$91, DW_AT_TI_end_file("C:/Users/a0221074/Desktop/C5000/IBM_Watson_TIdesign_workarea/CSL
     964                      .dwattr $C$DW$91, DW_AT_TI_end_line(0x60a)
     965                      .dwattr $C$DW$91, DW_AT_TI_end_column(0x01)
     966                      .dwendentry
     967                      .dwendtag $C$DW$91
     968              
     969 000000               .sect   ".text:_cm_open"
     970                      .clink
     971                      .global _cm_open
     972              
     973              $C$DW$97        .dwtag  DW_TAG_subprogram, DW_AT_name("cm_open")
     974                      .dwattr $C$DW$97, DW_AT_low_pc(_cm_open)
     975                      .dwattr $C$DW$97, DW_AT_high_pc(0x00)
     976                      .dwattr $C$DW$97, DW_AT_TI_symbol_name("_cm_open")
     977                      .dwattr $C$DW$97, DW_AT_external
     978                      .dwattr $C$DW$97, DW_AT_type(*$C$DW$T$94)
     979                      .dwattr $C$DW$97, DW_AT_TI_begin_file("C:/Users/a0221074/Desktop/C5000/IBM_Watson_TIdesign_workarea/C
     980                      .dwattr $C$DW$97, DW_AT_TI_begin_line(0x60c)
     981                      .dwattr $C$DW$97, DW_AT_TI_begin_column(0x2e)
     982                      .dwattr $C$DW$97, DW_AT_TI_max_frame_size(0x06)
     983                      .dwpsn  file "C:/Users/a0221074/Desktop/C5000/IBM_Watson_TIdesign_workarea/CSL_bitbucket/c55_csl/c55x
     984              
     985                      .dwfde $C$DW$CIE, _cm_open
     986              $C$DW$98        .dwtag  DW_TAG_formal_parameter, DW_AT_name("pconf")
     987                      .dwattr $C$DW$98, DW_AT_TI_symbol_name("_pconf")
     988                      .dwattr $C$DW$98, DW_AT_type(*$C$DW$T$91)
     989                      .dwattr $C$DW$98, DW_AT_location[DW_OP_reg17]
     990              $C$DW$99        .dwtag  DW_TAG_formal_parameter, DW_AT_name("gv")
     991                      .dwattr $C$DW$99, DW_AT_TI_symbol_name("_gv")
     992                      .dwattr $C$DW$99, DW_AT_type(*$C$DW$T$96)
     993                      .dwattr $C$DW$99, DW_AT_location[DW_OP_reg19]
     994              ;*******************************************************************************
     995              ;* FUNCTION NAME: cm_open                                                      *
TMS320C55x Assembler PC v4.4.1 Wed Sep 13 16:33:48 2017

Tools Copyright (c) 1996-2012 Texas Instruments Incorporated
C:\Users\a0221074\AppData\Local\Temp\1193610                         PAGE   20

     996              ;*                                                                             *
     997              ;*   Function Uses Regs : AC0,AC0,AC1,AC1,T0,AR0,XAR0,AR1,XAR1,AR2,XAR2,AR3,   *
     998              ;*                        XAR3,SP,CARRY,M40,SATA,SATD,RDM,FRCT,SMUL            *
     999              ;*   Stack Frame        : Compact (No Frame Pointer, w/ debug)                 *
    1000              ;*   Total Frame Size   : 6 words                                              *
    1001              ;*                        (1 return address/alignment)                         *
    1002              ;*                        (5 local values)                                     *
    1003              ;*   Min System Stack   : 1 word                                               *
    1004              ;*******************************************************************************
    1005 000000       _cm_open:
    1006                      .dwcfi  cfa_offset, 1
    1007                      .dwcfi  save_reg_to_mem, 91, -1
    1008 000000 4EFB          AADD #-5, SP
    1009                      .dwcfi  cfa_offset, 6
    1010              $C$DW$100       .dwtag  DW_TAG_variable, DW_AT_name("pconf")
    1011                      .dwattr $C$DW$100, DW_AT_TI_symbol_name("_pconf")
    1012                      .dwattr $C$DW$100, DW_AT_type(*$C$DW$T$91)
    1013                      .dwattr $C$DW$100, DW_AT_location[DW_OP_bregx 0x24 0]
    1014              $C$DW$101       .dwtag  DW_TAG_variable, DW_AT_name("gv")
    1015                      .dwattr $C$DW$101, DW_AT_TI_symbol_name("_gv")
    1016                      .dwattr $C$DW$101, DW_AT_type(*$C$DW$T$96)
    1017                      .dwattr $C$DW$101, DW_AT_location[DW_OP_bregx 0x24 2]
    1018              $C$DW$102       .dwtag  DW_TAG_variable, DW_AT_name("i")
    1019                      .dwattr $C$DW$102, DW_AT_TI_symbol_name("_i")
    1020                      .dwattr $C$DW$102, DW_AT_type(*$C$DW$T$8)
    1021                      .dwattr $C$DW$102, DW_AT_location[DW_OP_bregx 0x24 4]
    1022 000002 EB04          MOV XAR1, dbl(*SP(#2))
         000004 95   
    1023 000005 EB00          MOV XAR0, dbl(*SP(#0))
         000007 85   
    1024                      .dwpsn  file "C:/Users/a0221074/Desktop/C5000/IBM_Watson_TIdesign_workarea/CSL_bitbucket/c55_csl/c55x
    1025 000008 ED00          MOV dbl(*SP(#0)), XAR3
         00000a BF   
    1026 00000b E66D          MOV #0, *AR3(#1340) ; |1553| 
         00000d 0005 
         00000f 3C   
    1027                      .dwpsn  file "C:/Users/a0221074/Desktop/C5000/IBM_Watson_TIdesign_workarea/CSL_bitbucket/c55_csl/c55x
    1028 000010 7601          MOV #500, AC0 ; |1562| 
         000012 F408 
    1029 000014 A431          MOV *(#_SEG0), T0 ; |1562| 
         000016 0000 
         000018 00!  
    1030              $C$DW$103       .dwtag  DW_TAG_TI_branch
    1031                      .dwattr $C$DW$103, DW_AT_low_pc(0x00)
    1032                      .dwattr $C$DW$103, DW_AT_name("_MEM_alloc")
    1033                      .dwattr $C$DW$103, DW_AT_TI_call
    1034              
    1035 000019 6C00          CALL #_MEM_alloc ; |1562| 
         00001b 0000!
    1036 00001d 3D01  ||      MOV #0, AC1 ; |1562| 
    1037              
    1038                                                      ; call occurs [#_MEM_alloc] ; |1562| 
    1039 00001f ED00          MOV dbl(*SP(#0)), XAR3
         000021 BF   
    1040 000022 EB6D          MOV XAR0, dbl(*AR3(#1312))
TMS320C55x Assembler PC v4.4.1 Wed Sep 13 16:33:48 2017

Tools Copyright (c) 1996-2012 Texas Instruments Incorporated
C:\Users\a0221074\AppData\Local\Temp\1193610                         PAGE   21

         000024 8505 
         000026 20   
    1041                      .dwpsn  file "C:/Users/a0221074/Desktop/C5000/IBM_Watson_TIdesign_workarea/CSL_bitbucket/c55_csl/c55x
    1042 000027 ED00          MOV dbl(*SP(#0)), XAR3
         000029 BF   
    1043 00002a ED6D          MOV dbl(*AR3(#1312)), XAR3
         00002c BF05 
         00002e 20   
    1044 00002f 90B0          MOV XAR3, AC0
    1045 000031 6390          BCC $C$L9,AC0 != #0 ; |1563| 
    1046                                                      ; branchcc occurs ; |1563| 
    1047                      .dwpsn  file "C:/Users/a0221074/Desktop/C5000/IBM_Watson_TIdesign_workarea/CSL_bitbucket/c55_csl/c55x
    1048 000033 7602          MOV #605, T0 ; |1563| 
         000035 5D48 
    1049 000037 0601          B $C$L19  ; |1563| 
         000039 67   
    1050                                                      ; branch occurs ; |1563| 
    1051 00003a       $C$L9:    
    1052                      .dwpsn  file "C:/Users/a0221074/Desktop/C5000/IBM_Watson_TIdesign_workarea/CSL_bitbucket/c55_csl/c55x
    1053 00003a A431          MOV *(#_SEG0), T0 ; |1573| 
         00003c 0000 
         00003e 00!  
    1054 00003f 7600          MOV #20, AC0 ; |1573| 
         000041 1408 
    1055              $C$DW$104       .dwtag  DW_TAG_TI_branch
    1056                      .dwattr $C$DW$104, DW_AT_low_pc(0x00)
    1057                      .dwattr $C$DW$104, DW_AT_name("_MEM_alloc")
    1058                      .dwattr $C$DW$104, DW_AT_TI_call
    1059              
    1060 000043 6C00          CALL #_MEM_alloc ; |1573| 
         000045 0000!
    1061 000047 3D01  ||      MOV #0, AC1 ; |1573| 
    1062              
    1063                                                      ; call occurs [#_MEM_alloc] ; |1573| 
    1064 000049 ED00          MOV dbl(*SP(#0)), XAR3
         00004b BF   
    1065 00004c EB6D          MOV XAR0, dbl(*AR3(#1302))
         00004e 8505 
         000050 16   
    1066                      .dwpsn  file "C:/Users/a0221074/Desktop/C5000/IBM_Watson_TIdesign_workarea/CSL_bitbucket/c55_csl/c55x
    1067 000051 ED00          MOV dbl(*SP(#0)), XAR3
         000053 BF   
    1068 000054 ED6D          MOV dbl(*AR3(#1302)), XAR3
         000056 BF05 
         000058 16   
    1069 000059 90B0          MOV XAR3, AC0
    1070 00005b 6390          BCC $C$L10,AC0 != #0 ; |1574| 
    1071                                                      ; branchcc occurs ; |1574| 
    1072                      .dwpsn  file "C:/Users/a0221074/Desktop/C5000/IBM_Watson_TIdesign_workarea/CSL_bitbucket/c55_csl/c55x
    1073 00005d 7602          MOV #605, T0 ; |1574| 
         00005f 5D48 
    1074 000061 0601          B $C$L19  ; |1574| 
         000063 3D   
    1075                                                      ; branch occurs ; |1574| 
    1076 000064       $C$L10:    
TMS320C55x Assembler PC v4.4.1 Wed Sep 13 16:33:48 2017

Tools Copyright (c) 1996-2012 Texas Instruments Incorporated
C:\Users\a0221074\AppData\Local\Temp\1193610                         PAGE   22

    1077                      .dwpsn  file "C:/Users/a0221074/Desktop/C5000/IBM_Watson_TIdesign_workarea/CSL_bitbucket/c55_csl/c55x
    1078 000064 A431          MOV *(#_SEG0), T0 ; |1584| 
         000066 0000 
         000068 00!  
    1079 000069 7600          MOV #20, AC0 ; |1584| 
         00006b 1408 
    1080              $C$DW$105       .dwtag  DW_TAG_TI_branch
    1081                      .dwattr $C$DW$105, DW_AT_low_pc(0x00)
    1082                      .dwattr $C$DW$105, DW_AT_name("_MEM_alloc")
    1083                      .dwattr $C$DW$105, DW_AT_TI_call
    1084              
    1085 00006d 6C00          CALL #_MEM_alloc ; |1584| 
         00006f 0000!
    1086 000071 3D01  ||      MOV #0, AC1 ; |1584| 
    1087              
    1088                                                      ; call occurs [#_MEM_alloc] ; |1584| 
    1089 000073 ED00          MOV dbl(*SP(#0)), XAR3
         000075 BF   
    1090 000076 EB6D          MOV XAR0, dbl(*AR3(#1304))
         000078 8505 
         00007a 18   
    1091                      .dwpsn  file "C:/Users/a0221074/Desktop/C5000/IBM_Watson_TIdesign_workarea/CSL_bitbucket/c55_csl/c55x
    1092 00007b ED00          MOV dbl(*SP(#0)), XAR3
         00007d BF   
    1093 00007e ED6D          MOV dbl(*AR3(#1304)), XAR3
         000080 BF05 
         000082 18   
    1094 000083 90B0          MOV XAR3, AC0
    1095 000085 6390          BCC $C$L11,AC0 != #0 ; |1585| 
    1096                                                      ; branchcc occurs ; |1585| 
    1097                      .dwpsn  file "C:/Users/a0221074/Desktop/C5000/IBM_Watson_TIdesign_workarea/CSL_bitbucket/c55_csl/c55x
    1098 000087 7602          MOV #605, T0 ; |1585| 
         000089 5D48 
    1099 00008b 0601          B $C$L19  ; |1585| 
         00008d 13   
    1100                                                      ; branch occurs ; |1585| 
    1101 00008e       $C$L11:    
    1102                      .dwpsn  file "C:/Users/a0221074/Desktop/C5000/IBM_Watson_TIdesign_workarea/CSL_bitbucket/c55_csl/c55x
    1103 00008e A431          MOV *(#_SEG0), T0 ; |1595| 
         000090 0000 
         000092 00!  
    1104 000093 3C50          MOV #5, AC0 ; |1595| 
    1105              $C$DW$106       .dwtag  DW_TAG_TI_branch
    1106                      .dwattr $C$DW$106, DW_AT_low_pc(0x00)
    1107                      .dwattr $C$DW$106, DW_AT_name("_MEM_alloc")
    1108                      .dwattr $C$DW$106, DW_AT_TI_call
    1109              
    1110 000095 6C00          CALL #_MEM_alloc ; |1595| 
         000097 0000!
    1111 000099 3D01  ||      MOV #0, AC1 ; |1595| 
    1112              
    1113                                                      ; call occurs [#_MEM_alloc] ; |1595| 
    1114 00009b ED00          MOV dbl(*SP(#0)), XAR3
         00009d BF   
    1115 00009e EB6D          MOV XAR0, dbl(*AR3(#1308))
TMS320C55x Assembler PC v4.4.1 Wed Sep 13 16:33:48 2017

Tools Copyright (c) 1996-2012 Texas Instruments Incorporated
C:\Users\a0221074\AppData\Local\Temp\1193610                         PAGE   23

         0000a0 8505 
         0000a2 1C   
    1116                      .dwpsn  file "C:/Users/a0221074/Desktop/C5000/IBM_Watson_TIdesign_workarea/CSL_bitbucket/c55_csl/c55x
    1117 0000a3 ED00          MOV dbl(*SP(#0)), XAR3
         0000a5 BF   
    1118 0000a6 ED6D          MOV dbl(*AR3(#1308)), XAR3
         0000a8 BF05 
         0000aa 1C   
    1119 0000ab 90B0          MOV XAR3, AC0
    1120 0000ad 6390          BCC $C$L12,AC0 != #0 ; |1596| 
    1121                                                      ; branchcc occurs ; |1596| 
    1122                      .dwpsn  file "C:/Users/a0221074/Desktop/C5000/IBM_Watson_TIdesign_workarea/CSL_bitbucket/c55_csl/c55x
    1123 0000af 7602          MOV #605, T0 ; |1596| 
         0000b1 5D48 
    1124 0000b3 0600          B $C$L19  ; |1596| 
         0000b5 EB   
    1125                                                      ; branch occurs ; |1596| 
    1126 0000b6       $C$L12:    
    1127                      .dwpsn  file "C:/Users/a0221074/Desktop/C5000/IBM_Watson_TIdesign_workarea/CSL_bitbucket/c55_csl/c55x
    1128 0000b6 A431          MOV *(#_SEG0), T0 ; |1606| 
         0000b8 0000 
         0000ba 00!  
    1129 0000bb 3C30          MOV #3, AC0 ; |1606| 
    1130              $C$DW$107       .dwtag  DW_TAG_TI_branch
    1131                      .dwattr $C$DW$107, DW_AT_low_pc(0x00)
    1132                      .dwattr $C$DW$107, DW_AT_name("_MEM_alloc")
    1133                      .dwattr $C$DW$107, DW_AT_TI_call
    1134              
    1135 0000bd 6C00          CALL #_MEM_alloc ; |1606| 
         0000bf 0000!
    1136 0000c1 3D01  ||      MOV #0, AC1 ; |1606| 
    1137              
    1138                                                      ; call occurs [#_MEM_alloc] ; |1606| 
    1139 0000c3 ED00          MOV dbl(*SP(#0)), XAR3
         0000c5 BF   
    1140 0000c6 EB6D          MOV XAR0, dbl(*AR3(#1336))
         0000c8 8505 
         0000ca 38   
    1141                      .dwpsn  file "C:/Users/a0221074/Desktop/C5000/IBM_Watson_TIdesign_workarea/CSL_bitbucket/c55_csl/c55x
    1142 0000cb ED00          MOV dbl(*SP(#0)), XAR3
         0000cd BF   
    1143 0000ce ED6D          MOV dbl(*AR3(#1336)), XAR3
         0000d0 BF05 
         0000d2 38   
    1144 0000d3 90B0          MOV XAR3, AC0
    1145 0000d5 6390          BCC $C$L13,AC0 != #0 ; |1607| 
    1146                                                      ; branchcc occurs ; |1607| 
    1147                      .dwpsn  file "C:/Users/a0221074/Desktop/C5000/IBM_Watson_TIdesign_workarea/CSL_bitbucket/c55_csl/c55x
    1148 0000d7 7602          MOV #605, T0 ; |1607| 
         0000d9 5D48 
    1149 0000db 0600          B $C$L19  ; |1607| 
         0000dd C3   
    1150                                                      ; branch occurs ; |1607| 
    1151 0000de       $C$L13:    
    1152                      .dwpsn  file "C:/Users/a0221074/Desktop/C5000/IBM_Watson_TIdesign_workarea/CSL_bitbucket/c55_csl/c55x
TMS320C55x Assembler PC v4.4.1 Wed Sep 13 16:33:48 2017

Tools Copyright (c) 1996-2012 Texas Instruments Incorporated
C:\Users\a0221074\AppData\Local\Temp\1193610                         PAGE   24

    1153 0000de A431          MOV *(#_SEG0), T0 ; |1617| 
         0000e0 0000 
         0000e2 00!  
    1154 0000e3 3C60          MOV #6, AC0 ; |1617| 
    1155              $C$DW$108       .dwtag  DW_TAG_TI_branch
    1156                      .dwattr $C$DW$108, DW_AT_low_pc(0x00)
    1157                      .dwattr $C$DW$108, DW_AT_name("_MEM_alloc")
    1158                      .dwattr $C$DW$108, DW_AT_TI_call
    1159              
    1160 0000e5 6C00          CALL #_MEM_alloc ; |1617| 
         0000e7 0000!
    1161 0000e9 3D21  ||      MOV #2, AC1 ; |1617| 
    1162              
    1163                                                      ; call occurs [#_MEM_alloc] ; |1617| 
    1164 0000eb ED00          MOV dbl(*SP(#0)), XAR3
         0000ed BF   
    1165 0000ee EB6D          MOV XAR0, dbl(*AR3(#1338))
         0000f0 8505 
         0000f2 3A   
    1166                      .dwpsn  file "C:/Users/a0221074/Desktop/C5000/IBM_Watson_TIdesign_workarea/CSL_bitbucket/c55_csl/c55x
    1167 0000f3 ED00          MOV dbl(*SP(#0)), XAR3
         0000f5 BF   
    1168 0000f6 ED6D          MOV dbl(*AR3(#1338)), XAR3
         0000f8 BF05 
         0000fa 3A   
    1169 0000fb 90B0          MOV XAR3, AC0
    1170 0000fd 6390          BCC $C$L14,AC0 != #0 ; |1618| 
    1171                                                      ; branchcc occurs ; |1618| 
    1172                      .dwpsn  file "C:/Users/a0221074/Desktop/C5000/IBM_Watson_TIdesign_workarea/CSL_bitbucket/c55_csl/c55x
    1173 0000ff 7602          MOV #605, T0 ; |1618| 
         000101 5D48 
    1174 000103 0600          B $C$L19  ; |1618| 
         000105 9B   
    1175                                                      ; branch occurs ; |1618| 
    1176 000106       $C$L14:    
    1177                      .dwpsn  file "C:/Users/a0221074/Desktop/C5000/IBM_Watson_TIdesign_workarea/CSL_bitbucket/c55_csl/c55x
    1178 000106 E608          MOV #2, *SP(#4) ; |1621| 
         000108 02   
    1179                      .dwpsn  file "C:/Users/a0221074/Desktop/C5000/IBM_Watson_TIdesign_workarea/CSL_bitbucket/c55_csl/c55x
    1180 000109 A908          MOV *SP(#4), AR1 ; |1621| 
    1181 00010b 0429          BCC $C$L16,AR1 < #0 ; |1621| 
         00010d 35   
    1182                                                      ; branchcc occurs ; |1621| 
    1183 00010e       $C$L15:    
    1184 00010e       $C$DW$L$_cm_open$14$B:
    1185                      .dwpsn  file "C:/Users/a0221074/Desktop/C5000/IBM_Watson_TIdesign_workarea/CSL_bitbucket/c55_csl/c55x
    1186 00010e ED00          MOV dbl(*SP(#0)), XAR3
         000110 BF   
    1187 000111 ED6D          MOV dbl(*AR3(#1336)), XAR3
         000113 BF05 
         000115 38   
    1188 000116 2294          MOV AR1, T0 ; |1622| 
    1189 000118 EC31          AMOV #_CM_LOGIST_PARA, XAR2 ; |1622| 
         00011a AE00 
         00011c 0000+
TMS320C55x Assembler PC v4.4.1 Wed Sep 13 16:33:48 2017

Tools Copyright (c) 1996-2012 Texas Instruments Incorporated
C:\Users\a0221074\AppData\Local\Temp\1193610                         PAGE   25

    1190 00011e 1490          AADD AR1, AR3 ; |1622| 
         000120 B0   
    1191 000121 805D          MOV *AR2(T0), *AR3 ; |1622| 
         000123 84   
    1192                      .dwpsn  file "C:/Users/a0221074/Desktop/C5000/IBM_Watson_TIdesign_workarea/CSL_bitbucket/c55_csl/c55x
    1193 000124 ED00          MOV dbl(*SP(#0)), XAR3
         000126 BF   
    1194 000127 A008          MOV *SP(#4), AC0 ; |1623| 
    1195 000129 5000          SFTL AC0, #1 ; |1623| 
    1196 00012b 900A          MOV AC0, XAR2
    1197 00012d ED6D          MOV dbl(*AR3(#1338)), XAR3
         00012f BF05 
         000131 3A   
    1198              
    1199 000132 14A1          AADD XAR2, XAR3 ; |1623| 
         000134 B0   
    1200 000135 3D00  ||      MOV #0, AC0 ; |1623| 
    1201              
    1202 000137 EB61          MOV AC0, dbl(*AR3) ; |1623| 
         000139 08   
    1203                      .dwpsn  file "C:/Users/a0221074/Desktop/C5000/IBM_Watson_TIdesign_workarea/CSL_bitbucket/c55_csl/c55x
    1204 00013a F708          SUB #1, *SP(#4) ; |1621| 
         00013c FFFF 
    1205                      .dwpsn  file "C:/Users/a0221074/Desktop/C5000/IBM_Watson_TIdesign_workarea/CSL_bitbucket/c55_csl/c55x
    1206 00013e A908          MOV *SP(#4), AR1 ; |1621| 
    1207 000140 0459          BCC $C$L15,AR1 >= #0 ; |1621| 
         000142 CB   
    1208                                                      ; branchcc occurs ; |1621| 
    1209 000143       $C$DW$L$_cm_open$14$E:
    1210 000143       $C$L16:    
    1211                      .dwpsn  file "C:/Users/a0221074/Desktop/C5000/IBM_Watson_TIdesign_workarea/CSL_bitbucket/c55_csl/c55x
    1212 000143 ED04          MOV dbl(*SP(#2)), XAR3
         000145 BF   
    1213 000146 E66D          MOV #0, *AR3(#2012) ; |1626| 
         000148 0007 
         00014a DC   
    1214                      .dwpsn  file "C:/Users/a0221074/Desktop/C5000/IBM_Watson_TIdesign_workarea/CSL_bitbucket/c55_csl/c55x
    1215 00014b 7600          MOV #26, AC0 ; |1636| 
         00014d 1A08 
    1216 00014f A431          MOV *(#_SEG0), T0 ; |1636| 
         000151 0000 
         000153 00!  
    1217              $C$DW$109       .dwtag  DW_TAG_TI_branch
    1218                      .dwattr $C$DW$109, DW_AT_low_pc(0x00)
    1219                      .dwattr $C$DW$109, DW_AT_name("_MEM_alloc")
    1220                      .dwattr $C$DW$109, DW_AT_TI_call
    1221              
    1222 000154 6C00          CALL #_MEM_alloc ; |1636| 
         000156 0000!
    1223 000158 3D01  ||      MOV #0, AC1 ; |1636| 
    1224              
    1225                                                      ; call occurs [#_MEM_alloc] ; |1636| 
    1226 00015a ED00          MOV dbl(*SP(#0)), XAR3
         00015c BF   
    1227 00015d EB6D          MOV XAR0, dbl(*AR3(#1342))
TMS320C55x Assembler PC v4.4.1 Wed Sep 13 16:33:48 2017

Tools Copyright (c) 1996-2012 Texas Instruments Incorporated
C:\Users\a0221074\AppData\Local\Temp\1193610                         PAGE   26

         00015f 8505 
         000161 3E   
    1228                      .dwpsn  file "C:/Users/a0221074/Desktop/C5000/IBM_Watson_TIdesign_workarea/CSL_bitbucket/c55_csl/c55x
    1229 000162 ED00          MOV dbl(*SP(#0)), XAR3
         000164 BF   
    1230 000165 ED6D          MOV dbl(*AR3(#1342)), XAR3
         000167 BF05 
         000169 3E   
    1231 00016a 90B0          MOV XAR3, AC0
    1232 00016c 6310          BCC $C$L17,AC0 != #0 ; |1637| 
    1233                                                      ; branchcc occurs ; |1637| 
    1234                      .dwpsn  file "C:/Users/a0221074/Desktop/C5000/IBM_Watson_TIdesign_workarea/CSL_bitbucket/c55_csl/c55x
    1235 00016e 7602          MOV #605, T0 ; |1637| 
         000170 5D48 
    1236 000172 4A2D          B $C$L19  ; |1637| 
    1237                                                      ; branch occurs ; |1637| 
    1238 000174       $C$L17:    
    1239                      .dwpsn  file "C:/Users/a0221074/Desktop/C5000/IBM_Watson_TIdesign_workarea/CSL_bitbucket/c55_csl/c55x
    1240 000174 A431          MOV *(#_SEG0), T0 ; |1647| 
         000176 0000 
         000178 00!  
    1241 000179 7600          MOV #104, AC0 ; |1647| 
         00017b 6808 
    1242              $C$DW$110       .dwtag  DW_TAG_TI_branch
    1243                      .dwattr $C$DW$110, DW_AT_low_pc(0x00)
    1244                      .dwattr $C$DW$110, DW_AT_name("_MEM_alloc")
    1245                      .dwattr $C$DW$110, DW_AT_TI_call
    1246              
    1247 00017d 6C00          CALL #_MEM_alloc ; |1647| 
         00017f 0000!
    1248 000181 3D21  ||      MOV #2, AC1 ; |1647| 
    1249              
    1250                                                      ; call occurs [#_MEM_alloc] ; |1647| 
    1251 000183 ED00          MOV dbl(*SP(#0)), XAR3
         000185 BF   
    1252 000186 EB6D          MOV XAR0, dbl(*AR3(#1344))
         000188 8505 
         00018a 40   
    1253                      .dwpsn  file "C:/Users/a0221074/Desktop/C5000/IBM_Watson_TIdesign_workarea/CSL_bitbucket/c55_csl/c55x
    1254 00018b ED00          MOV dbl(*SP(#0)), XAR3
         00018d BF   
    1255 00018e ED6D          MOV dbl(*AR3(#1344)), XAR3
         000190 BF05 
         000192 40   
    1256 000193 90B0          MOV XAR3, AC0
    1257 000195 6310          BCC $C$L18,AC0 != #0 ; |1648| 
    1258                                                      ; branchcc occurs ; |1648| 
    1259                      .dwpsn  file "C:/Users/a0221074/Desktop/C5000/IBM_Watson_TIdesign_workarea/CSL_bitbucket/c55_csl/c55x
    1260 000197 7602          MOV #605, T0 ; |1648| 
         000199 5D48 
    1261 00019b 4A04          B $C$L19  ; |1648| 
    1262                                                      ; branch occurs ; |1648| 
    1263 00019d       $C$L18:    
    1264                      .dwpsn  file "C:/Users/a0221074/Desktop/C5000/IBM_Watson_TIdesign_workarea/CSL_bitbucket/c55_csl/c55x
    1265 00019d 7600          MOV #100, T0 ; |1670| 
TMS320C55x Assembler PC v4.4.1 Wed Sep 13 16:33:48 2017

Tools Copyright (c) 1996-2012 Texas Instruments Incorporated
C:\Users\a0221074\AppData\Local\Temp\1193610                         PAGE   27

         00019f 6448 
    1266 0001a1       $C$L19:    
    1267                      .dwpsn  file "C:/Users/a0221074/Desktop/C5000/IBM_Watson_TIdesign_workarea/CSL_bitbucket/c55_csl/c55x
    1268 0001a1 4E05          AADD #5, SP
    1269                      .dwcfi  cfa_offset, 1
    1270              $C$DW$111       .dwtag  DW_TAG_TI_branch
    1271                      .dwattr $C$DW$111, DW_AT_low_pc(0x00)
    1272                      .dwattr $C$DW$111, DW_AT_TI_return
    1273 0001a3 4804          RET
    1274                                                      ; return occurs
    1275              
    1276              $C$DW$112       .dwtag  DW_TAG_TI_loop
    1277                      .dwattr $C$DW$112, DW_AT_name("C:\\Users\\a0221074\\AppData\\Local\\Temp\\1193610:$C$L15:1:1505334826
    1278                      .dwattr $C$DW$112, DW_AT_TI_begin_file("C:/Users/a0221074/Desktop/C5000/IBM_Watson_TIdesign_workarea/
    1279                      .dwattr $C$DW$112, DW_AT_TI_begin_line(0x655)
    1280                      .dwattr $C$DW$112, DW_AT_TI_end_line(0x658)
    1281              $C$DW$113       .dwtag  DW_TAG_TI_loop_range
    1282                      .dwattr $C$DW$113, DW_AT_low_pc($C$DW$L$_cm_open$14$B)
    1283                      .dwattr $C$DW$113, DW_AT_high_pc($C$DW$L$_cm_open$14$E)
    1284                      .dwendtag $C$DW$112
    1285              
    1286                      .dwattr $C$DW$97, DW_AT_TI_end_file("C:/Users/a0221074/Desktop/C5000/IBM_Watson_TIdesign_workarea/CSL
    1287                      .dwattr $C$DW$97, DW_AT_TI_end_line(0x687)
    1288                      .dwattr $C$DW$97, DW_AT_TI_end_column(0x01)
    1289                      .dwendentry
    1290                      .dwendtag $C$DW$97
    1291              
    1292 000000               .sect   ".text:_cm_set_param"
    1293                      .clink
    1294                      .global _cm_set_param
    1295              
    1296              $C$DW$114       .dwtag  DW_TAG_subprogram, DW_AT_name("cm_set_param")
    1297                      .dwattr $C$DW$114, DW_AT_low_pc(_cm_set_param)
    1298                      .dwattr $C$DW$114, DW_AT_high_pc(0x00)
    1299                      .dwattr $C$DW$114, DW_AT_TI_symbol_name("_cm_set_param")
    1300                      .dwattr $C$DW$114, DW_AT_external
    1301                      .dwattr $C$DW$114, DW_AT_TI_begin_file("C:/Users/a0221074/Desktop/C5000/IBM_Watson_TIdesign_workarea/
    1302                      .dwattr $C$DW$114, DW_AT_TI_begin_line(0x68d)
    1303                      .dwattr $C$DW$114, DW_AT_TI_begin_column(0x1d)
    1304                      .dwattr $C$DW$114, DW_AT_TI_max_frame_size(0x08)
    1305                      .dwpsn  file "C:/Users/a0221074/Desktop/C5000/IBM_Watson_TIdesign_workarea/CSL_bitbucket/c55_csl/c55x
    1306              
    1307                      .dwfde $C$DW$CIE, _cm_set_param
    1308              $C$DW$115       .dwtag  DW_TAG_formal_parameter, DW_AT_name("th_adp")
    1309                      .dwattr $C$DW$115, DW_AT_TI_symbol_name("_th_adp")
    1310                      .dwattr $C$DW$115, DW_AT_type(*$C$DW$T$8)
    1311                      .dwattr $C$DW$115, DW_AT_location[DW_OP_reg12]
    1312              $C$DW$116       .dwtag  DW_TAG_formal_parameter, DW_AT_name("th_nbest")
    1313                      .dwattr $C$DW$116, DW_AT_TI_symbol_name("_th_nbest")
    1314                      .dwattr $C$DW$116, DW_AT_type(*$C$DW$T$8)
    1315                      .dwattr $C$DW$116, DW_AT_location[DW_OP_reg13]
    1316              $C$DW$117       .dwtag  DW_TAG_formal_parameter, DW_AT_name("gv")
    1317                      .dwattr $C$DW$117, DW_AT_TI_symbol_name("_gv")
    1318                      .dwattr $C$DW$117, DW_AT_type(*$C$DW$T$96)
    1319                      .dwattr $C$DW$117, DW_AT_location[DW_OP_reg17]
TMS320C55x Assembler PC v4.4.1 Wed Sep 13 16:33:48 2017

Tools Copyright (c) 1996-2012 Texas Instruments Incorporated
C:\Users\a0221074\AppData\Local\Temp\1193610                         PAGE   28

    1320              ;*******************************************************************************
    1321              ;* FUNCTION NAME: cm_set_param                                                 *
    1322              ;*                                                                             *
    1323              ;*   Function Uses Regs : T0,T1,AR0,XAR0,AR1,AR3,XAR3,SP,M40,SATA,SATD,RDM,    *
    1324              ;*                        FRCT,SMUL                                            *
    1325              ;*   Stack Frame        : Compact (No Frame Pointer, w/ debug)                 *
    1326              ;*   Total Frame Size   : 8 words                                              *
    1327              ;*                        (2 return address/alignment)                         *
    1328              ;*                        (6 local values)                                     *
    1329              ;*   Min System Stack   : 1 word                                               *
    1330              ;*******************************************************************************
    1331 000000       _cm_set_param:
    1332                      .dwcfi  cfa_offset, 1
    1333                      .dwcfi  save_reg_to_mem, 91, -1
    1334 000000 4EF9          AADD #-7, SP
    1335                      .dwcfi  cfa_offset, 8
    1336              $C$DW$118       .dwtag  DW_TAG_variable, DW_AT_name("th_adp")
    1337                      .dwattr $C$DW$118, DW_AT_TI_symbol_name("_th_adp")
    1338                      .dwattr $C$DW$118, DW_AT_type(*$C$DW$T$8)
    1339                      .dwattr $C$DW$118, DW_AT_location[DW_OP_bregx 0x24 0]
    1340              $C$DW$119       .dwtag  DW_TAG_variable, DW_AT_name("th_nbest")
    1341                      .dwattr $C$DW$119, DW_AT_TI_symbol_name("_th_nbest")
    1342                      .dwattr $C$DW$119, DW_AT_type(*$C$DW$T$8)
    1343                      .dwattr $C$DW$119, DW_AT_location[DW_OP_bregx 0x24 1]
    1344              $C$DW$120       .dwtag  DW_TAG_variable, DW_AT_name("gv")
    1345                      .dwattr $C$DW$120, DW_AT_TI_symbol_name("_gv")
    1346                      .dwattr $C$DW$120, DW_AT_type(*$C$DW$T$96)
    1347                      .dwattr $C$DW$120, DW_AT_location[DW_OP_bregx 0x24 2]
    1348              $C$DW$121       .dwtag  DW_TAG_variable, DW_AT_name("pconf")
    1349                      .dwattr $C$DW$121, DW_AT_TI_symbol_name("_pconf")
    1350                      .dwattr $C$DW$121, DW_AT_type(*$C$DW$T$91)
    1351                      .dwattr $C$DW$121, DW_AT_location[DW_OP_bregx 0x24 4]
    1352 000002 EB04          MOV XAR0, dbl(*SP(#2))
         000004 85   
    1353 000005 C502          MOV T1, *SP(#1) ; |1680| 
    1354 000007 C400          MOV T0, *SP(#0) ; |1680| 
    1355                      .dwpsn  file "C:/Users/a0221074/Desktop/C5000/IBM_Watson_TIdesign_workarea/CSL_bitbucket/c55_csl/c55x
    1356 000009 ED04          MOV dbl(*SP(#2)), XAR3
         00000b BF   
    1357 00000c ED6D          MOV dbl(*AR3(#2014)), XAR3
         00000e BF07 
         000010 DE   
    1358 000011 EB08          MOV XAR3, dbl(*SP(#4))
         000013 B5   
    1359                      .dwpsn  file "C:/Users/a0221074/Desktop/C5000/IBM_Watson_TIdesign_workarea/CSL_bitbucket/c55_csl/c55x
    1360 000014 A900          MOV *SP(#0), AR1 ; |1683| 
    1361 000016 C96D          MOV AR1, *AR3(#1346) ; |1683| 
         000018 0542 
    1362                      .dwpsn  file "C:/Users/a0221074/Desktop/C5000/IBM_Watson_TIdesign_workarea/CSL_bitbucket/c55_csl/c55x
    1363 00001a ED08          MOV dbl(*SP(#4)), XAR3
         00001c BF   
    1364 00001d A902          MOV *SP(#1), AR1 ; |1685| 
    1365 00001f C96D          MOV AR1, *AR3(#1318) ; |1685| 
         000021 0526 
    1366                      .dwpsn  file "C:/Users/a0221074/Desktop/C5000/IBM_Watson_TIdesign_workarea/CSL_bitbucket/c55_csl/c55x
TMS320C55x Assembler PC v4.4.1 Wed Sep 13 16:33:48 2017

Tools Copyright (c) 1996-2012 Texas Instruments Incorporated
C:\Users\a0221074\AppData\Local\Temp\1193610                         PAGE   29

    1367 000023 4E07          AADD #7, SP
    1368                      .dwcfi  cfa_offset, 1
    1369              $C$DW$122       .dwtag  DW_TAG_TI_branch
    1370                      .dwattr $C$DW$122, DW_AT_low_pc(0x00)
    1371                      .dwattr $C$DW$122, DW_AT_TI_return
    1372 000025 4804          RET
    1373                                                      ; return occurs
    1374                      .dwattr $C$DW$114, DW_AT_TI_end_file("C:/Users/a0221074/Desktop/C5000/IBM_Watson_TIdesign_workarea/CS
    1375                      .dwattr $C$DW$114, DW_AT_TI_end_line(0x696)
    1376                      .dwattr $C$DW$114, DW_AT_TI_end_column(0x01)
    1377                      .dwendentry
    1378                      .dwendtag $C$DW$114
    1379              
    1380 000000               .sect   ".text:_cm_backup_adp"
    1381                      .clink
    1382                      .global _cm_backup_adp
    1383              
    1384              $C$DW$123       .dwtag  DW_TAG_subprogram, DW_AT_name("cm_backup_adp")
    1385                      .dwattr $C$DW$123, DW_AT_low_pc(_cm_backup_adp)
    1386                      .dwattr $C$DW$123, DW_AT_high_pc(0x00)
    1387                      .dwattr $C$DW$123, DW_AT_TI_symbol_name("_cm_backup_adp")
    1388                      .dwattr $C$DW$123, DW_AT_external
    1389                      .dwattr $C$DW$123, DW_AT_TI_begin_file("C:/Users/a0221074/Desktop/C5000/IBM_Watson_TIdesign_workarea/
    1390                      .dwattr $C$DW$123, DW_AT_TI_begin_line(0x698)
    1391                      .dwattr $C$DW$123, DW_AT_TI_begin_column(0x1d)
    1392                      .dwattr $C$DW$123, DW_AT_TI_max_frame_size(0x06)
    1393                      .dwpsn  file "C:/Users/a0221074/Desktop/C5000/IBM_Watson_TIdesign_workarea/CSL_bitbucket/c55_csl/c55x
    1394              
    1395                      .dwfde $C$DW$CIE, _cm_backup_adp
    1396              $C$DW$124       .dwtag  DW_TAG_formal_parameter, DW_AT_name("gv")
    1397                      .dwattr $C$DW$124, DW_AT_TI_symbol_name("_gv")
    1398                      .dwattr $C$DW$124, DW_AT_type(*$C$DW$T$96)
    1399                      .dwattr $C$DW$124, DW_AT_location[DW_OP_reg17]
    1400              ;*******************************************************************************
    1401              ;* FUNCTION NAME: cm_backup_adp                                                *
    1402              ;*                                                                             *
    1403              ;*   Function Uses Regs : AC0,AC0,T0,AR0,XAR0,AR1,AR2,XAR2,AR3,XAR3,AR4,XAR4,  *
    1404              ;*                        SP,CARRY,M40,SATA,SATD,RDM,FRCT,SMUL                 *
    1405              ;*   Stack Frame        : Compact (No Frame Pointer, w/ debug)                 *
    1406              ;*   Total Frame Size   : 6 words                                              *
    1407              ;*                        (2 return address/alignment)                         *
    1408              ;*                        (4 local values)                                     *
    1409              ;*   Min System Stack   : 1 word                                               *
    1410              ;*******************************************************************************
    1411 000000       _cm_backup_adp:
    1412                      .dwcfi  cfa_offset, 1
    1413                      .dwcfi  save_reg_to_mem, 91, -1
    1414 000000 4EFB          AADD #-5, SP
    1415                      .dwcfi  cfa_offset, 6
    1416              $C$DW$125       .dwtag  DW_TAG_variable, DW_AT_name("gv")
    1417                      .dwattr $C$DW$125, DW_AT_TI_symbol_name("_gv")
    1418                      .dwattr $C$DW$125, DW_AT_type(*$C$DW$T$96)
    1419                      .dwattr $C$DW$125, DW_AT_location[DW_OP_bregx 0x24 0]
    1420              $C$DW$126       .dwtag  DW_TAG_variable, DW_AT_name("pconf")
    1421                      .dwattr $C$DW$126, DW_AT_TI_symbol_name("_pconf")
TMS320C55x Assembler PC v4.4.1 Wed Sep 13 16:33:48 2017

Tools Copyright (c) 1996-2012 Texas Instruments Incorporated
C:\Users\a0221074\AppData\Local\Temp\1193610                         PAGE   30

    1422                      .dwattr $C$DW$126, DW_AT_type(*$C$DW$T$91)
    1423                      .dwattr $C$DW$126, DW_AT_location[DW_OP_bregx 0x24 2]
    1424              ;* AR1   assigned to _i
    1425              $C$DW$127       .dwtag  DW_TAG_variable, DW_AT_name("i")
    1426                      .dwattr $C$DW$127, DW_AT_TI_symbol_name("_i")
    1427                      .dwattr $C$DW$127, DW_AT_type(*$C$DW$T$8)
    1428                      .dwattr $C$DW$127, DW_AT_location[DW_OP_reg18]
    1429 000002 EB00          MOV XAR0, dbl(*SP(#0))
         000004 85   
    1430                      .dwpsn  file "C:/Users/a0221074/Desktop/C5000/IBM_Watson_TIdesign_workarea/CSL_bitbucket/c55_csl/c55x
    1431 000005 ED00          MOV dbl(*SP(#0)), XAR3
         000007 BF   
    1432 000008 ED6D          MOV dbl(*AR3(#2014)), XAR3
         00000a BF07 
         00000c DE   
    1433 00000d EB04          MOV XAR3, dbl(*SP(#2))
         00000f B5   
    1434                      .dwpsn  file "C:/Users/a0221074/Desktop/C5000/IBM_Watson_TIdesign_workarea/CSL_bitbucket/c55_csl/c55x
    1435 000010 7600          MOV #25, AR1 ; |1694| 
         000012 1998 
    1436                      .dwpsn  file "C:/Users/a0221074/Desktop/C5000/IBM_Watson_TIdesign_workarea/CSL_bitbucket/c55_csl/c55x
    1437 000014 0429          BCC $C$L21,AR1 < #0 ; |1694| 
         000016 77   
    1438                                                      ; branchcc occurs ; |1694| 
    1439 000017       $C$L20:    
    1440 000017       $C$DW$L$_cm_backup_adp$2$B:
    1441                      .dwpsn  file "C:/Users/a0221074/Desktop/C5000/IBM_Watson_TIdesign_workarea/CSL_bitbucket/c55_csl/c55x
    1442 000017 ED00          MOV dbl(*SP(#0)), XAR3
         000019 BF   
    1443 00001a 1490          AADD AR1, AR3 ; |1695| 
         00001c B0   
    1444 00001d AA6D          MOV *AR3(#840), AR2 ; |1695| 
         00001f 0348 
    1445 000021 ED04          MOV dbl(*SP(#2)), XAR3
         000023 BF   
    1446 000024 2294          MOV AR1, T0 ; |1695| 
    1447 000026 ED6D          MOV dbl(*AR3(#1342)), XAR3
         000028 BF05 
         00002a 3E   
    1448 00002b CA6B          MOV AR2, *AR3(T0) ; |1695| 
    1449                      .dwpsn  file "C:/Users/a0221074/Desktop/C5000/IBM_Watson_TIdesign_workarea/CSL_bitbucket/c55_csl/c55x
    1450 00002d 2290          MOV AR1, AC0
    1451 00002f 4450          SFTS AC0, #1, AC0 ; |1696| 
    1452 000031 ED00          MOV dbl(*SP(#0)), XAR3
         000033 BF   
    1453 000034 A010          MOV mmap(AC0L), AC0 ; |1696| 
         000036 98   
    1454 000037 5000          SFTL AC0, #1 ; |1696| 
    1455 000039 900A          MOV AC0, XAR2
    1456 00003b 2290          MOV AR1, AC0 ; |1696| 
    1457              
    1458 00003d 14A1          AADD XAR2, XAR3 ; |1696| 
         00003f B0   
    1459 000040 4550  ||      SFTS AC0, #1, AC0 ; |1696| 
    1460              
TMS320C55x Assembler PC v4.4.1 Wed Sep 13 16:33:48 2017

Tools Copyright (c) 1996-2012 Texas Instruments Incorporated
C:\Users\a0221074\AppData\Local\Temp\1193610                         PAGE   31

    1461 000042 ED04          MOV dbl(*SP(#2)), XAR2
         000044 AF   
    1462 000045 A010          MOV mmap(AC0L), AC0 ; |1696| 
         000047 98   
    1463 000048 5000          SFTL AC0, #1 ; |1696| 
    1464 00004a 900C          MOV AC0, XAR4
    1465 00004c ED4D          MOV dbl(*AR2(#1344)), XAR2
         00004e AF05 
         000050 40   
    1466 000051 7603          MOV #892, T0 ; |1696| 
         000053 7C48 
    1467 000055 14C1          AADD XAR4, XAR2 ; |1696| 
         000057 A0   
    1468 000058 807D          MOV dbl(*AR3(T0)), dbl(*AR2) ; |1696| 
         00005a 00   
    1469                      .dwpsn  file "C:/Users/a0221074/Desktop/C5000/IBM_Watson_TIdesign_workarea/CSL_bitbucket/c55_csl/c55x
    1470 00005b 2290          MOV AR1, AC0
    1471 00005d 4450          SFTS AC0, #1, AC0 ; |1697| 
    1472 00005f ED00          MOV dbl(*SP(#0)), XAR3
         000061 BF   
    1473 000062 4010          ADD #1, AC0 ; |1697| 
    1474 000064 A010          MOV mmap(AC0L), AC0 ; |1697| 
         000066 98   
    1475 000067 5000          SFTL AC0, #1 ; |1697| 
    1476 000069 900A          MOV AC0, XAR2
    1477 00006b 14A1          AADD XAR2, XAR3 ; |1697| 
         00006d B0   
    1478 00006e ED04          MOV dbl(*SP(#2)), XAR2
         000070 AF   
    1479 000071 2290          MOV AR1, AC0 ; |1697| 
    1480 000073 4450          SFTS AC0, #1, AC0 ; |1697| 
    1481 000075 4010          ADD #1, AC0 ; |1697| 
    1482 000077 ED4D          MOV dbl(*AR2(#1344)), XAR2
         000079 AF05 
         00007b 40   
    1483 00007c A010          MOV mmap(AC0L), AC0 ; |1697| 
         00007e 98   
    1484 00007f 5000          SFTL AC0, #1 ; |1697| 
    1485 000081 900C          MOV AC0, XAR4
    1486 000083 14C1          AADD XAR4, XAR2 ; |1697| 
         000085 A0   
    1487 000086 807D          MOV dbl(*AR3(T0)), dbl(*AR2) ; |1697| 
         000088 00   
    1488                      .dwpsn  file "C:/Users/a0221074/Desktop/C5000/IBM_Watson_TIdesign_workarea/CSL_bitbucket/c55_csl/c55x
    1489 000089 4219          SUB #1, AR1 ; |1694| 
    1490                      .dwpsn  file "C:/Users/a0221074/Desktop/C5000/IBM_Watson_TIdesign_workarea/CSL_bitbucket/c55_csl/c55x
    1491 00008b 0459          BCC $C$L20,AR1 >= #0 ; |1694| 
         00008d 89   
    1492                                                      ; branchcc occurs ; |1694| 
    1493 00008e       $C$DW$L$_cm_backup_adp$2$E:
    1494                      .dwpsn  file "C:/Users/a0221074/Desktop/C5000/IBM_Watson_TIdesign_workarea/CSL_bitbucket/c55_csl/c55x
    1495 00008e       $C$L21:    
    1496 00008e 4E05          AADD #5, SP
    1497                      .dwcfi  cfa_offset, 1
    1498              $C$DW$128       .dwtag  DW_TAG_TI_branch
TMS320C55x Assembler PC v4.4.1 Wed Sep 13 16:33:48 2017

Tools Copyright (c) 1996-2012 Texas Instruments Incorporated
C:\Users\a0221074\AppData\Local\Temp\1193610                         PAGE   32

    1499                      .dwattr $C$DW$128, DW_AT_low_pc(0x00)
    1500                      .dwattr $C$DW$128, DW_AT_TI_return
    1501 000090 4804          RET
    1502                                                      ; return occurs
    1503              
    1504              $C$DW$129       .dwtag  DW_TAG_TI_loop
    1505                      .dwattr $C$DW$129, DW_AT_name("C:\\Users\\a0221074\\AppData\\Local\\Temp\\1193610:$C$L20:1:1505334826
    1506                      .dwattr $C$DW$129, DW_AT_TI_begin_file("C:/Users/a0221074/Desktop/C5000/IBM_Watson_TIdesign_workarea/
    1507                      .dwattr $C$DW$129, DW_AT_TI_begin_line(0x69e)
    1508                      .dwattr $C$DW$129, DW_AT_TI_end_line(0x6a6)
    1509              $C$DW$130       .dwtag  DW_TAG_TI_loop_range
    1510                      .dwattr $C$DW$130, DW_AT_low_pc($C$DW$L$_cm_backup_adp$2$B)
    1511                      .dwattr $C$DW$130, DW_AT_high_pc($C$DW$L$_cm_backup_adp$2$E)
    1512                      .dwendtag $C$DW$129
    1513              
    1514                      .dwattr $C$DW$123, DW_AT_TI_end_file("C:/Users/a0221074/Desktop/C5000/IBM_Watson_TIdesign_workarea/CS
    1515                      .dwattr $C$DW$123, DW_AT_TI_end_line(0x6ac)
    1516                      .dwattr $C$DW$123, DW_AT_TI_end_column(0x01)
    1517                      .dwendentry
    1518                      .dwendtag $C$DW$123
    1519              
    1520 000000               .sect   ".text:_cm_restore_adp"
    1521                      .clink
    1522                      .global _cm_restore_adp
    1523              
    1524              $C$DW$131       .dwtag  DW_TAG_subprogram, DW_AT_name("cm_restore_adp")
    1525                      .dwattr $C$DW$131, DW_AT_low_pc(_cm_restore_adp)
    1526                      .dwattr $C$DW$131, DW_AT_high_pc(0x00)
    1527                      .dwattr $C$DW$131, DW_AT_TI_symbol_name("_cm_restore_adp")
    1528                      .dwattr $C$DW$131, DW_AT_external
    1529                      .dwattr $C$DW$131, DW_AT_TI_begin_file("C:/Users/a0221074/Desktop/C5000/IBM_Watson_TIdesign_workarea/
    1530                      .dwattr $C$DW$131, DW_AT_TI_begin_line(0x6ae)
    1531                      .dwattr $C$DW$131, DW_AT_TI_begin_column(0x1d)
    1532                      .dwattr $C$DW$131, DW_AT_TI_max_frame_size(0x06)
    1533                      .dwpsn  file "C:/Users/a0221074/Desktop/C5000/IBM_Watson_TIdesign_workarea/CSL_bitbucket/c55_csl/c55x
    1534              
    1535                      .dwfde $C$DW$CIE, _cm_restore_adp
    1536              $C$DW$132       .dwtag  DW_TAG_formal_parameter, DW_AT_name("gv")
    1537                      .dwattr $C$DW$132, DW_AT_TI_symbol_name("_gv")
    1538                      .dwattr $C$DW$132, DW_AT_type(*$C$DW$T$96)
    1539                      .dwattr $C$DW$132, DW_AT_location[DW_OP_reg17]
    1540              ;*******************************************************************************
    1541              ;* FUNCTION NAME: cm_restore_adp                                               *
    1542              ;*                                                                             *
    1543              ;*   Function Uses Regs : AC0,AC0,T0,AR0,XAR0,AR1,AR2,XAR2,AR3,XAR3,AR4,XAR4,  *
    1544              ;*                        SP,CARRY,M40,SATA,SATD,RDM,FRCT,SMUL                 *
    1545              ;*   Stack Frame        : Compact (No Frame Pointer, w/ debug)                 *
    1546              ;*   Total Frame Size   : 6 words                                              *
    1547              ;*                        (2 return address/alignment)                         *
    1548              ;*                        (4 local values)                                     *
    1549              ;*   Min System Stack   : 1 word                                               *
    1550              ;*******************************************************************************
    1551 000000       _cm_restore_adp:
    1552                      .dwcfi  cfa_offset, 1
    1553                      .dwcfi  save_reg_to_mem, 91, -1
TMS320C55x Assembler PC v4.4.1 Wed Sep 13 16:33:48 2017

Tools Copyright (c) 1996-2012 Texas Instruments Incorporated
C:\Users\a0221074\AppData\Local\Temp\1193610                         PAGE   33

    1554 000000 4EFB          AADD #-5, SP
    1555                      .dwcfi  cfa_offset, 6
    1556              $C$DW$133       .dwtag  DW_TAG_variable, DW_AT_name("gv")
    1557                      .dwattr $C$DW$133, DW_AT_TI_symbol_name("_gv")
    1558                      .dwattr $C$DW$133, DW_AT_type(*$C$DW$T$96)
    1559                      .dwattr $C$DW$133, DW_AT_location[DW_OP_bregx 0x24 0]
    1560              $C$DW$134       .dwtag  DW_TAG_variable, DW_AT_name("pconf")
    1561                      .dwattr $C$DW$134, DW_AT_TI_symbol_name("_pconf")
    1562                      .dwattr $C$DW$134, DW_AT_type(*$C$DW$T$91)
    1563                      .dwattr $C$DW$134, DW_AT_location[DW_OP_bregx 0x24 2]
    1564              ;* AR1   assigned to _i
    1565              $C$DW$135       .dwtag  DW_TAG_variable, DW_AT_name("i")
    1566                      .dwattr $C$DW$135, DW_AT_TI_symbol_name("_i")
    1567                      .dwattr $C$DW$135, DW_AT_type(*$C$DW$T$8)
    1568                      .dwattr $C$DW$135, DW_AT_location[DW_OP_reg18]
    1569 000002 EB00          MOV XAR0, dbl(*SP(#0))
         000004 85   
    1570                      .dwpsn  file "C:/Users/a0221074/Desktop/C5000/IBM_Watson_TIdesign_workarea/CSL_bitbucket/c55_csl/c55x
    1571 000005 ED00          MOV dbl(*SP(#0)), XAR3
         000007 BF   
    1572 000008 ED6D          MOV dbl(*AR3(#2014)), XAR3
         00000a BF07 
         00000c DE   
    1573 00000d EB04          MOV XAR3, dbl(*SP(#2))
         00000f B5   
    1574                      .dwpsn  file "C:/Users/a0221074/Desktop/C5000/IBM_Watson_TIdesign_workarea/CSL_bitbucket/c55_csl/c55x
    1575 000010 7600          MOV #25, AR1 ; |1720| 
         000012 1998 
    1576                      .dwpsn  file "C:/Users/a0221074/Desktop/C5000/IBM_Watson_TIdesign_workarea/CSL_bitbucket/c55_csl/c55x
    1577 000014 0429          BCC $C$L23,AR1 < #0 ; |1720| 
         000016 77   
    1578                                                      ; branchcc occurs ; |1720| 
    1579 000017       $C$L22:    
    1580 000017       $C$DW$L$_cm_restore_adp$2$B:
    1581                      .dwpsn  file "C:/Users/a0221074/Desktop/C5000/IBM_Watson_TIdesign_workarea/CSL_bitbucket/c55_csl/c55x
    1582 000017 ED04          MOV dbl(*SP(#2)), XAR3
         000019 BF   
    1583 00001a 2294          MOV AR1, T0 ; |1721| 
    1584 00001c ED6D          MOV dbl(*AR3(#1342)), XAR3
         00001e BF05 
         000020 3E   
    1585 000021 AA6B          MOV *AR3(T0), AR2 ; |1721| 
    1586 000023 ED00          MOV dbl(*SP(#0)), XAR3
         000025 BF   
    1587 000026 1490          AADD AR1, AR3 ; |1721| 
         000028 B0   
    1588 000029 CA6D          MOV AR2, *AR3(#840) ; |1721| 
         00002b 0348 
    1589                      .dwpsn  file "C:/Users/a0221074/Desktop/C5000/IBM_Watson_TIdesign_workarea/CSL_bitbucket/c55_csl/c55x
    1590 00002d ED04          MOV dbl(*SP(#2)), XAR3
         00002f BF   
    1591 000030 2290          MOV AR1, AC0
    1592 000032 4450          SFTS AC0, #1, AC0 ; |1722| 
    1593 000034 A010          MOV mmap(AC0L), AC0 ; |1722| 
         000036 98   
TMS320C55x Assembler PC v4.4.1 Wed Sep 13 16:33:48 2017

Tools Copyright (c) 1996-2012 Texas Instruments Incorporated
C:\Users\a0221074\AppData\Local\Temp\1193610                         PAGE   34

    1594 000037 5000          SFTL AC0, #1 ; |1722| 
    1595 000039 ED6D          MOV dbl(*AR3(#1344)), XAR3
         00003b BF05 
         00003d 40   
    1596              
    1597 000040 2390          MOV AR1, AC0 ; |1722| 
    1598 00003e 900A  ||      MOV AC0, XAR2
    1599              
    1600 000042 4450          SFTS AC0, #1, AC0 ; |1722| 
    1601 000044 A010          MOV mmap(AC0L), AC0 ; |1722| 
         000046 98   
    1602 000047 5000          SFTL AC0, #1 ; |1722| 
    1603 000049 900C          MOV AC0, XAR4
    1604 00004b 14A1          AADD XAR2, XAR3 ; |1722| 
         00004d B0   
    1605 00004e ED00          MOV dbl(*SP(#0)), XAR2
         000050 AF   
    1606 000051 7603          MOV #892, T0 ; |1722| 
         000053 7C48 
    1607 000055 14C1          AADD XAR4, XAR2 ; |1722| 
         000057 A0   
    1608 000058 8061          MOV dbl(*AR3), dbl(*AR2(T0)) ; |1722| 
         00005a 70   
    1609                      .dwpsn  file "C:/Users/a0221074/Desktop/C5000/IBM_Watson_TIdesign_workarea/CSL_bitbucket/c55_csl/c55x
    1610 00005b ED04          MOV dbl(*SP(#2)), XAR3
         00005d BF   
    1611 00005e 2290          MOV AR1, AC0
    1612 000060 4450          SFTS AC0, #1, AC0 ; |1723| 
    1613 000062 4010          ADD #1, AC0 ; |1723| 
    1614 000064 ED6D          MOV dbl(*AR3(#1344)), XAR3
         000066 BF05 
         000068 40   
    1615 000069 A010          MOV mmap(AC0L), AC0 ; |1723| 
         00006b 98   
    1616 00006c 5000          SFTL AC0, #1 ; |1723| 
    1617 00006e 900A          MOV AC0, XAR2
    1618 000070 2290          MOV AR1, AC0 ; |1723| 
    1619 000072 4450          SFTS AC0, #1, AC0 ; |1723| 
    1620              
    1621 000074 14A1          AADD XAR2, XAR3 ; |1723| 
         000076 B0   
    1622 000077 4110  ||      ADD #1, AC0 ; |1723| 
    1623              
    1624 000079 ED00          MOV dbl(*SP(#0)), XAR2
         00007b AF   
    1625 00007c A010          MOV mmap(AC0L), AC0 ; |1723| 
         00007e 98   
    1626 00007f 5000          SFTL AC0, #1 ; |1723| 
    1627 000081 900C          MOV AC0, XAR4
    1628 000083 14C1          AADD XAR4, XAR2 ; |1723| 
         000085 A0   
    1629 000086 8061          MOV dbl(*AR3), dbl(*AR2(T0)) ; |1723| 
         000088 70   
    1630                      .dwpsn  file "C:/Users/a0221074/Desktop/C5000/IBM_Watson_TIdesign_workarea/CSL_bitbucket/c55_csl/c55x
    1631 000089 4219          SUB #1, AR1 ; |1720| 
TMS320C55x Assembler PC v4.4.1 Wed Sep 13 16:33:48 2017

Tools Copyright (c) 1996-2012 Texas Instruments Incorporated
C:\Users\a0221074\AppData\Local\Temp\1193610                         PAGE   35

    1632                      .dwpsn  file "C:/Users/a0221074/Desktop/C5000/IBM_Watson_TIdesign_workarea/CSL_bitbucket/c55_csl/c55x
    1633 00008b 0459          BCC $C$L22,AR1 >= #0 ; |1720| 
         00008d 89   
    1634                                                      ; branchcc occurs ; |1720| 
    1635 00008e       $C$DW$L$_cm_restore_adp$2$E:
    1636                      .dwpsn  file "C:/Users/a0221074/Desktop/C5000/IBM_Watson_TIdesign_workarea/CSL_bitbucket/c55_csl/c55x
    1637 00008e       $C$L23:    
    1638 00008e 4E05          AADD #5, SP
    1639                      .dwcfi  cfa_offset, 1
    1640              $C$DW$136       .dwtag  DW_TAG_TI_branch
    1641                      .dwattr $C$DW$136, DW_AT_low_pc(0x00)
    1642                      .dwattr $C$DW$136, DW_AT_TI_return
    1643 000090 4804          RET
    1644                                                      ; return occurs
    1645              
    1646              $C$DW$137       .dwtag  DW_TAG_TI_loop
    1647                      .dwattr $C$DW$137, DW_AT_name("C:\\Users\\a0221074\\AppData\\Local\\Temp\\1193610:$C$L22:1:1505334826
    1648                      .dwattr $C$DW$137, DW_AT_TI_begin_file("C:/Users/a0221074/Desktop/C5000/IBM_Watson_TIdesign_workarea/
    1649                      .dwattr $C$DW$137, DW_AT_TI_begin_line(0x6b8)
    1650                      .dwattr $C$DW$137, DW_AT_TI_end_line(0x6c0)
    1651              $C$DW$138       .dwtag  DW_TAG_TI_loop_range
    1652                      .dwattr $C$DW$138, DW_AT_low_pc($C$DW$L$_cm_restore_adp$2$B)
    1653                      .dwattr $C$DW$138, DW_AT_high_pc($C$DW$L$_cm_restore_adp$2$E)
    1654                      .dwendtag $C$DW$137
    1655              
    1656                      .dwattr $C$DW$131, DW_AT_TI_end_file("C:/Users/a0221074/Desktop/C5000/IBM_Watson_TIdesign_workarea/CS
    1657                      .dwattr $C$DW$131, DW_AT_TI_end_line(0x6c6)
    1658                      .dwattr $C$DW$131, DW_AT_TI_end_column(0x01)
    1659                      .dwendentry
    1660                      .dwendtag $C$DW$131
    1661              
    1662 000000               .sect   ".text:_cm_load"
    1663                      .clink
    1664                      .global _cm_load
    1665              
    1666              $C$DW$139       .dwtag  DW_TAG_subprogram, DW_AT_name("cm_load")
    1667                      .dwattr $C$DW$139, DW_AT_low_pc(_cm_load)
    1668                      .dwattr $C$DW$139, DW_AT_high_pc(0x00)
    1669                      .dwattr $C$DW$139, DW_AT_TI_symbol_name("_cm_load")
    1670                      .dwattr $C$DW$139, DW_AT_external
    1671                      .dwattr $C$DW$139, DW_AT_TI_begin_file("C:/Users/a0221074/Desktop/C5000/IBM_Watson_TIdesign_workarea/
    1672                      .dwattr $C$DW$139, DW_AT_TI_begin_line(0x6f9)
    1673                      .dwattr $C$DW$139, DW_AT_TI_begin_column(0x1d)
    1674                      .dwattr $C$DW$139, DW_AT_TI_max_frame_size(0x06)
    1675                      .dwpsn  file "C:/Users/a0221074/Desktop/C5000/IBM_Watson_TIdesign_workarea/CSL_bitbucket/c55_csl/c55x
    1676              
    1677                      .dwfde $C$DW$CIE, _cm_load
    1678              $C$DW$140       .dwtag  DW_TAG_formal_parameter, DW_AT_name("gv")
    1679                      .dwattr $C$DW$140, DW_AT_TI_symbol_name("_gv")
    1680                      .dwattr $C$DW$140, DW_AT_type(*$C$DW$T$96)
    1681                      .dwattr $C$DW$140, DW_AT_location[DW_OP_reg17]
    1682              ;*******************************************************************************
    1683              ;* FUNCTION NAME: cm_load                                                      *
    1684              ;*                                                                             *
    1685              ;*   Function Uses Regs : AC0,AC0,T0,AR0,XAR0,AR1,AR2,XAR2,AR3,XAR3,SP,CARRY,  *
TMS320C55x Assembler PC v4.4.1 Wed Sep 13 16:33:48 2017

Tools Copyright (c) 1996-2012 Texas Instruments Incorporated
C:\Users\a0221074\AppData\Local\Temp\1193610                         PAGE   36

    1686              ;*                        M40,SATA,SATD,RDM,FRCT,SMUL                          *
    1687              ;*   Stack Frame        : Compact (No Frame Pointer, w/ debug)                 *
    1688              ;*   Total Frame Size   : 6 words                                              *
    1689              ;*                        (1 return address/alignment)                         *
    1690              ;*                        (5 local values)                                     *
    1691              ;*   Min System Stack   : 1 word                                               *
    1692              ;*******************************************************************************
    1693 000000       _cm_load:
    1694                      .dwcfi  cfa_offset, 1
    1695                      .dwcfi  save_reg_to_mem, 91, -1
    1696 000000 4EFB          AADD #-5, SP
    1697                      .dwcfi  cfa_offset, 6
    1698              $C$DW$141       .dwtag  DW_TAG_variable, DW_AT_name("gv")
    1699                      .dwattr $C$DW$141, DW_AT_TI_symbol_name("_gv")
    1700                      .dwattr $C$DW$141, DW_AT_type(*$C$DW$T$96)
    1701                      .dwattr $C$DW$141, DW_AT_location[DW_OP_bregx 0x24 0]
    1702              $C$DW$142       .dwtag  DW_TAG_variable, DW_AT_name("pconf")
    1703                      .dwattr $C$DW$142, DW_AT_TI_symbol_name("_pconf")
    1704                      .dwattr $C$DW$142, DW_AT_type(*$C$DW$T$91)
    1705                      .dwattr $C$DW$142, DW_AT_location[DW_OP_bregx 0x24 2]
    1706              $C$DW$143       .dwtag  DW_TAG_variable, DW_AT_name("i")
    1707                      .dwattr $C$DW$143, DW_AT_TI_symbol_name("_i")
    1708                      .dwattr $C$DW$143, DW_AT_type(*$C$DW$T$8)
    1709                      .dwattr $C$DW$143, DW_AT_location[DW_OP_bregx 0x24 4]
    1710 000002 EB00          MOV XAR0, dbl(*SP(#0))
         000004 85   
    1711                      .dwpsn  file "C:/Users/a0221074/Desktop/C5000/IBM_Watson_TIdesign_workarea/CSL_bitbucket/c55_csl/c55x
    1712 000005 ED00          MOV dbl(*SP(#0)), XAR3
         000007 BF   
    1713 000008 ED6D          MOV dbl(*AR3(#2014)), XAR3
         00000a BF07 
         00000c DE   
    1714 00000d EB04          MOV XAR3, dbl(*SP(#2))
         00000f B5   
    1715                      .dwpsn  file "C:/Users/a0221074/Desktop/C5000/IBM_Watson_TIdesign_workarea/CSL_bitbucket/c55_csl/c55x
    1716 000010 A931          MOV *(#_CM_UV_ACC), AR1 ; |1791| 
         000012 0000 
         000014 00+  
    1717 000015 C96D          MOV AR1, *AR3(#1329) ; |1791| 
         000017 0531 
    1718                      .dwpsn  file "C:/Users/a0221074/Desktop/C5000/IBM_Watson_TIdesign_workarea/CSL_bitbucket/c55_csl/c55x
    1719 000019 ED04          MOV dbl(*SP(#2)), XAR3
         00001b BF   
    1720 00001c A931          MOV *(#(_CM_UV_ACC+1)), AR1 ; |1792| 
         00001e 0000 
         000020 01+  
    1721 000021 C96D          MOV AR1, *AR3(#1330) ; |1792| 
         000023 0532 
    1722                      .dwpsn  file "C:/Users/a0221074/Desktop/C5000/IBM_Watson_TIdesign_workarea/CSL_bitbucket/c55_csl/c55x
    1723 000025 ED04          MOV dbl(*SP(#2)), XAR3
         000027 BF   
    1724 000028 A931          MOV *(#(_CM_UV_ACC+2)), AR1 ; |1793| 
         00002a 0000 
         00002c 02+  
    1725 00002d C96D          MOV AR1, *AR3(#1331) ; |1793| 
TMS320C55x Assembler PC v4.4.1 Wed Sep 13 16:33:48 2017

Tools Copyright (c) 1996-2012 Texas Instruments Incorporated
C:\Users\a0221074\AppData\Local\Temp\1193610                         PAGE   37

         00002f 0533 
    1726                      .dwpsn  file "C:/Users/a0221074/Desktop/C5000/IBM_Watson_TIdesign_workarea/CSL_bitbucket/c55_csl/c55x
    1727 000031 ED04          MOV dbl(*SP(#2)), XAR3
         000033 BF   
    1728 000034 A931          MOV *(#_CM_UV_REJ), AR1 ; |1795| 
         000036 0000 
         000038 00+  
    1729 000039 C96D          MOV AR1, *AR3(#1332) ; |1795| 
         00003b 0534 
    1730                      .dwpsn  file "C:/Users/a0221074/Desktop/C5000/IBM_Watson_TIdesign_workarea/CSL_bitbucket/c55_csl/c55x
    1731 00003d ED04          MOV dbl(*SP(#2)), XAR3
         00003f BF   
    1732 000040 A931          MOV *(#(_CM_UV_REJ+1)), AR1 ; |1796| 
         000042 0000 
         000044 01+  
    1733 000045 C96D          MOV AR1, *AR3(#1333) ; |1796| 
         000047 0535 
    1734                      .dwpsn  file "C:/Users/a0221074/Desktop/C5000/IBM_Watson_TIdesign_workarea/CSL_bitbucket/c55_csl/c55x
    1735 000049 ED04          MOV dbl(*SP(#2)), XAR3
         00004b BF   
    1736 00004c A931          MOV *(#(_CM_UV_REJ+2)), AR1 ; |1797| 
         00004e 0000 
         000050 02+  
    1737 000051 C96D          MOV AR1, *AR3(#1334) ; |1797| 
         000053 0536 
    1738                      .dwpsn  file "C:/Users/a0221074/Desktop/C5000/IBM_Watson_TIdesign_workarea/CSL_bitbucket/c55_csl/c55x
    1739 000055 E608          MOV #2, *SP(#4) ; |1799| 
         000057 02   
    1740                      .dwpsn  file "C:/Users/a0221074/Desktop/C5000/IBM_Watson_TIdesign_workarea/CSL_bitbucket/c55_csl/c55x
    1741 000058 A908          MOV *SP(#4), AR1 ; |1799| 
    1742 00005a 0429          BCC $C$L25,AR1 < #0 ; |1799| 
         00005c 35   
    1743                                                      ; branchcc occurs ; |1799| 
    1744 00005d       $C$L24:    
    1745 00005d       $C$DW$L$_cm_load$2$B:
    1746                      .dwpsn  file "C:/Users/a0221074/Desktop/C5000/IBM_Watson_TIdesign_workarea/CSL_bitbucket/c55_csl/c55x
    1747 00005d ED04          MOV dbl(*SP(#2)), XAR3
         00005f BF   
    1748 000060 ED6D          MOV dbl(*AR3(#1336)), XAR3
         000062 BF05 
         000064 38   
    1749 000065 2294          MOV AR1, T0 ; |1800| 
    1750 000067 EC31          AMOV #_CM_LOGIST_PARA, XAR2 ; |1800| 
         000069 AE00 
         00006b 0000+
    1751 00006d 1490          AADD AR1, AR3 ; |1800| 
         00006f B0   
    1752 000070 805D          MOV *AR2(T0), *AR3 ; |1800| 
         000072 84   
    1753                      .dwpsn  file "C:/Users/a0221074/Desktop/C5000/IBM_Watson_TIdesign_workarea/CSL_bitbucket/c55_csl/c55x
    1754 000073 ED04          MOV dbl(*SP(#2)), XAR3
         000075 BF   
    1755 000076 A008          MOV *SP(#4), AC0 ; |1801| 
    1756 000078 5000          SFTL AC0, #1 ; |1801| 
    1757 00007a 900A          MOV AC0, XAR2
TMS320C55x Assembler PC v4.4.1 Wed Sep 13 16:33:48 2017

Tools Copyright (c) 1996-2012 Texas Instruments Incorporated
C:\Users\a0221074\AppData\Local\Temp\1193610                         PAGE   38

    1758 00007c ED6D          MOV dbl(*AR3(#1338)), XAR3
         00007e BF05 
         000080 3A   
    1759              
    1760 000081 14A1          AADD XAR2, XAR3 ; |1801| 
         000083 B0   
    1761 000084 3D00  ||      MOV #0, AC0 ; |1801| 
    1762              
    1763 000086 EB61          MOV AC0, dbl(*AR3) ; |1801| 
         000088 08   
    1764                      .dwpsn  file "C:/Users/a0221074/Desktop/C5000/IBM_Watson_TIdesign_workarea/CSL_bitbucket/c55_csl/c55x
    1765 000089 F708          SUB #1, *SP(#4) ; |1799| 
         00008b FFFF 
    1766                      .dwpsn  file "C:/Users/a0221074/Desktop/C5000/IBM_Watson_TIdesign_workarea/CSL_bitbucket/c55_csl/c55x
    1767 00008d A908          MOV *SP(#4), AR1 ; |1799| 
    1768 00008f 0459          BCC $C$L24,AR1 >= #0 ; |1799| 
         000091 CB   
    1769                                                      ; branchcc occurs ; |1799| 
    1770 000092       $C$DW$L$_cm_load$2$E:
    1771                      .dwpsn  file "C:/Users/a0221074/Desktop/C5000/IBM_Watson_TIdesign_workarea/CSL_bitbucket/c55_csl/c55x
    1772 000092       $C$L25:    
    1773 000092 4E05          AADD #5, SP
    1774                      .dwcfi  cfa_offset, 1
    1775              $C$DW$144       .dwtag  DW_TAG_TI_branch
    1776                      .dwattr $C$DW$144, DW_AT_low_pc(0x00)
    1777                      .dwattr $C$DW$144, DW_AT_TI_return
    1778 000094 4804          RET
    1779                                                      ; return occurs
    1780              
    1781              $C$DW$145       .dwtag  DW_TAG_TI_loop
    1782                      .dwattr $C$DW$145, DW_AT_name("C:\\Users\\a0221074\\AppData\\Local\\Temp\\1193610:$C$L24:1:1505334826
    1783                      .dwattr $C$DW$145, DW_AT_TI_begin_file("C:/Users/a0221074/Desktop/C5000/IBM_Watson_TIdesign_workarea/
    1784                      .dwattr $C$DW$145, DW_AT_TI_begin_line(0x707)
    1785                      .dwattr $C$DW$145, DW_AT_TI_end_line(0x70a)
    1786              $C$DW$146       .dwtag  DW_TAG_TI_loop_range
    1787                      .dwattr $C$DW$146, DW_AT_low_pc($C$DW$L$_cm_load$2$B)
    1788                      .dwattr $C$DW$146, DW_AT_high_pc($C$DW$L$_cm_load$2$E)
    1789                      .dwendtag $C$DW$145
    1790              
    1791                      .dwattr $C$DW$139, DW_AT_TI_end_file("C:/Users/a0221074/Desktop/C5000/IBM_Watson_TIdesign_workarea/CS
    1792                      .dwattr $C$DW$139, DW_AT_TI_end_line(0x70c)
    1793                      .dwattr $C$DW$139, DW_AT_TI_end_column(0x01)
    1794                      .dwendentry
    1795                      .dwendtag $C$DW$139
    1796              
    1797 000000               .sect   ".text:_cm_save"
    1798                      .clink
    1799                      .global _cm_save
    1800              
    1801              $C$DW$147       .dwtag  DW_TAG_subprogram, DW_AT_name("cm_save")
    1802                      .dwattr $C$DW$147, DW_AT_low_pc(_cm_save)
    1803                      .dwattr $C$DW$147, DW_AT_high_pc(0x00)
    1804                      .dwattr $C$DW$147, DW_AT_TI_symbol_name("_cm_save")
    1805                      .dwattr $C$DW$147, DW_AT_external
    1806                      .dwattr $C$DW$147, DW_AT_TI_begin_file("C:/Users/a0221074/Desktop/C5000/IBM_Watson_TIdesign_workarea/
TMS320C55x Assembler PC v4.4.1 Wed Sep 13 16:33:48 2017

Tools Copyright (c) 1996-2012 Texas Instruments Incorporated
C:\Users\a0221074\AppData\Local\Temp\1193610                         PAGE   39

    1807                      .dwattr $C$DW$147, DW_AT_TI_begin_line(0x710)
    1808                      .dwattr $C$DW$147, DW_AT_TI_begin_column(0x1d)
    1809                      .dwattr $C$DW$147, DW_AT_TI_max_frame_size(0x08)
    1810                      .dwpsn  file "C:/Users/a0221074/Desktop/C5000/IBM_Watson_TIdesign_workarea/CSL_bitbucket/c55_csl/c55x
    1811              
    1812                      .dwfde $C$DW$CIE, _cm_save
    1813              $C$DW$148       .dwtag  DW_TAG_formal_parameter, DW_AT_name("fp")
    1814                      .dwattr $C$DW$148, DW_AT_TI_symbol_name("_fp")
    1815                      .dwattr $C$DW$148, DW_AT_type(*$C$DW$T$99)
    1816                      .dwattr $C$DW$148, DW_AT_location[DW_OP_reg17]
    1817              $C$DW$149       .dwtag  DW_TAG_formal_parameter, DW_AT_name("gv")
    1818                      .dwattr $C$DW$149, DW_AT_TI_symbol_name("_gv")
    1819                      .dwattr $C$DW$149, DW_AT_type(*$C$DW$T$96)
    1820                      .dwattr $C$DW$149, DW_AT_location[DW_OP_reg19]
    1821              ;*******************************************************************************
    1822              ;* FUNCTION NAME: cm_save                                                      *
    1823              ;*                                                                             *
    1824              ;*   Function Uses Regs : AC0,AC0,AC1,AC1,AR0,XAR0,AR1,XAR1,AR3,XAR3,SP,M40,   *
    1825              ;*                        SATA,SATD,RDM,FRCT,SMUL                              *
    1826              ;*   Stack Frame        : Compact (No Frame Pointer, w/ debug)                 *
    1827              ;*   Total Frame Size   : 8 words                                              *
    1828              ;*                        (2 return address/alignment)                         *
    1829              ;*                        (6 local values)                                     *
    1830              ;*   Min System Stack   : 1 word                                               *
    1831              ;*******************************************************************************
    1832 000000       _cm_save:
    1833                      .dwcfi  cfa_offset, 1
    1834                      .dwcfi  save_reg_to_mem, 91, -1
    1835 000000 4EF9          AADD #-7, SP
    1836                      .dwcfi  cfa_offset, 8
    1837              $C$DW$150       .dwtag  DW_TAG_variable, DW_AT_name("fp")
    1838                      .dwattr $C$DW$150, DW_AT_TI_symbol_name("_fp")
    1839                      .dwattr $C$DW$150, DW_AT_type(*$C$DW$T$99)
    1840                      .dwattr $C$DW$150, DW_AT_location[DW_OP_bregx 0x24 0]
    1841              $C$DW$151       .dwtag  DW_TAG_variable, DW_AT_name("gv")
    1842                      .dwattr $C$DW$151, DW_AT_TI_symbol_name("_gv")
    1843                      .dwattr $C$DW$151, DW_AT_type(*$C$DW$T$96)
    1844                      .dwattr $C$DW$151, DW_AT_location[DW_OP_bregx 0x24 2]
    1845              $C$DW$152       .dwtag  DW_TAG_variable, DW_AT_name("pconf")
    1846                      .dwattr $C$DW$152, DW_AT_TI_symbol_name("_pconf")
    1847                      .dwattr $C$DW$152, DW_AT_type(*$C$DW$T$91)
    1848                      .dwattr $C$DW$152, DW_AT_location[DW_OP_bregx 0x24 4]
    1849 000002 EB04          MOV XAR1, dbl(*SP(#2))
         000004 95   
    1850 000005 EB00          MOV XAR0, dbl(*SP(#0))
         000007 85   
    1851                      .dwpsn  file "C:/Users/a0221074/Desktop/C5000/IBM_Watson_TIdesign_workarea/CSL_bitbucket/c55_csl/c55x
    1852 000008 ED04          MOV dbl(*SP(#2)), XAR3
         00000a BF   
    1853 00000b ED6D          MOV dbl(*AR3(#2014)), XAR3
         00000d BF07 
         00000f DE   
    1854 000010 EB08          MOV XAR3, dbl(*SP(#4))
         000012 B5   
    1855                      .dwpsn  file "C:/Users/a0221074/Desktop/C5000/IBM_Watson_TIdesign_workarea/CSL_bitbucket/c55_csl/c55x
TMS320C55x Assembler PC v4.4.1 Wed Sep 13 16:33:48 2017

Tools Copyright (c) 1996-2012 Texas Instruments Incorporated
C:\Users\a0221074\AppData\Local\Temp\1193610                         PAGE   40

    1856 000013 ED00          MOV dbl(*SP(#0)), XAR3
         000015 BF   
    1857 000016 90B0          MOV XAR3, AC0
    1858 000018 6D00          BCC $C$L26,AC0 == #0 ; |1814| 
         00001a 00A4 
    1859                                                      ; branchcc occurs ; |1814| 
    1860                      .dwpsn  file "C:/Users/a0221074/Desktop/C5000/IBM_Watson_TIdesign_workarea/CSL_bitbucket/c55_csl/c55x
    1861 00001c ED08          MOV dbl(*SP(#4)), XAR0
         00001e 8F   
    1862 00001f ED00          MOV dbl(*SP(#0)), XAR1
         000021 9F   
    1863 000022 3C10          MOV #1, AC0 ; |1815| 
    1864 000024 B40F          AMAR *+AR0(#1329) ; |1815| 
         000026 0531 
    1865              $C$DW$153       .dwtag  DW_TAG_TI_branch
    1866                      .dwattr $C$DW$153, DW_AT_low_pc(0x00)
    1867                      .dwattr $C$DW$153, DW_AT_name("_my_fwrite")
    1868                      .dwattr $C$DW$153, DW_AT_TI_call
    1869              
    1870 000028 6C00          CALL #_my_fwrite ; |1815| 
         00002a 0000!
    1871 00002c 3D11  ||      MOV #1, AC1 ; |1815| 
    1872              
    1873                                                      ; call occurs [#_my_fwrite] ; |1815| 
    1874                      .dwpsn  file "C:/Users/a0221074/Desktop/C5000/IBM_Watson_TIdesign_workarea/CSL_bitbucket/c55_csl/c55x
    1875 00002e ED08          MOV dbl(*SP(#4)), XAR0
         000030 8F   
    1876 000031 3C10          MOV #1, AC0 ; |1816| 
    1877 000033 ED00          MOV dbl(*SP(#0)), XAR1
         000035 9F   
    1878 000036 B40F          AMAR *+AR0(#1330) ; |1816| 
         000038 0532 
    1879              $C$DW$154       .dwtag  DW_TAG_TI_branch
    1880                      .dwattr $C$DW$154, DW_AT_low_pc(0x00)
    1881                      .dwattr $C$DW$154, DW_AT_name("_my_fwrite")
    1882                      .dwattr $C$DW$154, DW_AT_TI_call
    1883              
    1884 00003a 6C00          CALL #_my_fwrite ; |1816| 
         00003c 0000!
    1885 00003e 3D11  ||      MOV #1, AC1 ; |1816| 
    1886              
    1887                                                      ; call occurs [#_my_fwrite] ; |1816| 
    1888                      .dwpsn  file "C:/Users/a0221074/Desktop/C5000/IBM_Watson_TIdesign_workarea/CSL_bitbucket/c55_csl/c55x
    1889 000040 ED08          MOV dbl(*SP(#4)), XAR0
         000042 8F   
    1890 000043 3C10          MOV #1, AC0 ; |1817| 
    1891 000045 ED00          MOV dbl(*SP(#0)), XAR1
         000047 9F   
    1892 000048 B40F          AMAR *+AR0(#1331) ; |1817| 
         00004a 0533 
    1893              $C$DW$155       .dwtag  DW_TAG_TI_branch
    1894                      .dwattr $C$DW$155, DW_AT_low_pc(0x00)
    1895                      .dwattr $C$DW$155, DW_AT_name("_my_fwrite")
    1896                      .dwattr $C$DW$155, DW_AT_TI_call
    1897              
TMS320C55x Assembler PC v4.4.1 Wed Sep 13 16:33:48 2017

Tools Copyright (c) 1996-2012 Texas Instruments Incorporated
C:\Users\a0221074\AppData\Local\Temp\1193610                         PAGE   41

    1898 00004c 6C00          CALL #_my_fwrite ; |1817| 
         00004e 0000!
    1899 000050 3D11  ||      MOV #1, AC1 ; |1817| 
    1900              
    1901                                                      ; call occurs [#_my_fwrite] ; |1817| 
    1902                      .dwpsn  file "C:/Users/a0221074/Desktop/C5000/IBM_Watson_TIdesign_workarea/CSL_bitbucket/c55_csl/c55x
    1903 000052 ED08          MOV dbl(*SP(#4)), XAR0
         000054 8F   
    1904 000055 3C10          MOV #1, AC0 ; |1818| 
    1905 000057 ED00          MOV dbl(*SP(#0)), XAR1
         000059 9F   
    1906 00005a B40F          AMAR *+AR0(#1332) ; |1818| 
         00005c 0534 
    1907              $C$DW$156       .dwtag  DW_TAG_TI_branch
    1908                      .dwattr $C$DW$156, DW_AT_low_pc(0x00)
    1909                      .dwattr $C$DW$156, DW_AT_name("_my_fwrite")
    1910                      .dwattr $C$DW$156, DW_AT_TI_call
    1911              
    1912 00005e 6C00          CALL #_my_fwrite ; |1818| 
         000060 0000!
    1913 000062 3D11  ||      MOV #1, AC1 ; |1818| 
    1914              
    1915                                                      ; call occurs [#_my_fwrite] ; |1818| 
    1916                      .dwpsn  file "C:/Users/a0221074/Desktop/C5000/IBM_Watson_TIdesign_workarea/CSL_bitbucket/c55_csl/c55x
    1917 000064 ED08          MOV dbl(*SP(#4)), XAR0
         000066 8F   
    1918 000067 3C10          MOV #1, AC0 ; |1819| 
    1919 000069 ED00          MOV dbl(*SP(#0)), XAR1
         00006b 9F   
    1920 00006c B40F          AMAR *+AR0(#1333) ; |1819| 
         00006e 0535 
    1921              $C$DW$157       .dwtag  DW_TAG_TI_branch
    1922                      .dwattr $C$DW$157, DW_AT_low_pc(0x00)
    1923                      .dwattr $C$DW$157, DW_AT_name("_my_fwrite")
    1924                      .dwattr $C$DW$157, DW_AT_TI_call
    1925              
    1926 000070 6C00          CALL #_my_fwrite ; |1819| 
         000072 0000!
    1927 000074 3D11  ||      MOV #1, AC1 ; |1819| 
    1928              
    1929                                                      ; call occurs [#_my_fwrite] ; |1819| 
    1930                      .dwpsn  file "C:/Users/a0221074/Desktop/C5000/IBM_Watson_TIdesign_workarea/CSL_bitbucket/c55_csl/c55x
    1931 000076 ED08          MOV dbl(*SP(#4)), XAR0
         000078 8F   
    1932 000079 3C10          MOV #1, AC0 ; |1820| 
    1933 00007b ED00          MOV dbl(*SP(#0)), XAR1
         00007d 9F   
    1934 00007e B40F          AMAR *+AR0(#1334) ; |1820| 
         000080 0536 
    1935              $C$DW$158       .dwtag  DW_TAG_TI_branch
    1936                      .dwattr $C$DW$158, DW_AT_low_pc(0x00)
    1937                      .dwattr $C$DW$158, DW_AT_name("_my_fwrite")
    1938                      .dwattr $C$DW$158, DW_AT_TI_call
    1939              
    1940 000082 6C00          CALL #_my_fwrite ; |1820| 
TMS320C55x Assembler PC v4.4.1 Wed Sep 13 16:33:48 2017

Tools Copyright (c) 1996-2012 Texas Instruments Incorporated
C:\Users\a0221074\AppData\Local\Temp\1193610                         PAGE   42

         000084 0000!
    1941 000086 3D11  ||      MOV #1, AC1 ; |1820| 
    1942              
    1943                                                      ; call occurs [#_my_fwrite] ; |1820| 
    1944                      .dwpsn  file "C:/Users/a0221074/Desktop/C5000/IBM_Watson_TIdesign_workarea/CSL_bitbucket/c55_csl/c55x
    1945 000088 ED08          MOV dbl(*SP(#4)), XAR0
         00008a 8F   
    1946 00008b 3C10          MOV #1, AC0 ; |1821| 
    1947 00008d ED00          MOV dbl(*SP(#0)), XAR1
         00008f 9F   
    1948 000090 B40F          AMAR *+AR0(#1328) ; |1821| 
         000092 0530 
    1949              $C$DW$159       .dwtag  DW_TAG_TI_branch
    1950                      .dwattr $C$DW$159, DW_AT_low_pc(0x00)
    1951                      .dwattr $C$DW$159, DW_AT_name("_my_fwrite")
    1952                      .dwattr $C$DW$159, DW_AT_TI_call
    1953              
    1954 000094 6C00          CALL #_my_fwrite ; |1821| 
         000096 0000!
    1955 000098 3D11  ||      MOV #1, AC1 ; |1821| 
    1956              
    1957                                                      ; call occurs [#_my_fwrite] ; |1821| 
    1958                      .dwpsn  file "C:/Users/a0221074/Desktop/C5000/IBM_Watson_TIdesign_workarea/CSL_bitbucket/c55_csl/c55x
    1959 00009a ED08          MOV dbl(*SP(#4)), XAR3
         00009c BF   
    1960 00009d 3C10          MOV #1, AC0 ; |1822| 
    1961 00009f ED00          MOV dbl(*SP(#0)), XAR1
         0000a1 9F   
    1962 0000a2 ED6D          MOV dbl(*AR3(#1336)), XAR0
         0000a4 8F05 
         0000a6 38   
    1963              $C$DW$160       .dwtag  DW_TAG_TI_branch
    1964                      .dwattr $C$DW$160, DW_AT_low_pc(0x00)
    1965                      .dwattr $C$DW$160, DW_AT_name("_my_fwrite")
    1966                      .dwattr $C$DW$160, DW_AT_TI_call
    1967              
    1968 0000a7 6C00          CALL #_my_fwrite ; |1822| 
         0000a9 0000!
    1969 0000ab 3D31  ||      MOV #3, AC1 ; |1822| 
    1970              
    1971                                                      ; call occurs [#_my_fwrite] ; |1822| 
    1972                      .dwpsn  file "C:/Users/a0221074/Desktop/C5000/IBM_Watson_TIdesign_workarea/CSL_bitbucket/c55_csl/c55x
    1973 0000ad ED08          MOV dbl(*SP(#4)), XAR3
         0000af BF   
    1974              
    1975 0000b0 3C20          MOV #2, AC0 ; |1823| 
    1976 0000b2 3D31  ||      MOV #3, AC1 ; |1823| 
    1977              
    1978 0000b4 ED00          MOV dbl(*SP(#0)), XAR1
         0000b6 9F   
    1979 0000b7 ED6D          MOV dbl(*AR3(#1338)), XAR0
         0000b9 8F05 
         0000bb 3A   
    1980              $C$DW$161       .dwtag  DW_TAG_TI_branch
    1981                      .dwattr $C$DW$161, DW_AT_low_pc(0x00)
TMS320C55x Assembler PC v4.4.1 Wed Sep 13 16:33:48 2017

Tools Copyright (c) 1996-2012 Texas Instruments Incorporated
C:\Users\a0221074\AppData\Local\Temp\1193610                         PAGE   43

    1982                      .dwattr $C$DW$161, DW_AT_name("_my_fwrite")
    1983                      .dwattr $C$DW$161, DW_AT_TI_call
    1984 0000bc 6C00          CALL #_my_fwrite ; |1823| 
         0000be 0000!
    1985                                                      ; call occurs [#_my_fwrite] ; |1823| 
    1986                      .dwpsn  file "C:/Users/a0221074/Desktop/C5000/IBM_Watson_TIdesign_workarea/CSL_bitbucket/c55_csl/c55x
    1987 0000c0       $C$L26:    
    1988 0000c0 4E07          AADD #7, SP
    1989                      .dwcfi  cfa_offset, 1
    1990              $C$DW$162       .dwtag  DW_TAG_TI_branch
    1991                      .dwattr $C$DW$162, DW_AT_low_pc(0x00)
    1992                      .dwattr $C$DW$162, DW_AT_TI_return
    1993 0000c2 4804          RET
    1994                                                      ; return occurs
    1995                      .dwattr $C$DW$147, DW_AT_TI_end_file("C:/Users/a0221074/Desktop/C5000/IBM_Watson_TIdesign_workarea/CS
    1996                      .dwattr $C$DW$147, DW_AT_TI_end_line(0x723)
    1997                      .dwattr $C$DW$147, DW_AT_TI_end_column(0x01)
    1998                      .dwendentry
    1999                      .dwendtag $C$DW$147
    2000              
    2001 000000               .sect   ".text:_cm_init"
    2002                      .clink
    2003                      .global _cm_init
    2004              
    2005              $C$DW$163       .dwtag  DW_TAG_subprogram, DW_AT_name("cm_init")
    2006                      .dwattr $C$DW$163, DW_AT_low_pc(_cm_init)
    2007                      .dwattr $C$DW$163, DW_AT_high_pc(0x00)
    2008                      .dwattr $C$DW$163, DW_AT_TI_symbol_name("_cm_init")
    2009                      .dwattr $C$DW$163, DW_AT_external
    2010                      .dwattr $C$DW$163, DW_AT_TI_begin_file("C:/Users/a0221074/Desktop/C5000/IBM_Watson_TIdesign_workarea/
    2011                      .dwattr $C$DW$163, DW_AT_TI_begin_line(0x725)
    2012                      .dwattr $C$DW$163, DW_AT_TI_begin_column(0x06)
    2013                      .dwattr $C$DW$163, DW_AT_TI_max_frame_size(0x08)
    2014                      .dwpsn  file "C:/Users/a0221074/Desktop/C5000/IBM_Watson_TIdesign_workarea/CSL_bitbucket/c55_csl/c55x
    2015              
    2016                      .dwfde $C$DW$CIE, _cm_init
    2017              $C$DW$164       .dwtag  DW_TAG_formal_parameter, DW_AT_name("gv")
    2018                      .dwattr $C$DW$164, DW_AT_TI_symbol_name("_gv")
    2019                      .dwattr $C$DW$164, DW_AT_type(*$C$DW$T$96)
    2020                      .dwattr $C$DW$164, DW_AT_location[DW_OP_reg17]
    2021              ;*******************************************************************************
    2022              ;* FUNCTION NAME: cm_init                                                      *
    2023              ;*                                                                             *
    2024              ;*   Function Uses Regs : AC0,AC0,T0,AR0,XAR0,AR1,AR3,XAR3,SP,CARRY,M40,SATA,  *
    2025              ;*                        SATD,RDM,FRCT,SMUL                                   *
    2026              ;*   Stack Frame        : Compact (No Frame Pointer, w/ debug)                 *
    2027              ;*   Total Frame Size   : 8 words                                              *
    2028              ;*                        (2 return address/alignment)                         *
    2029              ;*                        (6 local values)                                     *
    2030              ;*   Min System Stack   : 1 word                                               *
    2031              ;*******************************************************************************
    2032 000000       _cm_init:
    2033                      .dwcfi  cfa_offset, 1
    2034                      .dwcfi  save_reg_to_mem, 91, -1
    2035 000000 4EF9          AADD #-7, SP
TMS320C55x Assembler PC v4.4.1 Wed Sep 13 16:33:48 2017

Tools Copyright (c) 1996-2012 Texas Instruments Incorporated
C:\Users\a0221074\AppData\Local\Temp\1193610                         PAGE   44

    2036                      .dwcfi  cfa_offset, 8
    2037              $C$DW$165       .dwtag  DW_TAG_variable, DW_AT_name("gv")
    2038                      .dwattr $C$DW$165, DW_AT_TI_symbol_name("_gv")
    2039                      .dwattr $C$DW$165, DW_AT_type(*$C$DW$T$96)
    2040                      .dwattr $C$DW$165, DW_AT_location[DW_OP_bregx 0x24 0]
    2041              $C$DW$166       .dwtag  DW_TAG_variable, DW_AT_name("i")
    2042                      .dwattr $C$DW$166, DW_AT_TI_symbol_name("_i")
    2043                      .dwattr $C$DW$166, DW_AT_type(*$C$DW$T$8)
    2044                      .dwattr $C$DW$166, DW_AT_location[DW_OP_bregx 0x24 2]
    2045              $C$DW$167       .dwtag  DW_TAG_variable, DW_AT_name("pconf")
    2046                      .dwattr $C$DW$167, DW_AT_TI_symbol_name("_pconf")
    2047                      .dwattr $C$DW$167, DW_AT_type(*$C$DW$T$91)
    2048                      .dwattr $C$DW$167, DW_AT_location[DW_OP_bregx 0x24 4]
    2049 000002 EB00          MOV XAR0, dbl(*SP(#0))
         000004 85   
    2050                      .dwpsn  file "C:/Users/a0221074/Desktop/C5000/IBM_Watson_TIdesign_workarea/CSL_bitbucket/c55_csl/c55x
    2051 000005 ED00          MOV dbl(*SP(#0)), XAR3
         000007 BF   
    2052 000008 ED6D          MOV dbl(*AR3(#2014)), XAR3
         00000a BF07 
         00000c DE   
    2053 00000d EB08          MOV XAR3, dbl(*SP(#4))
         00000f B5   
    2054                      .dwpsn  file "C:/Users/a0221074/Desktop/C5000/IBM_Watson_TIdesign_workarea/CSL_bitbucket/c55_csl/c55x
    2055 000010 E66D          MOV #0, *AR3(#1340) ; |1834| 
         000012 0005 
         000014 3C   
    2056                      .dwpsn  file "C:/Users/a0221074/Desktop/C5000/IBM_Watson_TIdesign_workarea/CSL_bitbucket/c55_csl/c55x
    2057 000015 ED08          MOV dbl(*SP(#4)), XAR3
         000017 BF   
    2058 000018 E66D          MOV #1, *AR3(#1310) ; |1836| 
         00001a 0105 
         00001c 1E   
    2059                      .dwpsn  file "C:/Users/a0221074/Desktop/C5000/IBM_Watson_TIdesign_workarea/CSL_bitbucket/c55_csl/c55x
    2060 00001d FB04          MOV #499, *SP(#2) ; |1837| 
         00001f 01F3 
    2061                      .dwpsn  file "C:/Users/a0221074/Desktop/C5000/IBM_Watson_TIdesign_workarea/CSL_bitbucket/c55_csl/c55x
    2062 000021 A904          MOV *SP(#2), AR1 ; |1837| 
    2063 000023 0429          BCC $C$L28,AR1 < #0 ; |1837| 
         000025 17   
    2064                                                      ; branchcc occurs ; |1837| 
    2065 000026       $C$L27:    
    2066 000026       $C$DW$L$_cm_init$2$B:
    2067                      .dwpsn  file "C:/Users/a0221074/Desktop/C5000/IBM_Watson_TIdesign_workarea/CSL_bitbucket/c55_csl/c55x
    2068 000026 ED08          MOV dbl(*SP(#4)), XAR3
         000028 BF   
    2069 000029 2294          MOV AR1, T0
    2070 00002b ED6D          MOV dbl(*AR3(#1312)), XAR3
         00002d BF05 
         00002f 20   
    2071 000030 FB6B          MOV #-32767, *AR3(T0) ; |1838| 
         000032 8001 
    2072                      .dwpsn  file "C:/Users/a0221074/Desktop/C5000/IBM_Watson_TIdesign_workarea/CSL_bitbucket/c55_csl/c55x
    2073 000034 F704          SUB #1, *SP(#2) ; |1837| 
         000036 FFFF 
TMS320C55x Assembler PC v4.4.1 Wed Sep 13 16:33:48 2017

Tools Copyright (c) 1996-2012 Texas Instruments Incorporated
C:\Users\a0221074\AppData\Local\Temp\1193610                         PAGE   45

    2074                      .dwpsn  file "C:/Users/a0221074/Desktop/C5000/IBM_Watson_TIdesign_workarea/CSL_bitbucket/c55_csl/c55x
    2075 000038 A904          MOV *SP(#2), AR1 ; |1837| 
    2076 00003a 0459          BCC $C$L27,AR1 >= #0 ; |1837| 
         00003c E9   
    2077                                                      ; branchcc occurs ; |1837| 
    2078 00003d       $C$DW$L$_cm_init$2$E:
    2079 00003d       $C$L28:    
    2080                      .dwpsn  file "C:/Users/a0221074/Desktop/C5000/IBM_Watson_TIdesign_workarea/CSL_bitbucket/c55_csl/c55x
    2081 00003d ED08          MOV dbl(*SP(#4)), XAR3
         00003f BF   
    2082 000040 E66D          MOV #0, *AR3(#1307) ; |1840| 
         000042 0005 
         000044 1B   
    2083                      .dwpsn  file "C:/Users/a0221074/Desktop/C5000/IBM_Watson_TIdesign_workarea/CSL_bitbucket/c55_csl/c55x
    2084 000045 ED08          MOV dbl(*SP(#4)), XAR3
         000047 BF   
    2085 000048 3C00          MOV #0, AC0 ; |1842| 
    2086 00004a EB6D          MOV AC0, dbl(*AR3(#1316)) ; |1842| 
         00004c 0805 
         00004e 24   
    2087                      .dwpsn  file "C:/Users/a0221074/Desktop/C5000/IBM_Watson_TIdesign_workarea/CSL_bitbucket/c55_csl/c55x
    2088 00004f ED08          MOV dbl(*SP(#4)), XAR3
         000051 BF   
    2089 000052 EB6D          MOV AC0, dbl(*AR3(#1314)) ; |1843| 
         000054 0805 
         000056 22   
    2090                      .dwpsn  file "C:/Users/a0221074/Desktop/C5000/IBM_Watson_TIdesign_workarea/CSL_bitbucket/c55_csl/c55x
    2091 000057 ED08          MOV dbl(*SP(#4)), XAR3
         000059 BF   
    2092 00005a EB6D          MOV AC0, dbl(*AR3(#1322)) ; |1845| 
         00005c 0805 
         00005e 2A   
    2093                      .dwpsn  file "C:/Users/a0221074/Desktop/C5000/IBM_Watson_TIdesign_workarea/CSL_bitbucket/c55_csl/c55x
    2094 00005f ED08          MOV dbl(*SP(#4)), XAR3
         000061 BF   
    2095 000062 EB6D          MOV AC0, dbl(*AR3(#1324)) ; |1846| 
         000064 0805 
         000066 2C   
    2096                      .dwpsn  file "C:/Users/a0221074/Desktop/C5000/IBM_Watson_TIdesign_workarea/CSL_bitbucket/c55_csl/c55x
    2097 000067 ED08          MOV dbl(*SP(#4)), XAR3
         000069 BF   
    2098 00006a EB6D          MOV AC0, dbl(*AR3(#1326)) ; |1847| 
         00006c 0805 
         00006e 2E   
    2099                      .dwpsn  file "C:/Users/a0221074/Desktop/C5000/IBM_Watson_TIdesign_workarea/CSL_bitbucket/c55_csl/c55x
    2100 00006f ED08          MOV dbl(*SP(#4)), XAR3
         000071 BF   
    2101 000072 E66D          MOV #0, *AR3(#1319) ; |1848| 
         000074 0005 
         000076 27   
    2102                      .dwpsn  file "C:/Users/a0221074/Desktop/C5000/IBM_Watson_TIdesign_workarea/CSL_bitbucket/c55_csl/c55x
    2103 000077 ED08          MOV dbl(*SP(#4)), XAR3
         000079 BF   
    2104 00007a E66D          MOV #0, *AR3(#1320) ; |1849| 
         00007c 0005 
TMS320C55x Assembler PC v4.4.1 Wed Sep 13 16:33:48 2017

Tools Copyright (c) 1996-2012 Texas Instruments Incorporated
C:\Users\a0221074\AppData\Local\Temp\1193610                         PAGE   46

         00007e 28   
    2105                      .dwpsn  file "C:/Users/a0221074/Desktop/C5000/IBM_Watson_TIdesign_workarea/CSL_bitbucket/c55_csl/c55x
    2106 00007f ED00          MOV dbl(*SP(#0)), XAR3
         000081 BF   
    2107 000082 E66D          MOV #0, *AR3(#2012) ; |1851| 
         000084 0007 
         000086 DC   
    2108                      .dwpsn  file "C:/Users/a0221074/Desktop/C5000/IBM_Watson_TIdesign_workarea/CSL_bitbucket/c55_csl/c55x
    2109 000087 4E07          AADD #7, SP
    2110                      .dwcfi  cfa_offset, 1
    2111              $C$DW$168       .dwtag  DW_TAG_TI_branch
    2112                      .dwattr $C$DW$168, DW_AT_low_pc(0x00)
    2113                      .dwattr $C$DW$168, DW_AT_TI_return
    2114 000089 4804          RET
    2115                                                      ; return occurs
    2116              
    2117              $C$DW$169       .dwtag  DW_TAG_TI_loop
    2118                      .dwattr $C$DW$169, DW_AT_name("C:\\Users\\a0221074\\AppData\\Local\\Temp\\1193610:$C$L27:1:1505334826
    2119                      .dwattr $C$DW$169, DW_AT_TI_begin_file("C:/Users/a0221074/Desktop/C5000/IBM_Watson_TIdesign_workarea/
    2120                      .dwattr $C$DW$169, DW_AT_TI_begin_line(0x72d)
    2121                      .dwattr $C$DW$169, DW_AT_TI_end_line(0x72e)
    2122              $C$DW$170       .dwtag  DW_TAG_TI_loop_range
    2123                      .dwattr $C$DW$170, DW_AT_low_pc($C$DW$L$_cm_init$2$B)
    2124                      .dwattr $C$DW$170, DW_AT_high_pc($C$DW$L$_cm_init$2$E)
    2125                      .dwendtag $C$DW$169
    2126              
    2127                      .dwattr $C$DW$163, DW_AT_TI_end_file("C:/Users/a0221074/Desktop/C5000/IBM_Watson_TIdesign_workarea/CS
    2128                      .dwattr $C$DW$163, DW_AT_TI_end_line(0x73d)
    2129                      .dwattr $C$DW$163, DW_AT_TI_end_column(0x01)
    2130                      .dwendentry
    2131                      .dwendtag $C$DW$163
    2132              
    2133 000000               .sect   ".text:_cm_close"
    2134                      .clink
    2135                      .global _cm_close
    2136              
    2137              $C$DW$171       .dwtag  DW_TAG_subprogram, DW_AT_name("cm_close")
    2138                      .dwattr $C$DW$171, DW_AT_low_pc(_cm_close)
    2139                      .dwattr $C$DW$171, DW_AT_high_pc(0x00)
    2140                      .dwattr $C$DW$171, DW_AT_TI_symbol_name("_cm_close")
    2141                      .dwattr $C$DW$171, DW_AT_external
    2142                      .dwattr $C$DW$171, DW_AT_TI_begin_file("C:/Users/a0221074/Desktop/C5000/IBM_Watson_TIdesign_workarea/
    2143                      .dwattr $C$DW$171, DW_AT_TI_begin_line(0x73f)
    2144                      .dwattr $C$DW$171, DW_AT_TI_begin_column(0x1d)
    2145                      .dwattr $C$DW$171, DW_AT_TI_max_frame_size(0x04)
    2146                      .dwpsn  file "C:/Users/a0221074/Desktop/C5000/IBM_Watson_TIdesign_workarea/CSL_bitbucket/c55_csl/c55x
    2147              
    2148                      .dwfde $C$DW$CIE, _cm_close
    2149              $C$DW$172       .dwtag  DW_TAG_formal_parameter, DW_AT_name("gv")
    2150                      .dwattr $C$DW$172, DW_AT_TI_symbol_name("_gv")
    2151                      .dwattr $C$DW$172, DW_AT_type(*$C$DW$T$96)
    2152                      .dwattr $C$DW$172, DW_AT_location[DW_OP_reg17]
    2153              ;*******************************************************************************
    2154              ;* FUNCTION NAME: cm_close                                                     *
    2155              ;*                                                                             *
TMS320C55x Assembler PC v4.4.1 Wed Sep 13 16:33:48 2017

Tools Copyright (c) 1996-2012 Texas Instruments Incorporated
C:\Users\a0221074\AppData\Local\Temp\1193610                         PAGE   47

    2156              ;*   Function Uses Regs : AR0,XAR0,SP,M40,SATA,SATD,RDM,FRCT,SMUL              *
    2157              ;*   Stack Frame        : Compact (No Frame Pointer, w/ debug)                 *
    2158              ;*   Total Frame Size   : 4 words                                              *
    2159              ;*                        (2 return address/alignment)                         *
    2160              ;*                        (2 local values)                                     *
    2161              ;*   Min System Stack   : 1 word                                               *
    2162              ;*******************************************************************************
    2163 000000       _cm_close:
    2164                      .dwcfi  cfa_offset, 1
    2165                      .dwcfi  save_reg_to_mem, 91, -1
    2166 000000 4EFD          AADD #-3, SP
    2167                      .dwcfi  cfa_offset, 4
    2168              $C$DW$173       .dwtag  DW_TAG_variable, DW_AT_name("gv")
    2169                      .dwattr $C$DW$173, DW_AT_TI_symbol_name("_gv")
    2170                      .dwattr $C$DW$173, DW_AT_type(*$C$DW$T$96)
    2171                      .dwattr $C$DW$173, DW_AT_location[DW_OP_bregx 0x24 0]
    2172 000002 EB00          MOV XAR0, dbl(*SP(#0))
         000004 85   
    2173                      .dwpsn  file "C:/Users/a0221074/Desktop/C5000/IBM_Watson_TIdesign_workarea/CSL_bitbucket/c55_csl/c55x
    2174 000005 4E03          AADD #3, SP
    2175                      .dwcfi  cfa_offset, 1
    2176              $C$DW$174       .dwtag  DW_TAG_TI_branch
    2177                      .dwattr $C$DW$174, DW_AT_low_pc(0x00)
    2178                      .dwattr $C$DW$174, DW_AT_TI_return
    2179 000007 4804          RET
    2180                                                      ; return occurs
    2181                      .dwattr $C$DW$171, DW_AT_TI_end_file("C:/Users/a0221074/Desktop/C5000/IBM_Watson_TIdesign_workarea/CS
    2182                      .dwattr $C$DW$171, DW_AT_TI_end_line(0x741)
    2183                      .dwattr $C$DW$171, DW_AT_TI_end_column(0x01)
    2184                      .dwendentry
    2185                      .dwendtag $C$DW$171
    2186              
    2187 000000               .sect   ".text:_cm_acc_seg_ratio_to_antimodel"
    2188                      .clink
    2189                      .global _cm_acc_seg_ratio_to_antimodel
    2190              
    2191              $C$DW$175       .dwtag  DW_TAG_subprogram, DW_AT_name("cm_acc_seg_ratio_to_antimodel")
    2192                      .dwattr $C$DW$175, DW_AT_low_pc(_cm_acc_seg_ratio_to_antimodel)
    2193                      .dwattr $C$DW$175, DW_AT_high_pc(0x00)
    2194                      .dwattr $C$DW$175, DW_AT_TI_symbol_name("_cm_acc_seg_ratio_to_antimodel")
    2195                      .dwattr $C$DW$175, DW_AT_external
    2196                      .dwattr $C$DW$175, DW_AT_TI_begin_file("C:/Users/a0221074/Desktop/C5000/IBM_Watson_TIdesign_workarea/
    2197                      .dwattr $C$DW$175, DW_AT_TI_begin_line(0x743)
    2198                      .dwattr $C$DW$175, DW_AT_TI_begin_column(0x1d)
    2199                      .dwattr $C$DW$175, DW_AT_TI_max_frame_size(0x30)
    2200                      .dwpsn  file "C:/Users/a0221074/Desktop/C5000/IBM_Watson_TIdesign_workarea/CSL_bitbucket/c55_csl/c55x
    2201              
    2202                      .dwfde $C$DW$CIE, _cm_acc_seg_ratio_to_antimodel
    2203              $C$DW$176       .dwtag  DW_TAG_formal_parameter, DW_AT_name("gv")
    2204                      .dwattr $C$DW$176, DW_AT_TI_symbol_name("_gv")
    2205                      .dwattr $C$DW$176, DW_AT_type(*$C$DW$T$96)
    2206                      .dwattr $C$DW$176, DW_AT_location[DW_OP_reg17]
    2207              $C$DW$177       .dwtag  DW_TAG_formal_parameter, DW_AT_name("hmm_code")
    2208                      .dwattr $C$DW$177, DW_AT_TI_symbol_name("_hmm_code")
    2209                      .dwattr $C$DW$177, DW_AT_type(*$C$DW$T$22)
TMS320C55x Assembler PC v4.4.1 Wed Sep 13 16:33:48 2017

Tools Copyright (c) 1996-2012 Texas Instruments Incorporated
C:\Users\a0221074\AppData\Local\Temp\1193610                         PAGE   48

    2210                      .dwattr $C$DW$177, DW_AT_location[DW_OP_reg12]
    2211              $C$DW$178       .dwtag  DW_TAG_formal_parameter, DW_AT_name("stt")
    2212                      .dwattr $C$DW$178, DW_AT_TI_symbol_name("_stt")
    2213                      .dwattr $C$DW$178, DW_AT_type(*$C$DW$T$8)
    2214                      .dwattr $C$DW$178, DW_AT_location[DW_OP_reg13]
    2215              $C$DW$179       .dwtag  DW_TAG_formal_parameter, DW_AT_name("stp")
    2216                      .dwattr $C$DW$179, DW_AT_TI_symbol_name("_stp")
    2217                      .dwattr $C$DW$179, DW_AT_type(*$C$DW$T$8)
    2218                      .dwattr $C$DW$179, DW_AT_location[DW_OP_reg18]
    2219              $C$DW$180       .dwtag  DW_TAG_formal_parameter, DW_AT_name("scaling")
    2220                      .dwattr $C$DW$180, DW_AT_TI_symbol_name("_scaling")
    2221                      .dwattr $C$DW$180, DW_AT_type(*$C$DW$T$12)
    2222                      .dwattr $C$DW$180, DW_AT_location[DW_OP_reg0]
    2223              ;*******************************************************************************
    2224              ;* FUNCTION NAME: cm_acc_seg_ratio_to_antimodel                                *
    2225              ;*                                                                             *
    2226              ;*   Function Uses Regs : AC0,AC0,T0,T1,AR0,XAR0,AR1,XAR1,AR2,XAR2,AR3,XAR3,SP,*
    2227              ;*                        CARRY,TC1,M40,SATA,SATD,RDM,FRCT,SMUL                *
    2228              ;*   Stack Frame        : Compact (No Frame Pointer, w/ debug)                 *
    2229              ;*   Total Frame Size   : 48 words                                             *
    2230              ;*                        (1 return address/alignment)                         *
    2231              ;*                        (47 local values)                                    *
    2232              ;*   Min System Stack   : 1 word                                               *
    2233              ;*******************************************************************************
    2234 000000       _cm_acc_seg_ratio_to_antimodel:
    2235                      .dwcfi  cfa_offset, 1
    2236                      .dwcfi  save_reg_to_mem, 91, -1
    2237 000000 4ED1          AADD #-47, SP
    2238                      .dwcfi  cfa_offset, 48
    2239              $C$DW$181       .dwtag  DW_TAG_variable, DW_AT_name("gv")
    2240                      .dwattr $C$DW$181, DW_AT_TI_symbol_name("_gv")
    2241                      .dwattr $C$DW$181, DW_AT_type(*$C$DW$T$96)
    2242                      .dwattr $C$DW$181, DW_AT_location[DW_OP_bregx 0x24 0]
    2243              $C$DW$182       .dwtag  DW_TAG_variable, DW_AT_name("hmm_code")
    2244                      .dwattr $C$DW$182, DW_AT_TI_symbol_name("_hmm_code")
    2245                      .dwattr $C$DW$182, DW_AT_type(*$C$DW$T$22)
    2246                      .dwattr $C$DW$182, DW_AT_location[DW_OP_bregx 0x24 2]
    2247              $C$DW$183       .dwtag  DW_TAG_variable, DW_AT_name("stt")
    2248                      .dwattr $C$DW$183, DW_AT_TI_symbol_name("_stt")
    2249                      .dwattr $C$DW$183, DW_AT_type(*$C$DW$T$8)
    2250                      .dwattr $C$DW$183, DW_AT_location[DW_OP_bregx 0x24 3]
    2251              $C$DW$184       .dwtag  DW_TAG_variable, DW_AT_name("stp")
    2252                      .dwattr $C$DW$184, DW_AT_TI_symbol_name("_stp")
    2253                      .dwattr $C$DW$184, DW_AT_type(*$C$DW$T$8)
    2254                      .dwattr $C$DW$184, DW_AT_location[DW_OP_bregx 0x24 4]
    2255              $C$DW$185       .dwtag  DW_TAG_variable, DW_AT_name("scaling")
    2256                      .dwattr $C$DW$185, DW_AT_TI_symbol_name("_scaling")
    2257                      .dwattr $C$DW$185, DW_AT_type(*$C$DW$T$12)
    2258                      .dwattr $C$DW$185, DW_AT_location[DW_OP_bregx 0x24 6]
    2259              $C$DW$186       .dwtag  DW_TAG_variable, DW_AT_name("crt_vec")
    2260                      .dwattr $C$DW$186, DW_AT_TI_symbol_name("_crt_vec")
    2261                      .dwattr $C$DW$186, DW_AT_type(*$C$DW$T$22)
    2262                      .dwattr $C$DW$186, DW_AT_location[DW_OP_bregx 0x24 8]
    2263              $C$DW$187       .dwtag  DW_TAG_variable, DW_AT_name("i")
    2264                      .dwattr $C$DW$187, DW_AT_TI_symbol_name("_i")
TMS320C55x Assembler PC v4.4.1 Wed Sep 13 16:33:48 2017

Tools Copyright (c) 1996-2012 Texas Instruments Incorporated
C:\Users\a0221074\AppData\Local\Temp\1193610                         PAGE   49

    2265                      .dwattr $C$DW$187, DW_AT_type(*$C$DW$T$8)
    2266                      .dwattr $C$DW$187, DW_AT_location[DW_OP_bregx 0x24 9]
    2267              $C$DW$188       .dwtag  DW_TAG_variable, DW_AT_name("j")
    2268                      .dwattr $C$DW$188, DW_AT_TI_symbol_name("_j")
    2269                      .dwattr $C$DW$188, DW_AT_type(*$C$DW$T$8)
    2270                      .dwattr $C$DW$188, DW_AT_location[DW_OP_bregx 0x24 10]
    2271              $C$DW$189       .dwtag  DW_TAG_variable, DW_AT_name("seg_len")
    2272                      .dwattr $C$DW$189, DW_AT_TI_symbol_name("_seg_len")
    2273                      .dwattr $C$DW$189, DW_AT_type(*$C$DW$T$8)
    2274                      .dwattr $C$DW$189, DW_AT_location[DW_OP_bregx 0x24 11]
    2275              $C$DW$190       .dwtag  DW_TAG_variable, DW_AT_name("pConf")
    2276                      .dwattr $C$DW$190, DW_AT_TI_symbol_name("_pConf")
    2277                      .dwattr $C$DW$190, DW_AT_type(*$C$DW$T$91)
    2278                      .dwattr $C$DW$190, DW_AT_location[DW_OP_bregx 0x24 12]
    2279              $C$DW$191       .dwtag  DW_TAG_variable, DW_AT_name("mfcc_feature")
    2280                      .dwattr $C$DW$191, DW_AT_TI_symbol_name("_mfcc_feature")
    2281                      .dwattr $C$DW$191, DW_AT_type(*$C$DW$T$80)
    2282                      .dwattr $C$DW$191, DW_AT_location[DW_OP_bregx 0x24 14]
    2283              $C$DW$192       .dwtag  DW_TAG_variable, DW_AT_name("feat_size")
    2284                      .dwattr $C$DW$192, DW_AT_TI_symbol_name("_feat_size")
    2285                      .dwattr $C$DW$192, DW_AT_type(*$C$DW$T$10)
    2286                      .dwattr $C$DW$192, DW_AT_location[DW_OP_bregx 0x24 46]
    2287 000002 EB0C          MOV AC0, dbl(*SP(#6)) ; |1862| 
         000004 08   
    2288 000005 C908          MOV AR1, *SP(#4) ; |1862| 
    2289 000007 C506          MOV T1, *SP(#3) ; |1862| 
    2290 000009 C404          MOV T0, *SP(#2) ; |1862| 
    2291 00000b EB00          MOV XAR0, dbl(*SP(#0))
         00000d 85   
    2292                      .dwpsn  file "C:/Users/a0221074/Desktop/C5000/IBM_Watson_TIdesign_workarea/CSL_bitbucket/c55_csl/c55x
    2293 00000e A906          MOV *SP(#3), AR1 ; |1865| 
    2294 000010 D808          SUB AR1, *SP(#4), AR1 ; |1865| 
         000012 99   
    2295 000013 C916          MOV AR1, *SP(#11) ; |1865| 
    2296                      .dwpsn  file "C:/Users/a0221074/Desktop/C5000/IBM_Watson_TIdesign_workarea/CSL_bitbucket/c55_csl/c55x
    2297 000015 ED00          MOV dbl(*SP(#0)), XAR3
         000017 BF   
    2298 000018 ED6D          MOV dbl(*AR3(#2014)), XAR3
         00001a BF07 
         00001c DE   
    2299 00001d EB18          MOV XAR3, dbl(*SP(#12))
         00001f B5   
    2300                      .dwpsn  file "C:/Users/a0221074/Desktop/C5000/IBM_Watson_TIdesign_workarea/CSL_bitbucket/c55_csl/c55x
    2301 000020 ED00          MOV dbl(*SP(#0)), XAR3
         000022 BF   
    2302 000023 A96D          MOV *AR3(#277), AR1 ; |1870| 
         000025 0115 
    2303 000027 C95C          MOV AR1, *SP(#46) ; |1870| 
    2304                      .dwpsn  file "C:/Users/a0221074/Desktop/C5000/IBM_Watson_TIdesign_workarea/CSL_bitbucket/c55_csl/c55x
    2305              
    2306 000029 E614          MOV #0, *SP(#10) ; |1877| 
         00002b 00   
    2307 00002c 2395  ||      MOV AR1, T1 ; |1877| 
    2308              
    2309 00002e D306          MPYM *SP(#3), T1, AC0 ; |1877| 
TMS320C55x Assembler PC v4.4.1 Wed Sep 13 16:33:48 2017

Tools Copyright (c) 1996-2012 Texas Instruments Incorporated
C:\Users\a0221074\AppData\Local\Temp\1193610                         PAGE   50

         000030 05   
    2310 000031 C010          MOV AC0, *SP(#8) ; |1877| 
    2311                      .dwpsn  file "C:/Users/a0221074/Desktop/C5000/IBM_Watson_TIdesign_workarea/CSL_bitbucket/c55_csl/c55x
    2312 000033 AA14          MOV *SP(#10), AR2 ; |1877| 
    2313 000035 A916          MOV *SP(#11), AR1 ; |1877| 
    2314 000037 12A8          CMP AR2 >= AR1, TC1 ; |1877| 
         000039 90   
    2315 00003a 0464          BCC $C$L32,TC1 ; |1877| 
         00003c 74   
    2316                                                      ; branchcc occurs ; |1877| 
    2317 00003d       $C$L29:    
    2318 00003d       $C$DW$L$_cm_acc_seg_ratio_to_antimodel$2$B:
    2319                      .dwpsn  file "C:/Users/a0221074/Desktop/C5000/IBM_Watson_TIdesign_workarea/CSL_bitbucket/c55_csl/c55x
    2320 00003d ED00          MOV dbl(*SP(#0)), XAR3
         00003f BF   
    2321 000040 ED6D          MOV dbl(*AR3(#2002)), XAR0
         000042 8F07 
         000044 D2   
    2322 000045 DF10          MOV uns(*SP(#8)), AC0 ; |1879| 
         000047 05   
    2323 000048 900B          MOV AC0, XAR3
    2324 00004a 14B1          AADD XAR3, XAR0 ; |1879| 
         00004c 80   
    2325 00004d ED00          MOV dbl(*SP(#0)), XAR3
         00004f BF   
    2326 000050 EC1C          AMAR *SP(#14), XAR1
         000052 9E   
    2327 000053 ED6D          MOV dbl(*AR3(#1212)), XAR2
         000055 AF04 
         000057 BC   
    2328 000058 A46D          MOV *AR3(#277), T0 ; |1879| 
         00005a 0115 
    2329              $C$DW$193       .dwtag  DW_TAG_TI_branch
    2330                      .dwattr $C$DW$193, DW_AT_low_pc(0x00)
    2331                      .dwattr $C$DW$193, DW_AT_name("_vector_unpacking")
    2332                      .dwattr $C$DW$193, DW_AT_TI_call
    2333 00005c 6C00          CALL #_vector_unpacking ; |1879| 
         00005e 0000!
    2334                                                      ; call occurs [#_vector_unpacking] ; |1879| 
    2335                      .dwpsn  file "C:/Users/a0221074/Desktop/C5000/IBM_Watson_TIdesign_workarea/CSL_bitbucket/c55_csl/c55x
    2336 000060 A01C          MOV *SP(#14), AC0 ; |1885| 
    2337 000062 1005          SFTS AC0, #-5, AC0 ; |1885| 
         000064 3B   
    2338 000065 C012          MOV AC0, *SP(#9) ; |1885| 
    2339                      .dwpsn  file "C:/Users/a0221074/Desktop/C5000/IBM_Watson_TIdesign_workarea/CSL_bitbucket/c55_csl/c55x
    2340 000067 A904          MOV *SP(#2), AR1 ; |1886| 
    2341 000069 0419          BCC $C$L30,AR1 != #0 ; |1886| 
         00006b 21   
    2342                                                      ; branchcc occurs ; |1886| 
    2343 00006c       $C$DW$L$_cm_acc_seg_ratio_to_antimodel$2$E:
    2344 00006c       $C$DW$L$_cm_acc_seg_ratio_to_antimodel$3$B:
    2345                      .dwpsn  file "C:/Users/a0221074/Desktop/C5000/IBM_Watson_TIdesign_workarea/CSL_bitbucket/c55_csl/c55x
    2346 00006c ED18          MOV dbl(*SP(#12)), XAR3
         00006e BF   
    2347 00006f A012          MOV *SP(#9), AC0 ; |1887| 
TMS320C55x Assembler PC v4.4.1 Wed Sep 13 16:33:48 2017

Tools Copyright (c) 1996-2012 Texas Instruments Incorporated
C:\Users\a0221074\AppData\Local\Temp\1193610                         PAGE   51

    2348 000071 ED6D          ADD dbl(*AR3(#1324)), AC0, AC0 ; |1887| 
         000073 0005 
         000075 2C   
    2349 000076 EB6D          MOV AC0, dbl(*AR3(#1324)) ; |1887| 
         000078 0805 
         00007a 2C   
    2350                      .dwpsn  file "C:/Users/a0221074/Desktop/C5000/IBM_Watson_TIdesign_workarea/CSL_bitbucket/c55_csl/c55x
    2351 00007b ED18          MOV dbl(*SP(#12)), XAR3
         00007d BF   
    2352 00007e ED6D          MOV dbl(*AR3(#1326)), AC0 ; |1888| 
         000080 0805 
         000082 2E   
    2353 000083 D212          SQAM *SP(#9), AC0, AC0 ; |1888| 
         000085 08   
    2354 000086 EB6D          MOV AC0, dbl(*AR3(#1326)) ; |1888| 
         000088 0805 
         00008a 2E   
    2355                      .dwpsn  file "C:/Users/a0221074/Desktop/C5000/IBM_Watson_TIdesign_workarea/CSL_bitbucket/c55_csl/c55x
    2356 00008b 4A0F          B $C$L31  ; |1889| 
    2357                                                      ; branch occurs ; |1889| 
    2358 00008d       $C$DW$L$_cm_acc_seg_ratio_to_antimodel$3$E:
    2359 00008d       $C$L30:    
    2360 00008d       $C$DW$L$_cm_acc_seg_ratio_to_antimodel$4$B:
    2361                      .dwpsn  file "C:/Users/a0221074/Desktop/C5000/IBM_Watson_TIdesign_workarea/CSL_bitbucket/c55_csl/c55x
    2362 00008d ED18          MOV dbl(*SP(#12)), XAR3
         00008f BF   
    2363 000090 A012          MOV *SP(#9), AC0 ; |1891| 
    2364 000092 ED6D          ADD dbl(*AR3(#1322)), AC0, AC0 ; |1891| 
         000094 0005 
         000096 2A   
    2365 000097 EB6D          MOV AC0, dbl(*AR3(#1322)) ; |1891| 
         000099 0805 
         00009b 2A   
    2366                      .dwpsn  file "C:/Users/a0221074/Desktop/C5000/IBM_Watson_TIdesign_workarea/CSL_bitbucket/c55_csl/c55x
    2367 00009c       $C$DW$L$_cm_acc_seg_ratio_to_antimodel$4$E:
    2368 00009c       $C$L31:    
    2369 00009c       $C$DW$L$_cm_acc_seg_ratio_to_antimodel$5$B:
    2370                      .dwpsn  file "C:/Users/a0221074/Desktop/C5000/IBM_Watson_TIdesign_workarea/CSL_bitbucket/c55_csl/c55x
    2371 00009c F714          ADD #1, *SP(#10) ; |1877| 
         00009e 0001 
    2372 0000a0 A95C          MOV *SP(#46), AR1 ; |1877| 
    2373 0000a2 D610          ADD *SP(#8), AR1, AR1 ; |1877| 
         0000a4 99   
    2374 0000a5 C910          MOV AR1, *SP(#8) ; |1877| 
    2375                      .dwpsn  file "C:/Users/a0221074/Desktop/C5000/IBM_Watson_TIdesign_workarea/CSL_bitbucket/c55_csl/c55x
    2376 0000a7 AA14          MOV *SP(#10), AR2 ; |1877| 
    2377 0000a9 A916          MOV *SP(#11), AR1 ; |1877| 
    2378 0000ab 12A4          CMP AR2 < AR1, TC1 ; |1877| 
         0000ad 90   
    2379 0000ae 0464          BCC $C$L29,TC1 ; |1877| 
         0000b0 8C   
    2380                                                      ; branchcc occurs ; |1877| 
    2381 0000b1       $C$DW$L$_cm_acc_seg_ratio_to_antimodel$5$E:
    2382 0000b1       $C$L32:    
    2383                      .dwpsn  file "C:/Users/a0221074/Desktop/C5000/IBM_Watson_TIdesign_workarea/CSL_bitbucket/c55_csl/c55x
TMS320C55x Assembler PC v4.4.1 Wed Sep 13 16:33:48 2017

Tools Copyright (c) 1996-2012 Texas Instruments Incorporated
C:\Users\a0221074\AppData\Local\Temp\1193610                         PAGE   52

    2384 0000b1 A904          MOV *SP(#2), AR1 ; |1897| 
    2385 0000b3 0419          BCC $C$L33,AR1 != #0 ; |1897| 
         0000b5 10   
    2386                                                      ; branchcc occurs ; |1897| 
    2387                      .dwpsn  file "C:/Users/a0221074/Desktop/C5000/IBM_Watson_TIdesign_workarea/CSL_bitbucket/c55_csl/c55x
    2388 0000b6 ED18          MOV dbl(*SP(#12)), XAR3
         0000b8 BF   
    2389 0000b9 A916          MOV *SP(#11), AR1 ; |1897| 
    2390 0000bb D66D          ADD *AR3(#1320), AR1, AR1 ; |1897| 
         0000bd 9905 
         0000bf 28   
    2391 0000c0 C96D          MOV AR1, *AR3(#1320) ; |1897| 
         0000c2 0528 
    2392 0000c4 4A0E          B $C$L34  ; |1897| 
    2393                                                      ; branch occurs ; |1897| 
    2394 0000c6       $C$L33:    
    2395                      .dwpsn  file "C:/Users/a0221074/Desktop/C5000/IBM_Watson_TIdesign_workarea/CSL_bitbucket/c55_csl/c55x
    2396 0000c6 ED18          MOV dbl(*SP(#12)), XAR3
         0000c8 BF   
    2397 0000c9 A916          MOV *SP(#11), AR1 ; |1898| 
    2398 0000cb D66D          ADD *AR3(#1319), AR1, AR1 ; |1898| 
         0000cd 9905 
         0000cf 27   
    2399 0000d0 C96D          MOV AR1, *AR3(#1319) ; |1898| 
         0000d2 0527 
    2400 0000d4       $C$L34:    
    2401                      .dwpsn  file "C:/Users/a0221074/Desktop/C5000/IBM_Watson_TIdesign_workarea/CSL_bitbucket/c55_csl/c55x
    2402 0000d4 A904          MOV *SP(#2), AR1 ; |1900| 
    2403 0000d6 0409          BCC $C$L37,AR1 == #0 ; |1900| 
         0000d8 5A   
    2404                                                      ; branchcc occurs ; |1900| 
    2405                      .dwpsn  file "C:/Users/a0221074/Desktop/C5000/IBM_Watson_TIdesign_workarea/CSL_bitbucket/c55_csl/c55x
    2406                      .dwpsn  file "C:/Users/a0221074/Desktop/C5000/IBM_Watson_TIdesign_workarea/CSL_bitbucket/c55_csl/c55x
    2407 0000d9 7601          MOV #500, AR2 ; |1901| 
         0000db F4A8 
    2408 0000dd A908          MOV *SP(#4), AR1 ; |1901| 
    2409 0000df 1294          CMP AR1 < AR2, TC1 ; |1901| 
         0000e1 A0   
    2410 0000e2 0474          BCC $C$L37,!TC1 ; |1901| 
         0000e4 4E   
    2411                                                      ; branchcc occurs ; |1901| 
    2412                      .dwpsn  file "C:/Users/a0221074/Desktop/C5000/IBM_Watson_TIdesign_workarea/CSL_bitbucket/c55_csl/c55x
    2413                      .dwpsn  file "C:/Users/a0221074/Desktop/C5000/IBM_Watson_TIdesign_workarea/CSL_bitbucket/c55_csl/c55x
    2414 0000e5 A906          MOV *SP(#3), AR1 ; |1903| 
    2415 0000e7 C912          MOV AR1, *SP(#9) ; |1903| 
    2416                      .dwpsn  file "C:/Users/a0221074/Desktop/C5000/IBM_Watson_TIdesign_workarea/CSL_bitbucket/c55_csl/c55x
    2417 0000e9 AA12          MOV *SP(#9), AR2 ; |1903| 
    2418 0000eb A908          MOV *SP(#4), AR1 ; |1903| 
    2419 0000ed 12A8          CMP AR2 >= AR1, TC1 ; |1903| 
         0000ef 90   
    2420 0000f0 0464          BCC $C$L36,TC1 ; |1903| 
         0000f2 30   
    2421                                                      ; branchcc occurs ; |1903| 
    2422 0000f3       $C$L35:    
    2423 0000f3       $C$DW$L$_cm_acc_seg_ratio_to_antimodel$12$B:
TMS320C55x Assembler PC v4.4.1 Wed Sep 13 16:33:48 2017

Tools Copyright (c) 1996-2012 Texas Instruments Incorporated
C:\Users\a0221074\AppData\Local\Temp\1193610                         PAGE   53

    2424                      .dwpsn  file "C:/Users/a0221074/Desktop/C5000/IBM_Watson_TIdesign_workarea/CSL_bitbucket/c55_csl/c55x
    2425 0000f3 ED18          MOV dbl(*SP(#12)), XAR3
         0000f5 BF   
    2426 0000f6 A412          MOV *SP(#9), T0 ; |1904| 
    2427 0000f8 ED6D          MOV dbl(*AR3(#1312)), XAR3
         0000fa BF05 
         0000fc 20   
    2428 0000fd ED18          MOV dbl(*SP(#12)), XAR2
         0000ff AF   
    2429 000100 A06B          MOV *AR3(T0), AC0 ; |1904| 
    2430 000102 ED4D          ADD dbl(*AR2(#1316)), AC0, AC0 ; |1904| 
         000104 0005 
         000106 24   
    2431 000107 EB4D          MOV AC0, dbl(*AR2(#1316)) ; |1904| 
         000109 0805 
         00010b 24   
    2432                      .dwpsn  file "C:/Users/a0221074/Desktop/C5000/IBM_Watson_TIdesign_workarea/CSL_bitbucket/c55_csl/c55x
    2433 00010c ED18          MOV dbl(*SP(#12)), XAR3
         00010e BF   
    2434 00010f F76D          ADD #1, *AR3(#1307) ; |1905| 
         000111 0001 
         000113 051B 
    2435                      .dwpsn  file "C:/Users/a0221074/Desktop/C5000/IBM_Watson_TIdesign_workarea/CSL_bitbucket/c55_csl/c55x
    2436 000115 F712          ADD #1, *SP(#9) ; |1903| 
         000117 0001 
    2437                      .dwpsn  file "C:/Users/a0221074/Desktop/C5000/IBM_Watson_TIdesign_workarea/CSL_bitbucket/c55_csl/c55x
    2438 000119 A908          MOV *SP(#4), AR1 ; |1903| 
    2439 00011b AA12          MOV *SP(#9), AR2 ; |1903| 
    2440 00011d 12A4          CMP AR2 < AR1, TC1 ; |1903| 
         00011f 90   
    2441 000120 0464          BCC $C$L35,TC1 ; |1903| 
         000122 D0   
    2442                                                      ; branchcc occurs ; |1903| 
    2443 000123       $C$DW$L$_cm_acc_seg_ratio_to_antimodel$12$E:
    2444 000123       $C$L36:    
    2445                      .dwpsn  file "C:/Users/a0221074/Desktop/C5000/IBM_Watson_TIdesign_workarea/CSL_bitbucket/c55_csl/c55x
    2446 000123 ED18          MOV dbl(*SP(#12)), XAR3
         000125 BF   
    2447 000126 ED0C          MOV dbl(*SP(#6)), AC0 ; |1908| 
         000128 08   
    2448 000129 ED6D          ADD dbl(*AR3(#1314)), AC0, AC0 ; |1908| 
         00012b 0005 
         00012d 22   
    2449 00012e EB6D          MOV AC0, dbl(*AR3(#1314)) ; |1908| 
         000130 0805 
         000132 22   
    2450                      .dwpsn  file "C:/Users/a0221074/Desktop/C5000/IBM_Watson_TIdesign_workarea/CSL_bitbucket/c55_csl/c55x
    2451 000133       $C$L37:    
    2452 000133 4E2F          AADD #47, SP
    2453                      .dwcfi  cfa_offset, 1
    2454              $C$DW$194       .dwtag  DW_TAG_TI_branch
    2455                      .dwattr $C$DW$194, DW_AT_low_pc(0x00)
    2456                      .dwattr $C$DW$194, DW_AT_TI_return
    2457 000135 4804          RET
    2458                                                      ; return occurs
TMS320C55x Assembler PC v4.4.1 Wed Sep 13 16:33:48 2017

Tools Copyright (c) 1996-2012 Texas Instruments Incorporated
C:\Users\a0221074\AppData\Local\Temp\1193610                         PAGE   54

    2459              
    2460              $C$DW$195       .dwtag  DW_TAG_TI_loop
    2461                      .dwattr $C$DW$195, DW_AT_name("C:\\Users\\a0221074\\AppData\\Local\\Temp\\1193610:$C$L35:1:1505334826
    2462                      .dwattr $C$DW$195, DW_AT_TI_begin_file("C:/Users/a0221074/Desktop/C5000/IBM_Watson_TIdesign_workarea/
    2463                      .dwattr $C$DW$195, DW_AT_TI_begin_line(0x76f)
    2464                      .dwattr $C$DW$195, DW_AT_TI_end_line(0x772)
    2465              $C$DW$196       .dwtag  DW_TAG_TI_loop_range
    2466                      .dwattr $C$DW$196, DW_AT_low_pc($C$DW$L$_cm_acc_seg_ratio_to_antimodel$12$B)
    2467                      .dwattr $C$DW$196, DW_AT_high_pc($C$DW$L$_cm_acc_seg_ratio_to_antimodel$12$E)
    2468                      .dwendtag $C$DW$195
    2469              
    2470              
    2471              $C$DW$197       .dwtag  DW_TAG_TI_loop
    2472                      .dwattr $C$DW$197, DW_AT_name("C:\\Users\\a0221074\\AppData\\Local\\Temp\\1193610:$C$L29:1:1505334826
    2473                      .dwattr $C$DW$197, DW_AT_TI_begin_file("C:/Users/a0221074/Desktop/C5000/IBM_Watson_TIdesign_workarea/
    2474                      .dwattr $C$DW$197, DW_AT_TI_begin_line(0x755)
    2475                      .dwattr $C$DW$197, DW_AT_TI_end_line(0x768)
    2476              $C$DW$198       .dwtag  DW_TAG_TI_loop_range
    2477                      .dwattr $C$DW$198, DW_AT_low_pc($C$DW$L$_cm_acc_seg_ratio_to_antimodel$2$B)
    2478                      .dwattr $C$DW$198, DW_AT_high_pc($C$DW$L$_cm_acc_seg_ratio_to_antimodel$2$E)
    2479              $C$DW$199       .dwtag  DW_TAG_TI_loop_range
    2480                      .dwattr $C$DW$199, DW_AT_low_pc($C$DW$L$_cm_acc_seg_ratio_to_antimodel$3$B)
    2481                      .dwattr $C$DW$199, DW_AT_high_pc($C$DW$L$_cm_acc_seg_ratio_to_antimodel$3$E)
    2482              $C$DW$200       .dwtag  DW_TAG_TI_loop_range
    2483                      .dwattr $C$DW$200, DW_AT_low_pc($C$DW$L$_cm_acc_seg_ratio_to_antimodel$4$B)
    2484                      .dwattr $C$DW$200, DW_AT_high_pc($C$DW$L$_cm_acc_seg_ratio_to_antimodel$4$E)
    2485              $C$DW$201       .dwtag  DW_TAG_TI_loop_range
    2486                      .dwattr $C$DW$201, DW_AT_low_pc($C$DW$L$_cm_acc_seg_ratio_to_antimodel$5$B)
    2487                      .dwattr $C$DW$201, DW_AT_high_pc($C$DW$L$_cm_acc_seg_ratio_to_antimodel$5$E)
    2488                      .dwendtag $C$DW$197
    2489              
    2490                      .dwattr $C$DW$175, DW_AT_TI_end_file("C:/Users/a0221074/Desktop/C5000/IBM_Watson_TIdesign_workarea/CS
    2491                      .dwattr $C$DW$175, DW_AT_TI_end_line(0x77b)
    2492                      .dwattr $C$DW$175, DW_AT_TI_end_column(0x01)
    2493                      .dwendentry
    2494                      .dwendtag $C$DW$175
    2495              
    2496 000000               .sect   ".text:_cm_logistic"
    2497                      .clink
    2498              
    2499              $C$DW$202       .dwtag  DW_TAG_subprogram, DW_AT_name("cm_logistic")
    2500                      .dwattr $C$DW$202, DW_AT_low_pc(_cm_logistic)
    2501                      .dwattr $C$DW$202, DW_AT_high_pc(0x00)
    2502                      .dwattr $C$DW$202, DW_AT_TI_symbol_name("_cm_logistic")
    2503                      .dwattr $C$DW$202, DW_AT_type(*$C$DW$T$8)
    2504                      .dwattr $C$DW$202, DW_AT_TI_begin_file("C:/Users/a0221074/Desktop/C5000/IBM_Watson_TIdesign_workarea/
    2505                      .dwattr $C$DW$202, DW_AT_TI_begin_line(0x77f)
    2506                      .dwattr $C$DW$202, DW_AT_TI_begin_column(0x0e)
    2507                      .dwattr $C$DW$202, DW_AT_TI_max_frame_size(0x10)
    2508                      .dwpsn  file "C:/Users/a0221074/Desktop/C5000/IBM_Watson_TIdesign_workarea/CSL_bitbucket/c55_csl/c55x
    2509              
    2510                      .dwfde $C$DW$CIE, _cm_logistic
    2511              $C$DW$203       .dwtag  DW_TAG_formal_parameter, DW_AT_name("x")
    2512                      .dwattr $C$DW$203, DW_AT_TI_symbol_name("_x")
    2513                      .dwattr $C$DW$203, DW_AT_type(*$C$DW$T$23)
TMS320C55x Assembler PC v4.4.1 Wed Sep 13 16:33:48 2017

Tools Copyright (c) 1996-2012 Texas Instruments Incorporated
C:\Users\a0221074\AppData\Local\Temp\1193610                         PAGE   55

    2514                      .dwattr $C$DW$203, DW_AT_location[DW_OP_reg17]
    2515              $C$DW$204       .dwtag  DW_TAG_formal_parameter, DW_AT_name("gv")
    2516                      .dwattr $C$DW$204, DW_AT_TI_symbol_name("_gv")
    2517                      .dwattr $C$DW$204, DW_AT_type(*$C$DW$T$96)
    2518                      .dwattr $C$DW$204, DW_AT_location[DW_OP_reg19]
    2519              ;*******************************************************************************
    2520              ;* FUNCTION NAME: cm_logistic                                                  *
    2521              ;*                                                                             *
    2522              ;*   Function Uses Regs : AC0,AC0,AC1,AC1,T0,T1,AR0,XAR0,AR1,XAR1,AR2,XAR2,AR3,*
    2523              ;*                        XAR3,SP,CARRY,TC1,M40,SATA,SATD,RDM,FRCT,SMUL        *
    2524              ;*   Stack Frame        : Compact (No Frame Pointer, w/ debug)                 *
    2525              ;*   Total Frame Size   : 16 words                                             *
    2526              ;*                        (2 return address/alignment)                         *
    2527              ;*                        (14 local values)                                    *
    2528              ;*   Min System Stack   : 1 word                                               *
    2529              ;*******************************************************************************
    2530 000000       _cm_logistic:
    2531                      .dwcfi  cfa_offset, 1
    2532                      .dwcfi  save_reg_to_mem, 91, -1
    2533 000000 4EF1          AADD #-15, SP
    2534                      .dwcfi  cfa_offset, 16
    2535              $C$DW$205       .dwtag  DW_TAG_variable, DW_AT_name("x")
    2536                      .dwattr $C$DW$205, DW_AT_TI_symbol_name("_x")
    2537                      .dwattr $C$DW$205, DW_AT_type(*$C$DW$T$23)
    2538                      .dwattr $C$DW$205, DW_AT_location[DW_OP_bregx 0x24 0]
    2539              $C$DW$206       .dwtag  DW_TAG_variable, DW_AT_name("gv")
    2540                      .dwattr $C$DW$206, DW_AT_TI_symbol_name("_gv")
    2541                      .dwattr $C$DW$206, DW_AT_type(*$C$DW$T$96)
    2542                      .dwattr $C$DW$206, DW_AT_location[DW_OP_bregx 0x24 2]
    2543              $C$DW$207       .dwtag  DW_TAG_variable, DW_AT_name("ltmp")
    2544                      .dwattr $C$DW$207, DW_AT_TI_symbol_name("_ltmp")
    2545                      .dwattr $C$DW$207, DW_AT_type(*$C$DW$T$12)
    2546                      .dwattr $C$DW$207, DW_AT_location[DW_OP_bregx 0x24 4]
    2547              $C$DW$208       .dwtag  DW_TAG_variable, DW_AT_name("pConf")
    2548                      .dwattr $C$DW$208, DW_AT_TI_symbol_name("_pConf")
    2549                      .dwattr $C$DW$208, DW_AT_type(*$C$DW$T$91)
    2550                      .dwattr $C$DW$208, DW_AT_location[DW_OP_bregx 0x24 6]
    2551              $C$DW$209       .dwtag  DW_TAG_variable, DW_AT_name("ltmp2")
    2552                      .dwattr $C$DW$209, DW_AT_TI_symbol_name("_ltmp2")
    2553                      .dwattr $C$DW$209, DW_AT_type(*$C$DW$T$12)
    2554                      .dwattr $C$DW$209, DW_AT_location[DW_OP_bregx 0x24 8]
    2555              $C$DW$210       .dwtag  DW_TAG_variable, DW_AT_name("lsum")
    2556                      .dwattr $C$DW$210, DW_AT_TI_symbol_name("_lsum")
    2557                      .dwattr $C$DW$210, DW_AT_type(*$C$DW$T$8)
    2558                      .dwattr $C$DW$210, DW_AT_location[DW_OP_bregx 0x24 10]
    2559              $C$DW$211       .dwtag  DW_TAG_variable, DW_AT_name("stmp")
    2560                      .dwattr $C$DW$211, DW_AT_TI_symbol_name("_stmp")
    2561                      .dwattr $C$DW$211, DW_AT_type(*$C$DW$T$8)
    2562                      .dwattr $C$DW$211, DW_AT_location[DW_OP_bregx 0x24 11]
    2563              $C$DW$212       .dwtag  DW_TAG_variable, DW_AT_name("Q15")
    2564                      .dwattr $C$DW$212, DW_AT_TI_symbol_name("_Q15")
    2565                      .dwattr $C$DW$212, DW_AT_type(*$C$DW$T$22)
    2566                      .dwattr $C$DW$212, DW_AT_location[DW_OP_bregx 0x24 12]
    2567              $C$DW$213       .dwtag  DW_TAG_variable, DW_AT_name("utmp")
    2568                      .dwattr $C$DW$213, DW_AT_TI_symbol_name("_utmp")
TMS320C55x Assembler PC v4.4.1 Wed Sep 13 16:33:48 2017

Tools Copyright (c) 1996-2012 Texas Instruments Incorporated
C:\Users\a0221074\AppData\Local\Temp\1193610                         PAGE   56

    2569                      .dwattr $C$DW$213, DW_AT_type(*$C$DW$T$22)
    2570                      .dwattr $C$DW$213, DW_AT_location[DW_OP_bregx 0x24 13]
    2571 000002 EB04          MOV XAR1, dbl(*SP(#2))
         000004 95   
    2572 000005 EB00          MOV XAR0, dbl(*SP(#0))
         000007 85   
    2573                      .dwpsn  file "C:/Users/a0221074/Desktop/C5000/IBM_Watson_TIdesign_workarea/CSL_bitbucket/c55_csl/c55x
    2574 000008 3C00          MOV #0, AC0 ; |1921| 
    2575 00000a EB08          MOV AC0, dbl(*SP(#4)) ; |1921| 
         00000c 08   
    2576                      .dwpsn  file "C:/Users/a0221074/Desktop/C5000/IBM_Watson_TIdesign_workarea/CSL_bitbucket/c55_csl/c55x
    2577 00000d ED04          MOV dbl(*SP(#2)), XAR3
         00000f BF   
    2578 000010 ED6D          MOV dbl(*AR3(#2014)), XAR3
         000012 BF07 
         000014 DE   
    2579 000015 EB0C          MOV XAR3, dbl(*SP(#6))
         000017 B5   
    2580                      .dwpsn  file "C:/Users/a0221074/Desktop/C5000/IBM_Watson_TIdesign_workarea/CSL_bitbucket/c55_csl/c55x
    2581 000018 FB18          MOV #32767, *SP(#12) ; |1926| 
         00001a 7FFF 
    2582                      .dwpsn  file "C:/Users/a0221074/Desktop/C5000/IBM_Watson_TIdesign_workarea/CSL_bitbucket/c55_csl/c55x
    2583 00001c E614          MOV #1, *SP(#10) ; |1928| 
         00001e 01   
    2584                      .dwpsn  file "C:/Users/a0221074/Desktop/C5000/IBM_Watson_TIdesign_workarea/CSL_bitbucket/c55_csl/c55x
    2585              
    2586 00001f A914          MOV *SP(#10), AR1 ; |1928| 
    2587 000021 3D2A  ||      MOV #2, AR2
    2588              
    2589 000023 12A4          CMP AR1 > AR2, TC1 ; |1928| 
         000025 90   
    2590 000026 0464          BCC $C$L39,TC1 ; |1928| 
         000028 37   
    2591                                                      ; branchcc occurs ; |1928| 
    2592 000029       $C$L38:    
    2593 000029       $C$DW$L$_cm_logistic$2$B:
    2594                      .dwpsn  file "C:/Users/a0221074/Desktop/C5000/IBM_Watson_TIdesign_workarea/CSL_bitbucket/c55_csl/c55x
    2595 000029 ED0C          MOV dbl(*SP(#6)), XAR3
         00002b BF   
    2596 00002c 2294          MOV AR1, T0
    2597 00002e 4219          SUB #1, AR1 ; |1929| 
    2598 000030 ED6D          MOV dbl(*AR3(#1336)), XAR2
         000032 AF05 
         000034 38   
    2599 000035 ED00          MOV dbl(*SP(#0)), XAR3
         000037 BF   
    2600 000038 1490          AADD AR1, AR3 ; |1929| 
         00003a B0   
    2601 00003b 8661          MPYM *AR3, *AR2(T0), AC0 ; |1929| 
         00003d 7000 
    2602 00003f EB10          MOV AC0, dbl(*SP(#8)) ; |1929| 
         000041 08   
    2603                      .dwpsn  file "C:/Users/a0221074/Desktop/C5000/IBM_Watson_TIdesign_workarea/CSL_bitbucket/c55_csl/c55x
    2604 000042 7600          MOV #32, AC0 ; |1930| 
         000044 2008 
TMS320C55x Assembler PC v4.4.1 Wed Sep 13 16:33:48 2017

Tools Copyright (c) 1996-2012 Texas Instruments Incorporated
C:\Users\a0221074\AppData\Local\Temp\1193610                         PAGE   57

    2605 000046 ED10          ADD dbl(*SP(#8)), AC0, AC0 ; |1930| 
         000048 00   
    2606 000049 1005          SFTS AC0, #-6, AC0 ; |1930| 
         00004b 3A   
    2607 00004c ED08          SUB AC0, dbl(*SP(#4)), AC0 ; |1930| 
         00004e 04   
    2608 00004f EB08          MOV AC0, dbl(*SP(#4)) ; |1930| 
         000051 08   
    2609                      .dwpsn  file "C:/Users/a0221074/Desktop/C5000/IBM_Watson_TIdesign_workarea/CSL_bitbucket/c55_csl/c55x
    2610 000052 F714          ADD #1, *SP(#10) ; |1928| 
         000054 0001 
    2611                      .dwpsn  file "C:/Users/a0221074/Desktop/C5000/IBM_Watson_TIdesign_workarea/CSL_bitbucket/c55_csl/c55x
    2612              
    2613 000056 A914          MOV *SP(#10), AR1 ; |1928| 
    2614 000058 3D2A  ||      MOV #2, AR2
    2615              
    2616 00005a 12A8          CMP AR1 <= AR2, TC1 ; |1928| 
         00005c 90   
    2617 00005d 0464          BCC $C$L38,TC1 ; |1928| 
         00005f C9   
    2618                                                      ; branchcc occurs ; |1928| 
    2619 000060       $C$DW$L$_cm_logistic$2$E:
    2620 000060       $C$L39:    
    2621                      .dwpsn  file "C:/Users/a0221074/Desktop/C5000/IBM_Watson_TIdesign_workarea/CSL_bitbucket/c55_csl/c55x
    2622 000060 ED0C          MOV dbl(*SP(#6)), XAR3
         000062 BF   
    2623 000063 ED6D          MOV dbl(*AR3(#1336)), XAR3
         000065 BF05 
         000067 38   
    2624 000068 A061          MOV *AR3, AC0 ; |1932| 
    2625 00006a ED08          SUB AC0, dbl(*SP(#4)), AC0 ; |1932| 
         00006c 04   
    2626 00006d EB08          MOV AC0, dbl(*SP(#4)) ; |1932| 
         00006f 08   
    2627                      .dwpsn  file "C:/Users/a0221074/Desktop/C5000/IBM_Watson_TIdesign_workarea/CSL_bitbucket/c55_csl/c55x
    2628 000070 ED08          MOV dbl(*SP(#4)), AC1 ; |1939| 
         000072 18   
    2629 000073 7680          MOV #-32768, AC0 ; |1939| 
         000075 0008 
    2630 000077 1208          CMP AC1 <= AC0, TC1 ; |1939| 
         000079 10   
    2631 00007a 61E4          BCC $C$L40,TC1 ; |1939| 
    2632                                                      ; branchcc occurs ; |1939| 
    2633 00007c ED08          MOV dbl(*SP(#4)), AC0 ; |1939| 
         00007e 08   
    2634 00007f       $C$L40:    
    2635 00007f 767F          MOV #32767, AC1 ; |1939| 
         000081 FF18 
    2636 000083 1208          CMP AC0 >= AC1, TC1 ; |1939| 
         000085 10   
    2637 000086 0464          BCC $C$L41,TC1 ; |1939| 
         000088 11   
    2638                                                      ; branchcc occurs ; |1939| 
    2639 000089 7680          MOV #-32768, AC0 ; |1939| 
         00008b 0008 
TMS320C55x Assembler PC v4.4.1 Wed Sep 13 16:33:48 2017

Tools Copyright (c) 1996-2012 Texas Instruments Incorporated
C:\Users\a0221074\AppData\Local\Temp\1193610                         PAGE   58

    2640 00008d ED08          MOV dbl(*SP(#4)), AC1 ; |1939| 
         00008f 18   
    2641 000090 1208          CMP AC1 <= AC0, TC1 ; |1939| 
         000092 10   
    2642 000093 64E4          BCC $C$L42,TC1 ; |1939| 
    2643                                                      ; branchcc occurs ; |1939| 
    2644 000095 ED08          MOV dbl(*SP(#4)), AC0 ; |1939| 
         000097 08   
    2645 000098 4A04          B $C$L42  ; |1939| 
    2646                                                      ; branch occurs ; |1939| 
    2647 00009a       $C$L41:    
    2648 00009a 767F          MOV #32767, AC0 ; |1939| 
         00009c FF08 
    2649 00009e       $C$L42:    
    2650              
    2651 0000a1 3D65          MOV #6, T1
    2652 00009e EC14  ||      AMAR *SP(#10), XAR0
         0000a0 8E   
    2653              
    2654              $C$DW$214       .dwtag  DW_TAG_TI_branch
    2655                      .dwattr $C$DW$214, DW_AT_low_pc(0x00)
    2656                      .dwattr $C$DW$214, DW_AT_name("_hlr_expn_q")
    2657                      .dwattr $C$DW$214, DW_AT_TI_call
    2658              
    2659 0000a3 6C00          CALL #_hlr_expn_q ; |1939| 
         0000a5 0000!
    2660 0000a7 2304  ||      MOV AC0, T0 ; |1939| 
    2661              
    2662                                                      ; call occurs [#_hlr_expn_q] ; |1939| 
    2663 0000a9 C41A          MOV T0, *SP(#13) ; |1939| 
    2664                      .dwpsn  file "C:/Users/a0221074/Desktop/C5000/IBM_Watson_TIdesign_workarea/CSL_bitbucket/c55_csl/c55x
    2665 0000ab A514          MOV *SP(#10), T1 ; |1940| 
    2666              
    2667 0000ad DF1A          MOV uns(*SP(#13)), AC0 ; |1940| 
         0000af 05   
    2668 0000b0 3D11  ||      MOV #1, AC1 ; |1940| 
    2669              
    2670 0000b2 5A14          ADD AC1 << T1, AC0 ; |1940| 
    2671 0000b4 EB08          MOV AC0, dbl(*SP(#4)) ; |1940| 
         0000b6 08   
    2672                      .dwpsn  file "C:/Users/a0221074/Desktop/C5000/IBM_Watson_TIdesign_workarea/CSL_bitbucket/c55_csl/c55x
    2673 0000b7 A914          MOV *SP(#10), AR1 ; |1941| 
    2674 0000b9 4299          SUB #9, AR1 ; |1941| 
    2675 0000bb C916          MOV AR1, *SP(#11) ; |1941| 
    2676                      .dwpsn  file "C:/Users/a0221074/Desktop/C5000/IBM_Watson_TIdesign_workarea/CSL_bitbucket/c55_csl/c55x
    2677 0000bd 0439          BCC $C$L43,AR1 <= #0 ; |1942| 
         0000bf 13   
    2678                                                      ; branchcc occurs ; |1942| 
    2679                      .dwpsn  file "C:/Users/a0221074/Desktop/C5000/IBM_Watson_TIdesign_workarea/CSL_bitbucket/c55_csl/c55x
    2680 0000c0 ED08          MOV dbl(*SP(#4)), AC1 ; |1943| 
         0000c2 18   
    2681              
    2682 0000c6 3595          NEG AR1, T1 ; |1943| 
    2683 0000c3 DF18  ||      MOV uns(*SP(#12)), AC0 ; |1943| 
         0000c5 05   
TMS320C55x Assembler PC v4.4.1 Wed Sep 13 16:33:48 2017

Tools Copyright (c) 1996-2012 Texas Instruments Incorporated
C:\Users\a0221074\AppData\Local\Temp\1193610                         PAGE   59

    2684              
    2685              $C$DW$215       .dwtag  DW_TAG_TI_branch
    2686                      .dwattr $C$DW$215, DW_AT_low_pc(0x00)
    2687                      .dwattr $C$DW$215, DW_AT_name("__divli")
    2688                      .dwattr $C$DW$215, DW_AT_TI_call
    2689              
    2690 0000c8 6C00          CALL #__divli ; |1943| 
         0000ca 0000!
    2691 0000cc 5D55  ||      SFTS AC1, T1, AC1 ; |1943| 
    2692              
    2693                                                      ; call occurs [#__divli] ; |1943| 
    2694 0000ce EB08          MOV AC0, dbl(*SP(#4)) ; |1943| 
         0000d0 08   
    2695 0000d1 4A11          B $C$L44  ; |1943| 
    2696                                                      ; branch occurs ; |1943| 
    2697 0000d3       $C$L43:    
    2698                      .dwpsn  file "C:/Users/a0221074/Desktop/C5000/IBM_Watson_TIdesign_workarea/CSL_bitbucket/c55_csl/c55x
    2699 0000d3 ED08          MOV dbl(*SP(#4)), AC1 ; |1945| 
         0000d5 18   
    2700              
    2701 0000d9 3595          NEG AR1, T1 ; |1945| 
    2702 0000d6 DF18  ||      MOV uns(*SP(#12)), AC0 ; |1945| 
         0000d8 05   
    2703              
    2704              $C$DW$216       .dwtag  DW_TAG_TI_branch
    2705                      .dwattr $C$DW$216, DW_AT_low_pc(0x00)
    2706                      .dwattr $C$DW$216, DW_AT_name("__divli")
    2707                      .dwattr $C$DW$216, DW_AT_TI_call
    2708              
    2709 0000db 6C00          CALL #__divli ; |1945| 
         0000dd 0000!
    2710 0000df 5D55  ||      SFTS AC1, T1, AC1 ; |1945| 
    2711              
    2712                                                      ; call occurs [#__divli] ; |1945| 
    2713 0000e1 EB08          MOV AC0, dbl(*SP(#4)) ; |1945| 
         0000e3 08   
    2714 0000e4       $C$L44:    
    2715                      .dwpsn  file "C:/Users/a0221074/Desktop/C5000/IBM_Watson_TIdesign_workarea/CSL_bitbucket/c55_csl/c55x
    2716 0000e4 7680          MOV #-32768, AC0 ; |1948| 
         0000e6 0008 
    2717 0000e8 ED08          MOV dbl(*SP(#4)), AC1 ; |1948| 
         0000ea 18   
    2718 0000eb 1208          CMP AC1 <= AC0, TC1 ; |1948| 
         0000ed 10   
    2719 0000ee 61E4          BCC $C$L45,TC1 ; |1948| 
    2720                                                      ; branchcc occurs ; |1948| 
    2721 0000f0 ED08          MOV dbl(*SP(#4)), AC0 ; |1948| 
         0000f2 08   
    2722 0000f3       $C$L45:    
    2723 0000f3 767F          MOV #32767, AC1 ; |1948| 
         0000f5 FF18 
    2724 0000f7 1208          CMP AC0 >= AC1, TC1 ; |1948| 
         0000f9 10   
    2725 0000fa 0464          BCC $C$L46,TC1 ; |1948| 
         0000fc 11   
TMS320C55x Assembler PC v4.4.1 Wed Sep 13 16:33:48 2017

Tools Copyright (c) 1996-2012 Texas Instruments Incorporated
C:\Users\a0221074\AppData\Local\Temp\1193610                         PAGE   60

    2726                                                      ; branchcc occurs ; |1948| 
    2727 0000fd 7680          MOV #-32768, AC0 ; |1948| 
         0000ff 0008 
    2728 000101 ED08          MOV dbl(*SP(#4)), AC1 ; |1948| 
         000103 18   
    2729 000104 1208          CMP AC1 <= AC0, TC1 ; |1948| 
         000106 10   
    2730 000107 64E4          BCC $C$L47,TC1 ; |1948| 
    2731                                                      ; branchcc occurs ; |1948| 
    2732 000109 ED08          MOV dbl(*SP(#4)), AC0 ; |1948| 
         00010b 08   
    2733 00010c 4A04          B $C$L47  ; |1948| 
    2734                                                      ; branch occurs ; |1948| 
    2735 00010e       $C$L46:    
    2736 00010e 767F          MOV #32767, AC0 ; |1948| 
         000110 FF08 
    2737 000112       $C$L47:    
    2738                      .dwpsn  file "C:/Users/a0221074/Desktop/C5000/IBM_Watson_TIdesign_workarea/CSL_bitbucket/c55_csl/c55x
    2739 000112 2204          MOV AC0, T0 ; |1948| 
    2740 000114 4E0F          AADD #15, SP ; |1948| 
    2741                      .dwcfi  cfa_offset, 1
    2742              $C$DW$217       .dwtag  DW_TAG_TI_branch
    2743                      .dwattr $C$DW$217, DW_AT_low_pc(0x00)
    2744                      .dwattr $C$DW$217, DW_AT_TI_return
    2745 000116 4804          RET       ; |1948| 
    2746                                                      ; return occurs ; |1948| 
    2747              
    2748              $C$DW$218       .dwtag  DW_TAG_TI_loop
    2749                      .dwattr $C$DW$218, DW_AT_name("C:\\Users\\a0221074\\AppData\\Local\\Temp\\1193610:$C$L38:1:1505334826
    2750                      .dwattr $C$DW$218, DW_AT_TI_begin_file("C:/Users/a0221074/Desktop/C5000/IBM_Watson_TIdesign_workarea/
    2751                      .dwattr $C$DW$218, DW_AT_TI_begin_line(0x788)
    2752                      .dwattr $C$DW$218, DW_AT_TI_end_line(0x78b)
    2753              $C$DW$219       .dwtag  DW_TAG_TI_loop_range
    2754                      .dwattr $C$DW$219, DW_AT_low_pc($C$DW$L$_cm_logistic$2$B)
    2755                      .dwattr $C$DW$219, DW_AT_high_pc($C$DW$L$_cm_logistic$2$E)
    2756                      .dwendtag $C$DW$218
    2757              
    2758                      .dwattr $C$DW$202, DW_AT_TI_end_file("C:/Users/a0221074/Desktop/C5000/IBM_Watson_TIdesign_workarea/CS
    2759                      .dwattr $C$DW$202, DW_AT_TI_end_line(0x79d)
    2760                      .dwattr $C$DW$202, DW_AT_TI_end_column(0x01)
    2761                      .dwendentry
    2762                      .dwendtag $C$DW$202
    2763              
    2764 000000               .sect   ".text:_cm_update_hypo"
    2765                      .clink
    2766              
    2767              $C$DW$220       .dwtag  DW_TAG_subprogram, DW_AT_name("cm_update_hypo")
    2768                      .dwattr $C$DW$220, DW_AT_low_pc(_cm_update_hypo)
    2769                      .dwattr $C$DW$220, DW_AT_high_pc(0x00)
    2770                      .dwattr $C$DW$220, DW_AT_TI_symbol_name("_cm_update_hypo")
    2771                      .dwattr $C$DW$220, DW_AT_TI_begin_file("C:/Users/a0221074/Desktop/C5000/IBM_Watson_TIdesign_workarea/
    2772                      .dwattr $C$DW$220, DW_AT_TI_begin_line(0x7a3)
    2773                      .dwattr $C$DW$220, DW_AT_TI_begin_column(0x0d)
    2774                      .dwattr $C$DW$220, DW_AT_TI_max_frame_size(0x0a)
    2775                      .dwpsn  file "C:/Users/a0221074/Desktop/C5000/IBM_Watson_TIdesign_workarea/CSL_bitbucket/c55_csl/c55x
TMS320C55x Assembler PC v4.4.1 Wed Sep 13 16:33:48 2017

Tools Copyright (c) 1996-2012 Texas Instruments Incorporated
C:\Users\a0221074\AppData\Local\Temp\1193610                         PAGE   61

    2776              
    2777                      .dwfde $C$DW$CIE, _cm_update_hypo
    2778              $C$DW$221       .dwtag  DW_TAG_formal_parameter, DW_AT_name("feat")
    2779                      .dwattr $C$DW$221, DW_AT_TI_symbol_name("_feat")
    2780                      .dwattr $C$DW$221, DW_AT_type(*$C$DW$T$23)
    2781                      .dwattr $C$DW$221, DW_AT_location[DW_OP_reg17]
    2782              $C$DW$222       .dwtag  DW_TAG_formal_parameter, DW_AT_name("hp")
    2783                      .dwattr $C$DW$222, DW_AT_TI_symbol_name("_hp")
    2784                      .dwattr $C$DW$222, DW_AT_type(*$C$DW$T$101)
    2785                      .dwattr $C$DW$222, DW_AT_location[DW_OP_reg19]
    2786              ;*******************************************************************************
    2787              ;* FUNCTION NAME: cm_update_hypo                                               *
    2788              ;*                                                                             *
    2789              ;*   Function Uses Regs : AC0,AC0,AC1,AC1,AR0,XAR0,AR1,XAR1,AR3,XAR3,SP,CARRY, *
    2790              ;*                        TC1,M40,SATA,SATD,RDM,FRCT,SMUL                      *
    2791              ;*   Stack Frame        : Compact (No Frame Pointer, w/ debug)                 *
    2792              ;*   Total Frame Size   : 10 words                                             *
    2793              ;*                        (2 return address/alignment)                         *
    2794              ;*                        (8 local values)                                     *
    2795              ;*   Min System Stack   : 1 word                                               *
    2796              ;*******************************************************************************
    2797 000000       _cm_update_hypo:
    2798                      .dwcfi  cfa_offset, 1
    2799                      .dwcfi  save_reg_to_mem, 91, -1
    2800 000000 4EF7          AADD #-9, SP
    2801                      .dwcfi  cfa_offset, 10
    2802              $C$DW$223       .dwtag  DW_TAG_variable, DW_AT_name("feat")
    2803                      .dwattr $C$DW$223, DW_AT_TI_symbol_name("_feat")
    2804                      .dwattr $C$DW$223, DW_AT_type(*$C$DW$T$23)
    2805                      .dwattr $C$DW$223, DW_AT_location[DW_OP_bregx 0x24 0]
    2806              $C$DW$224       .dwtag  DW_TAG_variable, DW_AT_name("hp")
    2807                      .dwattr $C$DW$224, DW_AT_TI_symbol_name("_hp")
    2808                      .dwattr $C$DW$224, DW_AT_type(*$C$DW$T$101)
    2809                      .dwattr $C$DW$224, DW_AT_location[DW_OP_bregx 0x24 2]
    2810              $C$DW$225       .dwtag  DW_TAG_variable, DW_AT_name("mu")
    2811                      .dwattr $C$DW$225, DW_AT_TI_symbol_name("_mu")
    2812                      .dwattr $C$DW$225, DW_AT_type(*$C$DW$T$12)
    2813                      .dwattr $C$DW$225, DW_AT_location[DW_OP_bregx 0x24 4]
    2814              $C$DW$226       .dwtag  DW_TAG_variable, DW_AT_name("fea")
    2815                      .dwattr $C$DW$226, DW_AT_TI_symbol_name("_fea")
    2816                      .dwattr $C$DW$226, DW_AT_type(*$C$DW$T$12)
    2817                      .dwattr $C$DW$226, DW_AT_location[DW_OP_bregx 0x24 6]
    2818 000002 EB04          MOV XAR1, dbl(*SP(#2))
         000004 95   
    2819 000005 EB00          MOV XAR0, dbl(*SP(#0))
         000007 85   
    2820                      .dwpsn  file "C:/Users/a0221074/Desktop/C5000/IBM_Watson_TIdesign_workarea/CSL_bitbucket/c55_csl/c55x
    2821 000008 ED04          MOV dbl(*SP(#2)), XAR3
         00000a BF   
    2822 00000b A061          MOV *AR3, AC0 ; |1960| 
    2823 00000d EB08          MOV AC0, dbl(*SP(#4)) ; |1960| 
         00000f 08   
    2824                      .dwpsn  file "C:/Users/a0221074/Desktop/C5000/IBM_Watson_TIdesign_workarea/CSL_bitbucket/c55_csl/c55x
    2825 000010 ED00          MOV dbl(*SP(#0)), XAR3
         000012 BF   
TMS320C55x Assembler PC v4.4.1 Wed Sep 13 16:33:48 2017

Tools Copyright (c) 1996-2012 Texas Instruments Incorporated
C:\Users\a0221074\AppData\Local\Temp\1193610                         PAGE   62

    2826 000013 A061          MOV *AR3, AC0 ; |1961| 
    2827 000015 EB0C          MOV AC0, dbl(*SP(#6)) ; |1961| 
         000017 08   
    2828                      .dwpsn  file "C:/Users/a0221074/Desktop/C5000/IBM_Watson_TIdesign_workarea/CSL_bitbucket/c55_csl/c55x
    2829 000018 ED0C          MOV dbl(*SP(#6)), AC0 ; |1962| 
         00001a 08   
    2830 00001b 1005          SFTS AC0, #5, AC0 ; |1962| 
         00001d 05   
    2831 00001e EB0C          MOV AC0, dbl(*SP(#6)) ; |1962| 
         000020 08   
    2832                      .dwpsn  file "C:/Users/a0221074/Desktop/C5000/IBM_Watson_TIdesign_workarea/CSL_bitbucket/c55_csl/c55x
    2833 000021 ED08          MOV dbl(*SP(#4)), AC0 ; |1964| 
         000023 08   
    2834 000024 1045          SFTS AC0, #7, AC1 ; |1964| 
         000026 07   
    2835 000027 2601          SUB AC0, AC1 ; |1964| 
    2836 000029 ED0C          ADD dbl(*SP(#6)), AC1, AC0 ; |1964| 
         00002b 40   
    2837 00002c EB08          MOV AC0, dbl(*SP(#4)) ; |1964| 
         00002e 08   
    2838                      .dwpsn  file "C:/Users/a0221074/Desktop/C5000/IBM_Watson_TIdesign_workarea/CSL_bitbucket/c55_csl/c55x
    2839 00002f ED08          MOV dbl(*SP(#4)), AC0 ; |1965| 
         000031 08   
    2840 000032 1005          SFTS AC0, #-7, AC0 ; |1965| 
         000034 39   
    2841 000035 EB08          MOV AC0, dbl(*SP(#4)) ; |1965| 
         000037 08   
    2842                      .dwpsn  file "C:/Users/a0221074/Desktop/C5000/IBM_Watson_TIdesign_workarea/CSL_bitbucket/c55_csl/c55x
    2843 000038 7680          MOV #-32768, AC0 ; |1967| 
         00003a 0008 
    2844 00003c ED08          MOV dbl(*SP(#4)), AC1 ; |1967| 
         00003e 18   
    2845 00003f 1208          CMP AC1 <= AC0, TC1 ; |1967| 
         000041 10   
    2846 000042 61E4          BCC $C$L48,TC1 ; |1967| 
    2847                                                      ; branchcc occurs ; |1967| 
    2848 000044 ED08          MOV dbl(*SP(#4)), AC0 ; |1967| 
         000046 08   
    2849 000047       $C$L48:    
    2850 000047 767F          MOV #32767, AC1 ; |1967| 
         000049 FF18 
    2851 00004b 1208          CMP AC0 >= AC1, TC1 ; |1967| 
         00004d 10   
    2852 00004e 0464          BCC $C$L49,TC1 ; |1967| 
         000050 11   
    2853                                                      ; branchcc occurs ; |1967| 
    2854 000051 7680          MOV #-32768, AC0 ; |1967| 
         000053 0008 
    2855 000055 ED08          MOV dbl(*SP(#4)), AC1 ; |1967| 
         000057 18   
    2856 000058 1208          CMP AC1 <= AC0, TC1 ; |1967| 
         00005a 10   
    2857 00005b 64E4          BCC $C$L50,TC1 ; |1967| 
    2858                                                      ; branchcc occurs ; |1967| 
    2859 00005d ED08          MOV dbl(*SP(#4)), AC0 ; |1967| 
TMS320C55x Assembler PC v4.4.1 Wed Sep 13 16:33:48 2017

Tools Copyright (c) 1996-2012 Texas Instruments Incorporated
C:\Users\a0221074\AppData\Local\Temp\1193610                         PAGE   63

         00005f 08   
    2860 000060 4A04          B $C$L50  ; |1967| 
    2861                                                      ; branch occurs ; |1967| 
    2862 000062       $C$L49:    
    2863 000062 767F          MOV #32767, AC0 ; |1967| 
         000064 FF08 
    2864 000066       $C$L50:    
    2865 000066 ED04          MOV dbl(*SP(#2)), XAR3
         000068 BF   
    2866 000069 C061          MOV AC0, *AR3 ; |1967| 
    2867                      .dwpsn  file "C:/Users/a0221074/Desktop/C5000/IBM_Watson_TIdesign_workarea/CSL_bitbucket/c55_csl/c55x
    2868 00006b 4E09          AADD #9, SP
    2869                      .dwcfi  cfa_offset, 1
    2870              $C$DW$227       .dwtag  DW_TAG_TI_branch
    2871                      .dwattr $C$DW$227, DW_AT_low_pc(0x00)
    2872                      .dwattr $C$DW$227, DW_AT_TI_return
    2873 00006d 4804          RET
    2874                                                      ; return occurs
    2875                      .dwattr $C$DW$220, DW_AT_TI_end_file("C:/Users/a0221074/Desktop/C5000/IBM_Watson_TIdesign_workarea/CS
    2876                      .dwattr $C$DW$220, DW_AT_TI_end_line(0x7c5)
    2877                      .dwattr $C$DW$220, DW_AT_TI_end_column(0x01)
    2878                      .dwendentry
    2879                      .dwendtag $C$DW$220
    2880              
    2881 000000               .sect   ".text:_cm_hypo_ratio"
    2882                      .clink
    2883              
    2884              $C$DW$228       .dwtag  DW_TAG_subprogram, DW_AT_name("cm_hypo_ratio")
    2885                      .dwattr $C$DW$228, DW_AT_low_pc(_cm_hypo_ratio)
    2886                      .dwattr $C$DW$228, DW_AT_high_pc(0x00)
    2887                      .dwattr $C$DW$228, DW_AT_TI_symbol_name("_cm_hypo_ratio")
    2888                      .dwattr $C$DW$228, DW_AT_type(*$C$DW$T$8)
    2889                      .dwattr $C$DW$228, DW_AT_TI_begin_file("C:/Users/a0221074/Desktop/C5000/IBM_Watson_TIdesign_workarea/
    2890                      .dwattr $C$DW$228, DW_AT_TI_begin_line(0x7cc)
    2891                      .dwattr $C$DW$228, DW_AT_TI_begin_column(0x0e)
    2892                      .dwattr $C$DW$228, DW_AT_TI_max_frame_size(0x16)
    2893                      .dwpsn  file "C:/Users/a0221074/Desktop/C5000/IBM_Watson_TIdesign_workarea/CSL_bitbucket/c55_csl/c55x
    2894              
    2895                      .dwfde $C$DW$CIE, _cm_hypo_ratio
    2896              $C$DW$229       .dwtag  DW_TAG_formal_parameter, DW_AT_name("feat")
    2897                      .dwattr $C$DW$229, DW_AT_TI_symbol_name("_feat")
    2898                      .dwattr $C$DW$229, DW_AT_type(*$C$DW$T$23)
    2899                      .dwattr $C$DW$229, DW_AT_location[DW_OP_reg17]
    2900              $C$DW$230       .dwtag  DW_TAG_formal_parameter, DW_AT_name("h0")
    2901                      .dwattr $C$DW$230, DW_AT_TI_symbol_name("_h0")
    2902                      .dwattr $C$DW$230, DW_AT_type(*$C$DW$T$101)
    2903                      .dwattr $C$DW$230, DW_AT_location[DW_OP_reg19]
    2904              $C$DW$231       .dwtag  DW_TAG_formal_parameter, DW_AT_name("h1")
    2905                      .dwattr $C$DW$231, DW_AT_TI_symbol_name("_h1")
    2906                      .dwattr $C$DW$231, DW_AT_type(*$C$DW$T$101)
    2907                      .dwattr $C$DW$231, DW_AT_location[DW_OP_reg21]
    2908              ;*******************************************************************************
    2909              ;* FUNCTION NAME: cm_hypo_ratio                                                *
    2910              ;*                                                                             *
    2911              ;*   Function Uses Regs : AC0,AC0,AC1,AC1,T0,T1,AR0,XAR0,AR1,XAR1,AR2,XAR2,AR3,*
TMS320C55x Assembler PC v4.4.1 Wed Sep 13 16:33:48 2017

Tools Copyright (c) 1996-2012 Texas Instruments Incorporated
C:\Users\a0221074\AppData\Local\Temp\1193610                         PAGE   64

    2912              ;*                        XAR3,SP,CARRY,TC1,M40,SATA,SATD,RDM,FRCT,SMUL        *
    2913              ;*   Stack Frame        : Compact (No Frame Pointer, w/ debug)                 *
    2914              ;*   Total Frame Size   : 22 words                                             *
    2915              ;*                        (2 return address/alignment)                         *
    2916              ;*                        (20 local values)                                    *
    2917              ;*   Min System Stack   : 1 word                                               *
    2918              ;*******************************************************************************
    2919 000000       _cm_hypo_ratio:
    2920                      .dwcfi  cfa_offset, 1
    2921                      .dwcfi  save_reg_to_mem, 91, -1
    2922 000000 4EEB          AADD #-21, SP
    2923                      .dwcfi  cfa_offset, 22
    2924              $C$DW$232       .dwtag  DW_TAG_variable, DW_AT_name("feat")
    2925                      .dwattr $C$DW$232, DW_AT_TI_symbol_name("_feat")
    2926                      .dwattr $C$DW$232, DW_AT_type(*$C$DW$T$23)
    2927                      .dwattr $C$DW$232, DW_AT_location[DW_OP_bregx 0x24 0]
    2928              $C$DW$233       .dwtag  DW_TAG_variable, DW_AT_name("h0")
    2929                      .dwattr $C$DW$233, DW_AT_TI_symbol_name("_h0")
    2930                      .dwattr $C$DW$233, DW_AT_type(*$C$DW$T$101)
    2931                      .dwattr $C$DW$233, DW_AT_location[DW_OP_bregx 0x24 2]
    2932              $C$DW$234       .dwtag  DW_TAG_variable, DW_AT_name("h1")
    2933                      .dwattr $C$DW$234, DW_AT_TI_symbol_name("_h1")
    2934                      .dwattr $C$DW$234, DW_AT_type(*$C$DW$T$101)
    2935                      .dwattr $C$DW$234, DW_AT_location[DW_OP_bregx 0x24 4]
    2936              $C$DW$235       .dwtag  DW_TAG_variable, DW_AT_name("scr_h0")
    2937                      .dwattr $C$DW$235, DW_AT_TI_symbol_name("_scr_h0")
    2938                      .dwattr $C$DW$235, DW_AT_type(*$C$DW$T$8)
    2939                      .dwattr $C$DW$235, DW_AT_location[DW_OP_bregx 0x24 6]
    2940              $C$DW$236       .dwtag  DW_TAG_variable, DW_AT_name("scr_h1")
    2941                      .dwattr $C$DW$236, DW_AT_TI_symbol_name("_scr_h1")
    2942                      .dwattr $C$DW$236, DW_AT_type(*$C$DW$T$8)
    2943                      .dwattr $C$DW$236, DW_AT_location[DW_OP_bregx 0x24 7]
    2944              $C$DW$237       .dwtag  DW_TAG_variable, DW_AT_name("gconst")
    2945                      .dwattr $C$DW$237, DW_AT_TI_symbol_name("_gconst")
    2946                      .dwattr $C$DW$237, DW_AT_type(*$C$DW$T$8)
    2947                      .dwattr $C$DW$237, DW_AT_location[DW_OP_bregx 0x24 8]
    2948              $C$DW$238       .dwtag  DW_TAG_variable, DW_AT_name("mu")
    2949                      .dwattr $C$DW$238, DW_AT_TI_symbol_name("_mu")
    2950                      .dwattr $C$DW$238, DW_AT_type(*$C$DW$T$23)
    2951                      .dwattr $C$DW$238, DW_AT_location[DW_OP_bregx 0x24 10]
    2952              $C$DW$239       .dwtag  DW_TAG_variable, DW_AT_name("invvar")
    2953                      .dwattr $C$DW$239, DW_AT_TI_symbol_name("_invvar")
    2954                      .dwattr $C$DW$239, DW_AT_type(*$C$DW$T$23)
    2955                      .dwattr $C$DW$239, DW_AT_location[DW_OP_bregx 0x24 12]
    2956              $C$DW$240       .dwtag  DW_TAG_variable, DW_AT_name("fea")
    2957                      .dwattr $C$DW$240, DW_AT_TI_symbol_name("_fea")
    2958                      .dwattr $C$DW$240, DW_AT_type(*$C$DW$T$8)
    2959                      .dwattr $C$DW$240, DW_AT_location[DW_OP_bregx 0x24 14]
    2960              $C$DW$241       .dwtag  DW_TAG_variable, DW_AT_name("pfea")
    2961                      .dwattr $C$DW$241, DW_AT_TI_symbol_name("_pfea")
    2962                      .dwattr $C$DW$241, DW_AT_type(*$C$DW$T$23)
    2963                      .dwattr $C$DW$241, DW_AT_location[DW_OP_bregx 0x24 16]
    2964              $C$DW$242       .dwtag  DW_TAG_variable, DW_AT_name("diff")
    2965                      .dwattr $C$DW$242, DW_AT_TI_symbol_name("_diff")
    2966                      .dwattr $C$DW$242, DW_AT_type(*$C$DW$T$12)
TMS320C55x Assembler PC v4.4.1 Wed Sep 13 16:33:48 2017

Tools Copyright (c) 1996-2012 Texas Instruments Incorporated
C:\Users\a0221074\AppData\Local\Temp\1193610                         PAGE   65

    2967                      .dwattr $C$DW$242, DW_AT_location[DW_OP_bregx 0x24 18]
    2968 000002 EB08          MOV XAR2, dbl(*SP(#4))
         000004 A5   
    2969 000005 EB04          MOV XAR1, dbl(*SP(#2))
         000007 95   
    2970 000008 EB00          MOV XAR0, dbl(*SP(#0))
         00000a 85   
    2971                      .dwpsn  file "C:/Users/a0221074/Desktop/C5000/IBM_Watson_TIdesign_workarea/CSL_bitbucket/c55_csl/c55x
    2972 00000b ED00          MOV dbl(*SP(#0)), XAR3
         00000d BF   
    2973 00000e A961          MOV *AR3, AR1 ; |2002| 
    2974 000010 C91C          MOV AR1, *SP(#14) ; |2002| 
    2975                      .dwpsn  file "C:/Users/a0221074/Desktop/C5000/IBM_Watson_TIdesign_workarea/CSL_bitbucket/c55_csl/c55x
    2976 000012 F91C          MOV *SP(#14) << #5, AC0 ; |2003| 
         000014 0508 
    2977 000016 C01C          MOV AC0, *SP(#14) ; |2003| 
    2978                      .dwpsn  file "C:/Users/a0221074/Desktop/C5000/IBM_Watson_TIdesign_workarea/CSL_bitbucket/c55_csl/c55x
    2979 000018 EC1C          AMAR *SP(#14), XAR3
         00001a BE   
    2980 00001b EB20          MOV XAR3, dbl(*SP(#16))
         00001d B5   
    2981                      .dwpsn  file "C:/Users/a0221074/Desktop/C5000/IBM_Watson_TIdesign_workarea/CSL_bitbucket/c55_csl/c55x
    2982 00001e ED04          MOV dbl(*SP(#2)), XAR3
         000020 BF   
    2983 000021 A975          MOV *AR3(short(#2)), AR1 ; |2005| 
    2984 000023 C910          MOV AR1, *SP(#8) ; |2005| 
    2985                      .dwpsn  file "C:/Users/a0221074/Desktop/C5000/IBM_Watson_TIdesign_workarea/CSL_bitbucket/c55_csl/c55x
    2986 000025 ED04          MOV dbl(*SP(#2)), XAR3
         000027 BF   
    2987 000028 EB14          MOV XAR3, dbl(*SP(#10))
         00002a B5   
    2988                      .dwpsn  file "C:/Users/a0221074/Desktop/C5000/IBM_Watson_TIdesign_workarea/CSL_bitbucket/c55_csl/c55x
    2989 00002b ED04          MOV dbl(*SP(#2)), XAR3
         00002d BF   
    2990 00002e B463          AMAR *AR3+
    2991 000030 EB18          MOV XAR3, dbl(*SP(#12))
         000032 B5   
    2992                      .dwpsn  file "C:/Users/a0221074/Desktop/C5000/IBM_Watson_TIdesign_workarea/CSL_bitbucket/c55_csl/c55x
    2993 000033 A410          MOV *SP(#8), T0 ; |2008| 
    2994 000035 ED20          MOV dbl(*SP(#16)), XAR0
         000037 8F   
    2995 000038 ED18          MOV dbl(*SP(#12)), XAR2
         00003a AF   
    2996 00003b ED14          MOV dbl(*SP(#10)), XAR1
         00003d 9F   
    2997              $C$DW$243       .dwtag  DW_TAG_TI_branch
    2998                      .dwattr $C$DW$243, DW_AT_low_pc(0x00)
    2999                      .dwattr $C$DW$243, DW_AT_name("_rj_dist")
    3000                      .dwattr $C$DW$243, DW_AT_TI_call
    3001              
    3002 00003e 6C00          CALL #_rj_dist ; |2008| 
         000040 0000+
    3003 000042 3D15  ||      MOV #1, T1
    3004              
    3005                                                      ; call occurs [#_rj_dist] ; |2008| 
TMS320C55x Assembler PC v4.4.1 Wed Sep 13 16:33:48 2017

Tools Copyright (c) 1996-2012 Texas Instruments Incorporated
C:\Users\a0221074\AppData\Local\Temp\1193610                         PAGE   66

    3006 000044 C40C          MOV T0, *SP(#6) ; |2008| 
    3007                      .dwpsn  file "C:/Users/a0221074/Desktop/C5000/IBM_Watson_TIdesign_workarea/CSL_bitbucket/c55_csl/c55x
    3008 000046 ED00          MOV dbl(*SP(#0)), XAR3
         000048 BF   
    3009 000049 A961          MOV *AR3, AR1 ; |2010| 
    3010 00004b C91C          MOV AR1, *SP(#14) ; |2010| 
    3011                      .dwpsn  file "C:/Users/a0221074/Desktop/C5000/IBM_Watson_TIdesign_workarea/CSL_bitbucket/c55_csl/c55x
    3012 00004d F91C          MOV *SP(#14) << #5, AC0 ; |2011| 
         00004f 0508 
    3013 000051 C01C          MOV AC0, *SP(#14) ; |2011| 
    3014                      .dwpsn  file "C:/Users/a0221074/Desktop/C5000/IBM_Watson_TIdesign_workarea/CSL_bitbucket/c55_csl/c55x
    3015 000053 EC1C          AMAR *SP(#14), XAR3
         000055 BE   
    3016 000056 EB20          MOV XAR3, dbl(*SP(#16))
         000058 B5   
    3017                      .dwpsn  file "C:/Users/a0221074/Desktop/C5000/IBM_Watson_TIdesign_workarea/CSL_bitbucket/c55_csl/c55x
    3018 000059 ED08          MOV dbl(*SP(#4)), XAR3
         00005b BF   
    3019 00005c A975          MOV *AR3(short(#2)), AR1 ; |2013| 
    3020 00005e C910          MOV AR1, *SP(#8) ; |2013| 
    3021                      .dwpsn  file "C:/Users/a0221074/Desktop/C5000/IBM_Watson_TIdesign_workarea/CSL_bitbucket/c55_csl/c55x
    3022 000060 ED08          MOV dbl(*SP(#4)), XAR3
         000062 BF   
    3023 000063 EB14          MOV XAR3, dbl(*SP(#10))
         000065 B5   
    3024                      .dwpsn  file "C:/Users/a0221074/Desktop/C5000/IBM_Watson_TIdesign_workarea/CSL_bitbucket/c55_csl/c55x
    3025 000066 ED08          MOV dbl(*SP(#4)), XAR3
         000068 BF   
    3026 000069 B463          AMAR *AR3+
    3027 00006b EB18          MOV XAR3, dbl(*SP(#12))
         00006d B5   
    3028                      .dwpsn  file "C:/Users/a0221074/Desktop/C5000/IBM_Watson_TIdesign_workarea/CSL_bitbucket/c55_csl/c55x
    3029 00006e A410          MOV *SP(#8), T0 ; |2016| 
    3030 000070 ED14          MOV dbl(*SP(#10)), XAR1
         000072 9F   
    3031 000073 ED20          MOV dbl(*SP(#16)), XAR0
         000075 8F   
    3032 000076 ED18          MOV dbl(*SP(#12)), XAR2
         000078 AF   
    3033              $C$DW$244       .dwtag  DW_TAG_TI_branch
    3034                      .dwattr $C$DW$244, DW_AT_low_pc(0x00)
    3035                      .dwattr $C$DW$244, DW_AT_name("_rj_dist")
    3036                      .dwattr $C$DW$244, DW_AT_TI_call
    3037 000079 6C00          CALL #_rj_dist ; |2016| 
         00007b 0000+
    3038                                                      ; call occurs [#_rj_dist] ; |2016| 
    3039 00007d C40E          MOV T0, *SP(#7) ; |2016| 
    3040                      .dwpsn  file "C:/Users/a0221074/Desktop/C5000/IBM_Watson_TIdesign_workarea/CSL_bitbucket/c55_csl/c55x
    3041 00007f 2249          MOV T0, AR1
    3042 000081 D80C          SUB AR1, *SP(#6), AR1 ; |2018| 
         000083 99   
    3043 000084 2290          MOV AR1, AC0
    3044 000086 EB24          MOV AC0, dbl(*SP(#18)) ; |2018| 
         000088 08   
    3045                      .dwpsn  file "C:/Users/a0221074/Desktop/C5000/IBM_Watson_TIdesign_workarea/CSL_bitbucket/c55_csl/c55x
TMS320C55x Assembler PC v4.4.1 Wed Sep 13 16:33:48 2017

Tools Copyright (c) 1996-2012 Texas Instruments Incorporated
C:\Users\a0221074\AppData\Local\Temp\1193610                         PAGE   67

    3046 000089 7680          MOV #-32768, AC0 ; |2020| 
         00008b 0008 
    3047 00008d ED24          MOV dbl(*SP(#18)), AC1 ; |2020| 
         00008f 18   
    3048 000090 1208          CMP AC1 <= AC0, TC1 ; |2020| 
         000092 10   
    3049 000093 61E4          BCC $C$L51,TC1 ; |2020| 
    3050                                                      ; branchcc occurs ; |2020| 
    3051 000095 ED24          MOV dbl(*SP(#18)), AC0 ; |2020| 
         000097 08   
    3052 000098       $C$L51:    
    3053 000098 767F          MOV #32767, AC1 ; |2020| 
         00009a FF18 
    3054 00009c 1208          CMP AC0 >= AC1, TC1 ; |2020| 
         00009e 10   
    3055 00009f 0464          BCC $C$L52,TC1 ; |2020| 
         0000a1 11   
    3056                                                      ; branchcc occurs ; |2020| 
    3057 0000a2 7680          MOV #-32768, AC0 ; |2020| 
         0000a4 0008 
    3058 0000a6 ED24          MOV dbl(*SP(#18)), AC1 ; |2020| 
         0000a8 18   
    3059 0000a9 1208          CMP AC1 <= AC0, TC1 ; |2020| 
         0000ab 10   
    3060 0000ac 64E4          BCC $C$L53,TC1 ; |2020| 
    3061                                                      ; branchcc occurs ; |2020| 
    3062 0000ae ED24          MOV dbl(*SP(#18)), AC0 ; |2020| 
         0000b0 08   
    3063 0000b1 4A04          B $C$L53  ; |2020| 
    3064                                                      ; branch occurs ; |2020| 
    3065 0000b3       $C$L52:    
    3066 0000b3 767F          MOV #32767, AC0 ; |2020| 
         0000b5 FF08 
    3067 0000b7       $C$L53:    
    3068                      .dwpsn  file "C:/Users/a0221074/Desktop/C5000/IBM_Watson_TIdesign_workarea/CSL_bitbucket/c55_csl/c55x
    3069 0000b7 2204          MOV AC0, T0 ; |2020| 
    3070 0000b9 4E15          AADD #21, SP ; |2020| 
    3071                      .dwcfi  cfa_offset, 1
    3072              $C$DW$245       .dwtag  DW_TAG_TI_branch
    3073                      .dwattr $C$DW$245, DW_AT_low_pc(0x00)
    3074                      .dwattr $C$DW$245, DW_AT_TI_return
    3075 0000bb 4804          RET       ; |2020| 
    3076                                                      ; return occurs ; |2020| 
    3077                      .dwattr $C$DW$228, DW_AT_TI_end_file("C:/Users/a0221074/Desktop/C5000/IBM_Watson_TIdesign_workarea/CS
    3078                      .dwattr $C$DW$228, DW_AT_TI_end_line(0x7e5)
    3079                      .dwattr $C$DW$228, DW_AT_TI_end_column(0x01)
    3080                      .dwendentry
    3081                      .dwendtag $C$DW$228
    3082              
    3083 000000               .sect   ".text:_cm_calc_proddiff"
    3084                      .clink
    3085              
    3086              $C$DW$246       .dwtag  DW_TAG_subprogram, DW_AT_name("cm_calc_proddiff")
    3087                      .dwattr $C$DW$246, DW_AT_low_pc(_cm_calc_proddiff)
    3088                      .dwattr $C$DW$246, DW_AT_high_pc(0x00)
TMS320C55x Assembler PC v4.4.1 Wed Sep 13 16:33:48 2017

Tools Copyright (c) 1996-2012 Texas Instruments Incorporated
C:\Users\a0221074\AppData\Local\Temp\1193610                         PAGE   68

    3089                      .dwattr $C$DW$246, DW_AT_TI_symbol_name("_cm_calc_proddiff")
    3090                      .dwattr $C$DW$246, DW_AT_type(*$C$DW$T$8)
    3091                      .dwattr $C$DW$246, DW_AT_TI_begin_file("C:/Users/a0221074/Desktop/C5000/IBM_Watson_TIdesign_workarea/
    3092                      .dwattr $C$DW$246, DW_AT_TI_begin_line(0x7ec)
    3093                      .dwattr $C$DW$246, DW_AT_TI_begin_column(0x0e)
    3094                      .dwattr $C$DW$246, DW_AT_TI_max_frame_size(0x06)
    3095                      .dwpsn  file "C:/Users/a0221074/Desktop/C5000/IBM_Watson_TIdesign_workarea/CSL_bitbucket/c55_csl/c55x
    3096              
    3097                      .dwfde $C$DW$CIE, _cm_calc_proddiff
    3098              $C$DW$247       .dwtag  DW_TAG_formal_parameter, DW_AT_name("pConf")
    3099                      .dwattr $C$DW$247, DW_AT_TI_symbol_name("_pConf")
    3100                      .dwattr $C$DW$247, DW_AT_type(*$C$DW$T$91)
    3101                      .dwattr $C$DW$247, DW_AT_location[DW_OP_reg17]
    3102              ;*******************************************************************************
    3103              ;* FUNCTION NAME: cm_calc_proddiff                                             *
    3104              ;*                                                                             *
    3105              ;*   Function Uses Regs : AC0,AC0,AC1,AC1,T0,T1,AR0,XAR0,AR2,XAR2,AR3,XAR3,SP, *
    3106              ;*                        TC1,M40,SATA,SATD,RDM,FRCT,SMUL                      *
    3107              ;*   Stack Frame        : Compact (No Frame Pointer, w/ debug)                 *
    3108              ;*   Total Frame Size   : 6 words                                              *
    3109              ;*                        (2 return address/alignment)                         *
    3110              ;*                        (4 local values)                                     *
    3111              ;*   Min System Stack   : 1 word                                               *
