TMS320C55x Assembler PC v4.4.1 Wed Sep 13 16:34:03 2017

Tools Copyright (c) 1996-2012 Texas Instruments Incorporated
C:\Users\a0221074\AppData\Local\Temp\0125610                         PAGE    1

   17221              ; Temporary Registers Used: None
       1              ;*******************************************************************************
       2              ;* TMS320C55x C/C++ Codegen                                          PC v4.4.1 *
       3              ;* Date/Time created: Wed Sep 13 16:33:51 2017                                 *
       4              ;*******************************************************************************
       5                      .compiler_opts --hll_source=on --mem_model:code=flat --mem_model:data=huge --object_format=coff --sil
       6                      .mmregs
       7                      .cpl_on
       8                      .arms_on
       9                      .c54cm_off
      10                      .asg AR6, FP
      11                      .asg XAR6, XFP
      12                      .asg DPH, MDP
      13                      .model call=c55_std
      14                      .model mem=huge
      15                      .noremark 5002  ; code respects overwrite rules
      16              ;*******************************************************************************
      17              ;* GLOBAL FILE PARAMETERS                                                      *
      18              ;*                                                                             *
      19              ;*   Architecture       : TMS320C55x                                           *
      20              ;*   Optimizing for     : Speed                                                *
      21              ;*   Memory             : Huge Model (23-Bit Data Pointers)                    *
      22              ;*   Calls              : Normal Library ASM calls                             *
      23              ;*   Debug Info         : Standard TI Debug Information                        *
      24              ;*******************************************************************************
      25              
      26              $C$DW$CU        .dwtag  DW_TAG_compile_unit
      27                      .dwattr $C$DW$CU, DW_AT_name("C:/Users/a0221074/Desktop/C5000/IBM_Watson_TIdesign_workarea/CSL_bitbuc
      28                      .dwattr $C$DW$CU, DW_AT_producer("TMS320C55x C/C++ Codegen PC v4.4.1 Copyright (c) 1996-2012 Texas In
      29                      .dwattr $C$DW$CU, DW_AT_TI_version(0x01)
      30                      .dwattr $C$DW$CU, DW_AT_comp_dir("C:\Users\a0221074\Desktop\C5000\IBM_Watson_TIdesign_workarea\CSL_bi
      31              
      32              $C$DW$1 .dwtag  DW_TAG_subprogram, DW_AT_name("hlr_logsum")
      33                      .dwattr $C$DW$1, DW_AT_TI_symbol_name("_hlr_logsum")
      34                      .dwattr $C$DW$1, DW_AT_type(*$C$DW$T$8)
      35                      .dwattr $C$DW$1, DW_AT_declaration
      36                      .dwattr $C$DW$1, DW_AT_external
      37              $C$DW$2 .dwtag  DW_TAG_formal_parameter
      38                      .dwattr $C$DW$2, DW_AT_type(*$C$DW$T$8)
      39              $C$DW$3 .dwtag  DW_TAG_formal_parameter
      40                      .dwattr $C$DW$3, DW_AT_type(*$C$DW$T$8)
      41                      .dwendtag $C$DW$1
      42              
      43              
      44              $C$DW$4 .dwtag  DW_TAG_subprogram, DW_AT_name("cm_antiscr")
      45                      .dwattr $C$DW$4, DW_AT_TI_symbol_name("_cm_antiscr")
      46                      .dwattr $C$DW$4, DW_AT_type(*$C$DW$T$23)
      47                      .dwattr $C$DW$4, DW_AT_declaration
      48                      .dwattr $C$DW$4, DW_AT_external
      49              $C$DW$5 .dwtag  DW_TAG_formal_parameter
      50                      .dwattr $C$DW$5, DW_AT_type(*$C$DW$T$92)
      51              $C$DW$6 .dwtag  DW_TAG_formal_parameter
      52                      .dwattr $C$DW$6, DW_AT_type(*$C$DW$T$21)
      53                      .dwendtag $C$DW$4
      54              
TMS320C55x Assembler PC v4.4.1 Wed Sep 13 16:34:03 2017

Tools Copyright (c) 1996-2012 Texas Instruments Incorporated
C:\Users\a0221074\AppData\Local\Temp\0125610                         PAGE    2

      55 000000               .sect   ".const:_$P$T0$1"
      56                      .clink
      57                      .align  1
      58 000000       _$P$T0$1:
      59 000000 4000          .field  16384,16                        ; _$P$T0$1[0] @ 0
      60 000001 399A          .field  14746,16                        ; _$P$T0$1[1] @ 16
      61 000002 33D7          .field  13271,16                        ; _$P$T0$1[2] @ 32
      62 000003 2EA8          .field  11944,16                        ; _$P$T0$1[3] @ 48
      63 000004 29FE          .field  10750,16                        ; _$P$T0$1[4] @ 64
      64 000005 25CB          .field  9675,16                 ; _$P$T0$1[5] @ 80
      65 000006 2202          .field  8706,16                 ; _$P$T0$1[6] @ 96
      66 000007 1E9C          .field  7836,16                 ; _$P$T0$1[7] @ 112
      67 000008 1B8D          .field  7053,16                 ; _$P$T0$1[8] @ 128
      68 000009 18CB          .field  6347,16                 ; _$P$T0$1[9] @ 144
      69 00000a 1651          .field  5713,16                 ; _$P$T0$1[10] @ 160
      70 00000b 1415          .field  5141,16                 ; _$P$T0$1[11] @ 176
      71 00000c 1213          .field  4627,16                 ; _$P$T0$1[12] @ 192
      72 00000d 1045          .field  4165,16                 ; _$P$T0$1[13] @ 208
      73 00000e 0EA5          .field  3749,16                 ; _$P$T0$1[14] @ 224
      74 00000f 0D2D          .field  3373,16                 ; _$P$T0$1[15] @ 240
      75 000010 0BDC          .field  3036,16                 ; _$P$T0$1[16] @ 256
      76 000011 0AAD          .field  2733,16                 ; _$P$T0$1[17] @ 272
      77 000012 099B          .field  2459,16                 ; _$P$T0$1[18] @ 288
      78 000013 08A5          .field  2213,16                 ; _$P$T0$1[19] @ 304
      79 000014 07C8          .field  1992,16                 ; _$P$T0$1[20] @ 320
      80 000015               .space  16
      81              
      82              $C$DW$7 .dwtag  DW_TAG_variable, DW_AT_name("$P$T0$1")
      83                      .dwattr $C$DW$7, DW_AT_TI_symbol_name("_$P$T0$1")
      84                      .dwattr $C$DW$7, DW_AT_type(*$C$DW$T$152)
      85                      .dwattr $C$DW$7, DW_AT_location[DW_OP_addr _$P$T0$1]
      86              ;       C:\ti\ccsv7\tools\compiler\c5500_4.4.1\bin\acp55.exe -@C:\\Users\\a0221074\\AppData\\Local\\Temp\\012
      87 000000               .sect   ".text:_set_search_space"
      88                      .clink
      89                      .global _set_search_space
      90              
      91              $C$DW$8 .dwtag  DW_TAG_subprogram, DW_AT_name("set_search_space")
      92                      .dwattr $C$DW$8, DW_AT_low_pc(_set_search_space)
      93                      .dwattr $C$DW$8, DW_AT_high_pc(0x00)
      94                      .dwattr $C$DW$8, DW_AT_TI_symbol_name("_set_search_space")
      95                      .dwattr $C$DW$8, DW_AT_external
      96                      .dwattr $C$DW$8, DW_AT_TI_begin_file("C:/Users/a0221074/Desktop/C5000/IBM_Watson_TIdesign_workarea/CS
      97                      .dwattr $C$DW$8, DW_AT_TI_begin_line(0x47)
      98                      .dwattr $C$DW$8, DW_AT_TI_begin_column(0x1d)
      99                      .dwattr $C$DW$8, DW_AT_TI_max_frame_size(0x0c)
     100                      .dwpsn  file "C:/Users/a0221074/Desktop/C5000/IBM_Watson_TIdesign_workarea/CSL_bitbucket/c55_csl/c55x
     101              
     102                      .dwfde $C$DW$CIE, _set_search_space
     103              $C$DW$9 .dwtag  DW_TAG_formal_parameter, DW_AT_name("search_space")
     104                      .dwattr $C$DW$9, DW_AT_TI_symbol_name("_search_space")
     105                      .dwattr $C$DW$9, DW_AT_type(*$C$DW$T$23)
     106                      .dwattr $C$DW$9, DW_AT_location[DW_OP_reg17]
     107              $C$DW$10        .dwtag  DW_TAG_formal_parameter, DW_AT_name("beam_z")
     108                      .dwattr $C$DW$10, DW_AT_TI_symbol_name("_beam_z")
     109                      .dwattr $C$DW$10, DW_AT_type(*$C$DW$T$21)
TMS320C55x Assembler PC v4.4.1 Wed Sep 13 16:34:03 2017

Tools Copyright (c) 1996-2012 Texas Instruments Incorporated
C:\Users\a0221074\AppData\Local\Temp\0125610                         PAGE    3

     110                      .dwattr $C$DW$10, DW_AT_location[DW_OP_reg12]
     111              $C$DW$11        .dwtag  DW_TAG_formal_parameter, DW_AT_name("sym_z")
     112                      .dwattr $C$DW$11, DW_AT_TI_symbol_name("_sym_z")
     113                      .dwattr $C$DW$11, DW_AT_type(*$C$DW$T$21)
     114                      .dwattr $C$DW$11, DW_AT_location[DW_OP_reg13]
     115              $C$DW$12        .dwtag  DW_TAG_formal_parameter, DW_AT_name("state_z")
     116                      .dwattr $C$DW$12, DW_AT_TI_symbol_name("_state_z")
     117                      .dwattr $C$DW$12, DW_AT_type(*$C$DW$T$21)
     118                      .dwattr $C$DW$12, DW_AT_location[DW_OP_reg18]
     119              $C$DW$13        .dwtag  DW_TAG_formal_parameter, DW_AT_name("time_z")
     120                      .dwattr $C$DW$13, DW_AT_TI_symbol_name("_time_z")
     121                      .dwattr $C$DW$13, DW_AT_type(*$C$DW$T$21)
     122                      .dwattr $C$DW$13, DW_AT_location[DW_OP_reg20]
     123              $C$DW$14        .dwtag  DW_TAG_formal_parameter, DW_AT_name("gv")
     124                      .dwattr $C$DW$14, DW_AT_TI_symbol_name("_gv")
     125                      .dwattr $C$DW$14, DW_AT_type(*$C$DW$T$100)
     126                      .dwattr $C$DW$14, DW_AT_location[DW_OP_reg23]
     127              ;*******************************************************************************
     128              ;* FUNCTION NAME: set_search_space                                             *
     129              ;*                                                                             *
     130              ;*   Function Uses Regs : AC0,AC0,T0,T1,AR0,XAR0,AR1,AR2,XAR2,AR3,XAR3,SP,     *
     131              ;*                        CARRY,M40,SATA,SATD,RDM,FRCT,SMUL                    *
     132              ;*   Stack Frame        : Compact (No Frame Pointer, w/ debug)                 *
     133              ;*   Total Frame Size   : 12 words                                             *
     134              ;*                        (2 return address/alignment)                         *
     135              ;*                        (10 local values)                                    *
     136              ;*   Min System Stack   : 1 word                                               *
     137              ;*******************************************************************************
     138 000000       _set_search_space:
     139                      .dwcfi  cfa_offset, 1
     140                      .dwcfi  save_reg_to_mem, 91, -1
     141 000000 4EF5          AADD #-11, SP
     142                      .dwcfi  cfa_offset, 12
     143              $C$DW$15        .dwtag  DW_TAG_variable, DW_AT_name("search_space")
     144                      .dwattr $C$DW$15, DW_AT_TI_symbol_name("_search_space")
     145                      .dwattr $C$DW$15, DW_AT_type(*$C$DW$T$23)
     146                      .dwattr $C$DW$15, DW_AT_location[DW_OP_bregx 0x24 0]
     147              $C$DW$16        .dwtag  DW_TAG_variable, DW_AT_name("beam_z")
     148                      .dwattr $C$DW$16, DW_AT_TI_symbol_name("_beam_z")
     149                      .dwattr $C$DW$16, DW_AT_type(*$C$DW$T$21)
     150                      .dwattr $C$DW$16, DW_AT_location[DW_OP_bregx 0x24 2]
     151              $C$DW$17        .dwtag  DW_TAG_variable, DW_AT_name("sym_z")
     152                      .dwattr $C$DW$17, DW_AT_TI_symbol_name("_sym_z")
     153                      .dwattr $C$DW$17, DW_AT_type(*$C$DW$T$21)
     154                      .dwattr $C$DW$17, DW_AT_location[DW_OP_bregx 0x24 3]
     155              $C$DW$18        .dwtag  DW_TAG_variable, DW_AT_name("state_z")
     156                      .dwattr $C$DW$18, DW_AT_TI_symbol_name("_state_z")
     157                      .dwattr $C$DW$18, DW_AT_type(*$C$DW$T$21)
     158                      .dwattr $C$DW$18, DW_AT_location[DW_OP_bregx 0x24 4]
     159              $C$DW$19        .dwtag  DW_TAG_variable, DW_AT_name("time_z")
     160                      .dwattr $C$DW$19, DW_AT_TI_symbol_name("_time_z")
     161                      .dwattr $C$DW$19, DW_AT_type(*$C$DW$T$21)
     162                      .dwattr $C$DW$19, DW_AT_location[DW_OP_bregx 0x24 5]
     163              $C$DW$20        .dwtag  DW_TAG_variable, DW_AT_name("gv")
     164                      .dwattr $C$DW$20, DW_AT_TI_symbol_name("_gv")
TMS320C55x Assembler PC v4.4.1 Wed Sep 13 16:34:03 2017

Tools Copyright (c) 1996-2012 Texas Instruments Incorporated
C:\Users\a0221074\AppData\Local\Temp\0125610                         PAGE    4

     165                      .dwattr $C$DW$20, DW_AT_type(*$C$DW$T$100)
     166                      .dwattr $C$DW$20, DW_AT_location[DW_OP_bregx 0x24 6]
     167              $C$DW$21        .dwtag  DW_TAG_variable, DW_AT_name("c")
     168                      .dwattr $C$DW$21, DW_AT_TI_symbol_name("_c")
     169                      .dwattr $C$DW$21, DW_AT_type(*$C$DW$T$11)
     170                      .dwattr $C$DW$21, DW_AT_location[DW_OP_bregx 0x24 8]
     171              $C$DW$22        .dwtag  DW_TAG_variable, DW_AT_name("k")
     172                      .dwattr $C$DW$22, DW_AT_TI_symbol_name("_k")
     173                      .dwattr $C$DW$22, DW_AT_type(*$C$DW$T$8)
     174                      .dwattr $C$DW$22, DW_AT_location[DW_OP_bregx 0x24 9]
     175 000002 EB0C          MOV XAR3, dbl(*SP(#6))
         000004 B5   
     176 000005 CA0A          MOV AR2, *SP(#5) ; |73| 
     177 000007 C908          MOV AR1, *SP(#4) ; |73| 
     178 000009 C506          MOV T1, *SP(#3) ; |73| 
     179 00000b C404          MOV T0, *SP(#2) ; |73| 
     180 00000d EB00          MOV XAR0, dbl(*SP(#0))
         00000f 85   
     181                      .dwpsn  file "C:/Users/a0221074/Desktop/C5000/IBM_Watson_TIdesign_workarea/CSL_bitbucket/c55_csl/c55x
     182 000010 E610          MOV #0, *SP(#8) ; |74| 
         000012 00   
     183                      .dwpsn  file "C:/Users/a0221074/Desktop/C5000/IBM_Watson_TIdesign_workarea/CSL_bitbucket/c55_csl/c55x
     184 000013 ED0C          MOV dbl(*SP(#6)), XAR3
         000015 BF   
     185 000016 A908          MOV *SP(#4), AR1 ; |77| 
     186 000018 C96D          MOV AR1, *AR3(#1974) ; |77| 
         00001a 07B6 
     187                      .dwpsn  file "C:/Users/a0221074/Desktop/C5000/IBM_Watson_TIdesign_workarea/CSL_bitbucket/c55_csl/c55x
     188 00001c ED0C          MOV dbl(*SP(#6)), XAR3
         00001e BF   
     189 00001f A906          MOV *SP(#3), AR1 ; |79| 
     190 000021 5091          SFTL AR1, #-1 ; |79| 
     191 000023 C96D          MOV AR1, *AR3(#1977) ; |79| 
         000025 07B9 
     192                      .dwpsn  file "C:/Users/a0221074/Desktop/C5000/IBM_Watson_TIdesign_workarea/CSL_bitbucket/c55_csl/c55x
     193 000027 ED0C          MOV dbl(*SP(#6)), XAR3
         000029 BF   
     194 00002a A904          MOV *SP(#2), AR1 ; |80| 
     195 00002c C96D          MOV AR1, *AR3(#1975) ; |80| 
         00002e 07B7 
     196                      .dwpsn  file "C:/Users/a0221074/Desktop/C5000/IBM_Watson_TIdesign_workarea/CSL_bitbucket/c55_csl/c55x
     197 000030 ED0C          MOV dbl(*SP(#6)), XAR3
         000032 BF   
     198 000033 A90A          MOV *SP(#5), AR1 ; |81| 
     199 000035 C96D          MOV AR1, *AR3(#1976) ; |81| 
         000037 07B8 
     200                      .dwpsn  file "C:/Users/a0221074/Desktop/C5000/IBM_Watson_TIdesign_workarea/CSL_bitbucket/c55_csl/c55x
     201 000039 DF10          MOV uns(*SP(#8)), AC0 ; |84| 
         00003b 05   
     202 00003c 900A          MOV AC0, XAR2
     203 00003e ED00          MOV dbl(*SP(#0)), XAR3
         000040 BF   
     204 000041 14A1          AADD XAR2, XAR3 ; |84| 
         000043 B0   
     205 000044 ED0C          MOV dbl(*SP(#6)), XAR2
TMS320C55x Assembler PC v4.4.1 Wed Sep 13 16:34:03 2017

Tools Copyright (c) 1996-2012 Texas Instruments Incorporated
C:\Users\a0221074\AppData\Local\Temp\0125610                         PAGE    5

         000046 AF   
     206 000047 EB4D          MOV XAR3, dbl(*AR2(#1166))
         000049 B504 
         00004b 8E   
     207                      .dwpsn  file "C:/Users/a0221074/Desktop/C5000/IBM_Watson_TIdesign_workarea/CSL_bitbucket/c55_csl/c55x
     208 00004c ED0C          MOV dbl(*SP(#6)), XAR3
         00004e BF   
     209 00004f A010          MOV *SP(#8), AC0 ; |86| 
     210 000051 F86D          MACMK *AR3(#1975), #3, AC0, AC0 ; |86| 
         000053 0304 
         000055 07B7 
     211 000057 C010          MOV AC0, *SP(#8) ; |86| 
     212                      .dwpsn  file "C:/Users/a0221074/Desktop/C5000/IBM_Watson_TIdesign_workarea/CSL_bitbucket/c55_csl/c55x
     213 000059 ED00          MOV dbl(*SP(#0)), XAR3
         00005b BF   
     214 00005c DF10          MOV uns(*SP(#8)), AC0 ; |89| 
         00005e 05   
     215 00005f 900A          MOV AC0, XAR2
     216 000061 14A1          AADD XAR2, XAR3 ; |89| 
         000063 B0   
     217 000064 ED0C          MOV dbl(*SP(#6)), XAR2
         000066 AF   
     218 000067 EB4D          MOV XAR3, dbl(*AR2(#1162))
         000069 B504 
         00006b 8A   
     219                      .dwpsn  file "C:/Users/a0221074/Desktop/C5000/IBM_Watson_TIdesign_workarea/CSL_bitbucket/c55_csl/c55x
     220 00006c ED0C          MOV dbl(*SP(#6)), XAR3
         00006e BF   
     221 00006f A010          MOV *SP(#8), AC0 ; |93| 
     222 000071 F86D          MACMK *AR3(#1977), #6, AC0, AC0 ; |93| 
         000073 0604 
         000075 07B9 
     223 000077 C010          MOV AC0, *SP(#8) ; |93| 
     224                      .dwpsn  file "C:/Users/a0221074/Desktop/C5000/IBM_Watson_TIdesign_workarea/CSL_bitbucket/c55_csl/c55x
     225 000079 ED00          MOV dbl(*SP(#0)), XAR3
         00007b BF   
     226 00007c DF10          MOV uns(*SP(#8)), AC0 ; |97| 
         00007e 05   
     227 00007f 900A          MOV AC0, XAR2
     228 000081 14A1          AADD XAR2, XAR3 ; |97| 
         000083 B0   
     229 000084 ED0C          MOV dbl(*SP(#6)), XAR2
         000086 AF   
     230 000087 EB4D          MOV XAR3, dbl(*AR2(#1164))
         000089 B504 
         00008b 8C   
     231                      .dwpsn  file "C:/Users/a0221074/Desktop/C5000/IBM_Watson_TIdesign_workarea/CSL_bitbucket/c55_csl/c55x
     232 00008c ED0C          MOV dbl(*SP(#6)), XAR3
         00008e BF   
     233 00008f A010          MOV *SP(#8), AC0 ; |98| 
     234 000091 F86D          MACMK *AR3(#1974), #3, AC0, AC0 ; |98| 
         000093 0304 
         000095 07B6 
     235 000097 C010          MOV AC0, *SP(#8) ; |98| 
     236                      .dwpsn  file "C:/Users/a0221074/Desktop/C5000/IBM_Watson_TIdesign_workarea/CSL_bitbucket/c55_csl/c55x
TMS320C55x Assembler PC v4.4.1 Wed Sep 13 16:34:03 2017

Tools Copyright (c) 1996-2012 Texas Instruments Incorporated
C:\Users\a0221074\AppData\Local\Temp\0125610                         PAGE    6

     237 000099 ED00          MOV dbl(*SP(#0)), XAR3
         00009b BF   
     238 00009c DF10          MOV uns(*SP(#8)), AC0 ; |101| 
         00009e 05   
     239 00009f 900A          MOV AC0, XAR2
     240 0000a1 14A1          AADD XAR2, XAR3 ; |101| 
         0000a3 B0   
     241 0000a4 ED0C          MOV dbl(*SP(#6)), XAR2
         0000a6 AF   
     242 0000a7 EB4D          MOV XAR3, dbl(*AR2(#1168))
         0000a9 B504 
         0000ab 90   
     243                      .dwpsn  file "C:/Users/a0221074/Desktop/C5000/IBM_Watson_TIdesign_workarea/CSL_bitbucket/c55_csl/c55x
     244 0000ac ED0C          MOV dbl(*SP(#6)), XAR3
         0000ae BF   
     245 0000af A96D          MOV *AR3(#1976), AR1 ; |102| 
         0000b1 07B8 
     246 0000b3 5090          SFTL AR1, #1 ; |102| 
     247 0000b5 D610          ADD *SP(#8), AR1, AR1 ; |102| 
         0000b7 99   
     248 0000b8 C910          MOV AR1, *SP(#8) ; |102| 
     249                      .dwpsn  file "C:/Users/a0221074/Desktop/C5000/IBM_Watson_TIdesign_workarea/CSL_bitbucket/c55_csl/c55x
     250 0000ba ED0C          MOV dbl(*SP(#6)), XAR3
         0000bc BF   
     251 0000bd E66D          MOV #0, *AR3(#1263) ; |126| 
         0000bf 0004 
         0000c1 EF   
     252                      .dwpsn  file "C:/Users/a0221074/Desktop/C5000/IBM_Watson_TIdesign_workarea/CSL_bitbucket/c55_csl/c55x
     253 0000c2 ED0C          MOV dbl(*SP(#6)), XAR3
         0000c4 BF   
     254 0000c5 A96D          MOV *AR3(#1262), AR1 ; |127| 
         0000c7 04EE 
     255 0000c9 4219          SUB #1, AR1 ; |127| 
     256 0000cb C912          MOV AR1, *SP(#9) ; |127| 
     257                      .dwpsn  file "C:/Users/a0221074/Desktop/C5000/IBM_Watson_TIdesign_workarea/CSL_bitbucket/c55_csl/c55x
     258 0000cd 0429          BCC $C$L2,AR1 < #0 ; |127| 
         0000cf 16   
     259                                                      ; branchcc occurs ; |127| 
     260 0000d0       $C$L1:    
     261 0000d0       $C$DW$L$_set_search_space$2$B:
     262                      .dwpsn  file "C:/Users/a0221074/Desktop/C5000/IBM_Watson_TIdesign_workarea/CSL_bitbucket/c55_csl/c55x
     263 0000d0 ED0C          MOV dbl(*SP(#6)), XAR3
         0000d2 BF   
     264 0000d3 2294          MOV AR1, T0
     265 0000d5 ED6D          MOV dbl(*AR3(#1264)), XAR3
         0000d7 BF04 
         0000d9 F0   
     266 0000da E66B          MOV #-1, *AR3(T0) ; |128| 
         0000dc FF   
     267                      .dwpsn  file "C:/Users/a0221074/Desktop/C5000/IBM_Watson_TIdesign_workarea/CSL_bitbucket/c55_csl/c55x
     268 0000dd F712          SUB #1, *SP(#9) ; |127| 
         0000df FFFF 
     269                      .dwpsn  file "C:/Users/a0221074/Desktop/C5000/IBM_Watson_TIdesign_workarea/CSL_bitbucket/c55_csl/c55x
     270 0000e1 A912          MOV *SP(#9), AR1 ; |127| 
     271 0000e3 0459          BCC $C$L1,AR1 >= #0 ; |127| 
TMS320C55x Assembler PC v4.4.1 Wed Sep 13 16:34:03 2017

Tools Copyright (c) 1996-2012 Texas Instruments Incorporated
C:\Users\a0221074\AppData\Local\Temp\0125610                         PAGE    7

         0000e5 EA   
     272                                                      ; branchcc occurs ; |127| 
     273 0000e6       $C$DW$L$_set_search_space$2$E:
     274                      .dwpsn  file "C:/Users/a0221074/Desktop/C5000/IBM_Watson_TIdesign_workarea/CSL_bitbucket/c55_csl/c55x
     275 0000e6       $C$L2:    
     276 0000e6 4E0B          AADD #11, SP
     277                      .dwcfi  cfa_offset, 1
     278              $C$DW$23        .dwtag  DW_TAG_TI_branch
     279                      .dwattr $C$DW$23, DW_AT_low_pc(0x00)
     280                      .dwattr $C$DW$23, DW_AT_TI_return
     281 0000e8 4804          RET
     282                                                      ; return occurs
     283              
     284              $C$DW$24        .dwtag  DW_TAG_TI_loop
     285                      .dwattr $C$DW$24, DW_AT_name("C:\\Users\\a0221074\\AppData\\Local\\Temp\\0125610:$C$L1:1:1505334831")
     286                      .dwattr $C$DW$24, DW_AT_TI_begin_file("C:/Users/a0221074/Desktop/C5000/IBM_Watson_TIdesign_workarea/C
     287                      .dwattr $C$DW$24, DW_AT_TI_begin_line(0x7f)
     288                      .dwattr $C$DW$24, DW_AT_TI_end_line(0x80)
     289              $C$DW$25        .dwtag  DW_TAG_TI_loop_range
     290                      .dwattr $C$DW$25, DW_AT_low_pc($C$DW$L$_set_search_space$2$B)
     291                      .dwattr $C$DW$25, DW_AT_high_pc($C$DW$L$_set_search_space$2$E)
     292                      .dwendtag $C$DW$24
     293              
     294                      .dwattr $C$DW$8, DW_AT_TI_end_file("C:/Users/a0221074/Desktop/C5000/IBM_Watson_TIdesign_workarea/CSL_
     295                      .dwattr $C$DW$8, DW_AT_TI_end_line(0x82)
     296                      .dwattr $C$DW$8, DW_AT_TI_end_column(0x01)
     297                      .dwendentry
     298                      .dwendtag $C$DW$8
     299              
     300 000000               .sect   ".text:_init_last_time_table"
     301                      .clink
     302              
     303              $C$DW$26        .dwtag  DW_TAG_subprogram, DW_AT_name("init_last_time_table")
     304                      .dwattr $C$DW$26, DW_AT_low_pc(_init_last_time_table)
     305                      .dwattr $C$DW$26, DW_AT_high_pc(0x00)
     306                      .dwattr $C$DW$26, DW_AT_TI_symbol_name("_init_last_time_table")
     307                      .dwattr $C$DW$26, DW_AT_TI_begin_file("C:/Users/a0221074/Desktop/C5000/IBM_Watson_TIdesign_workarea/C
     308                      .dwattr $C$DW$26, DW_AT_TI_begin_line(0x84)
     309                      .dwattr $C$DW$26, DW_AT_TI_begin_column(0x0d)
     310                      .dwattr $C$DW$26, DW_AT_TI_max_frame_size(0x04)
     311                      .dwpsn  file "C:/Users/a0221074/Desktop/C5000/IBM_Watson_TIdesign_workarea/CSL_bitbucket/c55_csl/c55x
     312              
     313                      .dwfde $C$DW$CIE, _init_last_time_table
     314              $C$DW$27        .dwtag  DW_TAG_formal_parameter, DW_AT_name("gv")
     315                      .dwattr $C$DW$27, DW_AT_TI_symbol_name("_gv")
     316                      .dwattr $C$DW$27, DW_AT_type(*$C$DW$T$100)
     317                      .dwattr $C$DW$27, DW_AT_location[DW_OP_reg17]
     318              ;*******************************************************************************
     319              ;* FUNCTION NAME: init_last_time_table                                         *
     320              ;*                                                                             *
     321              ;*   Function Uses Regs : AC0,AC0,AR0,XAR0,AR1,AR2,XAR2,AR3,XAR3,SP,CARRY,TC1, *
     322              ;*                        M40,SATA,SATD,RDM,FRCT,SMUL                          *
     323              ;*   Stack Frame        : Compact (No Frame Pointer, w/ debug)                 *
     324              ;*   Total Frame Size   : 4 words                                              *
     325              ;*                        (1 return address/alignment)                         *
TMS320C55x Assembler PC v4.4.1 Wed Sep 13 16:34:03 2017

Tools Copyright (c) 1996-2012 Texas Instruments Incorporated
C:\Users\a0221074\AppData\Local\Temp\0125610                         PAGE    8

     326              ;*                        (3 local values)                                     *
     327              ;*   Min System Stack   : 1 word                                               *
     328              ;*******************************************************************************
     329 000000       _init_last_time_table:
     330                      .dwcfi  cfa_offset, 1
     331                      .dwcfi  save_reg_to_mem, 91, -1
     332 000000 4EFD          AADD #-3, SP
     333                      .dwcfi  cfa_offset, 4
     334              $C$DW$28        .dwtag  DW_TAG_variable, DW_AT_name("gv")
     335                      .dwattr $C$DW$28, DW_AT_TI_symbol_name("_gv")
     336                      .dwattr $C$DW$28, DW_AT_type(*$C$DW$T$100)
     337                      .dwattr $C$DW$28, DW_AT_location[DW_OP_bregx 0x24 0]
     338              $C$DW$29        .dwtag  DW_TAG_variable, DW_AT_name("i")
     339                      .dwattr $C$DW$29, DW_AT_TI_symbol_name("_i")
     340                      .dwattr $C$DW$29, DW_AT_type(*$C$DW$T$9)
     341                      .dwattr $C$DW$29, DW_AT_location[DW_OP_bregx 0x24 2]
     342 000002 EB00          MOV XAR0, dbl(*SP(#0))
         000004 85   
     343                      .dwpsn  file "C:/Users/a0221074/Desktop/C5000/IBM_Watson_TIdesign_workarea/CSL_bitbucket/c55_csl/c55x
     344 000005 E604          MOV #0, *SP(#2) ; |135| 
         000007 00   
     345                      .dwpsn  file "C:/Users/a0221074/Desktop/C5000/IBM_Watson_TIdesign_workarea/CSL_bitbucket/c55_csl/c55x
     346 000008 7600          MOV #20, AR2 ; |135| 
         00000a 14A8 
     347 00000c A904          MOV *SP(#2), AR1 ; |135| 
     348 00000e 1298          CMPU AR1 >= AR2, TC1 ; |135| 
         000010 A4   
     349 000011 0464          BCC $C$L4,TC1 ; |135| 
         000013 21   
     350                                                      ; branchcc occurs ; |135| 
     351 000014       $C$L3:    
     352 000014       $C$DW$L$_init_last_time_table$2$B:
     353                      .dwpsn  file "C:/Users/a0221074/Desktop/C5000/IBM_Watson_TIdesign_workarea/CSL_bitbucket/c55_csl/c55x
     354 000014 ED00          MOV dbl(*SP(#0)), XAR3
         000016 BF   
     355 000017 DF04          MOV uns(*SP(#2)), AC0 ; |136| 
         000019 05   
     356 00001a 900A          MOV AC0, XAR2
     357 00001c 14A1          AADD XAR2, XAR3 ; |136| 
         00001e B0   
     358 00001f FB6D          MOV #4095, *AR3(#1978) ; |136| 
         000021 0FFF 
         000023 07BA 
     359                      .dwpsn  file "C:/Users/a0221074/Desktop/C5000/IBM_Watson_TIdesign_workarea/CSL_bitbucket/c55_csl/c55x
     360 000025 F704          ADD #1, *SP(#2) ; |135| 
         000027 0001 
     361                      .dwpsn  file "C:/Users/a0221074/Desktop/C5000/IBM_Watson_TIdesign_workarea/CSL_bitbucket/c55_csl/c55x
     362 000029 7600          MOV #20, AR2 ; |135| 
         00002b 14A8 
     363 00002d A904          MOV *SP(#2), AR1 ; |135| 
     364 00002f 1294          CMPU AR1 < AR2, TC1 ; |135| 
         000031 A4   
     365 000032 0464          BCC $C$L3,TC1 ; |135| 
         000034 DF   
     366                                                      ; branchcc occurs ; |135| 
TMS320C55x Assembler PC v4.4.1 Wed Sep 13 16:34:03 2017

Tools Copyright (c) 1996-2012 Texas Instruments Incorporated
C:\Users\a0221074\AppData\Local\Temp\0125610                         PAGE    9

     367 000035       $C$DW$L$_init_last_time_table$2$E:
     368                      .dwpsn  file "C:/Users/a0221074/Desktop/C5000/IBM_Watson_TIdesign_workarea/CSL_bitbucket/c55_csl/c55x
     369 000035       $C$L4:    
     370 000035 4E03          AADD #3, SP
     371                      .dwcfi  cfa_offset, 1
     372              $C$DW$30        .dwtag  DW_TAG_TI_branch
     373                      .dwattr $C$DW$30, DW_AT_low_pc(0x00)
     374                      .dwattr $C$DW$30, DW_AT_TI_return
     375 000037 4804          RET
     376                                                      ; return occurs
     377              
     378              $C$DW$31        .dwtag  DW_TAG_TI_loop
     379                      .dwattr $C$DW$31, DW_AT_name("C:\\Users\\a0221074\\AppData\\Local\\Temp\\0125610:$C$L3:1:1505334831")
     380                      .dwattr $C$DW$31, DW_AT_TI_begin_file("C:/Users/a0221074/Desktop/C5000/IBM_Watson_TIdesign_workarea/C
     381                      .dwattr $C$DW$31, DW_AT_TI_begin_line(0x87)
     382                      .dwattr $C$DW$31, DW_AT_TI_end_line(0x89)
     383              $C$DW$32        .dwtag  DW_TAG_TI_loop_range
     384                      .dwattr $C$DW$32, DW_AT_low_pc($C$DW$L$_init_last_time_table$2$B)
     385                      .dwattr $C$DW$32, DW_AT_high_pc($C$DW$L$_init_last_time_table$2$E)
     386                      .dwendtag $C$DW$31
     387              
     388                      .dwattr $C$DW$26, DW_AT_TI_end_file("C:/Users/a0221074/Desktop/C5000/IBM_Watson_TIdesign_workarea/CSL
     389                      .dwattr $C$DW$26, DW_AT_TI_end_line(0x8a)
     390                      .dwattr $C$DW$26, DW_AT_TI_end_column(0x01)
     391                      .dwendentry
     392                      .dwendtag $C$DW$26
     393              
     394 000000               .sect   ".text:_init_high_pos"
     395                      .clink
     396              
     397              $C$DW$33        .dwtag  DW_TAG_subprogram, DW_AT_name("init_high_pos")
     398                      .dwattr $C$DW$33, DW_AT_low_pc(_init_high_pos)
     399                      .dwattr $C$DW$33, DW_AT_high_pc(0x00)
     400                      .dwattr $C$DW$33, DW_AT_TI_symbol_name("_init_high_pos")
     401                      .dwattr $C$DW$33, DW_AT_TI_begin_file("C:/Users/a0221074/Desktop/C5000/IBM_Watson_TIdesign_workarea/C
     402                      .dwattr $C$DW$33, DW_AT_TI_begin_line(0x92)
     403                      .dwattr $C$DW$33, DW_AT_TI_begin_column(0x0d)
     404                      .dwattr $C$DW$33, DW_AT_TI_max_frame_size(0x04)
     405                      .dwpsn  file "C:/Users/a0221074/Desktop/C5000/IBM_Watson_TIdesign_workarea/CSL_bitbucket/c55_csl/c55x
     406              
     407                      .dwfde $C$DW$CIE, _init_high_pos
     408              $C$DW$34        .dwtag  DW_TAG_formal_parameter, DW_AT_name("gv")
     409                      .dwattr $C$DW$34, DW_AT_TI_symbol_name("_gv")
     410                      .dwattr $C$DW$34, DW_AT_type(*$C$DW$T$100)
     411                      .dwattr $C$DW$34, DW_AT_location[DW_OP_reg17]
     412              ;*******************************************************************************
     413              ;* FUNCTION NAME: init_high_pos                                                *
     414              ;*                                                                             *
     415              ;*   Function Uses Regs : AC0,AC0,AR0,XAR0,AR1,AR2,XAR2,AR3,XAR3,SP,CARRY,TC1, *
     416              ;*                        M40,SATA,SATD,RDM,FRCT,SMUL                          *
     417              ;*   Stack Frame        : Compact (No Frame Pointer, w/ debug)                 *
     418              ;*   Total Frame Size   : 4 words                                              *
     419              ;*                        (1 return address/alignment)                         *
     420              ;*                        (3 local values)                                     *
     421              ;*   Min System Stack   : 1 word                                               *
TMS320C55x Assembler PC v4.4.1 Wed Sep 13 16:34:03 2017

Tools Copyright (c) 1996-2012 Texas Instruments Incorporated
C:\Users\a0221074\AppData\Local\Temp\0125610                         PAGE   10

     422              ;*******************************************************************************
     423 000000       _init_high_pos:
     424                      .dwcfi  cfa_offset, 1
     425                      .dwcfi  save_reg_to_mem, 91, -1
     426 000000 4EFD          AADD #-3, SP
     427                      .dwcfi  cfa_offset, 4
     428              $C$DW$35        .dwtag  DW_TAG_variable, DW_AT_name("gv")
     429                      .dwattr $C$DW$35, DW_AT_TI_symbol_name("_gv")
     430                      .dwattr $C$DW$35, DW_AT_type(*$C$DW$T$100)
     431                      .dwattr $C$DW$35, DW_AT_location[DW_OP_bregx 0x24 0]
     432              $C$DW$36        .dwtag  DW_TAG_variable, DW_AT_name("i")
     433                      .dwattr $C$DW$36, DW_AT_TI_symbol_name("_i")
     434                      .dwattr $C$DW$36, DW_AT_type(*$C$DW$T$8)
     435                      .dwattr $C$DW$36, DW_AT_location[DW_OP_bregx 0x24 2]
     436 000002 EB00          MOV XAR0, dbl(*SP(#0))
         000004 85   
     437                      .dwpsn  file "C:/Users/a0221074/Desktop/C5000/IBM_Watson_TIdesign_workarea/CSL_bitbucket/c55_csl/c55x
     438 000005 ED00          MOV dbl(*SP(#0)), XAR3
         000007 BF   
     439 000008 E66D          MOV #0, *AR3(#1246) ; |149| 
         00000a 0004 
         00000c DE   
     440                      .dwpsn  file "C:/Users/a0221074/Desktop/C5000/IBM_Watson_TIdesign_workarea/CSL_bitbucket/c55_csl/c55x
     441 00000d E604          MOV #0, *SP(#2) ; |150| 
         00000f 00   
     442                      .dwpsn  file "C:/Users/a0221074/Desktop/C5000/IBM_Watson_TIdesign_workarea/CSL_bitbucket/c55_csl/c55x
     443              
     444 000010 A904          MOV *SP(#2), AR1 ; |150| 
     445 000012 3D2A  ||      MOV #2, AR2
     446              
     447 000014 1298          CMP AR1 >= AR2, TC1 ; |150| 
         000016 A0   
     448 000017 0464          BCC $C$L6,TC1 ; |150| 
         000019 1F   
     449                                                      ; branchcc occurs ; |150| 
     450 00001a       $C$L5:    
     451 00001a       $C$DW$L$_init_high_pos$2$B:
     452                      .dwpsn  file "C:/Users/a0221074/Desktop/C5000/IBM_Watson_TIdesign_workarea/CSL_bitbucket/c55_csl/c55x
     453 00001a ED00          MOV dbl(*SP(#0)), XAR3
         00001c BF   
     454 00001d A004          MOV *SP(#2), AC0 ; |151| 
     455 00001f 5000          SFTL AC0, #1 ; |151| 
     456 000021 900A          MOV AC0, XAR2
     457 000023 14A1          AADD XAR2, XAR3 ; |151| 
         000025 B0   
     458 000026 E66D          MOV #0, *AR3(#1248) ; |151| 
         000028 0004 
         00002a E0   
     459                      .dwpsn  file "C:/Users/a0221074/Desktop/C5000/IBM_Watson_TIdesign_workarea/CSL_bitbucket/c55_csl/c55x
     460 00002b F704          ADD #1, *SP(#2) ; |150| 
         00002d 0001 
     461                      .dwpsn  file "C:/Users/a0221074/Desktop/C5000/IBM_Watson_TIdesign_workarea/CSL_bitbucket/c55_csl/c55x
     462              
     463 00002f A904          MOV *SP(#2), AR1 ; |150| 
     464 000031 3D2A  ||      MOV #2, AR2
TMS320C55x Assembler PC v4.4.1 Wed Sep 13 16:34:03 2017

Tools Copyright (c) 1996-2012 Texas Instruments Incorporated
C:\Users\a0221074\AppData\Local\Temp\0125610                         PAGE   11

     465              
     466 000033 1294          CMP AR1 < AR2, TC1 ; |150| 
         000035 A0   
     467 000036 0464          BCC $C$L5,TC1 ; |150| 
         000038 E1   
     468                                                      ; branchcc occurs ; |150| 
     469 000039       $C$DW$L$_init_high_pos$2$E:
     470 000039       $C$L6:    
     471                      .dwpsn  file "C:/Users/a0221074/Desktop/C5000/IBM_Watson_TIdesign_workarea/CSL_bitbucket/c55_csl/c55x
     472 000039 ED00          MOV dbl(*SP(#0)), XAR3
         00003b BF   
     473 00003c E66D          MOV #0, *AR3(#1252) ; |153| 
         00003e 0004 
         000040 E4   
     474                      .dwpsn  file "C:/Users/a0221074/Desktop/C5000/IBM_Watson_TIdesign_workarea/CSL_bitbucket/c55_csl/c55x
     475 000041 ED00          MOV dbl(*SP(#0)), XAR3
         000043 BF   
     476 000044 E66D          MOV #0, *AR3(#1254) ; |154| 
         000046 0004 
         000048 E6   
     477                      .dwpsn  file "C:/Users/a0221074/Desktop/C5000/IBM_Watson_TIdesign_workarea/CSL_bitbucket/c55_csl/c55x
     478 000049 4E03          AADD #3, SP
     479                      .dwcfi  cfa_offset, 1
     480              $C$DW$37        .dwtag  DW_TAG_TI_branch
     481                      .dwattr $C$DW$37, DW_AT_low_pc(0x00)
     482                      .dwattr $C$DW$37, DW_AT_TI_return
     483 00004b 4804          RET
     484                                                      ; return occurs
     485              
     486              $C$DW$38        .dwtag  DW_TAG_TI_loop
     487                      .dwattr $C$DW$38, DW_AT_name("C:\\Users\\a0221074\\AppData\\Local\\Temp\\0125610:$C$L5:1:1505334831")
     488                      .dwattr $C$DW$38, DW_AT_TI_begin_file("C:/Users/a0221074/Desktop/C5000/IBM_Watson_TIdesign_workarea/C
     489                      .dwattr $C$DW$38, DW_AT_TI_begin_line(0x96)
     490                      .dwattr $C$DW$38, DW_AT_TI_end_line(0x98)
     491              $C$DW$39        .dwtag  DW_TAG_TI_loop_range
     492                      .dwattr $C$DW$39, DW_AT_low_pc($C$DW$L$_init_high_pos$2$B)
     493                      .dwattr $C$DW$39, DW_AT_high_pc($C$DW$L$_init_high_pos$2$E)
     494                      .dwendtag $C$DW$38
     495              
     496                      .dwattr $C$DW$33, DW_AT_TI_end_file("C:/Users/a0221074/Desktop/C5000/IBM_Watson_TIdesign_workarea/CSL
     497                      .dwattr $C$DW$33, DW_AT_TI_end_line(0xa0)
     498                      .dwattr $C$DW$33, DW_AT_TI_end_column(0x01)
     499                      .dwendentry
     500                      .dwendtag $C$DW$33
     501              
     502 000000               .sect   ".text:_init_cur_pos"
     503                      .clink
     504              
     505              $C$DW$40        .dwtag  DW_TAG_subprogram, DW_AT_name("init_cur_pos")
     506                      .dwattr $C$DW$40, DW_AT_low_pc(_init_cur_pos)
     507                      .dwattr $C$DW$40, DW_AT_high_pc(0x00)
     508                      .dwattr $C$DW$40, DW_AT_TI_symbol_name("_init_cur_pos")
     509                      .dwattr $C$DW$40, DW_AT_TI_begin_file("C:/Users/a0221074/Desktop/C5000/IBM_Watson_TIdesign_workarea/C
     510                      .dwattr $C$DW$40, DW_AT_TI_begin_line(0xa6)
     511                      .dwattr $C$DW$40, DW_AT_TI_begin_column(0x0d)
TMS320C55x Assembler PC v4.4.1 Wed Sep 13 16:34:03 2017

Tools Copyright (c) 1996-2012 Texas Instruments Incorporated
C:\Users\a0221074\AppData\Local\Temp\0125610                         PAGE   12

     512                      .dwattr $C$DW$40, DW_AT_TI_max_frame_size(0x08)
     513                      .dwpsn  file "C:/Users/a0221074/Desktop/C5000/IBM_Watson_TIdesign_workarea/CSL_bitbucket/c55_csl/c55x
     514              
     515                      .dwfde $C$DW$CIE, _init_cur_pos
     516              $C$DW$41        .dwtag  DW_TAG_formal_parameter, DW_AT_name("idx")
     517                      .dwattr $C$DW$41, DW_AT_TI_symbol_name("_idx")
     518                      .dwattr $C$DW$41, DW_AT_type(*$C$DW$T$8)
     519                      .dwattr $C$DW$41, DW_AT_location[DW_OP_reg12]
     520              $C$DW$42        .dwtag  DW_TAG_formal_parameter, DW_AT_name("gv")
     521                      .dwattr $C$DW$42, DW_AT_TI_symbol_name("_gv")
     522                      .dwattr $C$DW$42, DW_AT_type(*$C$DW$T$100)
     523                      .dwattr $C$DW$42, DW_AT_location[DW_OP_reg17]
     524              ;*******************************************************************************
     525              ;* FUNCTION NAME: init_cur_pos                                                 *
     526              ;*                                                                             *
     527              ;*   Function Uses Regs : AC0,AC0,AC1,AC1,T0,AR0,XAR0,AR1,AR2,XAR2,AR3,XAR3,SP,*
     528              ;*                        CARRY,TC1,M40,SATA,SATD,RDM,FRCT,SMUL                *
     529              ;*   Stack Frame        : Compact (No Frame Pointer, w/ debug)                 *
     530              ;*   Total Frame Size   : 8 words                                              *
     531              ;*                        (2 return address/alignment)                         *
     532              ;*                        (6 local values)                                     *
     533              ;*   Min System Stack   : 1 word                                               *
     534              ;*******************************************************************************
     535 000000       _init_cur_pos:
     536                      .dwcfi  cfa_offset, 1
     537                      .dwcfi  save_reg_to_mem, 91, -1
     538 000000 4EF9          AADD #-7, SP
     539                      .dwcfi  cfa_offset, 8
     540              $C$DW$43        .dwtag  DW_TAG_variable, DW_AT_name("idx")
     541                      .dwattr $C$DW$43, DW_AT_TI_symbol_name("_idx")
     542                      .dwattr $C$DW$43, DW_AT_type(*$C$DW$T$8)
     543                      .dwattr $C$DW$43, DW_AT_location[DW_OP_bregx 0x24 0]
     544              $C$DW$44        .dwtag  DW_TAG_variable, DW_AT_name("gv")
     545                      .dwattr $C$DW$44, DW_AT_TI_symbol_name("_gv")
     546                      .dwattr $C$DW$44, DW_AT_type(*$C$DW$T$100)
     547                      .dwattr $C$DW$44, DW_AT_location[DW_OP_bregx 0x24 2]
     548              $C$DW$45        .dwtag  DW_TAG_variable, DW_AT_name("i")
     549                      .dwattr $C$DW$45, DW_AT_TI_symbol_name("_i")
     550                      .dwattr $C$DW$45, DW_AT_type(*$C$DW$T$8)
     551                      .dwattr $C$DW$45, DW_AT_location[DW_OP_bregx 0x24 4]
     552              $C$DW$46        .dwtag  DW_TAG_variable, DW_AT_name("k")
     553                      .dwattr $C$DW$46, DW_AT_TI_symbol_name("_k")
     554                      .dwattr $C$DW$46, DW_AT_type(*$C$DW$T$8)
     555                      .dwattr $C$DW$46, DW_AT_location[DW_OP_bregx 0x24 5]
     556 000002 EB04          MOV XAR0, dbl(*SP(#2))
         000004 85   
     557 000005 C400          MOV T0, *SP(#0) ; |167| 
     558                      .dwpsn  file "C:/Users/a0221074/Desktop/C5000/IBM_Watson_TIdesign_workarea/CSL_bitbucket/c55_csl/c55x
     559 000007 ED04          MOV dbl(*SP(#2)), XAR3
         000009 BF   
     560 00000a A100          MOV *SP(#0), AC1 ; |170| 
     561 00000c 1A00          OR #0, AC1, AC0
         00000e 01   
     562 00000f 1013          ADD AC1 << #1, AC0 ; |170| 
         000011 01   
TMS320C55x Assembler PC v4.4.1 Wed Sep 13 16:34:03 2017

Tools Copyright (c) 1996-2012 Texas Instruments Incorporated
C:\Users\a0221074\AppData\Local\Temp\0125610                         PAGE   13

     563 000012 900A          MOV AC0, XAR2
     564 000014 14A1          AADD XAR2, XAR3 ; |170| 
         000016 B0   
     565 000017 E66D          MOV #0, *AR3(#1258) ; |170| 
         000019 0004 
         00001b EA   
     566                      .dwpsn  file "C:/Users/a0221074/Desktop/C5000/IBM_Watson_TIdesign_workarea/CSL_bitbucket/c55_csl/c55x
     567 00001c E608          MOV #0, *SP(#4) ; |171| 
         00001e 00   
     568                      .dwpsn  file "C:/Users/a0221074/Desktop/C5000/IBM_Watson_TIdesign_workarea/CSL_bitbucket/c55_csl/c55x
     569              
     570 00001f A908          MOV *SP(#4), AR1 ; |171| 
     571 000021 3D2A  ||      MOV #2, AR2
     572              
     573 000023 1298          CMP AR1 >= AR2, TC1 ; |171| 
         000025 A0   
     574 000026 0464          BCC $C$L8,TC1 ; |171| 
         000028 26   
     575                                                      ; branchcc occurs ; |171| 
     576 000029       $C$L7:    
     577 000029       $C$DW$L$_init_cur_pos$2$B:
     578                      .dwpsn  file "C:/Users/a0221074/Desktop/C5000/IBM_Watson_TIdesign_workarea/CSL_bitbucket/c55_csl/c55x
     579 000029 ED04          MOV dbl(*SP(#2)), XAR3
         00002b BF   
     580 00002c A100          MOV *SP(#0), AC1 ; |172| 
     581 00002e 1A00          OR #0, AC1, AC0
         000030 01   
     582 000031 1013          ADD AC1 << #1, AC0 ; |172| 
         000033 01   
     583 000034 900A          MOV AC0, XAR2
     584 000036 14A1          AADD XAR2, XAR3 ; |172| 
         000038 B0   
     585 000039 1490          AADD AR1, AR3 ; |172| 
         00003b B0   
     586 00003c E66D          MOV #0, *AR3(#1256) ; |172| 
         00003e 0004 
         000040 E8   
     587                      .dwpsn  file "C:/Users/a0221074/Desktop/C5000/IBM_Watson_TIdesign_workarea/CSL_bitbucket/c55_csl/c55x
     588 000041 F708          ADD #1, *SP(#4) ; |171| 
         000043 0001 
     589                      .dwpsn  file "C:/Users/a0221074/Desktop/C5000/IBM_Watson_TIdesign_workarea/CSL_bitbucket/c55_csl/c55x
     590              
     591 000045 A908          MOV *SP(#4), AR1 ; |171| 
     592 000047 3D2A  ||      MOV #2, AR2
     593              
     594 000049 1294          CMP AR1 < AR2, TC1 ; |171| 
         00004b A0   
     595 00004c 0464          BCC $C$L7,TC1 ; |171| 
         00004e DA   
     596                                                      ; branchcc occurs ; |171| 
     597 00004f       $C$DW$L$_init_cur_pos$2$E:
     598 00004f       $C$L8:    
     599                      .dwpsn  file "C:/Users/a0221074/Desktop/C5000/IBM_Watson_TIdesign_workarea/CSL_bitbucket/c55_csl/c55x
     600 00004f E60A          MOV #0, *SP(#5) ; |175| 
         000051 00   
TMS320C55x Assembler PC v4.4.1 Wed Sep 13 16:34:03 2017

Tools Copyright (c) 1996-2012 Texas Instruments Incorporated
C:\Users\a0221074\AppData\Local\Temp\0125610                         PAGE   14

     601                      .dwpsn  file "C:/Users/a0221074/Desktop/C5000/IBM_Watson_TIdesign_workarea/CSL_bitbucket/c55_csl/c55x
     602 000052 ED04          MOV dbl(*SP(#2)), XAR3
         000054 BF   
     603 000055 AA0A          MOV *SP(#5), AR2 ; |175| 
     604 000057 A96D          MOV *AR3(#1263), AR1 ; |175| 
         000059 04EF 
     605 00005b 12A8          CMP AR2 >= AR1, TC1 ; |175| 
         00005d 90   
     606 00005e 0464          BCC $C$L10,TC1 ; |175| 
         000060 2B   
     607                                                      ; branchcc occurs ; |175| 
     608 000061       $C$L9:    
     609 000061       $C$DW$L$_init_cur_pos$4$B:
     610                      .dwpsn  file "C:/Users/a0221074/Desktop/C5000/IBM_Watson_TIdesign_workarea/CSL_bitbucket/c55_csl/c55x
     611 000061 22A4          MOV AR2, T0
     612 000063 ED6D          MOV dbl(*AR3(#1266)), XAR3
         000065 BF04 
         000067 F2   
     613 000068 A96B          MOV *AR3(T0), AR1 ; |176| 
     614 00006a C908          MOV AR1, *SP(#4) ; |176| 
     615                      .dwpsn  file "C:/Users/a0221074/Desktop/C5000/IBM_Watson_TIdesign_workarea/CSL_bitbucket/c55_csl/c55x
     616 00006c ED04          MOV dbl(*SP(#2)), XAR3
         00006e BF   
     617 00006f 2294          MOV AR1, T0
     618 000071 ED6D          MOV dbl(*AR3(#1264)), XAR3
         000073 BF04 
         000075 F0   
     619 000076 E66B          MOV #-1, *AR3(T0) ; |177| 
         000078 FF   
     620                      .dwpsn  file "C:/Users/a0221074/Desktop/C5000/IBM_Watson_TIdesign_workarea/CSL_bitbucket/c55_csl/c55x
     621 000079 F70A          ADD #1, *SP(#5) ; |175| 
         00007b 0001 
     622                      .dwpsn  file "C:/Users/a0221074/Desktop/C5000/IBM_Watson_TIdesign_workarea/CSL_bitbucket/c55_csl/c55x
     623 00007d ED04          MOV dbl(*SP(#2)), XAR3
         00007f BF   
     624 000080 AA0A          MOV *SP(#5), AR2 ; |175| 
     625 000082 A96D          MOV *AR3(#1263), AR1 ; |175| 
         000084 04EF 
     626 000086 12A4          CMP AR2 < AR1, TC1 ; |175| 
         000088 90   
     627 000089 0464          BCC $C$L9,TC1 ; |175| 
         00008b D5   
     628                                                      ; branchcc occurs ; |175| 
     629 00008c       $C$DW$L$_init_cur_pos$4$E:
     630 00008c       $C$L10:    
     631                      .dwpsn  file "C:/Users/a0221074/Desktop/C5000/IBM_Watson_TIdesign_workarea/CSL_bitbucket/c55_csl/c55x
     632 00008c E66D          MOV #0, *AR3(#1263) ; |179| 
         00008e 0004 
         000090 EF   
     633                      .dwpsn  file "C:/Users/a0221074/Desktop/C5000/IBM_Watson_TIdesign_workarea/CSL_bitbucket/c55_csl/c55x
     634 000091 4E07          AADD #7, SP
     635                      .dwcfi  cfa_offset, 1
     636              $C$DW$47        .dwtag  DW_TAG_TI_branch
     637                      .dwattr $C$DW$47, DW_AT_low_pc(0x00)
     638                      .dwattr $C$DW$47, DW_AT_TI_return
TMS320C55x Assembler PC v4.4.1 Wed Sep 13 16:34:03 2017

Tools Copyright (c) 1996-2012 Texas Instruments Incorporated
C:\Users\a0221074\AppData\Local\Temp\0125610                         PAGE   15

     639 000093 4804          RET
     640                                                      ; return occurs
     641              
     642              $C$DW$48        .dwtag  DW_TAG_TI_loop
     643                      .dwattr $C$DW$48, DW_AT_name("C:\\Users\\a0221074\\AppData\\Local\\Temp\\0125610:$C$L9:1:1505334831")
     644                      .dwattr $C$DW$48, DW_AT_TI_begin_file("C:/Users/a0221074/Desktop/C5000/IBM_Watson_TIdesign_workarea/C
     645                      .dwattr $C$DW$48, DW_AT_TI_begin_line(0xaf)
     646                      .dwattr $C$DW$48, DW_AT_TI_end_line(0xb2)
     647              $C$DW$49        .dwtag  DW_TAG_TI_loop_range
     648                      .dwattr $C$DW$49, DW_AT_low_pc($C$DW$L$_init_cur_pos$4$B)
     649                      .dwattr $C$DW$49, DW_AT_high_pc($C$DW$L$_init_cur_pos$4$E)
     650                      .dwendtag $C$DW$48
     651              
     652              
     653              $C$DW$50        .dwtag  DW_TAG_TI_loop
     654                      .dwattr $C$DW$50, DW_AT_name("C:\\Users\\a0221074\\AppData\\Local\\Temp\\0125610:$C$L7:1:1505334831")
     655                      .dwattr $C$DW$50, DW_AT_TI_begin_file("C:/Users/a0221074/Desktop/C5000/IBM_Watson_TIdesign_workarea/C
     656                      .dwattr $C$DW$50, DW_AT_TI_begin_line(0xab)
     657                      .dwattr $C$DW$50, DW_AT_TI_end_line(0xad)
     658              $C$DW$51        .dwtag  DW_TAG_TI_loop_range
     659                      .dwattr $C$DW$51, DW_AT_low_pc($C$DW$L$_init_cur_pos$2$B)
     660                      .dwattr $C$DW$51, DW_AT_high_pc($C$DW$L$_init_cur_pos$2$E)
     661                      .dwendtag $C$DW$50
     662              
     663                      .dwattr $C$DW$40, DW_AT_TI_end_file("C:/Users/a0221074/Desktop/C5000/IBM_Watson_TIdesign_workarea/CSL
     664                      .dwattr $C$DW$40, DW_AT_TI_end_line(0xb4)
     665                      .dwattr $C$DW$40, DW_AT_TI_end_column(0x01)
     666                      .dwendentry
     667                      .dwendtag $C$DW$40
     668              
     669 000000               .sect   ".text:_clear_obs_scr"
     670                      .clink
     671              
     672              $C$DW$52        .dwtag  DW_TAG_subprogram, DW_AT_name("clear_obs_scr")
     673                      .dwattr $C$DW$52, DW_AT_low_pc(_clear_obs_scr)
     674                      .dwattr $C$DW$52, DW_AT_high_pc(0x00)
     675                      .dwattr $C$DW$52, DW_AT_TI_symbol_name("_clear_obs_scr")
     676                      .dwattr $C$DW$52, DW_AT_TI_begin_file("C:/Users/a0221074/Desktop/C5000/IBM_Watson_TIdesign_workarea/C
     677                      .dwattr $C$DW$52, DW_AT_TI_begin_line(0xba)
     678                      .dwattr $C$DW$52, DW_AT_TI_begin_column(0x0d)
     679                      .dwattr $C$DW$52, DW_AT_TI_max_frame_size(0x04)
     680                      .dwpsn  file "C:/Users/a0221074/Desktop/C5000/IBM_Watson_TIdesign_workarea/CSL_bitbucket/c55_csl/c55x
     681              
     682                      .dwfde $C$DW$CIE, _clear_obs_scr
     683              $C$DW$53        .dwtag  DW_TAG_formal_parameter, DW_AT_name("gv")
     684                      .dwattr $C$DW$53, DW_AT_TI_symbol_name("_gv")
     685                      .dwattr $C$DW$53, DW_AT_type(*$C$DW$T$100)
     686                      .dwattr $C$DW$53, DW_AT_location[DW_OP_reg17]
     687              ;*******************************************************************************
     688              ;* FUNCTION NAME: clear_obs_scr                                                *
     689              ;*                                                                             *
     690              ;*   Function Uses Regs : T0,AR0,XAR0,AR1,AR2,AR3,XAR3,SP,CARRY,TC1,M40,SATA,  *
     691              ;*                        SATD,RDM,FRCT,SMUL                                   *
     692              ;*   Stack Frame        : Compact (No Frame Pointer, w/ debug)                 *
     693              ;*   Total Frame Size   : 4 words                                              *
TMS320C55x Assembler PC v4.4.1 Wed Sep 13 16:34:03 2017

Tools Copyright (c) 1996-2012 Texas Instruments Incorporated
C:\Users\a0221074\AppData\Local\Temp\0125610                         PAGE   16

     694              ;*                        (1 return address/alignment)                         *
     695              ;*                        (3 local values)                                     *
     696              ;*   Min System Stack   : 1 word                                               *
     697              ;*******************************************************************************
     698 000000       _clear_obs_scr:
     699                      .dwcfi  cfa_offset, 1
     700                      .dwcfi  save_reg_to_mem, 91, -1
     701 000000 4EFD          AADD #-3, SP
     702                      .dwcfi  cfa_offset, 4
     703              $C$DW$54        .dwtag  DW_TAG_variable, DW_AT_name("gv")
     704                      .dwattr $C$DW$54, DW_AT_TI_symbol_name("_gv")
     705                      .dwattr $C$DW$54, DW_AT_type(*$C$DW$T$100)
     706                      .dwattr $C$DW$54, DW_AT_location[DW_OP_bregx 0x24 0]
     707              $C$DW$55        .dwtag  DW_TAG_variable, DW_AT_name("i")
     708                      .dwattr $C$DW$55, DW_AT_TI_symbol_name("_i")
     709                      .dwattr $C$DW$55, DW_AT_type(*$C$DW$T$8)
     710                      .dwattr $C$DW$55, DW_AT_location[DW_OP_bregx 0x24 2]
     711 000002 EB00          MOV XAR0, dbl(*SP(#0))
         000004 85   
     712                      .dwpsn  file "C:/Users/a0221074/Desktop/C5000/IBM_Watson_TIdesign_workarea/CSL_bitbucket/c55_csl/c55x
     713 000005 ED00          MOV dbl(*SP(#0)), XAR3
         000007 BF   
     714 000008 A96D          MOV *AR3(#1206), AR1 ; |188| 
         00000a 04B6 
     715 00000c C904          MOV AR1, *SP(#2) ; |188| 
     716                      .dwpsn  file "C:/Users/a0221074/Desktop/C5000/IBM_Watson_TIdesign_workarea/CSL_bitbucket/c55_csl/c55x
     717 00000e E604          MOV #0, *SP(#2) ; |189| 
         000010 00   
     718                      .dwpsn  file "C:/Users/a0221074/Desktop/C5000/IBM_Watson_TIdesign_workarea/CSL_bitbucket/c55_csl/c55x
     719 000011 ED00          MOV dbl(*SP(#0)), XAR3
         000013 BF   
     720 000014 AA04          MOV *SP(#2), AR2 ; |189| 
     721 000016 A96D          MOV *AR3(#1207), AR1 ; |189| 
         000018 04B7 
     722 00001a 12A8          CMPU AR2 >= AR1, TC1 ; |189| 
         00001c 94   
     723 00001d 0464          BCC $C$L12,TC1 ; |189| 
         00001f 1E   
     724                                                      ; branchcc occurs ; |189| 
     725 000020       $C$L11:    
     726 000020       $C$DW$L$_clear_obs_scr$2$B:
     727                      .dwpsn  file "C:/Users/a0221074/Desktop/C5000/IBM_Watson_TIdesign_workarea/CSL_bitbucket/c55_csl/c55x
     728 000020 ED6D          MOV dbl(*AR3(#1200)), XAR3
         000022 BF04 
         000024 B0   
     729 000025 A404          MOV *SP(#2), T0 ; |190| 
     730 000027 FB6B          MOV #-32767, *AR3(T0) ; |190| 
         000029 8001 
     731                      .dwpsn  file "C:/Users/a0221074/Desktop/C5000/IBM_Watson_TIdesign_workarea/CSL_bitbucket/c55_csl/c55x
     732 00002b F704          ADD #1, *SP(#2) ; |189| 
         00002d 0001 
     733                      .dwpsn  file "C:/Users/a0221074/Desktop/C5000/IBM_Watson_TIdesign_workarea/CSL_bitbucket/c55_csl/c55x
     734 00002f ED00          MOV dbl(*SP(#0)), XAR3
         000031 BF   
     735 000032 AA04          MOV *SP(#2), AR2 ; |189| 
TMS320C55x Assembler PC v4.4.1 Wed Sep 13 16:34:03 2017

Tools Copyright (c) 1996-2012 Texas Instruments Incorporated
C:\Users\a0221074\AppData\Local\Temp\0125610                         PAGE   17

     736 000034 A96D          MOV *AR3(#1207), AR1 ; |189| 
         000036 04B7 
     737 000038 12A4          CMPU AR2 < AR1, TC1 ; |189| 
         00003a 94   
     738 00003b 0464          BCC $C$L11,TC1 ; |189| 
         00003d E2   
     739                                                      ; branchcc occurs ; |189| 
     740 00003e       $C$DW$L$_clear_obs_scr$2$E:
     741                      .dwpsn  file "C:/Users/a0221074/Desktop/C5000/IBM_Watson_TIdesign_workarea/CSL_bitbucket/c55_csl/c55x
     742 00003e       $C$L12:    
     743 00003e 4E03          AADD #3, SP
     744                      .dwcfi  cfa_offset, 1
     745              $C$DW$56        .dwtag  DW_TAG_TI_branch
     746                      .dwattr $C$DW$56, DW_AT_low_pc(0x00)
     747                      .dwattr $C$DW$56, DW_AT_TI_return
     748 000040 4804          RET
     749                                                      ; return occurs
     750              
     751              $C$DW$57        .dwtag  DW_TAG_TI_loop
     752                      .dwattr $C$DW$57, DW_AT_name("C:\\Users\\a0221074\\AppData\\Local\\Temp\\0125610:$C$L11:1:1505334831"
     753                      .dwattr $C$DW$57, DW_AT_TI_begin_file("C:/Users/a0221074/Desktop/C5000/IBM_Watson_TIdesign_workarea/C
     754                      .dwattr $C$DW$57, DW_AT_TI_begin_line(0xbd)
     755                      .dwattr $C$DW$57, DW_AT_TI_end_line(0xbe)
     756              $C$DW$58        .dwtag  DW_TAG_TI_loop_range
     757                      .dwattr $C$DW$58, DW_AT_low_pc($C$DW$L$_clear_obs_scr$2$B)
     758                      .dwattr $C$DW$58, DW_AT_high_pc($C$DW$L$_clear_obs_scr$2$E)
     759                      .dwendtag $C$DW$57
     760              
     761                      .dwattr $C$DW$52, DW_AT_TI_end_file("C:/Users/a0221074/Desktop/C5000/IBM_Watson_TIdesign_workarea/CSL
     762                      .dwattr $C$DW$52, DW_AT_TI_end_line(0xc0)
     763                      .dwattr $C$DW$52, DW_AT_TI_end_column(0x01)
     764                      .dwendentry
     765                      .dwendtag $C$DW$52
     766              
     767 000000               .sect   ".text:_eval_cell_overflow"
     768                      .clink
     769              
     770              $C$DW$59        .dwtag  DW_TAG_subprogram, DW_AT_name("eval_cell_overflow")
     771                      .dwattr $C$DW$59, DW_AT_low_pc(_eval_cell_overflow)
     772                      .dwattr $C$DW$59, DW_AT_high_pc(0x00)
     773                      .dwattr $C$DW$59, DW_AT_TI_symbol_name("_eval_cell_overflow")
     774                      .dwattr $C$DW$59, DW_AT_type(*$C$DW$T$8)
     775                      .dwattr $C$DW$59, DW_AT_TI_begin_file("C:/Users/a0221074/Desktop/C5000/IBM_Watson_TIdesign_workarea/C
     776                      .dwattr $C$DW$59, DW_AT_TI_begin_line(0xc8)
     777                      .dwattr $C$DW$59, DW_AT_TI_begin_column(0x01)
     778                      .dwattr $C$DW$59, DW_AT_TI_max_frame_size(0x08)
     779                      .dwpsn  file "C:/Users/a0221074/Desktop/C5000/IBM_Watson_TIdesign_workarea/CSL_bitbucket/c55_csl/c55x
     780              
     781                      .dwfde $C$DW$CIE, _eval_cell_overflow
     782              $C$DW$60        .dwtag  DW_TAG_formal_parameter, DW_AT_name("n_state")
     783                      .dwattr $C$DW$60, DW_AT_TI_symbol_name("_n_state")
     784                      .dwattr $C$DW$60, DW_AT_type(*$C$DW$T$8)
     785                      .dwattr $C$DW$60, DW_AT_location[DW_OP_reg12]
     786              $C$DW$61        .dwtag  DW_TAG_formal_parameter, DW_AT_name("h_code")
     787                      .dwattr $C$DW$61, DW_AT_TI_symbol_name("_h_code")
TMS320C55x Assembler PC v4.4.1 Wed Sep 13 16:34:03 2017

Tools Copyright (c) 1996-2012 Texas Instruments Incorporated
C:\Users\a0221074\AppData\Local\Temp\0125610                         PAGE   18

     788                      .dwattr $C$DW$61, DW_AT_type(*$C$DW$T$8)
     789                      .dwattr $C$DW$61, DW_AT_location[DW_OP_reg13]
     790              $C$DW$62        .dwtag  DW_TAG_formal_parameter, DW_AT_name("gv")
     791                      .dwattr $C$DW$62, DW_AT_TI_symbol_name("_gv")
     792                      .dwattr $C$DW$62, DW_AT_type(*$C$DW$T$100)
     793                      .dwattr $C$DW$62, DW_AT_location[DW_OP_reg17]
     794              ;*******************************************************************************
     795              ;* FUNCTION NAME: eval_cell_overflow                                           *
     796              ;*                                                                             *
     797              ;*   Function Uses Regs : AC0,AC0,T0,T1,AR0,XAR0,AR1,AR2,XAR2,AR3,XAR3,SP,     *
     798              ;*                        CARRY,TC1,M40,SATA,SATD,RDM,FRCT,SMUL                *
     799              ;*   Stack Frame        : Compact (No Frame Pointer, w/ debug)                 *
     800              ;*   Total Frame Size   : 8 words                                              *
     801              ;*                        (2 return address/alignment)                         *
     802              ;*                        (6 local values)                                     *
     803              ;*   Min System Stack   : 1 word                                               *
     804              ;*******************************************************************************
     805 000000       _eval_cell_overflow:
     806                      .dwcfi  cfa_offset, 1
     807                      .dwcfi  save_reg_to_mem, 91, -1
     808 000000 4EF9          AADD #-7, SP
     809                      .dwcfi  cfa_offset, 8
     810              $C$DW$63        .dwtag  DW_TAG_variable, DW_AT_name("n_state")
     811                      .dwattr $C$DW$63, DW_AT_TI_symbol_name("_n_state")
     812                      .dwattr $C$DW$63, DW_AT_type(*$C$DW$T$8)
     813                      .dwattr $C$DW$63, DW_AT_location[DW_OP_bregx 0x24 0]
     814              $C$DW$64        .dwtag  DW_TAG_variable, DW_AT_name("h_code")
     815                      .dwattr $C$DW$64, DW_AT_TI_symbol_name("_h_code")
     816                      .dwattr $C$DW$64, DW_AT_type(*$C$DW$T$8)
     817                      .dwattr $C$DW$64, DW_AT_location[DW_OP_bregx 0x24 1]
     818              $C$DW$65        .dwtag  DW_TAG_variable, DW_AT_name("gv")
     819                      .dwattr $C$DW$65, DW_AT_TI_symbol_name("_gv")
     820                      .dwattr $C$DW$65, DW_AT_type(*$C$DW$T$100)
     821                      .dwattr $C$DW$65, DW_AT_location[DW_OP_bregx 0x24 2]
     822              $C$DW$66        .dwtag  DW_TAG_variable, DW_AT_name("pos")
     823                      .dwattr $C$DW$66, DW_AT_TI_symbol_name("_pos")
     824                      .dwattr $C$DW$66, DW_AT_type(*$C$DW$T$113)
     825                      .dwattr $C$DW$66, DW_AT_location[DW_OP_bregx 0x24 4]
     826 000002 EB04          MOV XAR0, dbl(*SP(#2))
         000004 85   
     827 000005 C502          MOV T1, *SP(#1) ; |201| 
     828 000007 C400          MOV T0, *SP(#0) ; |201| 
     829                      .dwpsn  file "C:/Users/a0221074/Desktop/C5000/IBM_Watson_TIdesign_workarea/CSL_bitbucket/c55_csl/c55x
     830 000009 ED04          MOV dbl(*SP(#2)), XAR3
         00000b BF   
     831 00000c A002          MOV *SP(#1), AC0 ; |203| 
     832 00000e 5000          SFTL AC0, #1 ; |203| 
     833 000010 900A          MOV AC0, XAR2
     834 000012 14A1          AADD XAR2, XAR3 ; |203| 
         000014 B0   
     835 000015 B46F          AMAR *+AR3(#1248) ; |203| 
         000017 04E0 
     836 000019 EB08          MOV XAR3, dbl(*SP(#4))
         00001b B5   
     837                      .dwpsn  file "C:/Users/a0221074/Desktop/C5000/IBM_Watson_TIdesign_workarea/CSL_bitbucket/c55_csl/c55x
TMS320C55x Assembler PC v4.4.1 Wed Sep 13 16:34:03 2017

Tools Copyright (c) 1996-2012 Texas Instruments Incorporated
C:\Users\a0221074\AppData\Local\Temp\0125610                         PAGE   19

     838 00001c F000          CMP *SP(#0) == #32767, TC1 ; |205| 
         00001e 7FFF 
     839 000020 63F4          BCC $C$L13,!TC1 ; |205| 
     840                                                      ; branchcc occurs ; |205| 
     841                      .dwpsn  file "C:/Users/a0221074/Desktop/C5000/IBM_Watson_TIdesign_workarea/CSL_bitbucket/c55_csl/c55x
     842 000022 7600          MOV #101, T0 ; |207| 
         000024 6548 
     843 000026 0600          B $C$L18  ; |207| 
         000028 8D   
     844                                                      ; branch occurs ; |207| 
     845 000029       $C$L13:    
     846                      .dwpsn  file "C:/Users/a0221074/Desktop/C5000/IBM_Watson_TIdesign_workarea/CSL_bitbucket/c55_csl/c55x
     847 000029 ED04          MOV dbl(*SP(#2)), XAR3
         00002b BF   
     848 00002c A902          MOV *SP(#1), AR1 ; |209| 
     849 00002e ED04          MOV dbl(*SP(#2)), XAR2
         000030 AF   
     850              
     851 000031 1490          AADD AR1, AR2 ; |209| 
         000033 A0   
     852 000034 1590  ||      AADD AR1, AR3 ; |209| 
         000036 B8   
     853              
     854 000037 A94D          MOV *AR2(#1259), AR1 ; |209| 
         000039 04EB 
     855 00003b D66D          ADD *AR3(#1256), AR1, AR1 ; |209| 
         00003d 9904 
         00003f E8   
     856 000040 ED08          MOV dbl(*SP(#4)), XAR3
         000042 BF   
     857 000043 4019          ADD #1, AR1 ; |209| 
     858 000045 C973          MOV AR1, *AR3(short(#1)) ; |209| 
     859                      .dwpsn  file "C:/Users/a0221074/Desktop/C5000/IBM_Watson_TIdesign_workarea/CSL_bitbucket/c55_csl/c55x
     860 000047 ED04          MOV dbl(*SP(#2)), XAR2
         000049 AF   
     861 00004a ED04          MOV dbl(*SP(#2)), XAR3
         00004c BF   
     862 00004d A94D          MOV *AR2(#1261), AR1 ; |211| 
         00004f 04ED 
     863 000051 D66D          ADD *AR3(#1258), AR1, AR1 ; |211| 
         000053 9904 
         000055 EA   
     864 000056 D600          ADD *SP(#0), AR1, AR1 ; |211| 
         000058 99   
     865 000059 C96D          MOV AR1, *AR3(#1247) ; |211| 
         00005b 04DF 
     866                      .dwpsn  file "C:/Users/a0221074/Desktop/C5000/IBM_Watson_TIdesign_workarea/CSL_bitbucket/c55_csl/c55x
     867 00005d ED08          MOV dbl(*SP(#4)), XAR3
         00005f BF   
     868 000060 AA73          MOV *AR3(short(#1)), AR2 ; |215| 
     869 000062 A961          MOV *AR3, AR1 ; |215| 
     870 000064 1298          CMPU AR2 <= AR1, TC1 ; |215| 
         000066 A4   
     871 000067 6264          BCC $C$L14,TC1 ; |215| 
     872                                                      ; branchcc occurs ; |215| 
TMS320C55x Assembler PC v4.4.1 Wed Sep 13 16:34:03 2017

Tools Copyright (c) 1996-2012 Texas Instruments Incorporated
C:\Users\a0221074\AppData\Local\Temp\0125610                         PAGE   20

     873                      .dwpsn  file "C:/Users/a0221074/Desktop/C5000/IBM_Watson_TIdesign_workarea/CSL_bitbucket/c55_csl/c55x
     874 000069 A973          MOV *AR3(short(#1)), AR1 ; |215| 
     875 00006b C961          MOV AR1, *AR3 ; |215| 
     876 00006d       $C$L14:    
     877                      .dwpsn  file "C:/Users/a0221074/Desktop/C5000/IBM_Watson_TIdesign_workarea/CSL_bitbucket/c55_csl/c55x
     878 00006d ED04          MOV dbl(*SP(#2)), XAR3
         00006f BF   
     879 000070 A96D          MOV *AR3(#1246), AR1 ; |216| 
         000072 04DE 
     880 000074 AA6D          MOV *AR3(#1247), AR2 ; |216| 
         000076 04DF 
     881 000078 1298          CMPU AR2 <= AR1, TC1 ; |216| 
         00007a A4   
     882 00007b 6464          BCC $C$L15,TC1 ; |216| 
     883                                                      ; branchcc occurs ; |216| 
     884                      .dwpsn  file "C:/Users/a0221074/Desktop/C5000/IBM_Watson_TIdesign_workarea/CSL_bitbucket/c55_csl/c55x
     885 00007d A96D          MOV *AR3(#1247), AR1 ; |217| 
         00007f 04DF 
     886 000081 C96D          MOV AR1, *AR3(#1246) ; |217| 
         000083 04DE 
     887 000085       $C$L15:    
     888                      .dwpsn  file "C:/Users/a0221074/Desktop/C5000/IBM_Watson_TIdesign_workarea/CSL_bitbucket/c55_csl/c55x
     889 000085 ED04          MOV dbl(*SP(#2)), XAR3
         000087 BF   
     890 000088 A96D          MOV *AR3(#1977), AR1 ; |221| 
         00008a 07B9 
     891 00008c ED08          MOV dbl(*SP(#4)), XAR3
         00008e BF   
     892 00008f AA61          MOV *AR3, AR2 ; |221| 
     893 000091 1298          CMPU AR2 <= AR1, TC1 ; |221| 
         000093 A4   
     894 000094 6364          BCC $C$L16,TC1 ; |221| 
     895                                                      ; branchcc occurs ; |221| 
     896                      .dwpsn  file "C:/Users/a0221074/Desktop/C5000/IBM_Watson_TIdesign_workarea/CSL_bitbucket/c55_csl/c55x
     897 000096 7600          MOV #101, T0 ; |224| 
         000098 6548 
     898 00009a 4A1A          B $C$L18  ; |224| 
     899                                                      ; branch occurs ; |224| 
     900 00009c       $C$L16:    
     901                      .dwpsn  file "C:/Users/a0221074/Desktop/C5000/IBM_Watson_TIdesign_workarea/CSL_bitbucket/c55_csl/c55x
     902 00009c ED04          MOV dbl(*SP(#2)), XAR3
         00009e BF   
     903 00009f A96D          MOV *AR3(#1974), AR1 ; |227| 
         0000a1 07B6 
     904 0000a3 AA6D          MOV *AR3(#1246), AR2 ; |227| 
         0000a5 04DE 
     905 0000a7 1298          CMPU AR2 <= AR1, TC1 ; |227| 
         0000a9 A4   
     906 0000aa 6364          BCC $C$L17,TC1 ; |227| 
     907                                                      ; branchcc occurs ; |227| 
     908                      .dwpsn  file "C:/Users/a0221074/Desktop/C5000/IBM_Watson_TIdesign_workarea/CSL_bitbucket/c55_csl/c55x
     909 0000ac 7600          MOV #101, T0 ; |230| 
         0000ae 6548 
     910 0000b0 4A04          B $C$L18  ; |230| 
     911                                                      ; branch occurs ; |230| 
TMS320C55x Assembler PC v4.4.1 Wed Sep 13 16:34:03 2017

Tools Copyright (c) 1996-2012 Texas Instruments Incorporated
C:\Users\a0221074\AppData\Local\Temp\0125610                         PAGE   21

     912 0000b2       $C$L17:    
     913                      .dwpsn  file "C:/Users/a0221074/Desktop/C5000/IBM_Watson_TIdesign_workarea/CSL_bitbucket/c55_csl/c55x
     914 0000b2 7600          MOV #100, T0 ; |233| 
         0000b4 6448 
     915 0000b6       $C$L18:    
     916                      .dwpsn  file "C:/Users/a0221074/Desktop/C5000/IBM_Watson_TIdesign_workarea/CSL_bitbucket/c55_csl/c55x
     917 0000b6 4E07          AADD #7, SP
     918                      .dwcfi  cfa_offset, 1
     919              $C$DW$67        .dwtag  DW_TAG_TI_branch
     920                      .dwattr $C$DW$67, DW_AT_low_pc(0x00)
     921                      .dwattr $C$DW$67, DW_AT_TI_return
     922 0000b8 4804          RET
     923                                                      ; return occurs
     924                      .dwattr $C$DW$59, DW_AT_TI_end_file("C:/Users/a0221074/Desktop/C5000/IBM_Watson_TIdesign_workarea/CSL
     925                      .dwattr $C$DW$59, DW_AT_TI_end_line(0xea)
     926                      .dwattr $C$DW$59, DW_AT_TI_end_column(0x01)
     927                      .dwendentry
     928                      .dwendtag $C$DW$59
     929              
     930 000000               .sect   ".text:_allocate_eval_cell"
     931                      .clink
     932              
     933              $C$DW$68        .dwtag  DW_TAG_subprogram, DW_AT_name("allocate_eval_cell")
     934                      .dwattr $C$DW$68, DW_AT_low_pc(_allocate_eval_cell)
     935                      .dwattr $C$DW$68, DW_AT_high_pc(0x00)
     936                      .dwattr $C$DW$68, DW_AT_TI_symbol_name("_allocate_eval_cell")
     937                      .dwattr $C$DW$68, DW_AT_type(*$C$DW$T$71)
     938                      .dwattr $C$DW$68, DW_AT_TI_begin_file("C:/Users/a0221074/Desktop/C5000/IBM_Watson_TIdesign_workarea/C
     939                      .dwattr $C$DW$68, DW_AT_TI_begin_line(0xf2)
     940                      .dwattr $C$DW$68, DW_AT_TI_begin_column(0x01)
     941                      .dwattr $C$DW$68, DW_AT_TI_max_frame_size(0x14)
     942                      .dwpsn  file "C:/Users/a0221074/Desktop/C5000/IBM_Watson_TIdesign_workarea/CSL_bitbucket/c55_csl/c55x
     943              
     944                      .dwfde $C$DW$CIE, _allocate_eval_cell
     945              $C$DW$69        .dwtag  DW_TAG_formal_parameter, DW_AT_name("eval_idx")
     946                      .dwattr $C$DW$69, DW_AT_TI_symbol_name("_eval_idx")
     947                      .dwattr $C$DW$69, DW_AT_type(*$C$DW$T$106)
     948                      .dwattr $C$DW$69, DW_AT_location[DW_OP_reg17]
     949              $C$DW$70        .dwtag  DW_TAG_formal_parameter, DW_AT_name("sym")
     950                      .dwattr $C$DW$70, DW_AT_TI_symbol_name("_sym")
     951                      .dwattr $C$DW$70, DW_AT_type(*$C$DW$T$9)
     952                      .dwattr $C$DW$70, DW_AT_location[DW_OP_reg12]
     953              $C$DW$71        .dwtag  DW_TAG_formal_parameter, DW_AT_name("n_state")
     954                      .dwattr $C$DW$71, DW_AT_TI_symbol_name("_n_state")
     955                      .dwattr $C$DW$71, DW_AT_type(*$C$DW$T$8)
     956                      .dwattr $C$DW$71, DW_AT_location[DW_OP_reg13]
     957              $C$DW$72        .dwtag  DW_TAG_formal_parameter, DW_AT_name("cur_idx")
     958                      .dwattr $C$DW$72, DW_AT_TI_symbol_name("_cur_idx")
     959                      .dwattr $C$DW$72, DW_AT_type(*$C$DW$T$8)
     960                      .dwattr $C$DW$72, DW_AT_location[DW_OP_reg18]
     961              $C$DW$73        .dwtag  DW_TAG_formal_parameter, DW_AT_name("gv")
     962                      .dwattr $C$DW$73, DW_AT_TI_symbol_name("_gv")
     963                      .dwattr $C$DW$73, DW_AT_type(*$C$DW$T$100)
     964                      .dwattr $C$DW$73, DW_AT_location[DW_OP_reg21]
     965              $C$DW$74        .dwtag  DW_TAG_formal_parameter, DW_AT_name("depth")
TMS320C55x Assembler PC v4.4.1 Wed Sep 13 16:34:03 2017

Tools Copyright (c) 1996-2012 Texas Instruments Incorporated
C:\Users\a0221074\AppData\Local\Temp\0125610                         PAGE   22

     966                      .dwattr $C$DW$74, DW_AT_TI_symbol_name("_depth")
     967                      .dwattr $C$DW$74, DW_AT_type(*$C$DW$T$10)
     968                      .dwattr $C$DW$74, DW_AT_location[DW_OP_reg22]
     969              ;*******************************************************************************
     970              ;* FUNCTION NAME: allocate_eval_cell                                           *
     971              ;*                                                                             *
     972              ;*   Function Uses Regs : AC0,AC0,AC1,AC1,AC2,AC2,T0,T1,AR0,XAR0,AR1,AR2,XAR2, *
     973              ;*                        AR3,XAR3,SP,CARRY,TC1,M40,SATA,SATD,RDM,FRCT,SMUL    *
     974              ;*   Stack Frame        : Compact (No Frame Pointer, w/ debug)                 *
     975              ;*   Total Frame Size   : 20 words                                             *
     976              ;*                        (2 return address/alignment)                         *
     977              ;*                        (18 local values)                                    *
     978              ;*   Min System Stack   : 1 word                                               *
     979              ;*******************************************************************************
     980 000000       _allocate_eval_cell:
     981                      .dwcfi  cfa_offset, 1
     982                      .dwcfi  save_reg_to_mem, 91, -1
     983 000000 4EED          AADD #-19, SP
     984                      .dwcfi  cfa_offset, 20
     985              $C$DW$75        .dwtag  DW_TAG_variable, DW_AT_name("eval_idx")
     986                      .dwattr $C$DW$75, DW_AT_TI_symbol_name("_eval_idx")
     987                      .dwattr $C$DW$75, DW_AT_type(*$C$DW$T$106)
     988                      .dwattr $C$DW$75, DW_AT_location[DW_OP_bregx 0x24 0]
     989              $C$DW$76        .dwtag  DW_TAG_variable, DW_AT_name("sym")
     990                      .dwattr $C$DW$76, DW_AT_TI_symbol_name("_sym")
     991                      .dwattr $C$DW$76, DW_AT_type(*$C$DW$T$9)
     992                      .dwattr $C$DW$76, DW_AT_location[DW_OP_bregx 0x24 2]
     993              $C$DW$77        .dwtag  DW_TAG_variable, DW_AT_name("n_state")
     994                      .dwattr $C$DW$77, DW_AT_TI_symbol_name("_n_state")
     995                      .dwattr $C$DW$77, DW_AT_type(*$C$DW$T$8)
     996                      .dwattr $C$DW$77, DW_AT_location[DW_OP_bregx 0x24 3]
     997              $C$DW$78        .dwtag  DW_TAG_variable, DW_AT_name("cur_idx")
     998                      .dwattr $C$DW$78, DW_AT_TI_symbol_name("_cur_idx")
     999                      .dwattr $C$DW$78, DW_AT_type(*$C$DW$T$8)
    1000                      .dwattr $C$DW$78, DW_AT_location[DW_OP_bregx 0x24 4]
    1001              $C$DW$79        .dwtag  DW_TAG_variable, DW_AT_name("gv")
    1002                      .dwattr $C$DW$79, DW_AT_TI_symbol_name("_gv")
    1003                      .dwattr $C$DW$79, DW_AT_type(*$C$DW$T$100)
    1004                      .dwattr $C$DW$79, DW_AT_location[DW_OP_bregx 0x24 6]
    1005              $C$DW$80        .dwtag  DW_TAG_variable, DW_AT_name("depth")
    1006                      .dwattr $C$DW$80, DW_AT_TI_symbol_name("_depth")
    1007                      .dwattr $C$DW$80, DW_AT_type(*$C$DW$T$10)
    1008                      .dwattr $C$DW$80, DW_AT_location[DW_OP_bregx 0x24 8]
    1009              $C$DW$81        .dwtag  DW_TAG_variable, DW_AT_name("pstate")
    1010                      .dwattr $C$DW$81, DW_AT_TI_symbol_name("_pstate")
    1011                      .dwattr $C$DW$81, DW_AT_type(*$C$DW$T$71)
    1012                      .dwattr $C$DW$81, DW_AT_location[DW_OP_bregx 0x24 10]
    1013              $C$DW$82        .dwtag  DW_TAG_variable, DW_AT_name("psco")
    1014                      .dwattr $C$DW$82, DW_AT_TI_symbol_name("_psco")
    1015                      .dwattr $C$DW$82, DW_AT_type(*$C$DW$T$71)
    1016                      .dwattr $C$DW$82, DW_AT_location[DW_OP_bregx 0x24 12]
    1017              $C$DW$83        .dwtag  DW_TAG_variable, DW_AT_name("psym")
    1018                      .dwattr $C$DW$83, DW_AT_TI_symbol_name("_psym")
    1019                      .dwattr $C$DW$83, DW_AT_type(*$C$DW$T$69)
    1020                      .dwattr $C$DW$83, DW_AT_location[DW_OP_bregx 0x24 14]
TMS320C55x Assembler PC v4.4.1 Wed Sep 13 16:34:03 2017

Tools Copyright (c) 1996-2012 Texas Instruments Incorporated
C:\Users\a0221074\AppData\Local\Temp\0125610                         PAGE   23

    1021              $C$DW$84        .dwtag  DW_TAG_variable, DW_AT_name("h_code")
    1022                      .dwattr $C$DW$84, DW_AT_TI_symbol_name("_h_code")
    1023                      .dwattr $C$DW$84, DW_AT_type(*$C$DW$T$8)
    1024                      .dwattr $C$DW$84, DW_AT_location[DW_OP_bregx 0x24 16]
    1025              $C$DW$85        .dwtag  DW_TAG_variable, DW_AT_name("mapidx")
    1026                      .dwattr $C$DW$85, DW_AT_TI_symbol_name("_mapidx")
    1027                      .dwattr $C$DW$85, DW_AT_type(*$C$DW$T$8)
    1028                      .dwattr $C$DW$85, DW_AT_location[DW_OP_bregx 0x24 17]
    1029 000002 CB10          MOV AR3, *SP(#8) ; |244| 
    1030 000004 EB0C          MOV XAR2, dbl(*SP(#6))
         000006 A5   
    1031 000007 C908          MOV AR1, *SP(#4) ; |244| 
    1032 000009 C506          MOV T1, *SP(#3) ; |244| 
    1033 00000b C404          MOV T0, *SP(#2) ; |244| 
    1034 00000d EB00          MOV XAR0, dbl(*SP(#0))
         00000f 85   
    1035                      .dwpsn  file "C:/Users/a0221074/Desktop/C5000/IBM_Watson_TIdesign_workarea/CSL_bitbucket/c55_csl/c55x
    1036 000010 A904          MOV *SP(#2), AR1 ; |247| 
    1037 000012 1801          AND #0x0001, AR1, AC0 ; |247| 
         000014 09   
    1038 000015 C020          MOV AC0, *SP(#16) ; |247| 
    1039                      .dwpsn  file "C:/Users/a0221074/Desktop/C5000/IBM_Watson_TIdesign_workarea/CSL_bitbucket/c55_csl/c55x
    1040 000017 A406          MOV *SP(#3), T0 ; |252| 
    1041 000019 ED0C          MOV dbl(*SP(#6)), XAR0
         00001b 8F   
    1042              $C$DW$86        .dwtag  DW_TAG_TI_branch
    1043                      .dwattr $C$DW$86, DW_AT_low_pc(0x00)
    1044                      .dwattr $C$DW$86, DW_AT_name("_eval_cell_overflow")
    1045                      .dwattr $C$DW$86, DW_AT_TI_call
    1046              
    1047 00001c 6C00          CALL #_eval_cell_overflow ; |252| 
         00001e 0000+
    1048 000020 2305  ||      MOV AC0, T1 ; |252| 
    1049              
    1050                                                      ; call occurs [#_eval_cell_overflow] ; |252| 
    1051 000022 7600          MOV #100, AR1 ; |252| 
         000024 6498 
    1052 000026 1240          CMP T0 == AR1, TC1 ; |252| 
         000028 90   
    1053 000029 64E4          BCC $C$L19,TC1 ; |252| 
    1054                                                      ; branchcc occurs ; |252| 
    1055                      .dwpsn  file "C:/Users/a0221074/Desktop/C5000/IBM_Watson_TIdesign_workarea/CSL_bitbucket/c55_csl/c55x
    1056 00002b EC31          AMOV #0, XAR0 ; |253| 
         00002d 8E00 
         00002f 0000 
    1057 000031 0601          B $C$L30  ; |253| 
         000033 92   
    1058                                                      ; branch occurs ; |253| 
    1059 000034       $C$L19:    
    1060                      .dwpsn  file "C:/Users/a0221074/Desktop/C5000/IBM_Watson_TIdesign_workarea/CSL_bitbucket/c55_csl/c55x
    1061 000034 A920          MOV *SP(#16), AR1 ; |256| 
    1062 000036 0409          BCC $C$L20,AR1 == #0 ; |256| 
         000038 1A   
    1063                                                      ; branchcc occurs ; |256| 
    1064 000039 ED0C          MOV dbl(*SP(#6)), XAR3
TMS320C55x Assembler PC v4.4.1 Wed Sep 13 16:34:03 2017

Tools Copyright (c) 1996-2012 Texas Instruments Incorporated
C:\Users\a0221074\AppData\Local\Temp\0125610                         PAGE   24

         00003b BF   
    1065 00003c DF6D          MOV uns(*AR3(#1977)), AC1 ; |256| 
         00003e 1507 
         000040 B9   
    1066 000041 ED6D          MOV dbl(*AR3(#1162)), XAR3
         000043 BF04 
         000045 8A   
    1067 000046 1A00          OR #0, AC1, AC0
         000048 01   
    1068 000049 1013          ADD AC1 << #1, AC0 ; |256| 
         00004b 01   
    1069 00004c 900A          MOV AC0, XAR2
    1070 00004e 14A1          AADD XAR2, XAR3 ; |256| 
         000050 B0   
    1071 000051 4A08          B $C$L21  ; |256| 
    1072                                                      ; branch occurs ; |256| 
    1073 000053       $C$L20:    
    1074 000053 ED0C          MOV dbl(*SP(#6)), XAR3
         000055 BF   
    1075 000056 ED6D          MOV dbl(*AR3(#1162)), XAR3
         000058 BF04 
         00005a 8A   
    1076 00005b       $C$L21:    
    1077 00005b EB1C          MOV XAR3, dbl(*SP(#14))
         00005d B5   
    1078                      .dwpsn  file "C:/Users/a0221074/Desktop/C5000/IBM_Watson_TIdesign_workarea/CSL_bitbucket/c55_csl/c55x
    1079 00005e A908          MOV *SP(#4), AR1 ; |259| 
    1080 000060 0409          BCC $C$L22,AR1 == #0 ; |259| 
         000062 18   
    1081                                                      ; branchcc occurs ; |259| 
    1082 000063 A420          MOV *SP(#16), T0 ; |259| 
    1083 000065 ED00          MOV dbl(*SP(#0)), XAR3
         000067 BF   
    1084 000068 DF6B          MOV uns(*AR3(T0)), AC1 ; |259| 
         00006a 15   
    1085 00006b ED1C          MOV dbl(*SP(#14)), XAR3
         00006d BF   
    1086 00006e 1A00          OR #0, AC1, AC0
         000070 01   
    1087 000071 1013          ADD AC1 << #1, AC0 ; |259| 
         000073 01   
    1088 000074 900A          MOV AC0, XAR2
    1089 000076 14A1          AADD XAR2, XAR3 ; |259| 
         000078 B0   
    1090 000079 4A2C          B $C$L23  ; |259| 
    1091                                                      ; branch occurs ; |259| 
    1092 00007b       $C$L22:    
    1093 00007b A420          MOV *SP(#16), T0 ; |259| 
    1094 00007d ED00          MOV dbl(*SP(#0)), XAR3
         00007f BF   
    1095 000080 DF6B          MOV uns(*AR3(T0)), AC0 ; |259| 
         000082 05   
    1096 000083 ED0C          MOV dbl(*SP(#6)), XAR3
         000085 BF   
    1097 000086 DF6D          MOV uns(*AR3(#1977)), AC2 ; |259| 
TMS320C55x Assembler PC v4.4.1 Wed Sep 13 16:34:03 2017

Tools Copyright (c) 1996-2012 Texas Instruments Incorporated
C:\Users\a0221074\AppData\Local\Temp\0125610                         PAGE   25

         000088 2507 
         00008a B9   
    1098 00008b ED1C          MOV dbl(*SP(#14)), XAR3
         00008d BF   
    1099 00008e 1A00          OR #0, AC0, AC1
         000090 10   
    1100              
    1101 000091 1A00          OR #0, AC2, AC0
         000093 02   
    1102 000094 1143  ||      ADD AC0 << #1, AC1 ; |259| 
         000096 01   
    1103              
    1104 000097 1023          ADD AC2 << #1, AC0 ; |259| 
         000099 01   
    1105 00009a 900A          MOV AC0, XAR2
    1106 00009c 14A1          AADD XAR2, XAR3 ; |259| 
         00009e B0   
    1107 00009f 901A          MOV AC1, XAR2
    1108 0000a1 14A1          ASUB XAR2, XAR3 ; |259| 
         0000a3 B2   
    1109 0000a4 1403          ASUB #3, AR3 ; |259| 
         0000a6 B6   
    1110 0000a7       $C$L23:    
    1111 0000a7 EB1C          MOV XAR3, dbl(*SP(#14))
         0000a9 B5   
    1112                      .dwpsn  file "C:/Users/a0221074/Desktop/C5000/IBM_Watson_TIdesign_workarea/CSL_bitbucket/c55_csl/c55x
    1113 0000aa ED0C          MOV dbl(*SP(#6)), XAR3
         0000ac BF   
    1114 0000ad A96D          MOV *AR3(#1263), AR1 ; |263| 
         0000af 04EF 
    1115 0000b1 C922          MOV AR1, *SP(#17) ; |263| 
    1116                      .dwpsn  file "C:/Users/a0221074/Desktop/C5000/IBM_Watson_TIdesign_workarea/CSL_bitbucket/c55_csl/c55x
    1117 0000b3 ED0C          MOV dbl(*SP(#6)), XAR3
         0000b5 BF   
    1118 0000b6 AA22          MOV *SP(#17), AR2 ; |264| 
    1119 0000b8 A96D          MOV *AR3(#1262), AR1 ; |264| 
         0000ba 04EE 
    1120 0000bc 12A8          CMPU AR2 >= AR1, TC1 ; |264| 
         0000be 94   
    1121 0000bf 0464          BCC $C$L24,TC1 ; |264| 
         0000c1 3E   
    1122                                                      ; branchcc occurs ; |264| 
    1123 0000c2 A922          MOV *SP(#17), AR1 ; |264| 
    1124 0000c4 0429          BCC $C$L24,AR1 < #0 ; |264| 
         0000c6 39   
    1125                                                      ; branchcc occurs ; |264| 
    1126 0000c7 A96D          MOV *AR3(#1262), AR1 ; |264| 
         0000c9 04EE 
    1127 0000cb AA04          MOV *SP(#2), AR2 ; |264| 
    1128 0000cd 12A8          CMPU AR2 >= AR1, TC1 ; |264| 
         0000cf 94   
    1129 0000d0 0464          BCC $C$L24,TC1 ; |264| 
         0000d2 2D   
    1130                                                      ; branchcc occurs ; |264| 
    1131                      .dwpsn  file "C:/Users/a0221074/Desktop/C5000/IBM_Watson_TIdesign_workarea/CSL_bitbucket/c55_csl/c55x
TMS320C55x Assembler PC v4.4.1 Wed Sep 13 16:34:03 2017

Tools Copyright (c) 1996-2012 Texas Instruments Incorporated
C:\Users\a0221074\AppData\Local\Temp\0125610                         PAGE   26

    1132 0000d3 ED6D          MOV dbl(*AR3(#1266)), XAR3
         0000d5 BF04 
         0000d7 F2   
    1133 0000d8 A422          MOV *SP(#17), T0 ; |265| 
    1134 0000da 22A9          MOV AR2, AR1 ; |265| 
    1135 0000dc C96B          MOV AR1, *AR3(T0) ; |265| 
    1136                      .dwpsn  file "C:/Users/a0221074/Desktop/C5000/IBM_Watson_TIdesign_workarea/CSL_bitbucket/c55_csl/c55x
    1137 0000de ED0C          MOV dbl(*SP(#6)), XAR3
         0000e0 BF   
    1138 0000e1 F76D          ADD #1, *AR3(#1263) ; |266| 
         0000e3 0001 
         0000e5 04EF 
    1139                      .dwpsn  file "C:/Users/a0221074/Desktop/C5000/IBM_Watson_TIdesign_workarea/CSL_bitbucket/c55_csl/c55x
    1140 0000e7 ED0C          MOV dbl(*SP(#6)), XAR3
         0000e9 BF   
    1141 0000ea DF04          MOV uns(*SP(#2)), AC0 ; |267| 
         0000ec 05   
    1142 0000ed 900A          MOV AC0, XAR2
    1143 0000ef ED6D          MOV dbl(*AR3(#1264)), XAR3
         0000f1 BF04 
         0000f3 F0   
    1144 0000f4 14A1          AADD XAR2, XAR3 ; |267| 
         0000f6 B0   
    1145 0000f7 ED00          MOV dbl(*SP(#0)), XAR2
         0000f9 AF   
    1146 0000fa A955          MOV *AR2(short(#2)), AR1 ; |267| 
    1147 0000fc C961          MOV AR1, *AR3 ; |267| 
    1148                      .dwpsn  file "C:/Users/a0221074/Desktop/C5000/IBM_Watson_TIdesign_workarea/CSL_bitbucket/c55_csl/c55x
    1149 0000fe 4A09          B $C$L25  ; |268| 
    1150                                                      ; branch occurs ; |268| 
    1151 000100       $C$L24:    
    1152                      .dwpsn  file "C:/Users/a0221074/Desktop/C5000/IBM_Watson_TIdesign_workarea/CSL_bitbucket/c55_csl/c55x
    1153 000100 EC31          AMOV #0, XAR0 ; |270| 
         000102 8E00 
         000104 0000 
    1154 000106 0600          B $C$L30  ; |270| 
         000108 BD   
    1155                                                      ; branch occurs ; |270| 
    1156 000109       $C$L25:    
    1157                      .dwpsn  file "C:/Users/a0221074/Desktop/C5000/IBM_Watson_TIdesign_workarea/CSL_bitbucket/c55_csl/c55x
    1158 000109 A920          MOV *SP(#16), AR1 ; |272| 
    1159 00010b ED00          MOV dbl(*SP(#0)), XAR3
         00010d BF   
    1160 00010e 1490          AADD AR1, AR3 ; |272| 
         000110 B0   
    1161 000111 F761          ADD #1, *AR3 ; |272| 
         000113 0001 
    1162                      .dwpsn  file "C:/Users/a0221074/Desktop/C5000/IBM_Watson_TIdesign_workarea/CSL_bitbucket/c55_csl/c55x
    1163 000115 ED00          MOV dbl(*SP(#0)), XAR3
         000117 BF   
    1164 000118 A975          MOV *AR3(short(#2)), AR1 ; |275| 
    1165 00011a ED1C          MOV dbl(*SP(#14)), XAR3
         00011c BF   
    1166 00011d C973          MOV AR1, *AR3(short(#1)) ; |275| 
    1167                      .dwpsn  file "C:/Users/a0221074/Desktop/C5000/IBM_Watson_TIdesign_workarea/CSL_bitbucket/c55_csl/c55x
TMS320C55x Assembler PC v4.4.1 Wed Sep 13 16:34:03 2017

Tools Copyright (c) 1996-2012 Texas Instruments Incorporated
C:\Users\a0221074\AppData\Local\Temp\0125610                         PAGE   27

    1168 00011f ED1C          MOV dbl(*SP(#14)), XAR3
         000121 BF   
    1169 000122 A904          MOV *SP(#2), AR1 ; |276| 
    1170 000124 C961          MOV AR1, *AR3 ; |276| 
    1171                      .dwpsn  file "C:/Users/a0221074/Desktop/C5000/IBM_Watson_TIdesign_workarea/CSL_bitbucket/c55_csl/c55x
    1172 000126 ED1C          MOV dbl(*SP(#14)), XAR3
         000128 BF   
    1173 000129 A910          MOV *SP(#8), AR1 ; |277| 
    1174 00012b C975          MOV AR1, *AR3(short(#2)) ; |277| 
    1175                      .dwpsn  file "C:/Users/a0221074/Desktop/C5000/IBM_Watson_TIdesign_workarea/CSL_bitbucket/c55_csl/c55x
    1176 00012d A908          MOV *SP(#4), AR1 ; |280| 
    1177 00012f 0409          BCC $C$L26,AR1 == #0 ; |280| 
         000131 1B   
    1178                                                      ; branchcc occurs ; |280| 
    1179 000132 ED00          MOV dbl(*SP(#0)), XAR3
         000134 BF   
    1180 000135 DF75          MOV uns(*AR3(short(#2))), AC1 ; |280| 
         000137 15   
    1181 000138 ED0C          MOV dbl(*SP(#6)), XAR3
         00013a BF   
    1182 00013b 1A00          OR #0, AC1, AC0
         00013d 01   
    1183 00013e 1013          ADD AC1 << #1, AC0 ; |280| 
         000140 01   
    1184 000141 900A          MOV AC0, XAR2
    1185 000143 ED6D          MOV dbl(*AR3(#1164)), XAR3
         000145 BF04 
         000147 8C   
    1186 000148 14A1          AADD XAR2, XAR3 ; |280| 
         00014a B0   
    1187 00014b 4A36          B $C$L27  ; |280| 
    1188                                                      ; branch occurs ; |280| 
    1189 00014d       $C$L26:    
    1190 00014d ED00          MOV dbl(*SP(#0)), XAR3
         00014f BF   
    1191 000150 DF75          MOV uns(*AR3(short(#2))), AC0 ; |280| 
         000152 05   
    1192 000153 ED0C          MOV dbl(*SP(#6)), XAR3
         000155 BF   
    1193 000156 DF6D          MOV uns(*AR3(#1974)), AC2 ; |280| 
         000158 2507 
         00015a B6   
    1194 00015b ED6D          MOV dbl(*AR3(#1164)), XAR3
         00015d BF04 
         00015f 8C   
    1195 000160 1A00          OR #0, AC0, AC1
         000162 10   
    1196              
    1197 000163 1A00          OR #0, AC2, AC0
         000165 02   
    1198 000166 1143  ||      ADD AC0 << #1, AC1 ; |280| 
         000168 01   
    1199              
    1200 000169 1023          ADD AC2 << #1, AC0 ; |280| 
         00016b 01   
TMS320C55x Assembler PC v4.4.1 Wed Sep 13 16:34:03 2017

Tools Copyright (c) 1996-2012 Texas Instruments Incorporated
C:\Users\a0221074\AppData\Local\Temp\0125610                         PAGE   28

    1201 00016c 900A          MOV AC0, XAR2
    1202 00016e 14A1          AADD XAR2, XAR3 ; |280| 
         000170 B0   
    1203 000171 901A          MOV AC1, XAR2
    1204 000173 A106          MOV *SP(#3), AC1 ; |280| 
    1205 000175 1A00          OR #0, AC1, AC0
         000177 01   
    1206              
    1207 00017b 1113          ADD AC1 << #1, AC0 ; |280| 
         00017d 01   
    1208 000178 14A1  ||      ASUB XAR2, XAR3 ; |280| 
         00017a B2   
    1209              
    1210 00017e 900A          MOV AC0, XAR2
    1211 000180 14A1          ASUB XAR2, XAR3 ; |280| 
         000182 B2   
    1212 000183       $C$L27:    
    1213 000183 EB14          MOV XAR3, dbl(*SP(#10))
         000185 B5   
    1214                      .dwpsn  file "C:/Users/a0221074/Desktop/C5000/IBM_Watson_TIdesign_workarea/CSL_bitbucket/c55_csl/c55x
    1215 000186 ED00          MOV dbl(*SP(#0)), XAR3
         000188 BF   
    1216 000189 A906          MOV *SP(#3), AR1 ; |282| 
    1217 00018b D675          ADD *AR3(short(#2)), AR1, AR1 ; |282| 
         00018d 99   
    1218 00018e C975          MOV AR1, *AR3(short(#2)) ; |282| 
    1219                      .dwpsn  file "C:/Users/a0221074/Desktop/C5000/IBM_Watson_TIdesign_workarea/CSL_bitbucket/c55_csl/c55x
    1220 000190 ED14          MOV dbl(*SP(#10)), XAR3
         000192 BF   
    1221 000193 EB18          MOV XAR3, dbl(*SP(#12))
         000195 B5   
    1222                      .dwpsn  file "C:/Users/a0221074/Desktop/C5000/IBM_Watson_TIdesign_workarea/CSL_bitbucket/c55_csl/c55x
    1223 000196 A906          MOV *SP(#3), AR1 ; |286| 
    1224 000198 7C00          SUB #1, AR1, AR2 ; |286| 
         00019a 01A9 
    1225 00019c CA06          MOV AR2, *SP(#3) ; |286| 
    1226 00019e 0409          BCC $C$L29,AR1 == #0 ; |286| 
         0001a0 22   
    1227                                                      ; branchcc occurs ; |286| 
    1228 0001a1       $C$L28:    
    1229 0001a1       $C$DW$L$_allocate_eval_cell$18$B:
    1230                      .dwpsn  file "C:/Users/a0221074/Desktop/C5000/IBM_Watson_TIdesign_workarea/CSL_bitbucket/c55_csl/c55x
    1231 0001a1 ED18          MOV dbl(*SP(#12)), XAR3
         0001a3 BF   
    1232 0001a4 FB61          MOV #-32768, *AR3 ; |287| 
         0001a6 8000 
    1233                      .dwpsn  file "C:/Users/a0221074/Desktop/C5000/IBM_Watson_TIdesign_workarea/CSL_bitbucket/c55_csl/c55x
    1234 0001a8 ED18          MOV dbl(*SP(#12)), XAR3
         0001aa BF   
    1235 0001ab FB75          MOV #4095, *AR3(short(#2)) ; |288| 
         0001ad 0FFF 
    1236                      .dwpsn  file "C:/Users/a0221074/Desktop/C5000/IBM_Watson_TIdesign_workarea/CSL_bitbucket/c55_csl/c55x
    1237 0001af ED18          MOV dbl(*SP(#12)), XAR3
         0001b1 BF   
    1238              
TMS320C55x Assembler PC v4.4.1 Wed Sep 13 16:34:03 2017

Tools Copyright (c) 1996-2012 Texas Instruments Incorporated
C:\Users\a0221074\AppData\Local\Temp\0125610                         PAGE   29

    1239 0001b2 8E18          MOV XAR3, dbl(*SP(#12))
         0001b4 BB14 
         0001b6 B503 
    1240              ||      AADD #3, AR3 ; |289| 
    1241              
    1242                      .dwpsn  file "C:/Users/a0221074/Desktop/C5000/IBM_Watson_TIdesign_workarea/CSL_bitbucket/c55_csl/c55x
    1243 0001b8 A906          MOV *SP(#3), AR1 ; |290| 
    1244 0001ba 7C00          SUB #1, AR1, AR2 ; |290| 
         0001bc 01A9 
    1245 0001be CA06          MOV AR2, *SP(#3) ; |290| 
    1246 0001c0 0419          BCC $C$L28,AR1 != #0 ; |290| 
         0001c2 DE   
    1247                                                      ; branchcc occurs ; |290| 
    1248 0001c3       $C$DW$L$_allocate_eval_cell$18$E:
    1249 0001c3       $C$L29:    
    1250                      .dwpsn  file "C:/Users/a0221074/Desktop/C5000/IBM_Watson_TIdesign_workarea/CSL_bitbucket/c55_csl/c55x
    1251 0001c3 ED14          MOV dbl(*SP(#10)), XAR0
         0001c5 8F   
    1252 0001c6       $C$L30:    
    1253                      .dwpsn  file "C:/Users/a0221074/Desktop/C5000/IBM_Watson_TIdesign_workarea/CSL_bitbucket/c55_csl/c55x
    1254 0001c6 4E13          AADD #19, SP
    1255                      .dwcfi  cfa_offset, 1
    1256              $C$DW$87        .dwtag  DW_TAG_TI_branch
    1257                      .dwattr $C$DW$87, DW_AT_low_pc(0x00)
    1258                      .dwattr $C$DW$87, DW_AT_TI_return
    1259 0001c8 4804          RET
    1260                                                      ; return occurs
    1261              
    1262              $C$DW$88        .dwtag  DW_TAG_TI_loop
    1263                      .dwattr $C$DW$88, DW_AT_name("C:\\Users\\a0221074\\AppData\\Local\\Temp\\0125610:$C$L28:1:1505334831"
    1264                      .dwattr $C$DW$88, DW_AT_TI_begin_file("C:/Users/a0221074/Desktop/C5000/IBM_Watson_TIdesign_workarea/C
    1265                      .dwattr $C$DW$88, DW_AT_TI_begin_line(0x11e)
    1266                      .dwattr $C$DW$88, DW_AT_TI_end_line(0x122)
    1267              $C$DW$89        .dwtag  DW_TAG_TI_loop_range
    1268                      .dwattr $C$DW$89, DW_AT_low_pc($C$DW$L$_allocate_eval_cell$18$B)
    1269                      .dwattr $C$DW$89, DW_AT_high_pc($C$DW$L$_allocate_eval_cell$18$E)
    1270                      .dwendtag $C$DW$88
    1271              
    1272                      .dwattr $C$DW$68, DW_AT_TI_end_file("C:/Users/a0221074/Desktop/C5000/IBM_Watson_TIdesign_workarea/CSL
    1273                      .dwattr $C$DW$68, DW_AT_TI_end_line(0x125)
    1274                      .dwattr $C$DW$68, DW_AT_TI_end_column(0x01)
    1275                      .dwendentry
    1276                      .dwendtag $C$DW$68
    1277              
    1278 000000               .sect   ".text:_get_frame_time"
    1279                      .clink
    1280              
    1281              $C$DW$90        .dwtag  DW_TAG_subprogram, DW_AT_name("get_frame_time")
    1282                      .dwattr $C$DW$90, DW_AT_low_pc(_get_frame_time)
    1283                      .dwattr $C$DW$90, DW_AT_high_pc(0x00)
    1284                      .dwattr $C$DW$90, DW_AT_TI_symbol_name("_get_frame_time")
    1285                      .dwattr $C$DW$90, DW_AT_type(*$C$DW$T$9)
    1286                      .dwattr $C$DW$90, DW_AT_TI_begin_file("C:/Users/a0221074/Desktop/C5000/IBM_Watson_TIdesign_workarea/C
    1287                      .dwattr $C$DW$90, DW_AT_TI_begin_line(0x12a)
    1288                      .dwattr $C$DW$90, DW_AT_TI_begin_column(0x17)
TMS320C55x Assembler PC v4.4.1 Wed Sep 13 16:34:03 2017

Tools Copyright (c) 1996-2012 Texas Instruments Incorporated
C:\Users\a0221074\AppData\Local\Temp\0125610                         PAGE   30

    1289                      .dwattr $C$DW$90, DW_AT_TI_max_frame_size(0x08)
    1290                      .dwpsn  file "C:/Users/a0221074/Desktop/C5000/IBM_Watson_TIdesign_workarea/CSL_bitbucket/c55_csl/c55x
    1291              
    1292                      .dwfde $C$DW$CIE, _get_frame_time
    1293              $C$DW$91        .dwtag  DW_TAG_formal_parameter, DW_AT_name("bm")
    1294                      .dwattr $C$DW$91, DW_AT_TI_symbol_name("_bm")
    1295                      .dwattr $C$DW$91, DW_AT_type(*$C$DW$T$9)
    1296                      .dwattr $C$DW$91, DW_AT_location[DW_OP_reg12]
    1297              $C$DW$92        .dwtag  DW_TAG_formal_parameter, DW_AT_name("gv")
    1298                      .dwattr $C$DW$92, DW_AT_TI_symbol_name("_gv")
    1299                      .dwattr $C$DW$92, DW_AT_type(*$C$DW$T$100)
    1300                      .dwattr $C$DW$92, DW_AT_location[DW_OP_reg17]
    1301              ;*******************************************************************************
    1302              ;* FUNCTION NAME: get_frame_time                                               *
    1303              ;*                                                                             *
    1304              ;*   Function Uses Regs : AC0,AC0,AC1,AC1,T0,AR0,XAR0,AR1,AR2,XAR2,AR3,XAR3,SP,*
    1305              ;*                        CARRY,TC1,M40,SATA,SATD,RDM,FRCT,SMUL                *
    1306              ;*   Stack Frame        : Compact (No Frame Pointer, w/ debug)                 *
    1307              ;*   Total Frame Size   : 8 words                                              *
    1308              ;*                        (2 return address/alignment)                         *
    1309              ;*                        (6 local values)                                     *
    1310              ;*   Min System Stack   : 1 word                                               *
    1311              ;*******************************************************************************
    1312 000000       _get_frame_time:
    1313                      .dwcfi  cfa_offset, 1
    1314                      .dwcfi  save_reg_to_mem, 91, -1
    1315 000000 4EF9          AADD #-7, SP
    1316                      .dwcfi  cfa_offset, 8
    1317              $C$DW$93        .dwtag  DW_TAG_variable, DW_AT_name("bm")
    1318                      .dwattr $C$DW$93, DW_AT_TI_symbol_name("_bm")
    1319                      .dwattr $C$DW$93, DW_AT_type(*$C$DW$T$9)
    1320                      .dwattr $C$DW$93, DW_AT_location[DW_OP_bregx 0x24 0]
    1321              $C$DW$94        .dwtag  DW_TAG_variable, DW_AT_name("gv")
    1322                      .dwattr $C$DW$94, DW_AT_TI_symbol_name("_gv")
    1323                      .dwattr $C$DW$94, DW_AT_type(*$C$DW$T$100)
    1324                      .dwattr $C$DW$94, DW_AT_location[DW_OP_bregx 0x24 2]
    1325              $C$DW$95        .dwtag  DW_TAG_variable, DW_AT_name("i")
    1326                      .dwattr $C$DW$95, DW_AT_TI_symbol_name("_i")
    1327                      .dwattr $C$DW$95, DW_AT_type(*$C$DW$T$10)
    1328                      .dwattr $C$DW$95, DW_AT_location[DW_OP_bregx 0x24 4]
    1329              $C$DW$96        .dwtag  DW_TAG_variable, DW_AT_name("q")
    1330                      .dwattr $C$DW$96, DW_AT_TI_symbol_name("_q")
    1331                      .dwattr $C$DW$96, DW_AT_type(*$C$DW$T$9)
    1332                      .dwattr $C$DW$96, DW_AT_location[DW_OP_bregx 0x24 5]
    1333 000002 EB04          MOV XAR0, dbl(*SP(#2))
         000004 85   
    1334 000005 C400          MOV T0, *SP(#0) ; |299| 
    1335                      .dwpsn  file "C:/Users/a0221074/Desktop/C5000/IBM_Watson_TIdesign_workarea/CSL_bitbucket/c55_csl/c55x
    1336 000007 76FF          MOV #65535, AR1 ; |304| 
         000009 FF98 
    1337 00000b E608          MOV #0, *SP(#4) ; |303| 
         00000d 00   
    1338 00000e 0600          B $C$L35  ; |303| 
         000010 87   
    1339                                                      ; branch occurs ; |303| 
TMS320C55x Assembler PC v4.4.1 Wed Sep 13 16:34:03 2017

Tools Copyright (c) 1996-2012 Texas Instruments Incorporated
C:\Users\a0221074\AppData\Local\Temp\0125610                         PAGE   31

    1340 000011       $C$L31:    
    1341 000011       $C$DW$L$_get_frame_time$2$B:
    1342                      .dwpsn  file "C:/Users/a0221074/Desktop/C5000/IBM_Watson_TIdesign_workarea/CSL_bitbucket/c55_csl/c55x
    1343 000011 ED04          MOV dbl(*SP(#2)), XAR3
         000013 BF   
    1344 000014 A008          MOV *SP(#4), AC0 ; |304| 
    1345 000016 5000          SFTL AC0, #1 ; |304| 
    1346 000018 900A          MOV AC0, XAR2
    1347 00001a ED6D          MOV dbl(*AR3(#1168)), XAR3
         00001c BF04 
         00001e 90   
    1348 00001f 14A1          AADD XAR2, XAR3 ; |304| 
         000021 B0   
    1349 000022 AA73          MOV *AR3(short(#1)), AR2 ; |304| 
    1350 000024 12A0          CMPU AR2 == AR1, TC1 ; |304| 
         000026 94   
    1351 000027 0464          BCC $C$L34,TC1 ; |304| 
         000029 6A   
    1352                                                      ; branchcc occurs ; |304| 
    1353 00002a       $C$DW$L$_get_frame_time$2$E:
    1354 00002a       $C$DW$L$_get_frame_time$3$B:
    1355                      .dwpsn  file "C:/Users/a0221074/Desktop/C5000/IBM_Watson_TIdesign_workarea/CSL_bitbucket/c55_csl/c55x
    1356 00002a ED04          MOV dbl(*SP(#2)), XAR3
         00002c BF   
    1357 00002d A008          MOV *SP(#4), AC0 ; |305| 
    1358 00002f 5000          SFTL AC0, #1 ; |305| 
    1359 000031 900A          MOV AC0, XAR2
    1360 000033 ED6D          MOV dbl(*AR3(#1168)), XAR3
         000035 BF04 
         000037 90   
    1361 000038 14A1          AADD XAR2, XAR3 ; |305| 
         00003a B0   
    1362 00003b AA73          MOV *AR3(short(#1)), AR2 ; |305| 
    1363 00003d CA0A          MOV AR2, *SP(#5) ; |305| 
    1364                      .dwpsn  file "C:/Users/a0221074/Desktop/C5000/IBM_Watson_TIdesign_workarea/CSL_bitbucket/c55_csl/c55x
    1365 00003f ED04          MOV dbl(*SP(#2)), XAR3
         000041 BF   
    1366 000042 AA6D          MOV *AR3(#1975), AR2 ; |305| 
         000044 07B7 
    1367 000046 AB0A          MOV *SP(#5), AR3 ; |305| 
    1368 000048 12B0          CMPU AR3 == AR2, TC1 ; |305| 
         00004a A4   
    1369 00004b 0464          BCC $C$L34,TC1 ; |305| 
         00004d 46   
    1370                                                      ; branchcc occurs ; |305| 
    1371 00004e       $C$DW$L$_get_frame_time$3$E:
    1372 00004e       $C$L32:    
    1373 00004e       $C$DW$L$_get_frame_time$4$B:
    1374                      .dwpsn  file "C:/Users/a0221074/Desktop/C5000/IBM_Watson_TIdesign_workarea/CSL_bitbucket/c55_csl/c55x
    1375 00004e AA00          MOV *SP(#0), AR2 ; |306| 
    1376 000050 12BC          CMPU AR3 != AR2, TC1 ; |306| 
         000052 A4   
    1377 000053 0464          BCC $C$L33,TC1 ; |306| 
         000055 15   
    1378                                                      ; branchcc occurs ; |306| 
TMS320C55x Assembler PC v4.4.1 Wed Sep 13 16:34:03 2017

Tools Copyright (c) 1996-2012 Texas Instruments Incorporated
C:\Users\a0221074\AppData\Local\Temp\0125610                         PAGE   32

    1379 000056       $C$DW$L$_get_frame_time$4$E:
    1380                      .dwpsn  file "C:/Users/a0221074/Desktop/C5000/IBM_Watson_TIdesign_workarea/CSL_bitbucket/c55_csl/c55x
    1381 000056 ED04          MOV dbl(*SP(#2)), XAR3
         000058 BF   
    1382 000059 A008          MOV *SP(#4), AC0 ; |306| 
    1383 00005b 5000          SFTL AC0, #1 ; |306| 
    1384 00005d 900A          MOV AC0, XAR2
    1385 00005f ED6D          MOV dbl(*AR3(#1168)), XAR3
         000061 BF04 
         000063 90   
    1386 000064 14A1          AADD XAR2, XAR3 ; |306| 
         000066 B0   
    1387 000067 A461          MOV *AR3, T0 ; |306| 
    1388 000069 4A3F          B $C$L36  ; |306| 
    1389                                                      ; branch occurs ; |306| 
    1390 00006b       $C$L33:    
    1391 00006b       $C$DW$L$_get_frame_time$6$B:
    1392                      .dwpsn  file "C:/Users/a0221074/Desktop/C5000/IBM_Watson_TIdesign_workarea/CSL_bitbucket/c55_csl/c55x
    1393 00006b ED04          MOV dbl(*SP(#2)), XAR3
         00006d BF   
    1394 00006e ED6D          MOV dbl(*AR3(#1166)), XAR3
         000070 BF04 
         000072 8E   
    1395 000073 DF0A          MOV uns(*SP(#5)), AC1 ; |305| 
         000075 15   
    1396 000076 1A00          OR #0, AC1, AC0
         000078 01   
    1397 000079 1013          ADD AC1 << #1, AC0 ; |305| 
         00007b 01   
    1398 00007c 900A          MOV AC0, XAR2
    1399 00007e 14A1          AADD XAR2, XAR3 ; |305| 
         000080 B0   
    1400 000081 AA75          MOV *AR3(short(#2)), AR2 ; |305| 
    1401 000083 CA0A          MOV AR2, *SP(#5) ; |305| 
    1402                      .dwpsn  file "C:/Users/a0221074/Desktop/C5000/IBM_Watson_TIdesign_workarea/CSL_bitbucket/c55_csl/c55x
    1403 000085 ED04          MOV dbl(*SP(#2)), XAR3
         000087 BF   
    1404 000088 AA6D          MOV *AR3(#1975), AR2 ; |305| 
         00008a 07B7 
    1405 00008c AB0A          MOV *SP(#5), AR3 ; |305| 
    1406 00008e 12BC          CMPU AR3 != AR2, TC1 ; |305| 
         000090 A4   
    1407 000091 0464          BCC $C$L32,TC1 ; |305| 
         000093 BA   
    1408                                                      ; branchcc occurs ; |305| 
    1409 000094       $C$DW$L$_get_frame_time$6$E:
    1410 000094       $C$L34:    
    1411 000094       $C$DW$L$_get_frame_time$7$B:
    1412                      .dwpsn  file "C:/Users/a0221074/Desktop/C5000/IBM_Watson_TIdesign_workarea/CSL_bitbucket/c55_csl/c55x
    1413 000094 F708          ADD #1, *SP(#4) ; |303| 
         000096 0001 
    1414 000098       $C$DW$L$_get_frame_time$7$E:
    1415 000098       $C$L35:    
    1416 000098       $C$DW$L$_get_frame_time$8$B:
    1417                      .dwpsn  file "C:/Users/a0221074/Desktop/C5000/IBM_Watson_TIdesign_workarea/CSL_bitbucket/c55_csl/c55x
TMS320C55x Assembler PC v4.4.1 Wed Sep 13 16:34:03 2017

Tools Copyright (c) 1996-2012 Texas Instruments Incorporated
C:\Users\a0221074\AppData\Local\Temp\0125610                         PAGE   33

    1418 000098 ED04          MOV dbl(*SP(#2)), XAR3
         00009a BF   
    1419 00009b AA6D          MOV *AR3(#1254), AR2 ; |303| 
         00009d 04E6 
    1420 00009f AB08          MOV *SP(#4), AR3 ; |303| 
    1421 0000a1 12B4          CMPU AR3 < AR2, TC1 ; |303| 
         0000a3 A4   
    1422 0000a4 6D64          BCC $C$L31,TC1 ; |303| 
         0000a6 FF69 
    1423                                                      ; branchcc occurs ; |303| 
    1424 0000a8       $C$DW$L$_get_frame_time$8$E:
    1425                      .dwpsn  file "C:/Users/a0221074/Desktop/C5000/IBM_Watson_TIdesign_workarea/CSL_bitbucket/c55_csl/c55x
    1426 0000a8 3C04          MOV #0, T0
    1427 0000aa       $C$L36:    
    1428                      .dwpsn  file "C:/Users/a0221074/Desktop/C5000/IBM_Watson_TIdesign_workarea/CSL_bitbucket/c55_csl/c55x
    1429 0000aa 4E07          AADD #7, SP
    1430                      .dwcfi  cfa_offset, 1
    1431              $C$DW$97        .dwtag  DW_TAG_TI_branch
    1432                      .dwattr $C$DW$97, DW_AT_low_pc(0x00)
    1433                      .dwattr $C$DW$97, DW_AT_TI_return
    1434 0000ac 4804          RET
    1435                                                      ; return occurs
    1436              
    1437              $C$DW$98        .dwtag  DW_TAG_TI_loop
    1438                      .dwattr $C$DW$98, DW_AT_name("C:\\Users\\a0221074\\AppData\\Local\\Temp\\0125610:$C$L35:1:1505334831"
    1439                      .dwattr $C$DW$98, DW_AT_TI_begin_file("C:/Users/a0221074/Desktop/C5000/IBM_Watson_TIdesign_workarea/C
    1440                      .dwattr $C$DW$98, DW_AT_TI_begin_line(0x12f)
    1441                      .dwattr $C$DW$98, DW_AT_TI_end_line(0x131)
    1442              $C$DW$99        .dwtag  DW_TAG_TI_loop_range
    1443                      .dwattr $C$DW$99, DW_AT_low_pc($C$DW$L$_get_frame_time$8$B)
    1444                      .dwattr $C$DW$99, DW_AT_high_pc($C$DW$L$_get_frame_time$8$E)
    1445              $C$DW$100       .dwtag  DW_TAG_TI_loop_range
    1446                      .dwattr $C$DW$100, DW_AT_low_pc($C$DW$L$_get_frame_time$2$B)
    1447                      .dwattr $C$DW$100, DW_AT_high_pc($C$DW$L$_get_frame_time$2$E)
    1448              $C$DW$101       .dwtag  DW_TAG_TI_loop_range
    1449                      .dwattr $C$DW$101, DW_AT_low_pc($C$DW$L$_get_frame_time$3$B)
    1450                      .dwattr $C$DW$101, DW_AT_high_pc($C$DW$L$_get_frame_time$3$E)
    1451              $C$DW$102       .dwtag  DW_TAG_TI_loop_range
    1452                      .dwattr $C$DW$102, DW_AT_low_pc($C$DW$L$_get_frame_time$7$B)
    1453                      .dwattr $C$DW$102, DW_AT_high_pc($C$DW$L$_get_frame_time$7$E)
    1454              
    1455              $C$DW$103       .dwtag  DW_TAG_TI_loop
    1456                      .dwattr $C$DW$103, DW_AT_name("C:\\Users\\a0221074\\AppData\\Local\\Temp\\0125610:$C$L32:2:1505334831
    1457                      .dwattr $C$DW$103, DW_AT_TI_begin_file("C:/Users/a0221074/Desktop/C5000/IBM_Watson_TIdesign_workarea/
    1458                      .dwattr $C$DW$103, DW_AT_TI_begin_line(0x131)
    1459                      .dwattr $C$DW$103, DW_AT_TI_end_line(0x133)
    1460              $C$DW$104       .dwtag  DW_TAG_TI_loop_range
    1461                      .dwattr $C$DW$104, DW_AT_low_pc($C$DW$L$_get_frame_time$4$B)
    1462                      .dwattr $C$DW$104, DW_AT_high_pc($C$DW$L$_get_frame_time$4$E)
    1463              $C$DW$105       .dwtag  DW_TAG_TI_loop_range
    1464                      .dwattr $C$DW$105, DW_AT_low_pc($C$DW$L$_get_frame_time$6$B)
    1465                      .dwattr $C$DW$105, DW_AT_high_pc($C$DW$L$_get_frame_time$6$E)
    1466                      .dwendtag $C$DW$103
    1467              
    1468                      .dwendtag $C$DW$98
TMS320C55x Assembler PC v4.4.1 Wed Sep 13 16:34:03 2017

Tools Copyright (c) 1996-2012 Texas Instruments Incorporated
C:\Users\a0221074\AppData\Local\Temp\0125610                         PAGE   34

    1469              
    1470                      .dwattr $C$DW$90, DW_AT_TI_end_file("C:/Users/a0221074/Desktop/C5000/IBM_Watson_TIdesign_workarea/CSL
    1471                      .dwattr $C$DW$90, DW_AT_TI_end_line(0x137)
    1472                      .dwattr $C$DW$90, DW_AT_TI_end_column(0x01)
    1473                      .dwendentry
    1474                      .dwendtag $C$DW$90
    1475              
    1476 000000               .sect   ".text:_find_state_cell"
    1477                      .clink
    1478              
    1479              $C$DW$106       .dwtag  DW_TAG_subprogram, DW_AT_name("find_state_cell")
    1480                      .dwattr $C$DW$106, DW_AT_low_pc(_find_state_cell)
    1481                      .dwattr $C$DW$106, DW_AT_high_pc(0x00)
    1482                      .dwattr $C$DW$106, DW_AT_TI_symbol_name("_find_state_cell")
    1483                      .dwattr $C$DW$106, DW_AT_type(*$C$DW$T$71)
    1484                      .dwattr $C$DW$106, DW_AT_TI_begin_file("C:/Users/a0221074/Desktop/C5000/IBM_Watson_TIdesign_workarea/
    1485                      .dwattr $C$DW$106, DW_AT_TI_begin_line(0x13f)
    1486                      .dwattr $C$DW$106, DW_AT_TI_begin_column(0x01)
    1487                      .dwattr $C$DW$106, DW_AT_TI_max_frame_size(0x0e)
    1488                      .dwpsn  file "C:/Users/a0221074/Desktop/C5000/IBM_Watson_TIdesign_workarea/CSL_bitbucket/c55_csl/c55x
    1489              
    1490                      .dwfde $C$DW$CIE, _find_state_cell
    1491              $C$DW$107       .dwtag  DW_TAG_formal_parameter, DW_AT_name("eval_idx")
    1492                      .dwattr $C$DW$107, DW_AT_TI_symbol_name("_eval_idx")
    1493                      .dwattr $C$DW$107, DW_AT_type(*$C$DW$T$106)
    1494                      .dwattr $C$DW$107, DW_AT_location[DW_OP_reg17]
    1495              $C$DW$108       .dwtag  DW_TAG_formal_parameter, DW_AT_name("idx")
    1496                      .dwattr $C$DW$108, DW_AT_TI_symbol_name("_idx")
    1497                      .dwattr $C$DW$108, DW_AT_type(*$C$DW$T$9)
    1498                      .dwattr $C$DW$108, DW_AT_location[DW_OP_reg12]
    1499              $C$DW$109       .dwtag  DW_TAG_formal_parameter, DW_AT_name("sym")
    1500                      .dwattr $C$DW$109, DW_AT_TI_symbol_name("_sym")
    1501                      .dwattr $C$DW$109, DW_AT_type(*$C$DW$T$9)
    1502                      .dwattr $C$DW$109, DW_AT_location[DW_OP_reg13]
    1503              $C$DW$110       .dwtag  DW_TAG_formal_parameter, DW_AT_name("n_state")
    1504                      .dwattr $C$DW$110, DW_AT_TI_symbol_name("_n_state")
    1505                      .dwattr $C$DW$110, DW_AT_type(*$C$DW$T$11)
    1506                      .dwattr $C$DW$110, DW_AT_location[DW_OP_reg18]
    1507              $C$DW$111       .dwtag  DW_TAG_formal_parameter, DW_AT_name("gv")
    1508                      .dwattr $C$DW$111, DW_AT_TI_symbol_name("_gv")
    1509                      .dwattr $C$DW$111, DW_AT_type(*$C$DW$T$100)
    1510                      .dwattr $C$DW$111, DW_AT_location[DW_OP_reg21]
    1511              ;*******************************************************************************
    1512              ;* FUNCTION NAME: find_state_cell                                              *
    1513              ;*                                                                             *
    1514              ;*   Function Uses Regs : AC0,AC0,AC1,AC1,AC2,AC2,T0,T1,AR0,XAR0,AR1,AR2,XAR2, *
    1515              ;*                        AR3,XAR3,SP,CARRY,TC1,M40,SATA,SATD,RDM,FRCT,SMUL    *
    1516              ;*   Stack Frame        : Compact (No Frame Pointer, w/ debug)                 *
    1517              ;*   Total Frame Size   : 14 words                                             *
    1518              ;*                        (2 return address/alignment)                         *
    1519              ;*                        (12 local values)                                    *
    1520              ;*   Min System Stack   : 1 word                                               *
    1521              ;*******************************************************************************
    1522 000000       _find_state_cell:
    1523                      .dwcfi  cfa_offset, 1
TMS320C55x Assembler PC v4.4.1 Wed Sep 13 16:34:03 2017

Tools Copyright (c) 1996-2012 Texas Instruments Incorporated
C:\Users\a0221074\AppData\Local\Temp\0125610                         PAGE   35

    1524                      .dwcfi  save_reg_to_mem, 91, -1
    1525 000000 4EF3          AADD #-13, SP
    1526                      .dwcfi  cfa_offset, 14
    1527              $C$DW$112       .dwtag  DW_TAG_variable, DW_AT_name("eval_idx")
    1528                      .dwattr $C$DW$112, DW_AT_TI_symbol_name("_eval_idx")
    1529                      .dwattr $C$DW$112, DW_AT_type(*$C$DW$T$106)
    1530                      .dwattr $C$DW$112, DW_AT_location[DW_OP_bregx 0x24 0]
    1531              $C$DW$113       .dwtag  DW_TAG_variable, DW_AT_name("idx")
    1532                      .dwattr $C$DW$113, DW_AT_TI_symbol_name("_idx")
    1533                      .dwattr $C$DW$113, DW_AT_type(*$C$DW$T$9)
    1534                      .dwattr $C$DW$113, DW_AT_location[DW_OP_bregx 0x24 2]
    1535              $C$DW$114       .dwtag  DW_TAG_variable, DW_AT_name("sym")
    1536                      .dwattr $C$DW$114, DW_AT_TI_symbol_name("_sym")
    1537                      .dwattr $C$DW$114, DW_AT_type(*$C$DW$T$9)
    1538                      .dwattr $C$DW$114, DW_AT_location[DW_OP_bregx 0x24 3]
    1539              $C$DW$115       .dwtag  DW_TAG_variable, DW_AT_name("n_state")
    1540                      .dwattr $C$DW$115, DW_AT_TI_symbol_name("_n_state")
    1541                      .dwattr $C$DW$115, DW_AT_type(*$C$DW$T$11)
    1542                      .dwattr $C$DW$115, DW_AT_location[DW_OP_bregx 0x24 4]
    1543              $C$DW$116       .dwtag  DW_TAG_variable, DW_AT_name("gv")
    1544                      .dwattr $C$DW$116, DW_AT_TI_symbol_name("_gv")
    1545                      .dwattr $C$DW$116, DW_AT_type(*$C$DW$T$100)
    1546                      .dwattr $C$DW$116, DW_AT_location[DW_OP_bregx 0x24 6]
    1547              $C$DW$117       .dwtag  DW_TAG_variable, DW_AT_name("i_pos")
    1548                      .dwattr $C$DW$117, DW_AT_TI_symbol_name("_i_pos")
    1549                      .dwattr $C$DW$117, DW_AT_type(*$C$DW$T$8)
    1550                      .dwattr $C$DW$117, DW_AT_location[DW_OP_bregx 0x24 8]
    1551              $C$DW$118       .dwtag  DW_TAG_variable, DW_AT_name("pstate")
    1552                      .dwattr $C$DW$118, DW_AT_TI_symbol_name("_pstate")
    1553                      .dwattr $C$DW$118, DW_AT_type(*$C$DW$T$71)
    1554                      .dwattr $C$DW$118, DW_AT_location[DW_OP_bregx 0x24 10]
    1555 000002 EB0C          MOV XAR2, dbl(*SP(#6))
         000004 A5   
    1556 000005 C908          MOV AR1, *SP(#4) ; |320| 
    1557 000007 C506          MOV T1, *SP(#3) ; |320| 
    1558 000009 C404          MOV T0, *SP(#2) ; |320| 
    1559 00000b EB00          MOV XAR0, dbl(*SP(#0))
         00000d 85   
    1560                      .dwpsn  file "C:/Users/a0221074/Desktop/C5000/IBM_Watson_TIdesign_workarea/CSL_bitbucket/c55_csl/c55x
    1561 00000e E610          MOV #-1, *SP(#8) ; |321| 
         000010 FF   
    1562                      .dwpsn  file "C:/Users/a0221074/Desktop/C5000/IBM_Watson_TIdesign_workarea/CSL_bitbucket/c55_csl/c55x
    1563 000011 3C00          MOV #0, AC0 ; |322| 
    1564 000013 EB14          MOV AC0, dbl(*SP(#10))
         000015 08   
    1565                      .dwpsn  file "C:/Users/a0221074/Desktop/C5000/IBM_Watson_TIdesign_workarea/CSL_bitbucket/c55_csl/c55x
    1566 000016 ED0C          MOV dbl(*SP(#6)), XAR3
         000018 BF   
    1567 000019 AA06          MOV *SP(#3), AR2 ; |324| 
    1568 00001b A96D          MOV *AR3(#1262), AR1 ; |324| 
         00001d 04EE 
    1569 00001f 12A8          CMPU AR2 >= AR1, TC1 ; |324| 
         000021 94   
    1570 000022 0464          BCC $C$L37,TC1 ; |324| 
         000024 11   
TMS320C55x Assembler PC v4.4.1 Wed Sep 13 16:34:03 2017

Tools Copyright (c) 1996-2012 Texas Instruments Incorporated
C:\Users\a0221074\AppData\Local\Temp\0125610                         PAGE   36

    1571                                                      ; branchcc occurs ; |324| 
    1572                      .dwpsn  file "C:/Users/a0221074/Desktop/C5000/IBM_Watson_TIdesign_workarea/CSL_bitbucket/c55_csl/c55x
    1573 000025 ED6D          MOV dbl(*AR3(#1264)), XAR3
         000027 BF04 
         000029 F0   
    1574 00002a DF06          MOV uns(*SP(#3)), AC0 ; |325| 
         00002c 05   
    1575 00002d 900A          MOV AC0, XAR2
    1576 00002f 14A1          AADD XAR2, XAR3 ; |325| 
         000031 B0   
    1577 000032 A961          MOV *AR3, AR1 ; |325| 
    1578 000034 C910          MOV AR1, *SP(#8) ; |325| 
    1579 000036       $C$L37:    
    1580                      .dwpsn  file "C:/Users/a0221074/Desktop/C5000/IBM_Watson_TIdesign_workarea/CSL_bitbucket/c55_csl/c55x
    1581 000036 A910          MOV *SP(#8), AR1 ; |326| 
    1582 000038 0429          BCC $C$L40,AR1 < #0 ; |326| 
         00003a 52   
    1583                                                      ; branchcc occurs ; |326| 
    1584                      .dwpsn  file "C:/Users/a0221074/Desktop/C5000/IBM_Watson_TIdesign_workarea/CSL_bitbucket/c55_csl/c55x
    1585 00003b A904          MOV *SP(#2), AR1 ; |327| 
    1586 00003d 0409          BCC $C$L38,AR1 == #0 ; |327| 
         00003f 17   
    1587                                                      ; branchcc occurs ; |327| 
    1588 000040 ED0C          MOV dbl(*SP(#6)), XAR3
         000042 BF   
    1589 000043 ED6D          MOV dbl(*AR3(#1164)), XAR3
         000045 BF04 
         000047 8C   
    1590 000048 A110          MOV *SP(#8), AC1 ; |327| 
    1591 00004a 1A00          OR #0, AC1, AC0
         00004c 01   
    1592 00004d 1013          ADD AC1 << #1, AC0 ; |327| 
         00004f 01   
    1593 000050 900A          MOV AC0, XAR2
    1594 000052 14A1          AADD XAR2, XAR3 ; |327| 
         000054 B0   
    1595 000055 4A33          B $C$L39  ; |327| 
    1596                                                      ; branch occurs ; |327| 
    1597 000057       $C$L38:    
    1598 000057 ED0C          MOV dbl(*SP(#6)), XAR3
         000059 BF   
    1599 00005a A010          MOV *SP(#8), AC0 ; |327| 
    1600 00005c DF6D          MOV uns(*AR3(#1974)), AC2 ; |327| 
         00005e 2507 
         000060 B6   
    1601 000061 ED6D          MOV dbl(*AR3(#1164)), XAR3
         000063 BF04 
         000065 8C   
    1602 000066 1A00          OR #0, AC0, AC1
         000068 10   
    1603              
    1604 000069 1A00          OR #0, AC2, AC0
         00006b 02   
    1605 00006c 1143  ||      ADD AC0 << #1, AC1 ; |327| 
         00006e 01   
TMS320C55x Assembler PC v4.4.1 Wed Sep 13 16:34:03 2017

Tools Copyright (c) 1996-2012 Texas Instruments Incorporated
C:\Users\a0221074\AppData\Local\Temp\0125610                         PAGE   37

    1606              
    1607 00006f 1023          ADD AC2 << #1, AC0 ; |327| 
         000071 01   
    1608 000072 900A          MOV AC0, XAR2
    1609 000074 14A1          AADD XAR2, XAR3 ; |327| 
         000076 B0   
    1610 000077 901A          MOV AC1, XAR2
    1611 000079 DF08          MOV uns(*SP(#4)), AC1 ; |327| 
         00007b 15   
    1612 00007c 1A00          OR #0, AC1, AC0
         00007e 01   
    1613              
    1614 000082 1113          ADD AC1 << #1, AC0 ; |327| 
         000084 01   
    1615 00007f 14A1  ||      ASUB XAR2, XAR3 ; |327| 
         000081 B2   
    1616              
    1617 000085 900A          MOV AC0, XAR2
    1618 000087 14A1          ASUB XAR2, XAR3 ; |327| 
         000089 B2   
    1619 00008a       $C$L39:    
    1620 00008a EB14          MOV XAR3, dbl(*SP(#10))
         00008c B5   
    1621 00008d       $C$L40:    
    1622                      .dwpsn  file "C:/Users/a0221074/Desktop/C5000/IBM_Watson_TIdesign_workarea/CSL_bitbucket/c55_csl/c55x
    1623 00008d ED14          MOV dbl(*SP(#10)), XAR0
         00008f 8F   
    1624                      .dwpsn  file "C:/Users/a0221074/Desktop/C5000/IBM_Watson_TIdesign_workarea/CSL_bitbucket/c55_csl/c55x
    1625 000090 4E0D          AADD #13, SP
    1626                      .dwcfi  cfa_offset, 1
    1627              $C$DW$119       .dwtag  DW_TAG_TI_branch
    1628                      .dwattr $C$DW$119, DW_AT_low_pc(0x00)
    1629                      .dwattr $C$DW$119, DW_AT_TI_return
    1630 000092 4804          RET
    1631                                                      ; return occurs
    1632                      .dwattr $C$DW$106, DW_AT_TI_end_file("C:/Users/a0221074/Desktop/C5000/IBM_Watson_TIdesign_workarea/CS
    1633                      .dwattr $C$DW$106, DW_AT_TI_end_line(0x14a)
    1634                      .dwattr $C$DW$106, DW_AT_TI_end_column(0x01)
    1635                      .dwendentry
    1636                      .dwendtag $C$DW$106
    1637              
    1638 000000               .sect   ".text:_mark_cells_state"
    1639                      .clink
    1640              
    1641              $C$DW$120       .dwtag  DW_TAG_subprogram, DW_AT_name("mark_cells_state")
    1642                      .dwattr $C$DW$120, DW_AT_low_pc(_mark_cells_state)
    1643                      .dwattr $C$DW$120, DW_AT_high_pc(0x00)
    1644                      .dwattr $C$DW$120, DW_AT_TI_symbol_name("_mark_cells_state")
    1645                      .dwattr $C$DW$120, DW_AT_TI_begin_file("C:/Users/a0221074/Desktop/C5000/IBM_Watson_TIdesign_workarea/
    1646                      .dwattr $C$DW$120, DW_AT_TI_begin_line(0x150)
    1647                      .dwattr $C$DW$120, DW_AT_TI_begin_column(0x0d)
    1648                      .dwattr $C$DW$120, DW_AT_TI_max_frame_size(0x12)
    1649                      .dwpsn  file "C:/Users/a0221074/Desktop/C5000/IBM_Watson_TIdesign_workarea/CSL_bitbucket/c55_csl/c55x
    1650              
    1651                      .dwfde $C$DW$CIE, _mark_cells_state
TMS320C55x Assembler PC v4.4.1 Wed Sep 13 16:34:03 2017

Tools Copyright (c) 1996-2012 Texas Instruments Incorporated
C:\Users\a0221074\AppData\Local\Temp\0125610                         PAGE   38

    1652              $C$DW$121       .dwtag  DW_TAG_formal_parameter, DW_AT_name("stop_frm")
    1653                      .dwattr $C$DW$121, DW_AT_TI_symbol_name("_stop_frm")
    1654                      .dwattr $C$DW$121, DW_AT_type(*$C$DW$T$9)
    1655                      .dwattr $C$DW$121, DW_AT_location[DW_OP_reg12]
    1656              $C$DW$122       .dwtag  DW_TAG_formal_parameter, DW_AT_name("best_sym")
    1657                      .dwattr $C$DW$122, DW_AT_TI_symbol_name("_best_sym")
    1658                      .dwattr $C$DW$122, DW_AT_type(*$C$DW$T$9)
    1659                      .dwattr $C$DW$122, DW_AT_location[DW_OP_reg13]
    1660              $C$DW$123       .dwtag  DW_TAG_formal_parameter, DW_AT_name("gv")
    1661                      .dwattr $C$DW$123, DW_AT_TI_symbol_name("_gv")
    1662                      .dwattr $C$DW$123, DW_AT_type(*$C$DW$T$100)
    1663                      .dwattr $C$DW$123, DW_AT_location[DW_OP_reg17]
    1664              $C$DW$124       .dwtag  DW_TAG_formal_parameter, DW_AT_name("last_frm")
    1665                      .dwattr $C$DW$124, DW_AT_TI_symbol_name("_last_frm")
    1666                      .dwattr $C$DW$124, DW_AT_type(*$C$DW$T$9)
    1667                      .dwattr $C$DW$124, DW_AT_location[DW_OP_reg18]
    1668              ;*******************************************************************************
    1669              ;* FUNCTION NAME: mark_cells_state                                             *
    1670              ;*                                                                             *
    1671              ;*   Function Uses Regs : AC0,AC0,AC1,AC1,T0,T1,AR0,XAR0,AR1,AR2,XAR2,AR3,XAR3,*
    1672              ;*                        AR4,SP,CARRY,TC1,M40,SATA,SATD,RDM,FRCT,SMUL         *
    1673              ;*   Stack Frame        : Compact (No Frame Pointer, w/ debug)                 *
    1674              ;*   Total Frame Size   : 18 words                                             *
    1675              ;*                        (2 return address/alignment)                         *
    1676              ;*                        (16 local values)                                    *
    1677              ;*   Min System Stack   : 1 word                                               *
    1678              ;*******************************************************************************
    1679 000000       _mark_cells_state:
    1680                      .dwcfi  cfa_offset, 1
    1681                      .dwcfi  save_reg_to_mem, 91, -1
    1682 000000 4EEF          AADD #-17, SP
    1683                      .dwcfi  cfa_offset, 18
    1684              $C$DW$125       .dwtag  DW_TAG_variable, DW_AT_name("stop_frm")
    1685                      .dwattr $C$DW$125, DW_AT_TI_symbol_name("_stop_frm")
    1686                      .dwattr $C$DW$125, DW_AT_type(*$C$DW$T$9)
    1687                      .dwattr $C$DW$125, DW_AT_location[DW_OP_bregx 0x24 0]
    1688              $C$DW$126       .dwtag  DW_TAG_variable, DW_AT_name("best_sym")
    1689                      .dwattr $C$DW$126, DW_AT_TI_symbol_name("_best_sym")
    1690                      .dwattr $C$DW$126, DW_AT_type(*$C$DW$T$9)
    1691                      .dwattr $C$DW$126, DW_AT_location[DW_OP_bregx 0x24 1]
    1692              $C$DW$127       .dwtag  DW_TAG_variable, DW_AT_name("gv")
    1693                      .dwattr $C$DW$127, DW_AT_TI_symbol_name("_gv")
    1694                      .dwattr $C$DW$127, DW_AT_type(*$C$DW$T$100)
    1695                      .dwattr $C$DW$127, DW_AT_location[DW_OP_bregx 0x24 2]
    1696              $C$DW$128       .dwtag  DW_TAG_variable, DW_AT_name("last_frm")
    1697                      .dwattr $C$DW$128, DW_AT_TI_symbol_name("_last_frm")
    1698                      .dwattr $C$DW$128, DW_AT_type(*$C$DW$T$9)
    1699                      .dwattr $C$DW$128, DW_AT_location[DW_OP_bregx 0x24 4]
    1700              $C$DW$129       .dwtag  DW_TAG_variable, DW_AT_name("bm")
    1701                      .dwattr $C$DW$129, DW_AT_TI_symbol_name("_bm")
    1702                      .dwattr $C$DW$129, DW_AT_type(*$C$DW$T$73)
    1703                      .dwattr $C$DW$129, DW_AT_location[DW_OP_bregx 0x24 6]
    1704              $C$DW$130       .dwtag  DW_TAG_variable, DW_AT_name("beam")
    1705                      .dwattr $C$DW$130, DW_AT_TI_symbol_name("_beam")
    1706                      .dwattr $C$DW$130, DW_AT_type(*$C$DW$T$73)
TMS320C55x Assembler PC v4.4.1 Wed Sep 13 16:34:03 2017

Tools Copyright (c) 1996-2012 Texas Instruments Incorporated
C:\Users\a0221074\AppData\Local\Temp\0125610                         PAGE   39

    1707                      .dwattr $C$DW$130, DW_AT_location[DW_OP_bregx 0x24 8]
    1708              $C$DW$131       .dwtag  DW_TAG_variable, DW_AT_name("time")
    1709                      .dwattr $C$DW$131, DW_AT_TI_symbol_name("_time")
    1710                      .dwattr $C$DW$131, DW_AT_type(*$C$DW$T$8)
    1711                      .dwattr $C$DW$131, DW_AT_location[DW_OP_bregx 0x24 10]
    1712              $C$DW$132       .dwtag  DW_TAG_variable, DW_AT_name("frm_diff")
    1713                      .dwattr $C$DW$132, DW_AT_TI_symbol_name("_frm_diff")
    1714                      .dwattr $C$DW$132, DW_AT_type(*$C$DW$T$9)
    1715                      .dwattr $C$DW$132, DW_AT_location[DW_OP_bregx 0x24 11]
    1716              $C$DW$133       .dwtag  DW_TAG_variable, DW_AT_name("b_index")
    1717                      .dwattr $C$DW$133, DW_AT_TI_symbol_name("_b_index")
    1718                      .dwattr $C$DW$133, DW_AT_type(*$C$DW$T$9)
    1719                      .dwattr $C$DW$133, DW_AT_location[DW_OP_bregx 0x24 12]
    1720              $C$DW$134       .dwtag  DW_TAG_variable, DW_AT_name("cont")
    1721                      .dwattr $C$DW$134, DW_AT_TI_symbol_name("_cont")
    1722                      .dwattr $C$DW$134, DW_AT_type(*$C$DW$T$9)
    1723                      .dwattr $C$DW$134, DW_AT_location[DW_OP_bregx 0x24 13]
    1724              $C$DW$135       .dwtag  DW_TAG_variable, DW_AT_name("time_base")
    1725                      .dwattr $C$DW$135, DW_AT_TI_symbol_name("_time_base")
    1726                      .dwattr $C$DW$135, DW_AT_type(*$C$DW$T$75)
    1727                      .dwattr $C$DW$135, DW_AT_location[DW_OP_bregx 0x24 14]
    1728 000002 C908          MOV AR1, *SP(#4) ; |338| 
    1729 000004 EB04          MOV XAR0, dbl(*SP(#2))
         000006 85   
    1730 000007 C502          MOV T1, *SP(#1) ; |338| 
    1731 000009 C400          MOV T0, *SP(#0) ; |338| 
    1732                      .dwpsn  file "C:/Users/a0221074/Desktop/C5000/IBM_Watson_TIdesign_workarea/CSL_bitbucket/c55_csl/c55x
    1733 00000b ED04          MOV dbl(*SP(#2)), XAR3
         00000d BF   
    1734 00000e ED6D          MOV dbl(*AR3(#1166)), XAR3
         000010 BF04 
         000012 8E   
    1735 000013 EB10          MOV XAR3, dbl(*SP(#8))
         000015 B5   
    1736                      .dwpsn  file "C:/Users/a0221074/Desktop/C5000/IBM_Watson_TIdesign_workarea/CSL_bitbucket/c55_csl/c55x
    1737 000016 ED04          MOV dbl(*SP(#2)), XAR3
         000018 BF   
    1738 000019 ED6D          MOV dbl(*AR3(#1168)), XAR3
         00001b BF04 
         00001d 90   
    1739 00001e EB1C          MOV XAR3, dbl(*SP(#14))
         000020 B5   
    1740                      .dwpsn  file "C:/Users/a0221074/Desktop/C5000/IBM_Watson_TIdesign_workarea/CSL_bitbucket/c55_csl/c55x
    1741 000021 A008          MOV *SP(#4), AC0 ; |345| 
    1742 000023 DF00          SUB uns(*SP(#0)), AC0, AC0 ; |345| 
         000025 0F   
    1743              
    1744 00002a 2309          MOV AC0, AR1 ; |345| 
    1745 000026 7600  ||      MOV #20, AR2 ; |345| 
         000028 14A8 
    1746              
    1747 00002c 1298          CMPU AR1 >= AR2, TC1 ; |345| 
         00002e A4   
    1748 00002f C016          MOV AC0, *SP(#11) ; |345| 
    1749 000031 0464          BCC $C$L43,TC1 ; |345| 
TMS320C55x Assembler PC v4.4.1 Wed Sep 13 16:34:03 2017

Tools Copyright (c) 1996-2012 Texas Instruments Incorporated
C:\Users\a0221074\AppData\Local\Temp\0125610                         PAGE   40

         000033 5E   
    1750                                                      ; branchcc occurs ; |345| 
    1751                      .dwpsn  file "C:/Users/a0221074/Desktop/C5000/IBM_Watson_TIdesign_workarea/CSL_bitbucket/c55_csl/c55x
    1752 000034 ED04          MOV dbl(*SP(#2)), XAR3
         000036 BF   
    1753 000037 DF16          MOV uns(*SP(#11)), AC0 ; |346| 
         000039 05   
    1754 00003a 900A          MOV AC0, XAR2
    1755 00003c 14A1          AADD XAR2, XAR3 ; |346| 
         00003e B0   
    1756 00003f A96D          MOV *AR3(#1978), AR1 ; |346| 
         000041 07BA 
    1757 000043 C914          MOV AR1, *SP(#10) ; |346| 
    1758                      .dwpsn  file "C:/Users/a0221074/Desktop/C5000/IBM_Watson_TIdesign_workarea/CSL_bitbucket/c55_csl/c55x
    1759 000045 F014          CMP *SP(#10) == #4095, TC1 ; |347| 
         000047 0FFF 
    1760 000049 0474          BCC $C$L45,!TC1 ; |347| 
         00004b 79   
    1761                                                      ; branchcc occurs ; |347| 
    1762                      .dwpsn  file "C:/Users/a0221074/Desktop/C5000/IBM_Watson_TIdesign_workarea/CSL_bitbucket/c55_csl/c55x
    1763 00004c E614          MOV #0, *SP(#10) ; |348| 
         00004e 00   
    1764 00004f ED1C          MOV dbl(*SP(#14)), XAR3
         000051 BF   
    1765 000052 A014          MOV *SP(#10), AC0 ; |348| 
    1766 000054 5000          SFTL AC0, #1 ; |348| 
    1767 000056 900A          MOV AC0, XAR2
    1768              
    1769                      AADD XAR2, XAR3 ; |348| 
    1770 000058 8A00  ||      MOV *SP(#0), AR1 ; |348| 
         00005a B918 
         00005c A1   
    1771              
    1772 00005d AA61          MOV *AR3, AR2 ; |348| 
    1773 00005f 12A0          CMPU AR2 == AR1, TC1 ; |348| 
         000061 94   
    1774 000062 0464          BCC $C$L42,TC1 ; |348| 
         000064 1A   
    1775                                                      ; branchcc occurs ; |348| 
    1776 000065       $C$L41:    
    1777 000065       $C$DW$L$_mark_cells_state$4$B:
    1778 000065 F714          ADD #1, *SP(#10) ; |348| 
         000067 0001 
    1779 000069 ED1C          MOV dbl(*SP(#14)), XAR3
         00006b BF   
    1780 00006c A014          MOV *SP(#10), AC0 ; |348| 
    1781 00006e 5000          SFTL AC0, #1 ; |348| 
    1782 000070 900A          MOV AC0, XAR2
    1783              
    1784                      AADD XAR2, XAR3 ; |348| 
    1785 000072 8A00  ||      MOV *SP(#0), AR1 ; |348| 
         000074 B918 
         000076 A1   
    1786              
    1787 000077 AA61          MOV *AR3, AR2 ; |348| 
TMS320C55x Assembler PC v4.4.1 Wed Sep 13 16:34:03 2017

Tools Copyright (c) 1996-2012 Texas Instruments Incorporated
C:\Users\a0221074\AppData\Local\Temp\0125610                         PAGE   41

    1788 000079 12AC          CMPU AR2 != AR1, TC1 ; |348| 
         00007b 94   
    1789 00007c 0464          BCC $C$L41,TC1 ; |348| 
         00007e E6   
    1790                                                      ; branchcc occurs ; |348| 
    1791 00007f       $C$DW$L$_mark_cells_state$4$E:
    1792 00007f       $C$L42:    
    1793                      .dwpsn  file "C:/Users/a0221074/Desktop/C5000/IBM_Watson_TIdesign_workarea/CSL_bitbucket/c55_csl/c55x
    1794 00007f ED04          MOV dbl(*SP(#2)), XAR3
         000081 BF   
    1795 000082 DF16          MOV uns(*SP(#11)), AC0 ; |349| 
         000084 05   
    1796 000085 900A          MOV AC0, XAR2
    1797              
    1798                      AADD XAR2, XAR3 ; |349| 
    1799 000087 8A14  ||      MOV *SP(#10), AR1 ; |349| 
         000089 B918 
         00008b A1   
    1800              
    1801 00008c C96D          MOV AR1, *AR3(#1978) ; |349| 
         00008e 07BA 
    1802                      .dwpsn  file "C:/Users/a0221074/Desktop/C5000/IBM_Watson_TIdesign_workarea/CSL_bitbucket/c55_csl/c55x
    1803 000090 4A33          B $C$L45  ; |351| 
    1804                                                      ; branch occurs ; |351| 
    1805 000092       $C$L43:    
    1806                      .dwpsn  file "C:/Users/a0221074/Desktop/C5000/IBM_Watson_TIdesign_workarea/CSL_bitbucket/c55_csl/c55x
    1807 000092 E614          MOV #0, *SP(#10) ; |352| 
         000094 00   
    1808 000095 ED1C          MOV dbl(*SP(#14)), XAR3
         000097 BF   
    1809 000098 A014          MOV *SP(#10), AC0 ; |352| 
    1810 00009a 5000          SFTL AC0, #1 ; |352| 
    1811 00009c 900A          MOV AC0, XAR2
    1812              
    1813                      AADD XAR2, XAR3 ; |352| 
    1814 00009e 8A00  ||      MOV *SP(#0), AR1 ; |352| 
         0000a0 B918 
         0000a2 A1   
    1815              
    1816 0000a3 AA61          MOV *AR3, AR2 ; |352| 
    1817 0000a5 12A0          CMPU AR2 == AR1, TC1 ; |352| 
         0000a7 94   
    1818 0000a8 0464          BCC $C$L45,TC1 ; |352| 
         0000aa 1A   
    1819                                                      ; branchcc occurs ; |352| 
    1820 0000ab       $C$L44:    
    1821 0000ab       $C$DW$L$_mark_cells_state$7$B:
    1822 0000ab F714          ADD #1, *SP(#10) ; |352| 
         0000ad 0001 
    1823 0000af ED1C          MOV dbl(*SP(#14)), XAR3
         0000b1 BF   
    1824 0000b2 A014          MOV *SP(#10), AC0 ; |352| 
    1825 0000b4 5000          SFTL AC0, #1 ; |352| 
    1826 0000b6 900A          MOV AC0, XAR2
    1827              
TMS320C55x Assembler PC v4.4.1 Wed Sep 13 16:34:03 2017

Tools Copyright (c) 1996-2012 Texas Instruments Incorporated
C:\Users\a0221074\AppData\Local\Temp\0125610                         PAGE   42

    1828                      AADD XAR2, XAR3 ; |352| 
    1829 0000b8 8A00  ||      MOV *SP(#0), AR1 ; |352| 
         0000ba B918 
         0000bc A1   
    1830              
    1831 0000bd AA61          MOV *AR3, AR2 ; |352| 
    1832 0000bf 12AC          CMPU AR2 != AR1, TC1 ; |352| 
         0000c1 94   
    1833 0000c2 0464          BCC $C$L44,TC1 ; |352| 
         0000c4 E6   
    1834                                                      ; branchcc occurs ; |352| 
    1835 0000c5       $C$DW$L$_mark_cells_state$7$E:
    1836 0000c5       $C$L45:    
    1837                      .dwpsn  file "C:/Users/a0221074/Desktop/C5000/IBM_Watson_TIdesign_workarea/CSL_bitbucket/c55_csl/c55x
    1838 0000c5 ED1C          MOV dbl(*SP(#14)), XAR3
         0000c7 BF   
    1839 0000c8 A014          MOV *SP(#10), AC0 ; |359| 
    1840 0000ca 5000          SFTL AC0, #1 ; |359| 
    1841 0000cc 900A          MOV AC0, XAR2
    1842 0000ce 14A1          AADD XAR2, XAR3 ; |359| 
         0000d0 B0   
    1843 0000d1 DF73          MOV uns(*AR3(short(#1))), AC1 ; |359| 
         0000d3 15   
    1844 0000d4 ED10          MOV dbl(*SP(#8)), XAR3
         0000d6 BF   
    1845 0000d7 1A00          OR #0, AC1, AC0
         0000d9 01   
    1846 0000da 1013          ADD AC1 << #1, AC0 ; |359| 
         0000dc 01   
    1847 0000dd 900A          MOV AC0, XAR2
    1848              
    1849 0000df 8E0C          MOV XAR3, dbl(*SP(#6))
         0000e1 BB10 
         0000e3 B5A1 
    1850              ||      AADD XAR2, XAR3 ; |359| 
    1851              
    1852                      .dwpsn  file "C:/Users/a0221074/Desktop/C5000/IBM_Watson_TIdesign_workarea/CSL_bitbucket/c55_csl/c55x
    1853 0000e5 A902          MOV *SP(#1), AR1 ; |359| 
    1854 0000e7 AA61          MOV *AR3, AR2 ; |359| 
    1855 0000e9 12A0          CMPU AR2 == AR1, TC1 ; |359| 
         0000eb 94   
    1856 0000ec 0464          BCC $C$L47,TC1 ; |359| 
         0000ee 1E   
    1857                                                      ; branchcc occurs ; |359| 
    1858 0000ef       $C$L46:    
    1859 0000ef       $C$DW$L$_mark_cells_state$9$B:
    1860                      .dwpsn  file "C:/Users/a0221074/Desktop/C5000/IBM_Watson_TIdesign_workarea/CSL_bitbucket/c55_csl/c55x
    1861 0000ef DF75          MOV uns(*AR3(short(#2))), AC1 ; |361| 
         0000f1 15   
    1862 0000f2 ED10          MOV dbl(*SP(#8)), XAR3
         0000f4 BF   
    1863 0000f5 1A00          OR #0, AC1, AC0
         0000f7 01   
    1864 0000f8 1013          ADD AC1 << #1, AC0 ; |361| 
         0000fa 01   
TMS320C55x Assembler PC v4.4.1 Wed Sep 13 16:34:03 2017

Tools Copyright (c) 1996-2012 Texas Instruments Incorporated
C:\Users\a0221074\AppData\Local\Temp\0125610                         PAGE   43

    1865 0000fb 900A          MOV AC0, XAR2
    1866              
    1867 0000fd 8E0C          MOV XAR3, dbl(*SP(#6))
         0000ff BB10 
         000101 B5A1 
    1868              ||      AADD XAR2, XAR3 ; |361| 
    1869              
    1870                      .dwpsn  file "C:/Users/a0221074/Desktop/C5000/IBM_Watson_TIdesign_workarea/CSL_bitbucket/c55_csl/c55x
    1871 000103 A902          MOV *SP(#1), AR1 ; |359| 
    1872 000105 AA61          MOV *AR3, AR2 ; |359| 
    1873 000107 12AC          CMPU AR2 != AR1, TC1 ; |359| 
         000109 94   
    1874 00010a 0464          BCC $C$L46,TC1 ; |359| 
         00010c E2   
    1875                                                      ; branchcc occurs ; |359| 
    1876 00010d       $C$DW$L$_mark_cells_state$9$E:
    1877 00010d       $C$L47:    
    1878 00010d       $C$DW$L$_mark_cells_state$10$B:
    1879                      .dwpsn  file "C:/Users/a0221074/Desktop/C5000/IBM_Watson_TIdesign_workarea/CSL_bitbucket/c55_csl/c55x
    1880 00010d ED0C          MOV dbl(*SP(#6)), XAR3
         00010f BF   
    1881 000110 DC73          BTST #15, *AR3(short(#1)), TC1 ; |366| 
         000112 F0   
    1882 000113 0464          BCC $C$L51,TC1 ; |366| 
         000115 46   
    1883                                                      ; branchcc occurs ; |366| 
    1884 000116       $C$DW$L$_mark_cells_state$10$E:
    1885 000116       $C$DW$L$_mark_cells_state$11$B:
    1886 000116 A973          MOV *AR3(short(#1)), AR1 ; |366| 
    1887 000118 C918          MOV AR1, *SP(#12) ; |366| 
    1888 00011a ED0C          MOV dbl(*SP(#6)), XAR3
         00011c BF   
    1889 00011d F573          OR #0x8000, *AR3(short(#1)) ; |366| 
         00011f 8000 
    1890 000121 ED04          MOV dbl(*SP(#2)), XAR3
         000123 BF   
    1891 000124 AC18          MOV *SP(#12), AR4 ; |366| 
    1892 000126 AB6D          MOV *AR3(#1975), AR3 ; |366| 
         000128 07B7 
    1893 00012a 12C0          CMPU AR4 == AR3, TC1 ; |366| 
         00012c B4   
    1894 00012d 3C0A          MOV #0, AR2
    1895              
    1896 00012f 6164          BCC $C$L48,TC1 ; |366| 
    1897 000131 3D09  ||      MOV #0, AR1
    1898              
    1899                                                      ; branchcc occurs ; |366| 
    1900 000133       $C$DW$L$_mark_cells_state$11$E:
    1901 000133       $C$DW$L$_mark_cells_state$12$B:
    1902 000133 3C1A          MOV #1, AR2
    1903 000135       $C$DW$L$_mark_cells_state$12$E:
    1904 000135       $C$L48:    
    1905 000135       $C$DW$L$_mark_cells_state$13$B:
    1906 000135 3C1B          MOV #1, AR3
    1907 000137 12AC          CMP AR2 != AR3, TC1 ; |366| 
TMS320C55x Assembler PC v4.4.1 Wed Sep 13 16:34:03 2017

Tools Copyright (c) 1996-2012 Texas Instruments Incorporated
C:\Users\a0221074\AppData\Local\Temp\0125610                         PAGE   44

         000139 B0   
    1908 00013a 6164          BCC $C$L49,TC1 ; |366| 
    1909                                                      ; branchcc occurs ; |366| 
    1910 00013c       $C$DW$L$_mark_cells_state$13$E:
    1911 00013c       $C$DW$L$_mark_cells_state$14$B:
    1912 00013c 3C19          MOV #1, AR1
    1913 00013e       $C$DW$L$_mark_cells_state$14$E:
    1914 00013e       $C$L49:    
    1915 00013e       $C$DW$L$_mark_cells_state$15$B:
    1916 00013e C91A          MOV AR1, *SP(#13) ; |366| 
    1917 000140 0409          BCC $C$L50,AR1 == #0 ; |366| 
         000142 14   
    1918                                                      ; branchcc occurs ; |366| 
    1919 000143       $C$DW$L$_mark_cells_state$15$E:
    1920 000143       $C$DW$L$_mark_cells_state$16$B:
    1921 000143 ED10          MOV dbl(*SP(#8)), XAR3
         000145 BF   
    1922 000146 DF18          MOV uns(*SP(#12)), AC1 ; |366| 
         000148 15   
    1923 000149 1A00          OR #0, AC1, AC0
         00014b 01   
    1924 00014c 1013          ADD AC1 << #1, AC0 ; |366| 
         00014e 01   
    1925 00014f 900A          MOV AC0, XAR2
    1926              
    1927 000151 8E0C          MOV XAR3, dbl(*SP(#6))
         000153 BB10 
         000155 B5A1 
    1928              ||      AADD XAR2, XAR3 ; |366| 
    1929              
    1930 000157       $C$DW$L$_mark_cells_state$16$E:
    1931 000157       $C$L50:    
    1932 000157       $C$DW$L$_mark_cells_state$17$B:
    1933 000157 A91A          MOV *SP(#13), AR1 ; |366| 
    1934 000159 0419          BCC $C$L47,AR1 != #0 ; |366| 
         00015b B1   
    1935                                                      ; branchcc occurs ; |366| 
    1936 00015c       $C$DW$L$_mark_cells_state$17$E:
    1937                      .dwpsn  file "C:/Users/a0221074/Desktop/C5000/IBM_Watson_TIdesign_workarea/CSL_bitbucket/c55_csl/c55x
    1938 00015c       $C$L51:    
    1939 00015c 4E11          AADD #17, SP
    1940                      .dwcfi  cfa_offset, 1
    1941              $C$DW$136       .dwtag  DW_TAG_TI_branch
    1942                      .dwattr $C$DW$136, DW_AT_low_pc(0x00)
    1943                      .dwattr $C$DW$136, DW_AT_TI_return
    1944 00015e 4804          RET
    1945                                                      ; return occurs
    1946              
    1947              $C$DW$137       .dwtag  DW_TAG_TI_loop
    1948                      .dwattr $C$DW$137, DW_AT_name("C:\\Users\\a0221074\\AppData\\Local\\Temp\\0125610:$C$L47:1:1505334831
    1949                      .dwattr $C$DW$137, DW_AT_TI_begin_file("C:/Users/a0221074/Desktop/C5000/IBM_Watson_TIdesign_workarea/
    1950                      .dwattr $C$DW$137, DW_AT_TI_begin_line(0x16e)
    1951                      .dwattr $C$DW$137, DW_AT_TI_end_line(0x16e)
    1952              $C$DW$138       .dwtag  DW_TAG_TI_loop_range
    1953                      .dwattr $C$DW$138, DW_AT_low_pc($C$DW$L$_mark_cells_state$10$B)
TMS320C55x Assembler PC v4.4.1 Wed Sep 13 16:34:03 2017

Tools Copyright (c) 1996-2012 Texas Instruments Incorporated
C:\Users\a0221074\AppData\Local\Temp\0125610                         PAGE   45

    1954                      .dwattr $C$DW$138, DW_AT_high_pc($C$DW$L$_mark_cells_state$10$E)
    1955              $C$DW$139       .dwtag  DW_TAG_TI_loop_range
    1956                      .dwattr $C$DW$139, DW_AT_low_pc($C$DW$L$_mark_cells_state$11$B)
    1957                      .dwattr $C$DW$139, DW_AT_high_pc($C$DW$L$_mark_cells_state$11$E)
    1958              $C$DW$140       .dwtag  DW_TAG_TI_loop_range
    1959                      .dwattr $C$DW$140, DW_AT_low_pc($C$DW$L$_mark_cells_state$12$B)
    1960                      .dwattr $C$DW$140, DW_AT_high_pc($C$DW$L$_mark_cells_state$12$E)
    1961              $C$DW$141       .dwtag  DW_TAG_TI_loop_range
    1962                      .dwattr $C$DW$141, DW_AT_low_pc($C$DW$L$_mark_cells_state$13$B)
    1963                      .dwattr $C$DW$141, DW_AT_high_pc($C$DW$L$_mark_cells_state$13$E)
    1964              $C$DW$142       .dwtag  DW_TAG_TI_loop_range
    1965                      .dwattr $C$DW$142, DW_AT_low_pc($C$DW$L$_mark_cells_state$14$B)
    1966                      .dwattr $C$DW$142, DW_AT_high_pc($C$DW$L$_mark_cells_state$14$E)
    1967              $C$DW$143       .dwtag  DW_TAG_TI_loop_range
    1968                      .dwattr $C$DW$143, DW_AT_low_pc($C$DW$L$_mark_cells_state$15$B)
    1969                      .dwattr $C$DW$143, DW_AT_high_pc($C$DW$L$_mark_cells_state$15$E)
    1970              $C$DW$144       .dwtag  DW_TAG_TI_loop_range
    1971                      .dwattr $C$DW$144, DW_AT_low_pc($C$DW$L$_mark_cells_state$16$B)
    1972                      .dwattr $C$DW$144, DW_AT_high_pc($C$DW$L$_mark_cells_state$16$E)
    1973              $C$DW$145       .dwtag  DW_TAG_TI_loop_range
    1974                      .dwattr $C$DW$145, DW_AT_low_pc($C$DW$L$_mark_cells_state$17$B)
    1975                      .dwattr $C$DW$145, DW_AT_high_pc($C$DW$L$_mark_cells_state$17$E)
    1976                      .dwendtag $C$DW$137
    1977              
    1978              
    1979              $C$DW$146       .dwtag  DW_TAG_TI_loop
    1980                      .dwattr $C$DW$146, DW_AT_name("C:\\Users\\a0221074\\AppData\\Local\\Temp\\0125610:$C$L46:1:1505334831
    1981                      .dwattr $C$DW$146, DW_AT_TI_begin_file("C:/Users/a0221074/Desktop/C5000/IBM_Watson_TIdesign_workarea/
    1982                      .dwattr $C$DW$146, DW_AT_TI_begin_line(0x167)
    1983                      .dwattr $C$DW$146, DW_AT_TI_end_line(0x16a)
    1984              $C$DW$147       .dwtag  DW_TAG_TI_loop_range
    1985                      .dwattr $C$DW$147, DW_AT_low_pc($C$DW$L$_mark_cells_state$9$B)
    1986                      .dwattr $C$DW$147, DW_AT_high_pc($C$DW$L$_mark_cells_state$9$E)
    1987                      .dwendtag $C$DW$146
    1988              
    1989              
    1990              $C$DW$148       .dwtag  DW_TAG_TI_loop
    1991                      .dwattr $C$DW$148, DW_AT_name("C:\\Users\\a0221074\\AppData\\Local\\Temp\\0125610:$C$L44:1:1505334831
    1992                      .dwattr $C$DW$148, DW_AT_TI_begin_file("C:/Users/a0221074/Desktop/C5000/IBM_Watson_TIdesign_workarea/
    1993                      .dwattr $C$DW$148, DW_AT_TI_begin_line(0x160)
    1994                      .dwattr $C$DW$148, DW_AT_TI_end_line(0x160)
    1995              $C$DW$149       .dwtag  DW_TAG_TI_loop_range
    1996                      .dwattr $C$DW$149, DW_AT_low_pc($C$DW$L$_mark_cells_state$7$B)
    1997                      .dwattr $C$DW$149, DW_AT_high_pc($C$DW$L$_mark_cells_state$7$E)
    1998                      .dwendtag $C$DW$148
    1999              
    2000              
    2001              $C$DW$150       .dwtag  DW_TAG_TI_loop
    2002                      .dwattr $C$DW$150, DW_AT_name("C:\\Users\\a0221074\\AppData\\Local\\Temp\\0125610:$C$L41:1:1505334831
    2003                      .dwattr $C$DW$150, DW_AT_TI_begin_file("C:/Users/a0221074/Desktop/C5000/IBM_Watson_TIdesign_workarea/
    2004                      .dwattr $C$DW$150, DW_AT_TI_begin_line(0x15c)
    2005                      .dwattr $C$DW$150, DW_AT_TI_end_line(0x15c)
    2006              $C$DW$151       .dwtag  DW_TAG_TI_loop_range
    2007                      .dwattr $C$DW$151, DW_AT_low_pc($C$DW$L$_mark_cells_state$4$B)
    2008                      .dwattr $C$DW$151, DW_AT_high_pc($C$DW$L$_mark_cells_state$4$E)
TMS320C55x Assembler PC v4.4.1 Wed Sep 13 16:34:03 2017

Tools Copyright (c) 1996-2012 Texas Instruments Incorporated
C:\Users\a0221074\AppData\Local\Temp\0125610                         PAGE   46

    2009                      .dwendtag $C$DW$150
    2010              
    2011                      .dwattr $C$DW$120, DW_AT_TI_end_file("C:/Users/a0221074/Desktop/C5000/IBM_Watson_TIdesign_workarea/CS
    2012                      .dwattr $C$DW$120, DW_AT_TI_end_line(0x16f)
    2013                      .dwattr $C$DW$120, DW_AT_TI_end_column(0x01)
    2014                      .dwendentry
    2015                      .dwendtag $C$DW$120
    2016              
    2017 000000               .sect   ".text:_coloring_beam"
    2018                      .clink
    2019              
    2020              $C$DW$152       .dwtag  DW_TAG_subprogram, DW_AT_name("coloring_beam")
    2021                      .dwattr $C$DW$152, DW_AT_low_pc(_coloring_beam)
    2022                      .dwattr $C$DW$152, DW_AT_high_pc(0x00)
    2023                      .dwattr $C$DW$152, DW_AT_TI_symbol_name("_coloring_beam")
    2024                      .dwattr $C$DW$152, DW_AT_TI_begin_file("C:/Users/a0221074/Desktop/C5000/IBM_Watson_TIdesign_workarea/
    2025                      .dwattr $C$DW$152, DW_AT_TI_begin_line(0x174)
    2026                      .dwattr $C$DW$152, DW_AT_TI_begin_column(0x0d)
    2027                      .dwattr $C$DW$152, DW_AT_TI_max_frame_size(0x10)
    2028                      .dwpsn  file "C:/Users/a0221074/Desktop/C5000/IBM_Watson_TIdesign_workarea/CSL_bitbucket/c55_csl/c55x
    2029              
    2030                      .dwfde $C$DW$CIE, _coloring_beam
    2031              $C$DW$153       .dwtag  DW_TAG_formal_parameter, DW_AT_name("cur_time_index")
    2032                      .dwattr $C$DW$153, DW_AT_TI_symbol_name("_cur_time_index")
    2033                      .dwattr $C$DW$153, DW_AT_type(*$C$DW$T$9)
    2034                      .dwattr $C$DW$153, DW_AT_location[DW_OP_reg12]
    2035              $C$DW$154       .dwtag  DW_TAG_formal_parameter, DW_AT_name("gv")
    2036                      .dwattr $C$DW$154, DW_AT_TI_symbol_name("_gv")
    2037                      .dwattr $C$DW$154, DW_AT_type(*$C$DW$T$100)
    2038                      .dwattr $C$DW$154, DW_AT_location[DW_OP_reg17]
    2039              ;*******************************************************************************
    2040              ;* FUNCTION NAME: coloring_beam                                                *
    2041              ;*                                                                             *
    2042              ;*   Function Uses Regs : AC0,AC0,AC1,AC1,T0,T1,AR0,XAR0,AR1,AR2,XAR2,AR3,XAR3,*
    2043              ;*                        AR4,SP,CARRY,TC1,M40,SATA,SATD,RDM,FRCT,SMUL         *
    2044              ;*   Stack Frame        : Compact (No Frame Pointer, w/ debug)                 *
    2045              ;*   Total Frame Size   : 16 words                                             *
    2046              ;*                        (1 return address/alignment)                         *
    2047              ;*                        (15 local values)                                    *
    2048              ;*   Min System Stack   : 1 word                                               *
    2049              ;*******************************************************************************
    2050 000000       _coloring_beam:
    2051                      .dwcfi  cfa_offset, 1
    2052                      .dwcfi  save_reg_to_mem, 91, -1
    2053 000000 4EF1          AADD #-15, SP
    2054                      .dwcfi  cfa_offset, 16
    2055              $C$DW$155       .dwtag  DW_TAG_variable, DW_AT_name("cur_time_index")
    2056                      .dwattr $C$DW$155, DW_AT_TI_symbol_name("_cur_time_index")
    2057                      .dwattr $C$DW$155, DW_AT_type(*$C$DW$T$9)
    2058                      .dwattr $C$DW$155, DW_AT_location[DW_OP_bregx 0x24 0]
    2059              $C$DW$156       .dwtag  DW_TAG_variable, DW_AT_name("gv")
    2060                      .dwattr $C$DW$156, DW_AT_TI_symbol_name("_gv")
    2061                      .dwattr $C$DW$156, DW_AT_type(*$C$DW$T$100)
    2062                      .dwattr $C$DW$156, DW_AT_location[DW_OP_bregx 0x24 2]
    2063              $C$DW$157       .dwtag  DW_TAG_variable, DW_AT_name("beam_base")
TMS320C55x Assembler PC v4.4.1 Wed Sep 13 16:34:03 2017

Tools Copyright (c) 1996-2012 Texas Instruments Incorporated
C:\Users\a0221074\AppData\Local\Temp\0125610                         PAGE   47

    2064                      .dwattr $C$DW$157, DW_AT_TI_symbol_name("_beam_base")
    2065                      .dwattr $C$DW$157, DW_AT_type(*$C$DW$T$73)
    2066                      .dwattr $C$DW$157, DW_AT_location[DW_OP_bregx 0x24 4]
    2067              $C$DW$158       .dwtag  DW_TAG_variable, DW_AT_name("bm")
    2068                      .dwattr $C$DW$158, DW_AT_TI_symbol_name("_bm")
    2069                      .dwattr $C$DW$158, DW_AT_type(*$C$DW$T$73)
    2070                      .dwattr $C$DW$158, DW_AT_location[DW_OP_bregx 0x24 6]
    2071              $C$DW$159       .dwtag  DW_TAG_variable, DW_AT_name("beam")
    2072                      .dwattr $C$DW$159, DW_AT_TI_symbol_name("_beam")
    2073                      .dwattr $C$DW$159, DW_AT_type(*$C$DW$T$73)
    2074                      .dwattr $C$DW$159, DW_AT_location[DW_OP_bregx 0x24 8]
    2075              $C$DW$160       .dwtag  DW_TAG_variable, DW_AT_name("q")
    2076                      .dwattr $C$DW$160, DW_AT_TI_symbol_name("_q")
    2077                      .dwattr $C$DW$160, DW_AT_type(*$C$DW$T$9)
    2078                      .dwattr $C$DW$160, DW_AT_location[DW_OP_bregx 0x24 10]
    2079              $C$DW$161       .dwtag  DW_TAG_variable, DW_AT_name("b_index")
    2080                      .dwattr $C$DW$161, DW_AT_TI_symbol_name("_b_index")
    2081                      .dwattr $C$DW$161, DW_AT_type(*$C$DW$T$9)
    2082                      .dwattr $C$DW$161, DW_AT_location[DW_OP_bregx 0x24 11]
    2083              $C$DW$162       .dwtag  DW_TAG_variable, DW_AT_name("cont")
    2084                      .dwattr $C$DW$162, DW_AT_TI_symbol_name("_cont")
    2085                      .dwattr $C$DW$162, DW_AT_type(*$C$DW$T$9)
    2086                      .dwattr $C$DW$162, DW_AT_location[DW_OP_bregx 0x24 12]
    2087              $C$DW$163       .dwtag  DW_TAG_variable, DW_AT_name("c_bm_cnt")
    2088                      .dwattr $C$DW$163, DW_AT_TI_symbol_name("_c_bm_cnt")
    2089                      .dwattr $C$DW$163, DW_AT_type(*$C$DW$T$9)
    2090                      .dwattr $C$DW$163, DW_AT_location[DW_OP_bregx 0x24 13]
    2091              $C$DW$164       .dwtag  DW_TAG_variable, DW_AT_name("depth")
    2092                      .dwattr $C$DW$164, DW_AT_TI_symbol_name("_depth")
    2093                      .dwattr $C$DW$164, DW_AT_type(*$C$DW$T$8)
    2094                      .dwattr $C$DW$164, DW_AT_location[DW_OP_bregx 0x24 14]
    2095 000002 EB04          MOV XAR0, dbl(*SP(#2))
         000004 85   
    2096 000005 C400          MOV T0, *SP(#0) ; |373| 
    2097                      .dwpsn  file "C:/Users/a0221074/Desktop/C5000/IBM_Watson_TIdesign_workarea/CSL_bitbucket/c55_csl/c55x
    2098 000007 ED04          MOV dbl(*SP(#2)), XAR3
         000009 BF   
    2099 00000a ED6D          MOV dbl(*AR3(#1166)), XAR3
         00000c BF04 
         00000e 8E   
    2100 00000f EB08          MOV XAR3, dbl(*SP(#4))
         000011 B5   
    2101                      .dwpsn  file "C:/Users/a0221074/Desktop/C5000/IBM_Watson_TIdesign_workarea/CSL_bitbucket/c55_csl/c55x
    2102 000012 EB10          MOV XAR3, dbl(*SP(#8))
         000014 B5   
    2103                      .dwpsn  file "C:/Users/a0221074/Desktop/C5000/IBM_Watson_TIdesign_workarea/CSL_bitbucket/c55_csl/c55x
    2104 000015 E61A          MOV #0, *SP(#13) ; |375| 
         000017 00   
    2105                      .dwpsn  file "C:/Users/a0221074/Desktop/C5000/IBM_Watson_TIdesign_workarea/CSL_bitbucket/c55_csl/c55x
    2106 000018 F000          CMP *SP(#0) == #4095, TC1 ; |378| 
         00001a 0FFF 
    2107 00001c 6D64          BCC $C$L59,TC1 ; |378| 
         00001e 00BB 
    2108                                                      ; branchcc occurs ; |378| 
    2109                      .dwpsn  file "C:/Users/a0221074/Desktop/C5000/IBM_Watson_TIdesign_workarea/CSL_bitbucket/c55_csl/c55x
TMS320C55x Assembler PC v4.4.1 Wed Sep 13 16:34:03 2017

Tools Copyright (c) 1996-2012 Texas Instruments Incorporated
C:\Users\a0221074\AppData\Local\Temp\0125610                         PAGE   48

    2110                      .dwpsn  file "C:/Users/a0221074/Desktop/C5000/IBM_Watson_TIdesign_workarea/CSL_bitbucket/c55_csl/c55x
    2111 000020 ED04          MOV dbl(*SP(#2)), XAR3
         000022 BF   
    2112 000023 DF00          MOV uns(*SP(#0)), AC0 ; |379| 
         000025 05   
    2113 000026 5000          SFTL AC0, #1 ; |379| 
    2114 000028 900A          MOV AC0, XAR2
    2115 00002a ED6D          MOV dbl(*AR3(#1168)), XAR3
         00002c BF04 
         00002e 90   
    2116 00002f 14A1          AADD XAR2, XAR3 ; |379| 
         000031 B0   
    2117 000032 A973          MOV *AR3(short(#1)), AR1 ; |379| 
    2118 000034 C914          MOV AR1, *SP(#10) ; |379| 
    2119                      .dwpsn  file "C:/Users/a0221074/Desktop/C5000/IBM_Watson_TIdesign_workarea/CSL_bitbucket/c55_csl/c55x
    2120 000036 ED04          MOV dbl(*SP(#2)), XAR3
         000038 BF   
    2121 000039 AA14          MOV *SP(#10), AR2 ; |379| 
    2122 00003b A96D          MOV *AR3(#1975), AR1 ; |379| 
         00003d 07B7 
    2123 00003f 12A0          CMPU AR2 == AR1, TC1 ; |379| 
         000041 94   
    2124 000042 6D64          BCC $C$L58,TC1 ; |379| 
         000044 008F 
    2125                                                      ; branchcc occurs ; |379| 
    2126 000046       $C$L52:    
    2127 000046       $C$DW$L$_coloring_beam$3$B:
    2128                      .dwpsn  file "C:/Users/a0221074/Desktop/C5000/IBM_Watson_TIdesign_workarea/CSL_bitbucket/c55_csl/c55x
    2129 000046 ED08          MOV dbl(*SP(#4)), XAR3
         000048 BF   
    2130 000049 DF14          MOV uns(*SP(#10)), AC1 ; |380| 
         00004b 15   
    2131 00004c 1A00          OR #0, AC1, AC0
         00004e 01   
    2132 00004f 1013          ADD AC1 << #1, AC0 ; |380| 
         000051 01   
    2133 000052 900A          MOV AC0, XAR2
    2134              
    2135 000054 8E0C          MOV XAR3, dbl(*SP(#6))
         000056 BB10 
         000058 B5A1 
    2136              ||      AADD XAR2, XAR3 ; |380| 
    2137              
    2138                      .dwpsn  file "C:/Users/a0221074/Desktop/C5000/IBM_Watson_TIdesign_workarea/CSL_bitbucket/c55_csl/c55x
    2139              
    2140 00005a E61C          MOV #0, *SP(#14) ; |381| 
         00005c 00   
    2141 00005d 3D1C  ||      MOV #1, AR4
    2142              
    2143 00005f       $C$DW$L$_coloring_beam$3$E:
    2144 00005f       $C$L53:    
    2145 00005f       $C$DW$L$_coloring_beam$4$B:
    2146                      .dwpsn  file "C:/Users/a0221074/Desktop/C5000/IBM_Watson_TIdesign_workarea/CSL_bitbucket/c55_csl/c55x
    2147 00005f ED0C          MOV dbl(*SP(#6)), XAR3
         000061 BF   
TMS320C55x Assembler PC v4.4.1 Wed Sep 13 16:34:03 2017

Tools Copyright (c) 1996-2012 Texas Instruments Incorporated
C:\Users\a0221074\AppData\Local\Temp\0125610                         PAGE   49

    2148 000062 DC73          BTST #15, *AR3(short(#1)), TC1 ; |382| 
         000064 F0   
    2149 000065 0464          BCC $C$L57,TC1 ; |382| 
         000067 44   
    2150                                                      ; branchcc occurs ; |382| 
    2151 000068       $C$DW$L$_coloring_beam$4$E:
    2152 000068       $C$DW$L$_coloring_beam$5$B:
    2153 000068 A973          MOV *AR3(short(#1)), AR1 ; |382| 
    2154 00006a C916          MOV AR1, *SP(#11) ; |382| 
    2155 00006c ED0C          MOV dbl(*SP(#6)), XAR3
         00006e BF   
    2156 00006f F573          OR #0x8000, *AR3(short(#1)) ; |382| 
         000071 8000 
    2157 000073 ED04          MOV dbl(*SP(#2)), XAR3
         000075 BF   
    2158 000076 A516          MOV *SP(#11), T1 ; |382| 
    2159 000078 AB6D          MOV *AR3(#1975), AR3 ; |382| 
         00007a 07B7 
    2160 00007c 1250          CMPU T1 == AR3, TC1 ; |382| 
         00007e B4   
    2161 00007f 3C0A          MOV #0, AR2
    2162              
    2163 000081 6164          BCC $C$L54,TC1 ; |382| 
    2164 000083 3D09  ||      MOV #0, AR1
    2165              
    2166                                                      ; branchcc occurs ; |382| 
    2167 000085       $C$DW$L$_coloring_beam$5$E:
    2168 000085       $C$DW$L$_coloring_beam$6$B:
    2169 000085 3C1A          MOV #1, AR2
    2170 000087       $C$DW$L$_coloring_beam$6$E:
    2171 000087       $C$L54:    
    2172 000087       $C$DW$L$_coloring_beam$7$B:
    2173 000087 12AC          CMP AR2 != AR4, TC1 ; |382| 
         000089 C0   
    2174 00008a 6164          BCC $C$L55,TC1 ; |382| 
    2175                                                      ; branchcc occurs ; |382| 
    2176 00008c       $C$DW$L$_coloring_beam$7$E:
    2177 00008c       $C$DW$L$_coloring_beam$8$B:
    2178 00008c 3C19          MOV #1, AR1
    2179 00008e       $C$DW$L$_coloring_beam$8$E:
    2180 00008e       $C$L55:    
    2181 00008e       $C$DW$L$_coloring_beam$9$B:
    2182 00008e C918          MOV AR1, *SP(#12) ; |382| 
    2183 000090 0409          BCC $C$L56,AR1 == #0 ; |382| 
         000092 14   
    2184                                                      ; branchcc occurs ; |382| 
    2185 000093       $C$DW$L$_coloring_beam$9$E:
    2186 000093       $C$DW$L$_coloring_beam$10$B:
    2187 000093 ED10          MOV dbl(*SP(#8)), XAR3
         000095 BF   
    2188 000096 DF16          MOV uns(*SP(#11)), AC1 ; |382| 
         000098 15   
    2189 000099 1A00          OR #0, AC1, AC0
         00009b 01   
    2190 00009c 1013          ADD AC1 << #1, AC0 ; |382| 
TMS320C55x Assembler PC v4.4.1 Wed Sep 13 16:34:03 2017

Tools Copyright (c) 1996-2012 Texas Instruments Incorporated
C:\Users\a0221074\AppData\Local\Temp\0125610                         PAGE   50

         00009e 01   
    2191 00009f 900A          MOV AC0, XAR2
    2192              
    2193 0000a1 8E0C          MOV XAR3, dbl(*SP(#6))
         0000a3 BB10 
         0000a5 B5A1 
    2194              ||      AADD XAR2, XAR3 ; |382| 
    2195              
    2196 0000a7       $C$DW$L$_coloring_beam$10$E:
    2197 0000a7       $C$L56:    
    2198 0000a7       $C$DW$L$_coloring_beam$11$B:
    2199 0000a7 A918          MOV *SP(#12), AR1 ; |382| 
    2200 0000a9 0419          BCC $C$L53,AR1 != #0 ; |382| 
         0000ab B3   
    2201                                                      ; branchcc occurs ; |382| 
    2202 0000ac       $C$DW$L$_coloring_beam$11$E:
    2203 0000ac       $C$L57:    
    2204 0000ac       $C$DW$L$_coloring_beam$12$B:
    2205                      .dwpsn  file "C:/Users/a0221074/Desktop/C5000/IBM_Watson_TIdesign_workarea/CSL_bitbucket/c55_csl/c55x
    2206 0000ac F71A          ADD #1, *SP(#13) ; |383| 
         0000ae 0001 
    2207                      .dwpsn  file "C:/Users/a0221074/Desktop/C5000/IBM_Watson_TIdesign_workarea/CSL_bitbucket/c55_csl/c55x
    2208 0000b0 ED08          MOV dbl(*SP(#4)), XAR3
         0000b2 BF   
    2209 0000b3 DF14          MOV uns(*SP(#10)), AC1 ; |379| 
         0000b5 15   
    2210 0000b6 1A00          OR #0, AC1, AC0
         0000b8 01   
    2211 0000b9 1013          ADD AC1 << #1, AC0 ; |379| 
         0000bb 01   
    2212 0000bc 900A          MOV AC0, XAR2
    2213 0000be 14A1          AADD XAR2, XAR3 ; |379| 
         0000c0 B0   
    2214 0000c1 A975          MOV *AR3(short(#2)), AR1 ; |379| 
    2215 0000c3 C914          MOV AR1, *SP(#10) ; |379| 
    2216                      .dwpsn  file "C:/Users/a0221074/Desktop/C5000/IBM_Watson_TIdesign_workarea/CSL_bitbucket/c55_csl/c55x
    2217 0000c5 ED04          MOV dbl(*SP(#2)), XAR3
         0000c7 BF   
    2218 0000c8 AA14          MOV *SP(#10), AR2 ; |379| 
    2219 0000ca A96D          MOV *AR3(#1975), AR1 ; |379| 
         0000cc 07B7 
    2220 0000ce 12AC          CMPU AR2 != AR1, TC1 ; |379| 
         0000d0 94   
    2221 0000d1 6D64          BCC $C$L52,TC1 ; |379| 
         0000d3 FF71 
    2222                                                      ; branchcc occurs ; |379| 
    2223 0000d5       $C$DW$L$_coloring_beam$12$E:
    2224 0000d5       $C$L58:    
    2225                      .dwpsn  file "C:/Users/a0221074/Desktop/C5000/IBM_Watson_TIdesign_workarea/CSL_bitbucket/c55_csl/c55x
    2226 0000d5 A91A          MOV *SP(#13), AR1 ; |385| 
    2227 0000d7 C96D          MOV AR1, *AR3(#269) ; |385| 
         0000d9 010D 
    2228                      .dwpsn  file "C:/Users/a0221074/Desktop/C5000/IBM_Watson_TIdesign_workarea/CSL_bitbucket/c55_csl/c55x
    2229 0000db       $C$L59:    
    2230 0000db 4E0F          AADD #15, SP
TMS320C55x Assembler PC v4.4.1 Wed Sep 13 16:34:03 2017

Tools Copyright (c) 1996-2012 Texas Instruments Incorporated
C:\Users\a0221074\AppData\Local\Temp\0125610                         PAGE   51

    2231                      .dwcfi  cfa_offset, 1
    2232              $C$DW$165       .dwtag  DW_TAG_TI_branch
    2233                      .dwattr $C$DW$165, DW_AT_low_pc(0x00)
    2234                      .dwattr $C$DW$165, DW_AT_TI_return
    2235 0000dd 4804          RET
    2236                                                      ; return occurs
    2237              
    2238              $C$DW$166       .dwtag  DW_TAG_TI_loop
    2239                      .dwattr $C$DW$166, DW_AT_name("C:\\Users\\a0221074\\AppData\\Local\\Temp\\0125610:$C$L52:1:1505334831
    2240                      .dwattr $C$DW$166, DW_AT_TI_begin_file("C:/Users/a0221074/Desktop/C5000/IBM_Watson_TIdesign_workarea/
    2241                      .dwattr $C$DW$166, DW_AT_TI_begin_line(0x17b)
    2242                      .dwattr $C$DW$166, DW_AT_TI_end_line(0x180)
    2243              $C$DW$167       .dwtag  DW_TAG_TI_loop_range
    2244                      .dwattr $C$DW$167, DW_AT_low_pc($C$DW$L$_coloring_beam$3$B)
    2245                      .dwattr $C$DW$167, DW_AT_high_pc($C$DW$L$_coloring_beam$3$E)
    2246              $C$DW$168       .dwtag  DW_TAG_TI_loop_range
    2247                      .dwattr $C$DW$168, DW_AT_low_pc($C$DW$L$_coloring_beam$12$B)
    2248                      .dwattr $C$DW$168, DW_AT_high_pc($C$DW$L$_coloring_beam$12$E)
    2249              
    2250              $C$DW$169       .dwtag  DW_TAG_TI_loop
    2251                      .dwattr $C$DW$169, DW_AT_name("C:\\Users\\a0221074\\AppData\\Local\\Temp\\0125610:$C$L53:2:1505334831
    2252                      .dwattr $C$DW$169, DW_AT_TI_begin_file("C:/Users/a0221074/Desktop/C5000/IBM_Watson_TIdesign_workarea/
    2253                      .dwattr $C$DW$169, DW_AT_TI_begin_line(0x17e)
    2254                      .dwattr $C$DW$169, DW_AT_TI_end_line(0x17e)
    2255              $C$DW$170       .dwtag  DW_TAG_TI_loop_range
    2256                      .dwattr $C$DW$170, DW_AT_low_pc($C$DW$L$_coloring_beam$4$B)
    2257                      .dwattr $C$DW$170, DW_AT_high_pc($C$DW$L$_coloring_beam$4$E)
    2258              $C$DW$171       .dwtag  DW_TAG_TI_loop_range
    2259                      .dwattr $C$DW$171, DW_AT_low_pc($C$DW$L$_coloring_beam$5$B)
    2260                      .dwattr $C$DW$171, DW_AT_high_pc($C$DW$L$_coloring_beam$5$E)
    2261              $C$DW$172       .dwtag  DW_TAG_TI_loop_range
    2262                      .dwattr $C$DW$172, DW_AT_low_pc($C$DW$L$_coloring_beam$6$B)
    2263                      .dwattr $C$DW$172, DW_AT_high_pc($C$DW$L$_coloring_beam$6$E)
    2264              $C$DW$173       .dwtag  DW_TAG_TI_loop_range
    2265                      .dwattr $C$DW$173, DW_AT_low_pc($C$DW$L$_coloring_beam$7$B)
    2266                      .dwattr $C$DW$173, DW_AT_high_pc($C$DW$L$_coloring_beam$7$E)
    2267              $C$DW$174       .dwtag  DW_TAG_TI_loop_range
    2268                      .dwattr $C$DW$174, DW_AT_low_pc($C$DW$L$_coloring_beam$8$B)
    2269                      .dwattr $C$DW$174, DW_AT_high_pc($C$DW$L$_coloring_beam$8$E)
    2270              $C$DW$175       .dwtag  DW_TAG_TI_loop_range
    2271                      .dwattr $C$DW$175, DW_AT_low_pc($C$DW$L$_coloring_beam$9$B)
    2272                      .dwattr $C$DW$175, DW_AT_high_pc($C$DW$L$_coloring_beam$9$E)
    2273              $C$DW$176       .dwtag  DW_TAG_TI_loop_range
    2274                      .dwattr $C$DW$176, DW_AT_low_pc($C$DW$L$_coloring_beam$10$B)
    2275                      .dwattr $C$DW$176, DW_AT_high_pc($C$DW$L$_coloring_beam$10$E)
    2276              $C$DW$177       .dwtag  DW_TAG_TI_loop_range
    2277                      .dwattr $C$DW$177, DW_AT_low_pc($C$DW$L$_coloring_beam$11$B)
    2278                      .dwattr $C$DW$177, DW_AT_high_pc($C$DW$L$_coloring_beam$11$E)
    2279                      .dwendtag $C$DW$169
    2280              
    2281                      .dwendtag $C$DW$166
    2282              
    2283                      .dwattr $C$DW$152, DW_AT_TI_end_file("C:/Users/a0221074/Desktop/C5000/IBM_Watson_TIdesign_workarea/CS
    2284                      .dwattr $C$DW$152, DW_AT_TI_end_line(0x188)
    2285                      .dwattr $C$DW$152, DW_AT_TI_end_column(0x01)
TMS320C55x Assembler PC v4.4.1 Wed Sep 13 16:34:03 2017

Tools Copyright (c) 1996-2012 Texas Instruments Incorporated
C:\Users\a0221074\AppData\Local\Temp\0125610                         PAGE   52

    2286                      .dwendentry
    2287                      .dwendtag $C$DW$152
    2288              
    2289 000000               .sect   ".text:_update_time_table"
    2290                      .clink
    2291              
    2292              $C$DW$178       .dwtag  DW_TAG_subprogram, DW_AT_name("update_time_table")
    2293                      .dwattr $C$DW$178, DW_AT_low_pc(_update_time_table)
    2294                      .dwattr $C$DW$178, DW_AT_high_pc(0x00)
    2295                      .dwattr $C$DW$178, DW_AT_TI_symbol_name("_update_time_table")
    2296                      .dwattr $C$DW$178, DW_AT_TI_begin_file("C:/Users/a0221074/Desktop/C5000/IBM_Watson_TIdesign_workarea/
    2297                      .dwattr $C$DW$178, DW_AT_TI_begin_line(0x18d)
    2298                      .dwattr $C$DW$178, DW_AT_TI_begin_column(0x0d)
    2299                      .dwattr $C$DW$178, DW_AT_TI_max_frame_size(0x0c)
    2300                      .dwpsn  file "C:/Users/a0221074/Desktop/C5000/IBM_Watson_TIdesign_workarea/CSL_bitbucket/c55_csl/c55x
    2301              
    2302                      .dwfde $C$DW$CIE, _update_time_table
    2303              $C$DW$179       .dwtag  DW_TAG_formal_parameter, DW_AT_name("p")
    2304                      .dwattr $C$DW$179, DW_AT_TI_symbol_name("_p")
    2305                      .dwattr $C$DW$179, DW_AT_type(*$C$DW$T$23)
    2306                      .dwattr $C$DW$179, DW_AT_location[DW_OP_reg17]
    2307              $C$DW$180       .dwtag  DW_TAG_formal_parameter, DW_AT_name("n")
    2308                      .dwattr $C$DW$180, DW_AT_TI_symbol_name("_n")
    2309                      .dwattr $C$DW$180, DW_AT_type(*$C$DW$T$9)
    2310                      .dwattr $C$DW$180, DW_AT_location[DW_OP_reg12]
    2311              $C$DW$181       .dwtag  DW_TAG_formal_parameter, DW_AT_name("gv")
    2312                      .dwattr $C$DW$181, DW_AT_TI_symbol_name("_gv")
    2313                      .dwattr $C$DW$181, DW_AT_type(*$C$DW$T$100)
    2314                      .dwattr $C$DW$181, DW_AT_location[DW_OP_reg19]
    2315              ;*******************************************************************************
    2316              ;* FUNCTION NAME: update_time_table                                            *
    2317              ;*                                                                             *
    2318              ;*   Function Uses Regs : AC0,AC0,AC1,AC1,T0,AR0,XAR0,AR1,XAR1,AR2,XAR2,AR3,   *
    2319              ;*                        XAR3,SP,CARRY,TC1,M40,SATA,SATD,RDM,FRCT,SMUL        *
    2320              ;*   Stack Frame        : Compact (No Frame Pointer, w/ debug)                 *
    2321              ;*   Total Frame Size   : 12 words                                             *
    2322              ;*                        (2 return address/alignment)                         *
    2323              ;*                        (10 local values)                                    *
    2324              ;*   Min System Stack   : 1 word                                               *
    2325              ;*******************************************************************************
    2326 000000       _update_time_table:
    2327                      .dwcfi  cfa_offset, 1
    2328                      .dwcfi  save_reg_to_mem, 91, -1
    2329 000000 4EF5          AADD #-11, SP
    2330                      .dwcfi  cfa_offset, 12
    2331              $C$DW$182       .dwtag  DW_TAG_variable, DW_AT_name("p")
    2332                      .dwattr $C$DW$182, DW_AT_TI_symbol_name("_p")
    2333                      .dwattr $C$DW$182, DW_AT_type(*$C$DW$T$23)
    2334                      .dwattr $C$DW$182, DW_AT_location[DW_OP_bregx 0x24 0]
    2335              $C$DW$183       .dwtag  DW_TAG_variable, DW_AT_name("n")
    2336                      .dwattr $C$DW$183, DW_AT_TI_symbol_name("_n")
    2337                      .dwattr $C$DW$183, DW_AT_type(*$C$DW$T$9)
    2338                      .dwattr $C$DW$183, DW_AT_location[DW_OP_bregx 0x24 2]
    2339              $C$DW$184       .dwtag  DW_TAG_variable, DW_AT_name("gv")
    2340                      .dwattr $C$DW$184, DW_AT_TI_symbol_name("_gv")
TMS320C55x Assembler PC v4.4.1 Wed Sep 13 16:34:03 2017

Tools Copyright (c) 1996-2012 Texas Instruments Incorporated
C:\Users\a0221074\AppData\Local\Temp\0125610                         PAGE   53

    2341                      .dwattr $C$DW$184, DW_AT_type(*$C$DW$T$100)
    2342                      .dwattr $C$DW$184, DW_AT_location[DW_OP_bregx 0x24 4]
    2343              $C$DW$185       .dwtag  DW_TAG_variable, DW_AT_name("i")
    2344                      .dwattr $C$DW$185, DW_AT_TI_symbol_name("_i")
    2345                      .dwattr $C$DW$185, DW_AT_type(*$C$DW$T$9)
    2346                      .dwattr $C$DW$185, DW_AT_location[DW_OP_bregx 0x24 6]
    2347              $C$DW$186       .dwtag  DW_TAG_variable, DW_AT_name("time_base")
    2348                      .dwattr $C$DW$186, DW_AT_TI_symbol_name("_time_base")
    2349                      .dwattr $C$DW$186, DW_AT_type(*$C$DW$T$75)
    2350                      .dwattr $C$DW$186, DW_AT_location[DW_OP_bregx 0x24 8]
    2351 000002 EB08          MOV XAR1, dbl(*SP(#4))
         000004 95   
    2352 000005 C404          MOV T0, *SP(#2) ; |398| 
    2353 000007 EB00          MOV XAR0, dbl(*SP(#0))
         000009 85   
    2354                      .dwpsn  file "C:/Users/a0221074/Desktop/C5000/IBM_Watson_TIdesign_workarea/CSL_bitbucket/c55_csl/c55x
    2355 00000a ED08          MOV dbl(*SP(#4)), XAR3
         00000c BF   
    2356 00000d ED6D          MOV dbl(*AR3(#1168)), XAR3
         00000f BF04 
         000011 90   
    2357 000012 EB10          MOV XAR3, dbl(*SP(#8))
         000014 B5   
    2358                      .dwpsn  file "C:/Users/a0221074/Desktop/C5000/IBM_Watson_TIdesign_workarea/CSL_bitbucket/c55_csl/c55x
    2359 000015 A904          MOV *SP(#2), AR1 ; |401| 
    2360 000017 4219          SUB #1, AR1 ; |401| 
    2361 000019 C90C          MOV AR1, *SP(#6) ; |401| 
    2362                      .dwpsn  file "C:/Users/a0221074/Desktop/C5000/IBM_Watson_TIdesign_workarea/CSL_bitbucket/c55_csl/c55x
    2363 00001b 0409          BCC $C$L63,AR1 == #0 ; |401| 
         00001d 6F   
    2364                                                      ; branchcc occurs ; |401| 
    2365 00001e       $C$L60:    
    2366 00001e       $C$DW$L$_update_time_table$2$B:
    2367                      .dwpsn  file "C:/Users/a0221074/Desktop/C5000/IBM_Watson_TIdesign_workarea/CSL_bitbucket/c55_csl/c55x
    2368 00001e DF0C          MOV uns(*SP(#6)), AC0 ; |402| 
         000020 05   
    2369 000021 900B          MOV AC0, XAR3
    2370 000023 ED00          MOV dbl(*SP(#0)), XAR2
         000025 AF   
    2371 000026 B465          AMAR *AR3-
    2372 000028 14A1          AADD XAR2, XAR3 ; |402| 
         00002a B0   
    2373 00002b F061          CMP *AR3 == #4095, TC1 ; |402| 
         00002d 0FFF 
    2374 00002f 0464          BCC $C$L61,TC1 ; |402| 
         000031 43   
    2375                                                      ; branchcc occurs ; |402| 
    2376 000032       $C$DW$L$_update_time_table$2$E:
    2377 000032       $C$DW$L$_update_time_table$3$B:
    2378 000032 DF0C          MOV uns(*SP(#6)), AC0 ; |402| 
         000034 05   
    2379 000035 900B          MOV AC0, XAR3
    2380 000037 B465          AMAR *AR3-
    2381 000039 14A1          AADD XAR2, XAR3 ; |402| 
         00003b B0   
TMS320C55x Assembler PC v4.4.1 Wed Sep 13 16:34:03 2017

Tools Copyright (c) 1996-2012 Texas Instruments Incorporated
C:\Users\a0221074\AppData\Local\Temp\0125610                         PAGE   54

    2382 00003c A061          MOV *AR3, AC0 ; |402| 
    2383 00003e ED10          MOV dbl(*SP(#8)), XAR3
         000040 BF   
    2384 000041 5000          SFTL AC0, #1 ; |402| 
    2385 000043 900A          MOV AC0, XAR2
    2386 000045 14A1          AADD XAR2, XAR3 ; |402| 
         000047 B0   
    2387 000048 76FF          MOV #65535, AR2 ; |402| 
         00004a FFA8 
    2388 00004c A973          MOV *AR3(short(#1)), AR1 ; |402| 
    2389 00004e 1290          CMPU AR1 == AR2, TC1 ; |402| 
         000050 A4   
    2390 000051 0464          BCC $C$L61,TC1 ; |402| 
         000053 21   
    2391                                                      ; branchcc occurs ; |402| 
    2392 000054       $C$DW$L$_update_time_table$3$E:
    2393 000054       $C$DW$L$_update_time_table$4$B:
    2394                      .dwpsn  file "C:/Users/a0221074/Desktop/C5000/IBM_Watson_TIdesign_workarea/CSL_bitbucket/c55_csl/c55x
    2395 000054 DF0C          MOV uns(*SP(#6)), AC0 ; |402| 
         000056 05   
    2396 000057 900B          MOV AC0, XAR3
    2397 000059 ED00          MOV dbl(*SP(#0)), XAR2
         00005b AF   
    2398 00005c B465          AMAR *AR3-
    2399              
    2400                      AADD XAR2, XAR3 ; |402| 
    2401 00005e 8D0C  ||      MOV uns(*SP(#6)), AC1 ; |402| 
         000060 BF18 
         000062 15A1 
    2402              
    2403 000064 901A          MOV AC1, XAR2
    2404 000066 90B0          MOV XAR3, AC0
    2405 000068 ED00          MOV dbl(*SP(#0)), XAR3
         00006a BF   
    2406 00006b 14A1          AADD XAR2, XAR3 ; |402| 
         00006d B0   
    2407 00006e 900A          MOV AC0, XAR2
    2408 000070 8041          MOV *AR2, *AR3 ; |402| 
         000072 84   
    2409 000073 4A0F          B $C$L62  ; |402| 
    2410                                                      ; branch occurs ; |402| 
    2411 000075       $C$DW$L$_update_time_table$4$E:
    2412 000075       $C$L61:    
    2413 000075       $C$DW$L$_update_time_table$5$B:
    2414                      .dwpsn  file "C:/Users/a0221074/Desktop/C5000/IBM_Watson_TIdesign_workarea/CSL_bitbucket/c55_csl/c55x
    2415 000075 ED00          MOV dbl(*SP(#0)), XAR3
         000077 BF   
    2416 000078 DF0C          MOV uns(*SP(#6)), AC0 ; |403| 
         00007a 05   
    2417 00007b 900A          MOV AC0, XAR2
    2418 00007d 14A1          AADD XAR2, XAR3 ; |403| 
         00007f B0   
    2419 000080 FB61          MOV #4095, *AR3 ; |403| 
         000082 0FFF 
    2420 000084       $C$DW$L$_update_time_table$5$E:
TMS320C55x Assembler PC v4.4.1 Wed Sep 13 16:34:03 2017

Tools Copyright (c) 1996-2012 Texas Instruments Incorporated
C:\Users\a0221074\AppData\Local\Temp\0125610                         PAGE   55

    2421 000084       $C$L62:    
    2422 000084       $C$DW$L$_update_time_table$6$B:
    2423                      .dwpsn  file "C:/Users/a0221074/Desktop/C5000/IBM_Watson_TIdesign_workarea/CSL_bitbucket/c55_csl/c55x
    2424 000084 F70C          SUB #1, *SP(#6) ; |401| 
         000086 FFFF 
    2425                      .dwpsn  file "C:/Users/a0221074/Desktop/C5000/IBM_Watson_TIdesign_workarea/CSL_bitbucket/c55_csl/c55x
    2426 000088 A90C          MOV *SP(#6), AR1 ; |401| 
    2427 00008a 0419          BCC $C$L60,AR1 != #0 ; |401| 
         00008c 91   
    2428                                                      ; branchcc occurs ; |401| 
    2429 00008d       $C$DW$L$_update_time_table$6$E:
    2430 00008d       $C$L63:    
    2431                      .dwpsn  file "C:/Users/a0221074/Desktop/C5000/IBM_Watson_TIdesign_workarea/CSL_bitbucket/c55_csl/c55x
    2432 00008d ED00          MOV dbl(*SP(#0)), XAR3
         00008f BF   
    2433 000090 FB61          MOV #4095, *AR3 ; |405| 
         000092 0FFF 
    2434                      .dwpsn  file "C:/Users/a0221074/Desktop/C5000/IBM_Watson_TIdesign_workarea/CSL_bitbucket/c55_csl/c55x
    2435 000094 4E0B          AADD #11, SP
    2436                      .dwcfi  cfa_offset, 1
    2437              $C$DW$187       .dwtag  DW_TAG_TI_branch
    2438                      .dwattr $C$DW$187, DW_AT_low_pc(0x00)
    2439                      .dwattr $C$DW$187, DW_AT_TI_return
    2440 000096 4804          RET
    2441                                                      ; return occurs
    2442              
    2443              $C$DW$188       .dwtag  DW_TAG_TI_loop
    2444                      .dwattr $C$DW$188, DW_AT_name("C:\\Users\\a0221074\\AppData\\Local\\Temp\\0125610:$C$L60:1:1505334831
    2445                      .dwattr $C$DW$188, DW_AT_TI_begin_file("C:/Users/a0221074/Desktop/C5000/IBM_Watson_TIdesign_workarea/
    2446                      .dwattr $C$DW$188, DW_AT_TI_begin_line(0x191)
    2447                      .dwattr $C$DW$188, DW_AT_TI_end_line(0x194)
    2448              $C$DW$189       .dwtag  DW_TAG_TI_loop_range
    2449                      .dwattr $C$DW$189, DW_AT_low_pc($C$DW$L$_update_time_table$2$B)
    2450                      .dwattr $C$DW$189, DW_AT_high_pc($C$DW$L$_update_time_table$2$E)
    2451              $C$DW$190       .dwtag  DW_TAG_TI_loop_range
    2452                      .dwattr $C$DW$190, DW_AT_low_pc($C$DW$L$_update_time_table$3$B)
    2453                      .dwattr $C$DW$190, DW_AT_high_pc($C$DW$L$_update_time_table$3$E)
    2454              $C$DW$191       .dwtag  DW_TAG_TI_loop_range
    2455                      .dwattr $C$DW$191, DW_AT_low_pc($C$DW$L$_update_time_table$4$B)
    2456                      .dwattr $C$DW$191, DW_AT_high_pc($C$DW$L$_update_time_table$4$E)
    2457              $C$DW$192       .dwtag  DW_TAG_TI_loop_range
    2458                      .dwattr $C$DW$192, DW_AT_low_pc($C$DW$L$_update_time_table$5$B)
    2459                      .dwattr $C$DW$192, DW_AT_high_pc($C$DW$L$_update_time_table$5$E)
    2460              $C$DW$193       .dwtag  DW_TAG_TI_loop_range
    2461                      .dwattr $C$DW$193, DW_AT_low_pc($C$DW$L$_update_time_table$6$B)
    2462                      .dwattr $C$DW$193, DW_AT_high_pc($C$DW$L$_update_time_table$6$E)
    2463                      .dwendtag $C$DW$188
    2464              
    2465                      .dwattr $C$DW$178, DW_AT_TI_end_file("C:/Users/a0221074/Desktop/C5000/IBM_Watson_TIdesign_workarea/CS
    2466                      .dwattr $C$DW$178, DW_AT_TI_end_line(0x196)
    2467                      .dwattr $C$DW$178, DW_AT_TI_end_column(0x01)
    2468                      .dwendentry
    2469                      .dwendtag $C$DW$178
    2470              
    2471 000000               .sect   ".text:_compact_beam_cells"
TMS320C55x Assembler PC v4.4.1 Wed Sep 13 16:34:03 2017

Tools Copyright (c) 1996-2012 Texas Instruments Incorporated
C:\Users\a0221074\AppData\Local\Temp\0125610                         PAGE   56

    2472                      .clink
    2473              
    2474              $C$DW$194       .dwtag  DW_TAG_subprogram, DW_AT_name("compact_beam_cells")
    2475                      .dwattr $C$DW$194, DW_AT_low_pc(_compact_beam_cells)
    2476                      .dwattr $C$DW$194, DW_AT_high_pc(0x00)
    2477                      .dwattr $C$DW$194, DW_AT_TI_symbol_name("_compact_beam_cells")
    2478                      .dwattr $C$DW$194, DW_AT_TI_begin_file("C:/Users/a0221074/Desktop/C5000/IBM_Watson_TIdesign_workarea/
    2479                      .dwattr $C$DW$194, DW_AT_TI_begin_line(0x19d)
    2480                      .dwattr $C$DW$194, DW_AT_TI_begin_column(0x01)
    2481                      .dwattr $C$DW$194, DW_AT_TI_max_frame_size(0x14)
    2482                      .dwpsn  file "C:/Users/a0221074/Desktop/C5000/IBM_Watson_TIdesign_workarea/CSL_bitbucket/c55_csl/c55x
    2483              
    2484                      .dwfde $C$DW$CIE, _compact_beam_cells
    2485              $C$DW$195       .dwtag  DW_TAG_formal_parameter, DW_AT_name("beam_base")
    2486                      .dwattr $C$DW$195, DW_AT_TI_symbol_name("_beam_base")
    2487                      .dwattr $C$DW$195, DW_AT_type(*$C$DW$T$73)
    2488                      .dwattr $C$DW$195, DW_AT_location[DW_OP_reg17]
    2489              $C$DW$196       .dwtag  DW_TAG_formal_parameter, DW_AT_name("time_base")
    2490                      .dwattr $C$DW$196, DW_AT_TI_symbol_name("_time_base")
    2491                      .dwattr $C$DW$196, DW_AT_type(*$C$DW$T$75)
    2492                      .dwattr $C$DW$196, DW_AT_location[DW_OP_reg19]
    2493              $C$DW$197       .dwtag  DW_TAG_formal_parameter, DW_AT_name("gv")
    2494                      .dwattr $C$DW$197, DW_AT_TI_symbol_name("_gv")
    2495                      .dwattr $C$DW$197, DW_AT_type(*$C$DW$T$100)
    2496                      .dwattr $C$DW$197, DW_AT_location[DW_OP_reg21]
    2497              ;*******************************************************************************
    2498              ;* FUNCTION NAME: compact_beam_cells                                           *
    2499              ;*                                                                             *
    2500              ;*   Function Uses Regs : AC0,AC0,AC1,AC1,T0,AR0,XAR0,AR1,XAR1,AR2,XAR2,AR3,   *
    2501              ;*                        XAR3,SP,CARRY,TC1,M40,SATA,SATD,RDM,FRCT,SMUL        *
    2502              ;*   Stack Frame        : Compact (No Frame Pointer, w/ debug)                 *
    2503              ;*   Total Frame Size   : 20 words                                             *
    2504              ;*                        (2 return address/alignment)                         *
    2505              ;*                        (18 local values)                                    *
    2506              ;*   Min System Stack   : 1 word                                               *
    2507              ;*******************************************************************************
    2508 000000       _compact_beam_cells:
    2509                      .dwcfi  cfa_offset, 1
    2510                      .dwcfi  save_reg_to_mem, 91, -1
    2511 000000 4EED          AADD #-19, SP
    2512                      .dwcfi  cfa_offset, 20
    2513              $C$DW$198       .dwtag  DW_TAG_variable, DW_AT_name("beam_base")
    2514                      .dwattr $C$DW$198, DW_AT_TI_symbol_name("_beam_base")
    2515                      .dwattr $C$DW$198, DW_AT_type(*$C$DW$T$73)
    2516                      .dwattr $C$DW$198, DW_AT_location[DW_OP_bregx 0x24 0]
    2517              $C$DW$199       .dwtag  DW_TAG_variable, DW_AT_name("time_base")
    2518                      .dwattr $C$DW$199, DW_AT_TI_symbol_name("_time_base")
    2519                      .dwattr $C$DW$199, DW_AT_type(*$C$DW$T$75)
    2520                      .dwattr $C$DW$199, DW_AT_location[DW_OP_bregx 0x24 2]
    2521              $C$DW$200       .dwtag  DW_TAG_variable, DW_AT_name("gv")
    2522                      .dwattr $C$DW$200, DW_AT_TI_symbol_name("_gv")
    2523                      .dwattr $C$DW$200, DW_AT_type(*$C$DW$T$100)
    2524                      .dwattr $C$DW$200, DW_AT_location[DW_OP_bregx 0x24 4]
    2525              $C$DW$201       .dwtag  DW_TAG_variable, DW_AT_name("i")
    2526                      .dwattr $C$DW$201, DW_AT_TI_symbol_name("_i")
TMS320C55x Assembler PC v4.4.1 Wed Sep 13 16:34:03 2017

Tools Copyright (c) 1996-2012 Texas Instruments Incorporated
C:\Users\a0221074\AppData\Local\Temp\0125610                         PAGE   57

    2527                      .dwattr $C$DW$201, DW_AT_type(*$C$DW$T$8)
    2528                      .dwattr $C$DW$201, DW_AT_location[DW_OP_bregx 0x24 6]
    2529              $C$DW$202       .dwtag  DW_TAG_variable, DW_AT_name("t")
    2530                      .dwattr $C$DW$202, DW_AT_TI_symbol_name("_t")
    2531                      .dwattr $C$DW$202, DW_AT_type(*$C$DW$T$8)
    2532                      .dwattr $C$DW$202, DW_AT_location[DW_OP_bregx 0x24 7]
    2533              $C$DW$203       .dwtag  DW_TAG_variable, DW_AT_name("beam_idx")
    2534                      .dwattr $C$DW$203, DW_AT_TI_symbol_name("_beam_idx")
    2535                      .dwattr $C$DW$203, DW_AT_type(*$C$DW$T$9)
    2536                      .dwattr $C$DW$203, DW_AT_location[DW_OP_bregx 0x24 8]
    2537              $C$DW$204       .dwtag  DW_TAG_variable, DW_AT_name("s_next")
    2538                      .dwattr $C$DW$204, DW_AT_TI_symbol_name("_s_next")
    2539                      .dwattr $C$DW$204, DW_AT_type(*$C$DW$T$9)
    2540                      .dwattr $C$DW$204, DW_AT_location[DW_OP_bregx 0x24 9]
    2541              $C$DW$205       .dwtag  DW_TAG_variable, DW_AT_name("count")
    2542                      .dwattr $C$DW$205, DW_AT_TI_symbol_name("_count")
    2543                      .dwattr $C$DW$205, DW_AT_type(*$C$DW$T$9)
    2544                      .dwattr $C$DW$205, DW_AT_location[DW_OP_bregx 0x24 10]
    2545              $C$DW$206       .dwtag  DW_TAG_variable, DW_AT_name("active_count")
    2546                      .dwattr $C$DW$206, DW_AT_TI_symbol_name("_active_count")
    2547                      .dwattr $C$DW$206, DW_AT_type(*$C$DW$T$9)
    2548                      .dwattr $C$DW$206, DW_AT_location[DW_OP_bregx 0x24 11]
    2549              $C$DW$207       .dwtag  DW_TAG_variable, DW_AT_name("bm")
    2550                      .dwattr $C$DW$207, DW_AT_TI_symbol_name("_bm")
    2551                      .dwattr $C$DW$207, DW_AT_type(*$C$DW$T$73)
    2552                      .dwattr $C$DW$207, DW_AT_location[DW_OP_bregx 0x24 12]
    2553              $C$DW$208       .dwtag  DW_TAG_variable, DW_AT_name("p")
    2554                      .dwattr $C$DW$208, DW_AT_TI_symbol_name("_p")
    2555                      .dwattr $C$DW$208, DW_AT_type(*$C$DW$T$73)
    2556                      .dwattr $C$DW$208, DW_AT_location[DW_OP_bregx 0x24 14]
    2557              $C$DW$209       .dwtag  DW_TAG_variable, DW_AT_name("head")
    2558                      .dwattr $C$DW$209, DW_AT_TI_symbol_name("_head")
    2559                      .dwattr $C$DW$209, DW_AT_type(*$C$DW$T$73)
    2560                      .dwattr $C$DW$209, DW_AT_location[DW_OP_bregx 0x24 16]
    2561 000002 EB08          MOV XAR2, dbl(*SP(#4))
         000004 A5   
    2562 000005 EB04          MOV XAR1, dbl(*SP(#2))
         000007 95   
    2563 000008 EB00          MOV XAR0, dbl(*SP(#0))
         00000a 85   
    2564                      .dwpsn  file "C:/Users/a0221074/Desktop/C5000/IBM_Watson_TIdesign_workarea/CSL_bitbucket/c55_csl/c55x
    2565 00000b E614          MOV #0, *SP(#10) ; |416| 
         00000d 00   
    2566                      .dwpsn  file "C:/Users/a0221074/Desktop/C5000/IBM_Watson_TIdesign_workarea/CSL_bitbucket/c55_csl/c55x
    2567 00000e E616          MOV #0, *SP(#11) ; |416| 
         000010 00   
    2568                      .dwpsn  file "C:/Users/a0221074/Desktop/C5000/IBM_Watson_TIdesign_workarea/CSL_bitbucket/c55_csl/c55x
    2569 000011 ED00          MOV dbl(*SP(#0)), XAR3
         000013 BF   
    2570 000014 EB18          MOV XAR3, dbl(*SP(#12))
         000016 B5   
    2571                      .dwpsn  file "C:/Users/a0221074/Desktop/C5000/IBM_Watson_TIdesign_workarea/CSL_bitbucket/c55_csl/c55x
    2572 000017 ED08          MOV dbl(*SP(#4)), XAR3
         000019 BF   
    2573 00001a ED08          MOV dbl(*SP(#4)), XAR0
TMS320C55x Assembler PC v4.4.1 Wed Sep 13 16:34:03 2017

Tools Copyright (c) 1996-2012 Texas Instruments Incorporated
C:\Users\a0221074\AppData\Local\Temp\0125610                         PAGE   58

         00001c 8F   
    2574 00001d A46D          MOV *AR3(#1972), T0 ; |424| 
         00001f 07B4 
    2575              $C$DW$210       .dwtag  DW_TAG_TI_branch
    2576                      .dwattr $C$DW$210, DW_AT_low_pc(0x00)
    2577                      .dwattr $C$DW$210, DW_AT_name("_coloring_beam")
    2578                      .dwattr $C$DW$210, DW_AT_TI_call
    2579 000021 6C00          CALL #_coloring_beam ; |424| 
         000023 0000+
    2580                                                      ; call occurs [#_coloring_beam] ; |424| 
    2581                      .dwpsn  file "C:/Users/a0221074/Desktop/C5000/IBM_Watson_TIdesign_workarea/CSL_bitbucket/c55_csl/c55x
    2582 000025 ED08          MOV dbl(*SP(#4)), XAR3
         000027 BF   
    2583 000028 A96D          MOV *AR3(#1252), AR1 ; |428| 
         00002a 04E4 
    2584 00002c 4219          SUB #1, AR1 ; |428| 
    2585 00002e C90C          MOV AR1, *SP(#6) ; |428| 
    2586 000030 ED18          MOV dbl(*SP(#12)), XAR3
         000032 BF   
    2587 000033 A10C          MOV *SP(#6), AC1 ; |428| 
    2588 000035 1A00          OR #0, AC1, AC0
         000037 01   
    2589 000038 1013          ADD AC1 << #1, AC0 ; |428| 
         00003a 01   
    2590 00003b 900A          MOV AC0, XAR2
    2591              
    2592 00003d 8E1C          MOV XAR3, dbl(*SP(#14))
         00003f BB10 
         000041 B5A1 
    2593              ||      AADD XAR2, XAR3 ; |428| 
    2594              
    2595                      .dwpsn  file "C:/Users/a0221074/Desktop/C5000/IBM_Watson_TIdesign_workarea/CSL_bitbucket/c55_csl/c55x
    2596 000043 A90C          MOV *SP(#6), AR1 ; |428| 
    2597 000045 0429          BCC $C$L67,AR1 < #0 ; |428| 
         000047 35   
    2598                                                      ; branchcc occurs ; |428| 
    2599 000048       $C$L64:    
    2600 000048       $C$DW$L$_compact_beam_cells$2$B:
    2601                      .dwpsn  file "C:/Users/a0221074/Desktop/C5000/IBM_Watson_TIdesign_workarea/CSL_bitbucket/c55_csl/c55x
    2602 000048 ED1C          MOV dbl(*SP(#14)), XAR3
         00004a BF   
    2603 00004b DC73          BTST #15, *AR3(short(#1)), TC1 ; |430| 
         00004d F0   
    2604 00004e 6574          BCC $C$L65,!TC1 ; |430| 
    2605                                                      ; branchcc occurs ; |430| 
    2606 000050       $C$DW$L$_compact_beam_cells$2$E:
    2607 000050       $C$DW$L$_compact_beam_cells$3$B:
    2608                      .dwpsn  file "C:/Users/a0221074/Desktop/C5000/IBM_Watson_TIdesign_workarea/CSL_bitbucket/c55_csl/c55x
    2609 000050 F473          AND #0x7fff, *AR3(short(#1)) ; |433| 
         000052 7FFF 
    2610                      .dwpsn  file "C:/Users/a0221074/Desktop/C5000/IBM_Watson_TIdesign_workarea/CSL_bitbucket/c55_csl/c55x
    2611 000054 F716          ADD #1, *SP(#11) ; |434| 
         000056 0001 
    2612                      .dwpsn  file "C:/Users/a0221074/Desktop/C5000/IBM_Watson_TIdesign_workarea/CSL_bitbucket/c55_csl/c55x
    2613 000058 4A11          B $C$L66  ; |435| 
TMS320C55x Assembler PC v4.4.1 Wed Sep 13 16:34:03 2017

Tools Copyright (c) 1996-2012 Texas Instruments Incorporated
C:\Users\a0221074\AppData\Local\Temp\0125610                         PAGE   59

    2614                                                      ; branch occurs ; |435| 
    2615 00005a       $C$DW$L$_compact_beam_cells$3$E:
    2616 00005a       $C$L65:    
    2617 00005a       $C$DW$L$_compact_beam_cells$4$B:
    2618                      .dwpsn  file "C:/Users/a0221074/Desktop/C5000/IBM_Watson_TIdesign_workarea/CSL_bitbucket/c55_csl/c55x
    2619 00005a FB73          MOV #32767, *AR3(short(#1)) ; |439| 
         00005c 7FFF 
    2620                      .dwpsn  file "C:/Users/a0221074/Desktop/C5000/IBM_Watson_TIdesign_workarea/CSL_bitbucket/c55_csl/c55x
    2621 00005e ED08          MOV dbl(*SP(#4)), XAR3
         000060 BF   
    2622 000061 A90C          MOV *SP(#6), AR1 ; |440| 
    2623 000063 C96D          MOV AR1, *AR3(#1253) ; |440| 
         000065 04E5 
    2624                      .dwpsn  file "C:/Users/a0221074/Desktop/C5000/IBM_Watson_TIdesign_workarea/CSL_bitbucket/c55_csl/c55x
    2625 000067 F714          ADD #1, *SP(#10) ; |441| 
         000069 0001 
    2626 00006b       $C$DW$L$_compact_beam_cells$4$E:
    2627 00006b       $C$L66:    
    2628 00006b       $C$DW$L$_compact_beam_cells$5$B:
    2629                      .dwpsn  file "C:/Users/a0221074/Desktop/C5000/IBM_Watson_TIdesign_workarea/CSL_bitbucket/c55_csl/c55x
    2630 00006b ED1C          MOV dbl(*SP(#14)), XAR3
         00006d BF   
    2631              
    2632 00006e 8E1C          MOV XAR3, dbl(*SP(#14))
         000070 BB16 
         000072 B503 
    2633              ||      ASUB #3, AR3 ; |428| 
    2634              
    2635 000074 F70C          SUB #1, *SP(#6) ; |428| 
         000076 FFFF 
    2636                      .dwpsn  file "C:/Users/a0221074/Desktop/C5000/IBM_Watson_TIdesign_workarea/CSL_bitbucket/c55_csl/c55x
    2637 000078 A90C          MOV *SP(#6), AR1 ; |428| 
    2638 00007a 0459          BCC $C$L64,AR1 >= #0 ; |428| 
         00007c CB   
    2639                                                      ; branchcc occurs ; |428| 
    2640 00007d       $C$DW$L$_compact_beam_cells$5$E:
    2641 00007d       $C$L67:    
    2642                      .dwpsn  file "C:/Users/a0221074/Desktop/C5000/IBM_Watson_TIdesign_workarea/CSL_bitbucket/c55_csl/c55x
    2643 00007d ED08          MOV dbl(*SP(#4)), XAR3
         00007f BF   
    2644 000080 A916          MOV *SP(#11), AR1 ; |446| 
    2645 000082 C96D          MOV AR1, *AR3(#270) ; |446| 
         000084 010E 
    2646                      .dwpsn  file "C:/Users/a0221074/Desktop/C5000/IBM_Watson_TIdesign_workarea/CSL_bitbucket/c55_csl/c55x
    2647 000086 E616          MOV #0, *SP(#11) ; |455| 
         000088 00   
    2648                      .dwpsn  file "C:/Users/a0221074/Desktop/C5000/IBM_Watson_TIdesign_workarea/CSL_bitbucket/c55_csl/c55x
    2649 000089 ED08          MOV dbl(*SP(#4)), XAR3
         00008b BF   
    2650 00008c A96D          MOV *AR3(#1254), AR1 ; |459| 
         00008e 04E6 
    2651 000090 4219          SUB #1, AR1 ; |459| 
    2652 000092 C90E          MOV AR1, *SP(#7) ; |459| 
    2653                      .dwpsn  file "C:/Users/a0221074/Desktop/C5000/IBM_Watson_TIdesign_workarea/CSL_bitbucket/c55_csl/c55x
    2654 000094 6D29          BCC $C$L82,AR1 < #0 ; |459| 
TMS320C55x Assembler PC v4.4.1 Wed Sep 13 16:34:03 2017

Tools Copyright (c) 1996-2012 Texas Instruments Incorporated
C:\Users\a0221074\AppData\Local\Temp\0125610                         PAGE   60

         000096 016E 
    2655                                                      ; branchcc occurs ; |459| 
    2656 000098       $C$L68:    
    2657 000098       $C$DW$L$_compact_beam_cells$7$B:
    2658                      .dwpsn  file "C:/Users/a0221074/Desktop/C5000/IBM_Watson_TIdesign_workarea/CSL_bitbucket/c55_csl/c55x
    2659 000098 ED04          MOV dbl(*SP(#2)), XAR3
         00009a BF   
    2660 00009b A00E          MOV *SP(#7), AC0 ; |462| 
    2661 00009d 5000          SFTL AC0, #1 ; |462| 
    2662 00009f 900A          MOV AC0, XAR2
    2663 0000a1 14A1          AADD XAR2, XAR3 ; |462| 
         0000a3 B0   
    2664 0000a4 A973          MOV *AR3(short(#1)), AR1 ; |462| 
    2665 0000a6 C910          MOV AR1, *SP(#8) ; |462| 
    2666                      .dwpsn  file "C:/Users/a0221074/Desktop/C5000/IBM_Watson_TIdesign_workarea/CSL_bitbucket/c55_csl/c55x
    2667 0000a8 76FF          MOV #65535, AR2 ; |466| 
         0000aa FFA8 
    2668 0000ac 1290          CMPU AR1 == AR2, TC1 ; |466| 
         0000ae A4   
    2669 0000af 6D64          BCC $C$L80,TC1 ; |466| 
         0000b1 0140 
    2670                                                      ; branchcc occurs ; |466| 
    2671 0000b3       $C$DW$L$_compact_beam_cells$7$E:
    2672 0000b3       $C$DW$L$_compact_beam_cells$8$B:
    2673                      .dwpsn  file "C:/Users/a0221074/Desktop/C5000/IBM_Watson_TIdesign_workarea/CSL_bitbucket/c55_csl/c55x
    2674 0000b3 4A2D          B $C$L70  ; |470| 
    2675                                                      ; branch occurs ; |470| 
    2676 0000b5       $C$DW$L$_compact_beam_cells$8$E:
    2677 0000b5       $C$L69:    
    2678 0000b5       $C$DW$L$_compact_beam_cells$9$B:
    2679                      .dwpsn  file "C:/Users/a0221074/Desktop/C5000/IBM_Watson_TIdesign_workarea/CSL_bitbucket/c55_csl/c55x
    2680 0000b5 ED18          MOV dbl(*SP(#12)), XAR3
         0000b7 BF   
    2681 0000b8 DF10          MOV uns(*SP(#8)), AC1 ; |472| 
         0000ba 15   
    2682 0000bb 1A00          OR #0, AC1, AC0
         0000bd 01   
    2683 0000be 1013          ADD AC1 << #1, AC0 ; |472| 
         0000c0 01   
    2684 0000c1 900A          MOV AC0, XAR2
    2685 0000c3 14A1          AADD XAR2, XAR3 ; |472| 
         0000c5 B0   
    2686 0000c6 F073          CMP *AR3(short(#1)) == #32767, TC1 ; |472| 
         0000c8 7FFF 
    2687 0000ca 0474          BCC $C$L71,!TC1 ; |472| 
         0000cc 35   
    2688                                                      ; branchcc occurs ; |472| 
    2689 0000cd       $C$DW$L$_compact_beam_cells$9$E:
    2690 0000cd       $C$DW$L$_compact_beam_cells$10$B:
    2691                      .dwpsn  file "C:/Users/a0221074/Desktop/C5000/IBM_Watson_TIdesign_workarea/CSL_bitbucket/c55_csl/c55x
    2692                      .dwpsn  file "C:/Users/a0221074/Desktop/C5000/IBM_Watson_TIdesign_workarea/CSL_bitbucket/c55_csl/c55x
    2693 0000cd ED18          MOV dbl(*SP(#12)), XAR3
         0000cf BF   
    2694 0000d0 DF10          MOV uns(*SP(#8)), AC1 ; |470| 
         0000d2 15   
TMS320C55x Assembler PC v4.4.1 Wed Sep 13 16:34:03 2017

Tools Copyright (c) 1996-2012 Texas Instruments Incorporated
C:\Users\a0221074\AppData\Local\Temp\0125610                         PAGE   61

    2695 0000d3 1A00          OR #0, AC1, AC0
         0000d5 01   
    2696 0000d6 1013          ADD AC1 << #1, AC0 ; |470| 
         0000d8 01   
    2697 0000d9 900A          MOV AC0, XAR2
    2698 0000db 14A1          AADD XAR2, XAR3 ; |470| 
         0000dd B0   
    2699 0000de A975          MOV *AR3(short(#2)), AR1 ; |470| 
    2700 0000e0 C910          MOV AR1, *SP(#8) ; |470| 
    2701 0000e2       $C$DW$L$_compact_beam_cells$10$E:
    2702 0000e2       $C$L70:    
    2703 0000e2       $C$DW$L$_compact_beam_cells$11$B:
    2704                      .dwpsn  file "C:/Users/a0221074/Desktop/C5000/IBM_Watson_TIdesign_workarea/CSL_bitbucket/c55_csl/c55x
    2705 0000e2 ED18          MOV dbl(*SP(#12)), XAR3
         0000e4 BF   
    2706 0000e5 DF10          MOV uns(*SP(#8)), AC1 ; |470| 
         0000e7 15   
    2707 0000e8 1A00          OR #0, AC1, AC0
         0000ea 01   
    2708 0000eb 1013          ADD AC1 << #1, AC0 ; |470| 
         0000ed 01   
    2709 0000ee 900A          MOV AC0, XAR2
    2710 0000f0 14A1          AADD XAR2, XAR3 ; |470| 
         0000f2 B0   
    2711 0000f3 A975          MOV *AR3(short(#2)), AR1 ; |470| 
    2712 0000f5 ED08          MOV dbl(*SP(#4)), XAR3
         0000f7 BF   
    2713 0000f8 AA6D          MOV *AR3(#1975), AR2 ; |470| 
         0000fa 07B7 
    2714 0000fc 129C          CMPU AR1 != AR2, TC1 ; |470| 
         0000fe A4   
    2715 0000ff 0464          BCC $C$L69,TC1 ; |470| 
         000101 B3   
    2716                                                      ; branchcc occurs ; |470| 
    2717 000102       $C$DW$L$_compact_beam_cells$11$E:
    2718 000102       $C$L71:    
    2719 000102       $C$DW$L$_compact_beam_cells$12$B:
    2720                      .dwpsn  file "C:/Users/a0221074/Desktop/C5000/IBM_Watson_TIdesign_workarea/CSL_bitbucket/c55_csl/c55x
    2721 000102 ED18          MOV dbl(*SP(#12)), XAR3
         000104 BF   
    2722 000105 DF10          MOV uns(*SP(#8)), AC1 ; |475| 
         000107 15   
    2723 000108 1A00          OR #0, AC1, AC0
         00010a 01   
    2724 00010b 1013          ADD AC1 << #1, AC0 ; |475| 
         00010d 01   
    2725 00010e 900A          MOV AC0, XAR2
    2726 000110 14A1          AADD XAR2, XAR3 ; |475| 
         000112 B0   
    2727 000113 F073          CMP *AR3(short(#1)) == #32767, TC1 ; |475| 
         000115 7FFF 
    2728 000117 0474          BCC $C$L72,!TC1 ; |475| 
         000119 1C   
    2729                                                      ; branchcc occurs ; |475| 
    2730 00011a       $C$DW$L$_compact_beam_cells$12$E:
TMS320C55x Assembler PC v4.4.1 Wed Sep 13 16:34:03 2017

Tools Copyright (c) 1996-2012 Texas Instruments Incorporated
C:\Users\a0221074\AppData\Local\Temp\0125610                         PAGE   62

    2731 00011a       $C$DW$L$_compact_beam_cells$13$B:
    2732                      .dwpsn  file "C:/Users/a0221074/Desktop/C5000/IBM_Watson_TIdesign_workarea/CSL_bitbucket/c55_csl/c55x
    2733 00011a ED04          MOV dbl(*SP(#2)), XAR3
         00011c BF   
    2734 00011d A00E          MOV *SP(#7), AC0 ; |478| 
    2735 00011f 5000          SFTL AC0, #1 ; |478| 
    2736 000121 900A          MOV AC0, XAR2
    2737 000123 14A1          AADD XAR2, XAR3 ; |478| 
         000125 B0   
    2738 000126 FB73          MOV #65535, *AR3(short(#1)) ; |478| 
         000128 FFFF 
    2739                      .dwpsn  file "C:/Users/a0221074/Desktop/C5000/IBM_Watson_TIdesign_workarea/CSL_bitbucket/c55_csl/c55x
    2740 00012a ED08          MOV dbl(*SP(#4)), XAR3
         00012c BF   
    2741 00012d A90E          MOV *SP(#7), AR1 ; |480| 
    2742 00012f C96D          MOV AR1, *AR3(#1255) ; |480| 
         000131 04E7 
    2743                      .dwpsn  file "C:/Users/a0221074/Desktop/C5000/IBM_Watson_TIdesign_workarea/CSL_bitbucket/c55_csl/c55x
    2744 000133 0600          B $C$L81  ; |481| 
         000135 C6   
    2745                                                      ; branch occurs ; |481| 
    2746 000136       $C$DW$L$_compact_beam_cells$13$E:
    2747 000136       $C$L72:    
    2748 000136       $C$DW$L$_compact_beam_cells$14$B:
    2749                      .dwpsn  file "C:/Users/a0221074/Desktop/C5000/IBM_Watson_TIdesign_workarea/CSL_bitbucket/c55_csl/c55x
    2750 000136 ED18          MOV dbl(*SP(#12)), XAR3
         000138 BF   
    2751 000139 DF10          MOV uns(*SP(#8)), AC1 ; |486| 
         00013b 15   
    2752 00013c 1A00          OR #0, AC1, AC0
         00013e 01   
    2753 00013f 1013          ADD AC1 << #1, AC0 ; |486| 
         000141 01   
    2754 000142 900A          MOV AC0, XAR2
    2755              
    2756 000144 8E20          MOV XAR3, dbl(*SP(#16))
         000146 BB10 
         000148 B5A1 
    2757              ||      AADD XAR2, XAR3 ; |486| 
    2758              
    2759 00014a 0600          B $C$L78  ; |486| 
         00014c 7D   
    2760                                                      ; branch occurs ; |486| 
    2761 00014d       $C$DW$L$_compact_beam_cells$14$E:
    2762 00014d       $C$L73:    
    2763 00014d       $C$DW$L$_compact_beam_cells$15$B:
    2764                      .dwpsn  file "C:/Users/a0221074/Desktop/C5000/IBM_Watson_TIdesign_workarea/CSL_bitbucket/c55_csl/c55x
    2765 00014d A975          MOV *AR3(short(#2)), AR1 ; |489| 
    2766 00014f C912          MOV AR1, *SP(#9) ; |489| 
    2767 000151 ED18          MOV dbl(*SP(#12)), XAR3
         000153 BF   
    2768 000154 DF12          MOV uns(*SP(#9)), AC1 ; |489| 
         000156 15   
    2769 000157 1A00          OR #0, AC1, AC0
         000159 01   
TMS320C55x Assembler PC v4.4.1 Wed Sep 13 16:34:03 2017

Tools Copyright (c) 1996-2012 Texas Instruments Incorporated
C:\Users\a0221074\AppData\Local\Temp\0125610                         PAGE   63

    2770 00015a 1013          ADD AC1 << #1, AC0 ; |489| 
         00015c 01   
    2771 00015d 900A          MOV AC0, XAR2
    2772              
    2773 00015f 8E1C          MOV XAR3, dbl(*SP(#14))
         000161 BB10 
         000163 B5A1 
    2774              ||      AADD XAR2, XAR3 ; |489| 
    2775              
    2776 000165 4A18          B $C$L75  ; |489| 
    2777                                                      ; branch occurs ; |489| 
    2778 000167       $C$DW$L$_compact_beam_cells$15$E:
    2779 000167       $C$L74:    
    2780 000167       $C$DW$L$_compact_beam_cells$16$B:
    2781                      .dwpsn  file "C:/Users/a0221074/Desktop/C5000/IBM_Watson_TIdesign_workarea/CSL_bitbucket/c55_csl/c55x
    2782 000167 A975          MOV *AR3(short(#2)), AR1 ; |489| 
    2783 000169 C912          MOV AR1, *SP(#9) ; |489| 
    2784 00016b ED18          MOV dbl(*SP(#12)), XAR3
         00016d BF   
    2785 00016e DF12          MOV uns(*SP(#9)), AC1 ; |489| 
         000170 15   
    2786 000171 1A00          OR #0, AC1, AC0
         000173 01   
    2787 000174 1013          ADD AC1 << #1, AC0 ; |489| 
         000176 01   
    2788 000177 900A          MOV AC0, XAR2
    2789              
    2790 000179 8E1C          MOV XAR3, dbl(*SP(#14))
         00017b BB10 
         00017d B5A1 
    2791              ||      AADD XAR2, XAR3 ; |489| 
    2792              
    2793 00017f       $C$DW$L$_compact_beam_cells$16$E:
    2794 00017f       $C$L75:    
    2795 00017f       $C$DW$L$_compact_beam_cells$17$B:
    2796                      .dwpsn  file "C:/Users/a0221074/Desktop/C5000/IBM_Watson_TIdesign_workarea/CSL_bitbucket/c55_csl/c55x
    2797 00017f F073          CMP *AR3(short(#1)) == #32767, TC1 ; |489| 
         000181 7FFF 
    2798 000183 0474          BCC $C$L76,!TC1 ; |489| 
         000185 12   
    2799                                                      ; branchcc occurs ; |489| 
    2800 000186       $C$DW$L$_compact_beam_cells$17$E:
    2801 000186       $C$DW$L$_compact_beam_cells$18$B:
    2802 000186 ED08          MOV dbl(*SP(#4)), XAR3
         000188 BF   
    2803 000189 A96D          MOV *AR3(#1975), AR1 ; |489| 
         00018b 07B7 
    2804 00018d ED1C          MOV dbl(*SP(#14)), XAR3
         00018f BF   
    2805 000190 AA75          MOV *AR3(short(#2)), AR2 ; |489| 
    2806 000192 12A0          CMPU AR2 == AR1, TC1 ; |489| 
         000194 94   
    2807 000195 0474          BCC $C$L74,!TC1 ; |489| 
         000197 CF   
    2808                                                      ; branchcc occurs ; |489| 
TMS320C55x Assembler PC v4.4.1 Wed Sep 13 16:34:03 2017

Tools Copyright (c) 1996-2012 Texas Instruments Incorporated
C:\Users\a0221074\AppData\Local\Temp\0125610                         PAGE   64

    2809 000198       $C$DW$L$_compact_beam_cells$18$E:
    2810 000198       $C$L76:    
    2811 000198       $C$DW$L$_compact_beam_cells$19$B:
    2812                      .dwpsn  file "C:/Users/a0221074/Desktop/C5000/IBM_Watson_TIdesign_workarea/CSL_bitbucket/c55_csl/c55x
    2813 000198 F073          CMP *AR3(short(#1)) == #32767, TC1 ; |492| 
         00019a 7FFF 
    2814 00019c 6774          BCC $C$L77,!TC1 ; |492| 
    2815                                                      ; branchcc occurs ; |492| 
    2816 00019e       $C$DW$L$_compact_beam_cells$19$E:
    2817 00019e       $C$DW$L$_compact_beam_cells$20$B:
    2818                      .dwpsn  file "C:/Users/a0221074/Desktop/C5000/IBM_Watson_TIdesign_workarea/CSL_bitbucket/c55_csl/c55x
    2819 00019e ED08          MOV dbl(*SP(#4)), XAR3
         0001a0 BF   
    2820 0001a1 A96D          MOV *AR3(#1975), AR1 ; |495| 
         0001a3 07B7 
    2821 0001a5 ED20          MOV dbl(*SP(#16)), XAR3
         0001a7 BF   
    2822 0001a8 C975          MOV AR1, *AR3(short(#2)) ; |495| 
    2823                      .dwpsn  file "C:/Users/a0221074/Desktop/C5000/IBM_Watson_TIdesign_workarea/CSL_bitbucket/c55_csl/c55x
    2824 0001aa 4A31          B $C$L79  ; |496| 
    2825                                                      ; branch occurs ; |496| 
    2826 0001ac       $C$DW$L$_compact_beam_cells$20$E:
    2827 0001ac       $C$L77:    
    2828 0001ac       $C$DW$L$_compact_beam_cells$22$B:
    2829                      .dwpsn  file "C:/Users/a0221074/Desktop/C5000/IBM_Watson_TIdesign_workarea/CSL_bitbucket/c55_csl/c55x
    2830 0001ac ED20          MOV dbl(*SP(#16)), XAR3
         0001ae BF   
    2831 0001af A912          MOV *SP(#9), AR1 ; |499| 
    2832 0001b1 C975          MOV AR1, *AR3(short(#2)) ; |499| 
    2833                      .dwpsn  file "C:/Users/a0221074/Desktop/C5000/IBM_Watson_TIdesign_workarea/CSL_bitbucket/c55_csl/c55x
    2834 0001b3 ED20          MOV dbl(*SP(#16)), XAR3
         0001b5 BF   
    2835 0001b6 DF75          MOV uns(*AR3(short(#2))), AC1 ; |486| 
         0001b8 15   
    2836 0001b9 ED18          MOV dbl(*SP(#12)), XAR3
         0001bb BF   
    2837 0001bc 1A00          OR #0, AC1, AC0
         0001be 01   
    2838 0001bf 1013          ADD AC1 << #1, AC0 ; |486| 
         0001c1 01   
    2839 0001c2 900A          MOV AC0, XAR2
    2840              
    2841 0001c4 8E20          MOV XAR3, dbl(*SP(#16))
         0001c6 BB10 
         0001c8 B5A1 
    2842              ||      AADD XAR2, XAR3 ; |486| 
    2843              
    2844 0001ca       $C$DW$L$_compact_beam_cells$22$E:
    2845 0001ca       $C$L78:    
    2846 0001ca       $C$DW$L$_compact_beam_cells$23$B:
    2847                      .dwpsn  file "C:/Users/a0221074/Desktop/C5000/IBM_Watson_TIdesign_workarea/CSL_bitbucket/c55_csl/c55x
    2848 0001ca ED08          MOV dbl(*SP(#4)), XAR3
         0001cc BF   
    2849 0001cd A96D          MOV *AR3(#1975), AR1 ; |486| 
         0001cf 07B7 
TMS320C55x Assembler PC v4.4.1 Wed Sep 13 16:34:03 2017

Tools Copyright (c) 1996-2012 Texas Instruments Incorporated
C:\Users\a0221074\AppData\Local\Temp\0125610                         PAGE   65

    2850 0001d1 ED20          MOV dbl(*SP(#16)), XAR3
         0001d3 BF   
    2851 0001d4 AA75          MOV *AR3(short(#2)), AR2 ; |486| 
    2852 0001d6 12AC          CMPU AR2 != AR1, TC1 ; |486| 
         0001d8 94   
    2853 0001d9 6D64          BCC $C$L73,TC1 ; |486| 
         0001db FF70 
    2854                                                      ; branchcc occurs ; |486| 
    2855 0001dd       $C$DW$L$_compact_beam_cells$23$E:
    2856 0001dd       $C$L79:    
    2857 0001dd       $C$DW$L$_compact_beam_cells$24$B:
    2858                      .dwpsn  file "C:/Users/a0221074/Desktop/C5000/IBM_Watson_TIdesign_workarea/CSL_bitbucket/c55_csl/c55x
    2859 0001dd ED04          MOV dbl(*SP(#2)), XAR3
         0001df BF   
    2860 0001e0 A00E          MOV *SP(#7), AC0 ; |503| 
    2861 0001e2 5000          SFTL AC0, #1 ; |503| 
    2862 0001e4 900A          MOV AC0, XAR2
    2863              
    2864                      AADD XAR2, XAR3 ; |503| 
    2865 0001e6 8A10  ||      MOV *SP(#8), AR1 ; |503| 
         0001e8 B918 
         0001ea A1   
    2866              
    2867 0001eb C973          MOV AR1, *AR3(short(#1)) ; |503| 
    2868                      .dwpsn  file "C:/Users/a0221074/Desktop/C5000/IBM_Watson_TIdesign_workarea/CSL_bitbucket/c55_csl/c55x
    2869 0001ed F716          ADD #1, *SP(#11) ; |505| 
         0001ef 0001 
    2870                      .dwpsn  file "C:/Users/a0221074/Desktop/C5000/IBM_Watson_TIdesign_workarea/CSL_bitbucket/c55_csl/c55x
    2871 0001f1 4A09          B $C$L81  ; |507| 
    2872                                                      ; branch occurs ; |507| 
    2873 0001f3       $C$DW$L$_compact_beam_cells$24$E:
    2874 0001f3       $C$L80:    
    2875 0001f3       $C$DW$L$_compact_beam_cells$25$B:
    2876                      .dwpsn  file "C:/Users/a0221074/Desktop/C5000/IBM_Watson_TIdesign_workarea/CSL_bitbucket/c55_csl/c55x
    2877 0001f3 ED08          MOV dbl(*SP(#4)), XAR3
         0001f5 BF   
    2878 0001f6 A90E          MOV *SP(#7), AR1 ; |513| 
    2879 0001f8 C96D          MOV AR1, *AR3(#1255) ; |513| 
         0001fa 04E7 
    2880 0001fc       $C$DW$L$_compact_beam_cells$25$E:
    2881 0001fc       $C$L81:    
    2882 0001fc       $C$DW$L$_compact_beam_cells$26$B:
    2883                      .dwpsn  file "C:/Users/a0221074/Desktop/C5000/IBM_Watson_TIdesign_workarea/CSL_bitbucket/c55_csl/c55x
    2884 0001fc F70E          SUB #1, *SP(#7) ; |459| 
         0001fe FFFF 
    2885                      .dwpsn  file "C:/Users/a0221074/Desktop/C5000/IBM_Watson_TIdesign_workarea/CSL_bitbucket/c55_csl/c55x
    2886 000200 A90E          MOV *SP(#7), AR1 ; |459| 
    2887 000202 6D59          BCC $C$L68,AR1 >= #0 ; |459| 
         000204 FE92 
    2888                                                      ; branchcc occurs ; |459| 
    2889 000206       $C$DW$L$_compact_beam_cells$26$E:
    2890 000206       $C$L82:    
    2891                      .dwpsn  file "C:/Users/a0221074/Desktop/C5000/IBM_Watson_TIdesign_workarea/CSL_bitbucket/c55_csl/c55x
    2892 000206 ED08          MOV dbl(*SP(#4)), XAR3
         000208 BF   
TMS320C55x Assembler PC v4.4.1 Wed Sep 13 16:34:03 2017

Tools Copyright (c) 1996-2012 Texas Instruments Incorporated
C:\Users\a0221074\AppData\Local\Temp\0125610                         PAGE   66

    2893 000209 A916          MOV *SP(#11), AR1 ; |518| 
    2894 00020b C96D          MOV AR1, *AR3(#271) ; |518| 
         00020d 010F 
    2895                      .dwpsn  file "C:/Users/a0221074/Desktop/C5000/IBM_Watson_TIdesign_workarea/CSL_bitbucket/c55_csl/c55x
    2896 00020f 4E13          AADD #19, SP
    2897                      .dwcfi  cfa_offset, 1
    2898              $C$DW$211       .dwtag  DW_TAG_TI_branch
    2899                      .dwattr $C$DW$211, DW_AT_low_pc(0x00)
    2900                      .dwattr $C$DW$211, DW_AT_TI_return
    2901 000211 4804          RET
    2902                                                      ; return occurs
    2903              
    2904              $C$DW$212       .dwtag  DW_TAG_TI_loop
    2905                      .dwattr $C$DW$212, DW_AT_name("C:\\Users\\a0221074\\AppData\\Local\\Temp\\0125610:$C$L68:1:1505334831
    2906                      .dwattr $C$DW$212, DW_AT_TI_begin_file("C:/Users/a0221074/Desktop/C5000/IBM_Watson_TIdesign_workarea/
    2907                      .dwattr $C$DW$212, DW_AT_TI_begin_line(0x1cb)
    2908                      .dwattr $C$DW$212, DW_AT_TI_end_line(0x203)
    2909              $C$DW$213       .dwtag  DW_TAG_TI_loop_range
    2910                      .dwattr $C$DW$213, DW_AT_low_pc($C$DW$L$_compact_beam_cells$7$B)
    2911                      .dwattr $C$DW$213, DW_AT_high_pc($C$DW$L$_compact_beam_cells$7$E)
    2912              $C$DW$214       .dwtag  DW_TAG_TI_loop_range
    2913                      .dwattr $C$DW$214, DW_AT_low_pc($C$DW$L$_compact_beam_cells$14$B)
    2914                      .dwattr $C$DW$214, DW_AT_high_pc($C$DW$L$_compact_beam_cells$14$E)
    2915              $C$DW$215       .dwtag  DW_TAG_TI_loop_range
    2916                      .dwattr $C$DW$215, DW_AT_low_pc($C$DW$L$_compact_beam_cells$20$B)
    2917                      .dwattr $C$DW$215, DW_AT_high_pc($C$DW$L$_compact_beam_cells$20$E)
    2918              $C$DW$216       .dwtag  DW_TAG_TI_loop_range
    2919                      .dwattr $C$DW$216, DW_AT_low_pc($C$DW$L$_compact_beam_cells$8$B)
    2920                      .dwattr $C$DW$216, DW_AT_high_pc($C$DW$L$_compact_beam_cells$8$E)
    2921              $C$DW$217       .dwtag  DW_TAG_TI_loop_range
    2922                      .dwattr $C$DW$217, DW_AT_low_pc($C$DW$L$_compact_beam_cells$12$B)
    2923                      .dwattr $C$DW$217, DW_AT_high_pc($C$DW$L$_compact_beam_cells$12$E)
    2924              $C$DW$218       .dwtag  DW_TAG_TI_loop_range
    2925                      .dwattr $C$DW$218, DW_AT_low_pc($C$DW$L$_compact_beam_cells$13$B)
    2926                      .dwattr $C$DW$218, DW_AT_high_pc($C$DW$L$_compact_beam_cells$13$E)
    2927              $C$DW$219       .dwtag  DW_TAG_TI_loop_range
    2928                      .dwattr $C$DW$219, DW_AT_low_pc($C$DW$L$_compact_beam_cells$24$B)
    2929                      .dwattr $C$DW$219, DW_AT_high_pc($C$DW$L$_compact_beam_cells$24$E)
    2930              $C$DW$220       .dwtag  DW_TAG_TI_loop_range
    2931                      .dwattr $C$DW$220, DW_AT_low_pc($C$DW$L$_compact_beam_cells$25$B)
    2932                      .dwattr $C$DW$220, DW_AT_high_pc($C$DW$L$_compact_beam_cells$25$E)
    2933              $C$DW$221       .dwtag  DW_TAG_TI_loop_range
    2934                      .dwattr $C$DW$221, DW_AT_low_pc($C$DW$L$_compact_beam_cells$26$B)
    2935                      .dwattr $C$DW$221, DW_AT_high_pc($C$DW$L$_compact_beam_cells$26$E)
    2936              
    2937              $C$DW$222       .dwtag  DW_TAG_TI_loop
    2938                      .dwattr $C$DW$222, DW_AT_name("C:\\Users\\a0221074\\AppData\\Local\\Temp\\0125610:$C$L78:2:1505334831
    2939                      .dwattr $C$DW$222, DW_AT_TI_begin_file("C:/Users/a0221074/Desktop/C5000/IBM_Watson_TIdesign_workarea/
    2940                      .dwattr $C$DW$222, DW_AT_TI_begin_line(0x1e6)
    2941                      .dwattr $C$DW$222, DW_AT_TI_end_line(0x1f3)
    2942              $C$DW$223       .dwtag  DW_TAG_TI_loop_range
    2943                      .dwattr $C$DW$223, DW_AT_low_pc($C$DW$L$_compact_beam_cells$23$B)
    2944                      .dwattr $C$DW$223, DW_AT_high_pc($C$DW$L$_compact_beam_cells$23$E)
    2945              $C$DW$224       .dwtag  DW_TAG_TI_loop_range
    2946                      .dwattr $C$DW$224, DW_AT_low_pc($C$DW$L$_compact_beam_cells$15$B)
TMS320C55x Assembler PC v4.4.1 Wed Sep 13 16:34:03 2017

Tools Copyright (c) 1996-2012 Texas Instruments Incorporated
C:\Users\a0221074\AppData\Local\Temp\0125610                         PAGE   67

    2947                      .dwattr $C$DW$224, DW_AT_high_pc($C$DW$L$_compact_beam_cells$15$E)
    2948              $C$DW$225       .dwtag  DW_TAG_TI_loop_range
    2949                      .dwattr $C$DW$225, DW_AT_low_pc($C$DW$L$_compact_beam_cells$19$B)
    2950                      .dwattr $C$DW$225, DW_AT_high_pc($C$DW$L$_compact_beam_cells$19$E)
    2951              $C$DW$226       .dwtag  DW_TAG_TI_loop_range
    2952                      .dwattr $C$DW$226, DW_AT_low_pc($C$DW$L$_compact_beam_cells$22$B)
    2953                      .dwattr $C$DW$226, DW_AT_high_pc($C$DW$L$_compact_beam_cells$22$E)
    2954              
    2955              $C$DW$227       .dwtag  DW_TAG_TI_loop
    2956                      .dwattr $C$DW$227, DW_AT_name("C:\\Users\\a0221074\\AppData\\Local\\Temp\\0125610:$C$L75:3:1505334831
    2957                      .dwattr $C$DW$227, DW_AT_TI_begin_file("C:/Users/a0221074/Desktop/C5000/IBM_Watson_TIdesign_workarea/
    2958                      .dwattr $C$DW$227, DW_AT_TI_begin_line(0x1e9)
    2959                      .dwattr $C$DW$227, DW_AT_TI_end_line(0x1e9)
    2960              $C$DW$228       .dwtag  DW_TAG_TI_loop_range
    2961                      .dwattr $C$DW$228, DW_AT_low_pc($C$DW$L$_compact_beam_cells$17$B)
    2962                      .dwattr $C$DW$228, DW_AT_high_pc($C$DW$L$_compact_beam_cells$17$E)
    2963              $C$DW$229       .dwtag  DW_TAG_TI_loop_range
    2964                      .dwattr $C$DW$229, DW_AT_low_pc($C$DW$L$_compact_beam_cells$18$B)
    2965                      .dwattr $C$DW$229, DW_AT_high_pc($C$DW$L$_compact_beam_cells$18$E)
    2966              $C$DW$230       .dwtag  DW_TAG_TI_loop_range
    2967                      .dwattr $C$DW$230, DW_AT_low_pc($C$DW$L$_compact_beam_cells$16$B)
    2968                      .dwattr $C$DW$230, DW_AT_high_pc($C$DW$L$_compact_beam_cells$16$E)
    2969                      .dwendtag $C$DW$227
    2970              
    2971                      .dwendtag $C$DW$222
    2972              
    2973              
    2974              $C$DW$231       .dwtag  DW_TAG_TI_loop
    2975                      .dwattr $C$DW$231, DW_AT_name("C:\\Users\\a0221074\\AppData\\Local\\Temp\\0125610:$C$L70:2:1505334831
    2976                      .dwattr $C$DW$231, DW_AT_TI_begin_file("C:/Users/a0221074/Desktop/C5000/IBM_Watson_TIdesign_workarea/
    2977                      .dwattr $C$DW$231, DW_AT_TI_begin_line(0x1d6)
    2978                      .dwattr $C$DW$231, DW_AT_TI_end_line(0x1d8)
    2979              $C$DW$232       .dwtag  DW_TAG_TI_loop_range
    2980                      .dwattr $C$DW$232, DW_AT_low_pc($C$DW$L$_compact_beam_cells$11$B)
    2981                      .dwattr $C$DW$232, DW_AT_high_pc($C$DW$L$_compact_beam_cells$11$E)
    2982              $C$DW$233       .dwtag  DW_TAG_TI_loop_range
    2983                      .dwattr $C$DW$233, DW_AT_low_pc($C$DW$L$_compact_beam_cells$9$B)
    2984                      .dwattr $C$DW$233, DW_AT_high_pc($C$DW$L$_compact_beam_cells$9$E)
    2985              $C$DW$234       .dwtag  DW_TAG_TI_loop_range
    2986                      .dwattr $C$DW$234, DW_AT_low_pc($C$DW$L$_compact_beam_cells$10$B)
    2987                      .dwattr $C$DW$234, DW_AT_high_pc($C$DW$L$_compact_beam_cells$10$E)
    2988                      .dwendtag $C$DW$231
    2989              
    2990                      .dwendtag $C$DW$212
    2991              
    2992              
    2993              $C$DW$235       .dwtag  DW_TAG_TI_loop
    2994                      .dwattr $C$DW$235, DW_AT_name("C:\\Users\\a0221074\\AppData\\Local\\Temp\\0125610:$C$L64:1:1505334831
    2995                      .dwattr $C$DW$235, DW_AT_TI_begin_file("C:/Users/a0221074/Desktop/C5000/IBM_Watson_TIdesign_workarea/
    2996                      .dwattr $C$DW$235, DW_AT_TI_begin_line(0x1ac)
    2997                      .dwattr $C$DW$235, DW_AT_TI_end_line(0x1bb)
    2998              $C$DW$236       .dwtag  DW_TAG_TI_loop_range
    2999                      .dwattr $C$DW$236, DW_AT_low_pc($C$DW$L$_compact_beam_cells$2$B)
    3000                      .dwattr $C$DW$236, DW_AT_high_pc($C$DW$L$_compact_beam_cells$2$E)
    3001              $C$DW$237       .dwtag  DW_TAG_TI_loop_range
TMS320C55x Assembler PC v4.4.1 Wed Sep 13 16:34:03 2017

Tools Copyright (c) 1996-2012 Texas Instruments Incorporated
C:\Users\a0221074\AppData\Local\Temp\0125610                         PAGE   68

    3002                      .dwattr $C$DW$237, DW_AT_low_pc($C$DW$L$_compact_beam_cells$3$B)
    3003                      .dwattr $C$DW$237, DW_AT_high_pc($C$DW$L$_compact_beam_cells$3$E)
    3004              $C$DW$238       .dwtag  DW_TAG_TI_loop_range
    3005                      .dwattr $C$DW$238, DW_AT_low_pc($C$DW$L$_compact_beam_cells$4$B)
    3006                      .dwattr $C$DW$238, DW_AT_high_pc($C$DW$L$_compact_beam_cells$4$E)
    3007              $C$DW$239       .dwtag  DW_TAG_TI_loop_range
    3008                      .dwattr $C$DW$239, DW_AT_low_pc($C$DW$L$_compact_beam_cells$5$B)
    3009                      .dwattr $C$DW$239, DW_AT_high_pc($C$DW$L$_compact_beam_cells$5$E)
    3010                      .dwendtag $C$DW$235
    3011              
    3012                      .dwattr $C$DW$194, DW_AT_TI_end_file("C:/Users/a0221074/Desktop/C5000/IBM_Watson_TIdesign_workarea/CS
    3013                      .dwattr $C$DW$194, DW_AT_TI_end_line(0x207)
    3014                      .dwattr $C$DW$194, DW_AT_TI_end_column(0x01)
    3015                      .dwendentry
    3016                      .dwendtag $C$DW$194
    3017              
    3018 000000               .sect   ".text:_init_beam_list"
    3019                      .clink
    3020              
    3021              $C$DW$240       .dwtag  DW_TAG_subprogram, DW_AT_name("init_beam_list")
    3022                      .dwattr $C$DW$240, DW_AT_low_pc(_init_beam_list)
    3023                      .dwattr $C$DW$240, DW_AT_high_pc(0x00)
    3024                      .dwattr $C$DW$240, DW_AT_TI_symbol_name("_init_beam_list")
    3025                      .dwattr $C$DW$240, DW_AT_TI_begin_file("C:/Users/a0221074/Desktop/C5000/IBM_Watson_TIdesign_workarea/
    3026                      .dwattr $C$DW$240, DW_AT_TI_begin_line(0x20e)
    3027                      .dwattr $C$DW$240, DW_AT_TI_begin_column(0x01)
    3028                      .dwattr $C$DW$240, DW_AT_TI_max_frame_size(0x04)
    3029                      .dwpsn  file "C:/Users/a0221074/Desktop/C5000/IBM_Watson_TIdesign_workarea/CSL_bitbucket/c55_csl/c55x
    3030              
    3031                      .dwfde $C$DW$CIE, _init_beam_list
    3032              $C$DW$241       .dwtag  DW_TAG_formal_parameter, DW_AT_name("gv")
    3033                      .dwattr $C$DW$241, DW_AT_TI_symbol_name("_gv")
    3034                      .dwattr $C$DW$241, DW_AT_type(*$C$DW$T$100)
    3035                      .dwattr $C$DW$241, DW_AT_location[DW_OP_reg17]
    3036              ;*******************************************************************************
    3037              ;* FUNCTION NAME: init_beam_list                                               *
    3038              ;*                                                                             *
    3039              ;*   Function Uses Regs : AR0,XAR0,AR3,XAR3,SP,M40,SATA,SATD,RDM,FRCT,SMUL     *
    3040              ;*   Stack Frame        : Compact (No Frame Pointer, w/ debug)                 *
    3041              ;*   Total Frame Size   : 4 words                                              *
    3042              ;*                        (2 return address/alignment)                         *
    3043              ;*                        (2 local values)                                     *
    3044              ;*   Min System Stack   : 1 word                                               *
    3045              ;*******************************************************************************
    3046 000000       _init_beam_list:
    3047                      .dwcfi  cfa_offset, 1
    3048                      .dwcfi  save_reg_to_mem, 91, -1
    3049 000000 4EFD          AADD #-3, SP
    3050                      .dwcfi  cfa_offset, 4
    3051              $C$DW$242       .dwtag  DW_TAG_variable, DW_AT_name("gv")
    3052                      .dwattr $C$DW$242, DW_AT_TI_symbol_name("_gv")
    3053                      .dwattr $C$DW$242, DW_AT_type(*$C$DW$T$100)
    3054                      .dwattr $C$DW$242, DW_AT_location[DW_OP_bregx 0x24 0]
    3055 000002 EB00          MOV XAR0, dbl(*SP(#0))
         000004 85   
TMS320C55x Assembler PC v4.4.1 Wed Sep 13 16:34:03 2017

Tools Copyright (c) 1996-2012 Texas Instruments Incorporated
C:\Users\a0221074\AppData\Local\Temp\0125610                         PAGE   69

    3056                      .dwpsn  file "C:/Users/a0221074/Desktop/C5000/IBM_Watson_TIdesign_workarea/CSL_bitbucket/c55_csl/c55x
    3057 000005 ED00          MOV dbl(*SP(#0)), XAR3
         000007 BF   
    3058 000008 E66D          MOV #0, *AR3(#1253) ; |528| 
         00000a 0004 
         00000c E5   
    3059                      .dwpsn  file "C:/Users/a0221074/Desktop/C5000/IBM_Watson_TIdesign_workarea/CSL_bitbucket/c55_csl/c55x
    3060 00000d ED00          MOV dbl(*SP(#0)), XAR3
         00000f BF   
    3061 000010 E66D          MOV #0, *AR3(#1255) ; |529| 
         000012 0004 
         000014 E7   
    3062                      .dwpsn  file "C:/Users/a0221074/Desktop/C5000/IBM_Watson_TIdesign_workarea/CSL_bitbucket/c55_csl/c55x
    3063 000015 4E03          AADD #3, SP
    3064                      .dwcfi  cfa_offset, 1
    3065              $C$DW$243       .dwtag  DW_TAG_TI_branch
    3066                      .dwattr $C$DW$243, DW_AT_low_pc(0x00)
    3067                      .dwattr $C$DW$243, DW_AT_TI_return
    3068 000017 4804          RET
    3069                                                      ; return occurs
    3070                      .dwattr $C$DW$240, DW_AT_TI_end_file("C:/Users/a0221074/Desktop/C5000/IBM_Watson_TIdesign_workarea/CS
    3071                      .dwattr $C$DW$240, DW_AT_TI_end_line(0x217)
    3072                      .dwattr $C$DW$240, DW_AT_TI_end_column(0x01)
    3073                      .dwendentry
    3074                      .dwendtag $C$DW$240
    3075              
    3076 000000               .sect   ".text:_next_beam_cell"
    3077                      .clink
    3078              
    3079              $C$DW$244       .dwtag  DW_TAG_subprogram, DW_AT_name("next_beam_cell")
    3080                      .dwattr $C$DW$244, DW_AT_low_pc(_next_beam_cell)
    3081                      .dwattr $C$DW$244, DW_AT_high_pc(0x00)
    3082                      .dwattr $C$DW$244, DW_AT_TI_symbol_name("_next_beam_cell")
    3083                      .dwattr $C$DW$244, DW_AT_type(*$C$DW$T$9)
    3084                      .dwattr $C$DW$244, DW_AT_TI_begin_file("C:/Users/a0221074/Desktop/C5000/IBM_Watson_TIdesign_workarea/
    3085                      .dwattr $C$DW$244, DW_AT_TI_begin_line(0x21e)
    3086                      .dwattr $C$DW$244, DW_AT_TI_begin_column(0x17)
    3087                      .dwattr $C$DW$244, DW_AT_TI_max_frame_size(0x0c)
    3088                      .dwpsn  file "C:/Users/a0221074/Desktop/C5000/IBM_Watson_TIdesign_workarea/CSL_bitbucket/c55_csl/c55x
    3089              
    3090                      .dwfde $C$DW$CIE, _next_beam_cell
    3091              $C$DW$245       .dwtag  DW_TAG_formal_parameter, DW_AT_name("gv")
    3092                      .dwattr $C$DW$245, DW_AT_TI_symbol_name("_gv")
    3093                      .dwattr $C$DW$245, DW_AT_type(*$C$DW$T$100)
    3094                      .dwattr $C$DW$245, DW_AT_location[DW_OP_reg17]
    3095              ;*******************************************************************************
    3096              ;* FUNCTION NAME: next_beam_cell                                               *
    3097              ;*                                                                             *
    3098              ;*   Function Uses Regs : AC0,AC0,AC1,AC1,T0,AR0,XAR0,AR1,AR2,XAR2,AR3,XAR3,SP,*
    3099              ;*                        CARRY,TC1,M40,SATA,SATD,RDM,FRCT,SMUL                *
    3100              ;*   Stack Frame        : Compact (No Frame Pointer, w/ debug)                 *
    3101              ;*   Total Frame Size   : 12 words                                             *
    3102              ;*                        (2 return address/alignment)                         *
    3103              ;*                        (10 local values)                                    *
    3104              ;*   Min System Stack   : 1 word                                               *
TMS320C55x Assembler PC v4.4.1 Wed Sep 13 16:34:03 2017

Tools Copyright (c) 1996-2012 Texas Instruments Incorporated
C:\Users\a0221074\AppData\Local\Temp\0125610                         PAGE   70

    3105              ;*******************************************************************************
    3106 000000       _next_beam_cell:
    3107                      .dwcfi  cfa_offset, 1
