TMS320C55x Assembler PC v4.4.1 Wed Sep 13 16:34:06 2017

Tools Copyright (c) 1996-2012 Texas Instruments Incorporated
C:\Users\a0221074\AppData\Local\Temp\0994410                         PAGE    1

    3524              ; Temporary Registers Used: None
       1              ;*******************************************************************************
       2              ;* TMS320C55x C/C++ Codegen                                          PC v4.4.1 *
       3              ;* Date/Time created: Wed Sep 13 16:34:05 2017                                 *
       4              ;*******************************************************************************
       5                      .compiler_opts --hll_source=on --mem_model:code=flat --mem_model:data=huge --object_format=coff --sil
       6                      .mmregs
       7                      .cpl_on
       8                      .arms_on
       9                      .c54cm_off
      10                      .asg AR6, FP
      11                      .asg XAR6, XFP
      12                      .asg DPH, MDP
      13                      .model call=c55_std
      14                      .model mem=huge
      15                      .noremark 5002  ; code respects overwrite rules
      16              ;*******************************************************************************
      17              ;* GLOBAL FILE PARAMETERS                                                      *
      18              ;*                                                                             *
      19              ;*   Architecture       : TMS320C55x                                           *
      20              ;*   Optimizing for     : Speed                                                *
      21              ;*   Memory             : Huge Model (23-Bit Data Pointers)                    *
      22              ;*   Calls              : Normal Library ASM calls                             *
      23              ;*   Debug Info         : Standard TI Debug Information                        *
      24              ;*******************************************************************************
      25              
      26              $C$DW$CU        .dwtag  DW_TAG_compile_unit
      27                      .dwattr $C$DW$CU, DW_AT_name("C:/Users/a0221074/Desktop/C5000/IBM_Watson_TIdesign_workarea/CSL_bitbuc
      28                      .dwattr $C$DW$CU, DW_AT_producer("TMS320C55x C/C++ Codegen PC v4.4.1 Copyright (c) 1996-2012 Texas In
      29                      .dwattr $C$DW$CU, DW_AT_TI_version(0x01)
      30                      .dwattr $C$DW$CU, DW_AT_comp_dir("C:\Users\a0221074\Desktop\C5000\IBM_Watson_TIdesign_workarea\CSL_bi
      31              
      32              $C$DW$1 .dwtag  DW_TAG_subprogram, DW_AT_name("MEM_alloc")
      33                      .dwattr $C$DW$1, DW_AT_TI_symbol_name("_MEM_alloc")
      34                      .dwattr $C$DW$1, DW_AT_type(*$C$DW$T$106)
      35                      .dwattr $C$DW$1, DW_AT_declaration
      36                      .dwattr $C$DW$1, DW_AT_external
      37              $C$DW$2 .dwtag  DW_TAG_formal_parameter
      38                      .dwattr $C$DW$2, DW_AT_type(*$C$DW$T$107)
      39              $C$DW$3 .dwtag  DW_TAG_formal_parameter
      40                      .dwattr $C$DW$3, DW_AT_type(*$C$DW$T$108)
      41              $C$DW$4 .dwtag  DW_TAG_formal_parameter
      42                      .dwattr $C$DW$4, DW_AT_type(*$C$DW$T$108)
      43                      .dwendtag $C$DW$1
      44              
      45              
      46              $C$DW$5 .dwtag  DW_TAG_subprogram, DW_AT_name("set_search_space")
      47                      .dwattr $C$DW$5, DW_AT_TI_symbol_name("_set_search_space")
      48                      .dwattr $C$DW$5, DW_AT_declaration
      49                      .dwattr $C$DW$5, DW_AT_external
      50              $C$DW$6 .dwtag  DW_TAG_formal_parameter
      51                      .dwattr $C$DW$6, DW_AT_type(*$C$DW$T$21)
      52              $C$DW$7 .dwtag  DW_TAG_formal_parameter
      53                      .dwattr $C$DW$7, DW_AT_type(*$C$DW$T$20)
      54              $C$DW$8 .dwtag  DW_TAG_formal_parameter
TMS320C55x Assembler PC v4.4.1 Wed Sep 13 16:34:06 2017

Tools Copyright (c) 1996-2012 Texas Instruments Incorporated
C:\Users\a0221074\AppData\Local\Temp\0994410                         PAGE    2

      55                      .dwattr $C$DW$8, DW_AT_type(*$C$DW$T$20)
      56              $C$DW$9 .dwtag  DW_TAG_formal_parameter
      57                      .dwattr $C$DW$9, DW_AT_type(*$C$DW$T$20)
      58              $C$DW$10        .dwtag  DW_TAG_formal_parameter
      59                      .dwattr $C$DW$10, DW_AT_type(*$C$DW$T$20)
      60              $C$DW$11        .dwtag  DW_TAG_formal_parameter
      61                      .dwattr $C$DW$11, DW_AT_type(*$C$DW$T$94)
      62                      .dwendtag $C$DW$5
      63              
      64              
      65              $C$DW$12        .dwtag  DW_TAG_subprogram, DW_AT_name("dim_p2_init")
      66                      .dwattr $C$DW$12, DW_AT_TI_symbol_name("_dim_p2_init")
      67                      .dwattr $C$DW$12, DW_AT_declaration
      68                      .dwattr $C$DW$12, DW_AT_external
      69              $C$DW$13        .dwtag  DW_TAG_formal_parameter
      70                      .dwattr $C$DW$13, DW_AT_type(*$C$DW$T$53)
      71              $C$DW$14        .dwtag  DW_TAG_formal_parameter
      72                      .dwattr $C$DW$14, DW_AT_type(*$C$DW$T$94)
      73                      .dwendtag $C$DW$12
      74              
      75              
      76              $C$DW$15        .dwtag  DW_TAG_subprogram, DW_AT_name("set_default_uttdet")
      77                      .dwattr $C$DW$15, DW_AT_TI_symbol_name("_set_default_uttdet")
      78                      .dwattr $C$DW$15, DW_AT_declaration
      79                      .dwattr $C$DW$15, DW_AT_external
      80              $C$DW$16        .dwtag  DW_TAG_formal_parameter
      81                      .dwattr $C$DW$16, DW_AT_type(*$C$DW$T$94)
      82                      .dwendtag $C$DW$15
      83              
      84              
      85              $C$DW$17        .dwtag  DW_TAG_subprogram, DW_AT_name("free_models")
      86                      .dwattr $C$DW$17, DW_AT_TI_symbol_name("_free_models")
      87                      .dwattr $C$DW$17, DW_AT_declaration
      88                      .dwattr $C$DW$17, DW_AT_external
      89              $C$DW$18        .dwtag  DW_TAG_formal_parameter
      90                      .dwattr $C$DW$18, DW_AT_type(*$C$DW$T$94)
      91                      .dwendtag $C$DW$17
      92              
      93              
      94              $C$DW$19        .dwtag  DW_TAG_subprogram, DW_AT_name("load_models")
      95                      .dwattr $C$DW$19, DW_AT_TI_symbol_name("_load_models")
      96                      .dwattr $C$DW$19, DW_AT_type(*$C$DW$T$92)
      97                      .dwattr $C$DW$19, DW_AT_declaration
      98                      .dwattr $C$DW$19, DW_AT_external
      99              $C$DW$20        .dwtag  DW_TAG_formal_parameter
     100                      .dwattr $C$DW$20, DW_AT_type(*$C$DW$T$74)
     101              $C$DW$21        .dwtag  DW_TAG_formal_parameter
     102                      .dwattr $C$DW$21, DW_AT_type(*$C$DW$T$94)
     103              $C$DW$22        .dwtag  DW_TAG_formal_parameter
     104                      .dwattr $C$DW$22, DW_AT_type(*$C$DW$T$73)
     105              $C$DW$23        .dwtag  DW_TAG_formal_parameter
     106                      .dwattr $C$DW$23, DW_AT_type(*$C$DW$T$74)
     107              $C$DW$24        .dwtag  DW_TAG_formal_parameter
     108                      .dwattr $C$DW$24, DW_AT_type(*$C$DW$T$74)
     109                      .dwendtag $C$DW$19
TMS320C55x Assembler PC v4.4.1 Wed Sep 13 16:34:06 2017

Tools Copyright (c) 1996-2012 Texas Instruments Incorporated
C:\Users\a0221074\AppData\Local\Temp\0994410                         PAGE    3

     110              
     111              
     112              $C$DW$25        .dwtag  DW_TAG_subprogram, DW_AT_name("JAC_set_default_params")
     113                      .dwattr $C$DW$25, DW_AT_TI_symbol_name("_JAC_set_default_params")
     114                      .dwattr $C$DW$25, DW_AT_type(*$C$DW$T$103)
     115                      .dwattr $C$DW$25, DW_AT_declaration
     116                      .dwattr $C$DW$25, DW_AT_external
     117              $C$DW$26        .dwtag  DW_TAG_formal_parameter
     118                      .dwattr $C$DW$26, DW_AT_type(*$C$DW$T$94)
     119                      .dwendtag $C$DW$25
     120              
     121              
     122              $C$DW$27        .dwtag  DW_TAG_subprogram, DW_AT_name("cm_open")
     123                      .dwattr $C$DW$27, DW_AT_TI_symbol_name("_cm_open")
     124                      .dwattr $C$DW$27, DW_AT_type(*$C$DW$T$92)
     125                      .dwattr $C$DW$27, DW_AT_declaration
     126                      .dwattr $C$DW$27, DW_AT_external
     127              $C$DW$28        .dwtag  DW_TAG_formal_parameter
     128                      .dwattr $C$DW$28, DW_AT_type(*$C$DW$T$89)
     129              $C$DW$29        .dwtag  DW_TAG_formal_parameter
     130                      .dwattr $C$DW$29, DW_AT_type(*$C$DW$T$94)
     131                      .dwendtag $C$DW$27
     132              
     133              
     134              $C$DW$30        .dwtag  DW_TAG_subprogram, DW_AT_name("cm_set_param")
     135                      .dwattr $C$DW$30, DW_AT_TI_symbol_name("_cm_set_param")
     136                      .dwattr $C$DW$30, DW_AT_declaration
     137                      .dwattr $C$DW$30, DW_AT_external
     138              $C$DW$31        .dwtag  DW_TAG_formal_parameter
     139                      .dwattr $C$DW$31, DW_AT_type(*$C$DW$T$8)
     140              $C$DW$32        .dwtag  DW_TAG_formal_parameter
     141                      .dwattr $C$DW$32, DW_AT_type(*$C$DW$T$8)
     142              $C$DW$33        .dwtag  DW_TAG_formal_parameter
     143                      .dwattr $C$DW$33, DW_AT_type(*$C$DW$T$94)
     144                      .dwendtag $C$DW$30
     145              
     146              
     147              $C$DW$34        .dwtag  DW_TAG_subprogram, DW_AT_name("cm_close")
     148                      .dwattr $C$DW$34, DW_AT_TI_symbol_name("_cm_close")
     149                      .dwattr $C$DW$34, DW_AT_declaration
     150                      .dwattr $C$DW$34, DW_AT_external
     151              $C$DW$35        .dwtag  DW_TAG_formal_parameter
     152                      .dwattr $C$DW$35, DW_AT_type(*$C$DW$T$94)
     153                      .dwendtag $C$DW$34
     154              
     155              $C$DW$36        .dwtag  DW_TAG_variable, DW_AT_name("SEG0")
     156                      .dwattr $C$DW$36, DW_AT_TI_symbol_name("_SEG0")
     157                      .dwattr $C$DW$36, DW_AT_type(*$C$DW$T$107)
     158                      .dwattr $C$DW$36, DW_AT_declaration
     159                      .dwattr $C$DW$36, DW_AT_external
     160                      .global _K_mean
     161 000000               .sect   ".const:_K_mean"
     162                      .clink
     163                      .align  1
     164 000000       _K_mean:
TMS320C55x Assembler PC v4.4.1 Wed Sep 13 16:34:06 2017

Tools Copyright (c) 1996-2012 Texas Instruments Incorporated
C:\Users\a0221074\AppData\Local\Temp\0994410                         PAGE    4

     165 000000 3745          .field  14149,16                        ; _K_mean[0] @ 0
     166 000001 ED57          .field  -4777,16                        ; _K_mean[1] @ 16
     167 000002 FD16          .field  -746,16                 ; _K_mean[2] @ 32
     168 000003 011F          .field  287,16                  ; _K_mean[3] @ 48
     169 000004 F822          .field  -2014,16                        ; _K_mean[4] @ 64
     170 000005 FD13          .field  -749,16                 ; _K_mean[5] @ 80
     171 000006 FCFB          .field  -773,16                 ; _K_mean[6] @ 96
     172 000007 FF55          .field  -171,16                 ; _K_mean[7] @ 112
     173 000008 0000          .field  0,16                    ; _K_mean[8] @ 128
     174 000009 0000          .field  0,16                    ; _K_mean[9] @ 144
     175 00000a 0000          .field  0,16                    ; _K_mean[10] @ 160
     176 00000b 0000          .field  0,16                    ; _K_mean[11] @ 176
     177 00000c 0000          .field  0,16                    ; _K_mean[12] @ 192
     178 00000d 0000          .field  0,16                    ; _K_mean[13] @ 208
     179 00000e 0000          .field  0,16                    ; _K_mean[14] @ 224
     180 00000f 0000          .field  0,16                    ; _K_mean[15] @ 240
     181              
     182              $C$DW$37        .dwtag  DW_TAG_variable, DW_AT_name("K_mean")
     183                      .dwattr $C$DW$37, DW_AT_TI_symbol_name("_K_mean")
     184                      .dwattr $C$DW$37, DW_AT_location[DW_OP_addr _K_mean]
     185                      .dwattr $C$DW$37, DW_AT_type(*$C$DW$T$122)
     186                      .dwattr $C$DW$37, DW_AT_external
     187              ;       C:\ti\ccsv7\tools\compiler\c5500_4.4.1\bin\acp55.exe -@C:\\Users\\a0221074\\AppData\\Local\\Temp\\099
     188 000000               .sect   ".text:_GetMaxFrames"
     189                      .clink
     190                      .global _GetMaxFrames
     191              
     192              $C$DW$38        .dwtag  DW_TAG_subprogram, DW_AT_name("GetMaxFrames")
     193                      .dwattr $C$DW$38, DW_AT_low_pc(_GetMaxFrames)
     194                      .dwattr $C$DW$38, DW_AT_high_pc(0x00)
     195                      .dwattr $C$DW$38, DW_AT_TI_symbol_name("_GetMaxFrames")
     196                      .dwattr $C$DW$38, DW_AT_external
     197                      .dwattr $C$DW$38, DW_AT_type(*$C$DW$T$9)
     198                      .dwattr $C$DW$38, DW_AT_TI_begin_file("C:/Users/a0221074/Desktop/C5000/IBM_Watson_TIdesign_workarea/C
     199                      .dwattr $C$DW$38, DW_AT_TI_begin_line(0x77)
     200                      .dwattr $C$DW$38, DW_AT_TI_begin_column(0x10)
     201                      .dwattr $C$DW$38, DW_AT_TI_max_frame_size(0x06)
     202                      .dwpsn  file "C:/Users/a0221074/Desktop/C5000/IBM_Watson_TIdesign_workarea/CSL_bitbucket/c55_csl/c55x
     203              
     204                      .dwfde $C$DW$CIE, _GetMaxFrames
     205              $C$DW$39        .dwtag  DW_TAG_formal_parameter, DW_AT_name("gvv")
     206                      .dwattr $C$DW$39, DW_AT_TI_symbol_name("_gvv")
     207                      .dwattr $C$DW$39, DW_AT_type(*$C$DW$T$94)
     208                      .dwattr $C$DW$39, DW_AT_location[DW_OP_reg17]
     209              ;*******************************************************************************
     210              ;* FUNCTION NAME: GetMaxFrames                                                 *
     211              ;*                                                                             *
     212              ;*   Function Uses Regs : T0,AR0,XAR0,AR3,XAR3,SP,M40,SATA,SATD,RDM,FRCT,SMUL  *
     213              ;*   Stack Frame        : Compact (No Frame Pointer, w/ debug)                 *
     214              ;*   Total Frame Size   : 6 words                                              *
     215              ;*                        (2 return address/alignment)                         *
     216              ;*                        (4 local values)                                     *
     217              ;*   Min System Stack   : 1 word                                               *
     218              ;*******************************************************************************
     219 000000       _GetMaxFrames:
TMS320C55x Assembler PC v4.4.1 Wed Sep 13 16:34:06 2017

Tools Copyright (c) 1996-2012 Texas Instruments Incorporated
C:\Users\a0221074\AppData\Local\Temp\0994410                         PAGE    5

     220                      .dwcfi  cfa_offset, 1
     221                      .dwcfi  save_reg_to_mem, 91, -1
     222 000000 4EFB          AADD #-5, SP
     223                      .dwcfi  cfa_offset, 6
     224              $C$DW$40        .dwtag  DW_TAG_variable, DW_AT_name("gvv")
     225                      .dwattr $C$DW$40, DW_AT_TI_symbol_name("_gvv")
     226                      .dwattr $C$DW$40, DW_AT_type(*$C$DW$T$94)
     227                      .dwattr $C$DW$40, DW_AT_location[DW_OP_bregx 0x24 0]
     228              $C$DW$41        .dwtag  DW_TAG_variable, DW_AT_name("gv")
     229                      .dwattr $C$DW$41, DW_AT_TI_symbol_name("_gv")
     230                      .dwattr $C$DW$41, DW_AT_type(*$C$DW$T$94)
     231                      .dwattr $C$DW$41, DW_AT_location[DW_OP_bregx 0x24 2]
     232 000002 EB00          MOV XAR0, dbl(*SP(#0))
         000004 85   
     233                      .dwpsn  file "C:/Users/a0221074/Desktop/C5000/IBM_Watson_TIdesign_workarea/CSL_bitbucket/c55_csl/c55x
     234 000005 ED00          MOV dbl(*SP(#0)), XAR3
         000007 BF   
     235 000008 EB04          MOV XAR3, dbl(*SP(#2))
         00000a B5   
     236                      .dwpsn  file "C:/Users/a0221074/Desktop/C5000/IBM_Watson_TIdesign_workarea/CSL_bitbucket/c55_csl/c55x
     237 00000b A46D          MOV *AR3(#1160), T0 ; |122| 
         00000d 0488 
     238                      .dwpsn  file "C:/Users/a0221074/Desktop/C5000/IBM_Watson_TIdesign_workarea/CSL_bitbucket/c55_csl/c55x
     239 00000f 4E05          AADD #5, SP
     240                      .dwcfi  cfa_offset, 1
     241              $C$DW$42        .dwtag  DW_TAG_TI_branch
     242                      .dwattr $C$DW$42, DW_AT_low_pc(0x00)
     243                      .dwattr $C$DW$42, DW_AT_TI_return
     244 000011 4804          RET
     245                                                      ; return occurs
     246                      .dwattr $C$DW$38, DW_AT_TI_end_file("C:/Users/a0221074/Desktop/C5000/IBM_Watson_TIdesign_workarea/CSL
     247                      .dwattr $C$DW$38, DW_AT_TI_end_line(0x7b)
     248                      .dwattr $C$DW$38, DW_AT_TI_end_column(0x01)
     249                      .dwendentry
     250                      .dwendtag $C$DW$38
     251              
     252 000000               .sect   ".text:_Init_Search"
     253                      .clink
     254              
     255              $C$DW$43        .dwtag  DW_TAG_subprogram, DW_AT_name("Init_Search")
     256                      .dwattr $C$DW$43, DW_AT_low_pc(_Init_Search)
     257                      .dwattr $C$DW$43, DW_AT_high_pc(0x00)
     258                      .dwattr $C$DW$43, DW_AT_TI_symbol_name("_Init_Search")
     259                      .dwattr $C$DW$43, DW_AT_TI_begin_file("C:/Users/a0221074/Desktop/C5000/IBM_Watson_TIdesign_workarea/C
     260                      .dwattr $C$DW$43, DW_AT_TI_begin_line(0x89)
     261                      .dwattr $C$DW$43, DW_AT_TI_begin_column(0x0d)
     262                      .dwattr $C$DW$43, DW_AT_TI_max_frame_size(0x08)
     263                      .dwpsn  file "C:/Users/a0221074/Desktop/C5000/IBM_Watson_TIdesign_workarea/CSL_bitbucket/c55_csl/c55x
     264              
     265                      .dwfde $C$DW$CIE, _Init_Search
     266              $C$DW$44        .dwtag  DW_TAG_formal_parameter, DW_AT_name("gv")
     267                      .dwattr $C$DW$44, DW_AT_TI_symbol_name("_gv")
     268                      .dwattr $C$DW$44, DW_AT_type(*$C$DW$T$94)
     269                      .dwattr $C$DW$44, DW_AT_location[DW_OP_reg17]
     270              $C$DW$45        .dwtag  DW_TAG_formal_parameter, DW_AT_name("p_K_mean")
TMS320C55x Assembler PC v4.4.1 Wed Sep 13 16:34:06 2017

Tools Copyright (c) 1996-2012 Texas Instruments Incorporated
C:\Users\a0221074\AppData\Local\Temp\0994410                         PAGE    6

     271                      .dwattr $C$DW$45, DW_AT_TI_symbol_name("_p_K_mean")
     272                      .dwattr $C$DW$45, DW_AT_type(*$C$DW$T$54)
     273                      .dwattr $C$DW$45, DW_AT_location[DW_OP_reg19]
     274              ;*******************************************************************************
     275              ;* FUNCTION NAME: Init_Search                                                  *
     276              ;*                                                                             *
     277              ;*   Function Uses Regs : AC0,AC0,T0,AR0,XAR0,AR1,XAR1,AR2,XAR2,AR3,XAR3,SP,   *
     278              ;*                        CARRY,TC1,M40,SATA,SATD,RDM,FRCT,SMUL                *
     279              ;*   Stack Frame        : Compact (No Frame Pointer, w/ debug)                 *
     280              ;*   Total Frame Size   : 8 words                                              *
     281              ;*                        (1 return address/alignment)                         *
     282              ;*                        (7 local values)                                     *
     283              ;*   Min System Stack   : 1 word                                               *
     284              ;*******************************************************************************
     285 000000       _Init_Search:
     286                      .dwcfi  cfa_offset, 1
     287                      .dwcfi  save_reg_to_mem, 91, -1
     288 000000 4EF9          AADD #-7, SP
     289                      .dwcfi  cfa_offset, 8
     290              $C$DW$46        .dwtag  DW_TAG_variable, DW_AT_name("gv")
     291                      .dwattr $C$DW$46, DW_AT_TI_symbol_name("_gv")
     292                      .dwattr $C$DW$46, DW_AT_type(*$C$DW$T$94)
     293                      .dwattr $C$DW$46, DW_AT_location[DW_OP_bregx 0x24 0]
     294              $C$DW$47        .dwtag  DW_TAG_variable, DW_AT_name("p_K_mean")
     295                      .dwattr $C$DW$47, DW_AT_TI_symbol_name("_p_K_mean")
     296                      .dwattr $C$DW$47, DW_AT_type(*$C$DW$T$54)
     297                      .dwattr $C$DW$47, DW_AT_location[DW_OP_bregx 0x24 2]
     298              $C$DW$48        .dwtag  DW_TAG_variable, DW_AT_name("i")
     299                      .dwattr $C$DW$48, DW_AT_TI_symbol_name("_i")
     300                      .dwattr $C$DW$48, DW_AT_type(*$C$DW$T$20)
     301                      .dwattr $C$DW$48, DW_AT_location[DW_OP_bregx 0x24 4]
     302              $C$DW$49        .dwtag  DW_TAG_variable, DW_AT_name("bUseNBest")
     303                      .dwattr $C$DW$49, DW_AT_TI_symbol_name("_bUseNBest")
     304                      .dwattr $C$DW$49, DW_AT_type(*$C$DW$T$8)
     305                      .dwattr $C$DW$49, DW_AT_location[DW_OP_bregx 0x24 5]
     306              $C$DW$50        .dwtag  DW_TAG_variable, DW_AT_name("compType")
     307                      .dwattr $C$DW$50, DW_AT_TI_symbol_name("_compType")
     308                      .dwattr $C$DW$50, DW_AT_type(*$C$DW$T$8)
     309                      .dwattr $C$DW$50, DW_AT_location[DW_OP_bregx 0x24 6]
     310 000002 EB04          MOV XAR1, dbl(*SP(#2))
         000004 95   
     311 000005 EB00          MOV XAR0, dbl(*SP(#0))
         000007 85   
     312                      .dwpsn  file "C:/Users/a0221074/Desktop/C5000/IBM_Watson_TIdesign_workarea/CSL_bitbucket/c55_csl/c55x
     313 000008 E60A          MOV #1, *SP(#5) ; |140| 
         00000a 01   
     314                      .dwpsn  file "C:/Users/a0221074/Desktop/C5000/IBM_Watson_TIdesign_workarea/CSL_bitbucket/c55_csl/c55x
     315 00000b E60C          MOV #2, *SP(#6) ; |143| 
         00000d 02   
     316                      .dwpsn  file "C:/Users/a0221074/Desktop/C5000/IBM_Watson_TIdesign_workarea/CSL_bitbucket/c55_csl/c55x
     317 00000e ED00          MOV dbl(*SP(#0)), XAR3
         000010 BF   
     318 000011 A90C          MOV *SP(#6), AR1 ; |153| 
     319 000013 C96D          MOV AR1, *AR3(#273) ; |153| 
         000015 0111 
TMS320C55x Assembler PC v4.4.1 Wed Sep 13 16:34:06 2017

Tools Copyright (c) 1996-2012 Texas Instruments Incorporated
C:\Users\a0221074\AppData\Local\Temp\0994410                         PAGE    7

     320                      .dwpsn  file "C:/Users/a0221074/Desktop/C5000/IBM_Watson_TIdesign_workarea/CSL_bitbucket/c55_csl/c55x
     321 000017 ED00          MOV dbl(*SP(#0)), XAR3
         000019 BF   
     322 00001a ED00          MOV dbl(*SP(#0)), XAR2
         00001c AF   
     323 00001d ED6D          MOV dbl(*AR3(#1202)), XAR3
         00001f BF04 
         000021 B2   
     324 000022 EB4D          MOV XAR3, dbl(*AR2(#1212))
         000024 B504 
         000026 BC   
     325                      .dwpsn  file "C:/Users/a0221074/Desktop/C5000/IBM_Watson_TIdesign_workarea/CSL_bitbucket/c55_csl/c55x
     326 000027 ED00          MOV dbl(*SP(#0)), XAR3
         000029 BF   
     327 00002a A96D          MOV *AR3(#277), AR1 ; |158| 
         00002c 0115 
     328 00002e 5090          SFTL AR1, #1 ; |158| 
     329 000030 C96D          MOV AR1, *AR3(#278) ; |158| 
         000032 0116 
     330                      .dwpsn  file "C:/Users/a0221074/Desktop/C5000/IBM_Watson_TIdesign_workarea/CSL_bitbucket/c55_csl/c55x
     331 000034 ED00          MOV dbl(*SP(#0)), XAR3
         000036 BF   
     332 000037 ED00          MOV dbl(*SP(#0)), XAR0
         000039 8F   
     333 00003a A46D          MOV *AR3(#277), T0 ; |164| 
         00003c 0115 
     334              $C$DW$51        .dwtag  DW_TAG_TI_branch
     335                      .dwattr $C$DW$51, DW_AT_low_pc(0x00)
     336                      .dwattr $C$DW$51, DW_AT_name("_dim_p2_init")
     337                      .dwattr $C$DW$51, DW_AT_TI_call
     338 00003e 6C00          CALL #_dim_p2_init ; |164| 
         000040 0000!
     339                                                      ; call occurs [#_dim_p2_init] ; |164| 
     340                      .dwpsn  file "C:/Users/a0221074/Desktop/C5000/IBM_Watson_TIdesign_workarea/CSL_bitbucket/c55_csl/c55x
     341 000042 E608          MOV #0, *SP(#4) ; |168| 
         000044 00   
     342                      .dwpsn  file "C:/Users/a0221074/Desktop/C5000/IBM_Watson_TIdesign_workarea/CSL_bitbucket/c55_csl/c55x
     343 000045 ED00          MOV dbl(*SP(#0)), XAR3
         000047 BF   
     344 000048 AA08          MOV *SP(#4), AR2 ; |168| 
     345 00004a A96D          MOV *AR3(#277), AR1 ; |168| 
         00004c 0115 
     346 00004e 12A8          CMPU AR2 >= AR1, TC1 ; |168| 
         000050 94   
     347 000051 0464          BCC $C$L2,TC1 ; |168| 
         000053 2F   
     348                                                      ; branchcc occurs ; |168| 
     349 000054       $C$L1:    
     350 000054       $C$DW$L$_Init_Search$2$B:
     351                      .dwpsn  file "C:/Users/a0221074/Desktop/C5000/IBM_Watson_TIdesign_workarea/CSL_bitbucket/c55_csl/c55x
     352 000054 ED04          MOV dbl(*SP(#2)), XAR3
         000056 BF   
     353 000057 DF08          MOV uns(*SP(#4)), AC0 ; |169| 
         000059 05   
     354 00005a 900A          MOV AC0, XAR2
TMS320C55x Assembler PC v4.4.1 Wed Sep 13 16:34:06 2017

Tools Copyright (c) 1996-2012 Texas Instruments Incorporated
C:\Users\a0221074\AppData\Local\Temp\0994410                         PAGE    8

     355 00005c 14A1          AADD XAR2, XAR3 ; |169| 
         00005e B0   
     356 00005f A961          MOV *AR3, AR1 ; |169| 
     357 000061 ED00          MOV dbl(*SP(#0)), XAR3
         000063 BF   
     358 000064 DF08          MOV uns(*SP(#4)), AC0 ; |169| 
         000066 05   
     359 000067 900A          MOV AC0, XAR2
     360 000069 14A1          AADD XAR2, XAR3 ; |169| 
         00006b B0   
     361 00006c C96D          MOV AR1, *AR3(#504) ; |169| 
         00006e 01F8 
     362                      .dwpsn  file "C:/Users/a0221074/Desktop/C5000/IBM_Watson_TIdesign_workarea/CSL_bitbucket/c55_csl/c55x
     363 000070 F708          ADD #1, *SP(#4) ; |168| 
         000072 0001 
     364                      .dwpsn  file "C:/Users/a0221074/Desktop/C5000/IBM_Watson_TIdesign_workarea/CSL_bitbucket/c55_csl/c55x
     365 000074 ED00          MOV dbl(*SP(#0)), XAR3
         000076 BF   
     366 000077 AA08          MOV *SP(#4), AR2 ; |168| 
     367 000079 A96D          MOV *AR3(#277), AR1 ; |168| 
         00007b 0115 
     368 00007d 12A4          CMPU AR2 < AR1, TC1 ; |168| 
         00007f 94   
     369 000080 0464          BCC $C$L1,TC1 ; |168| 
         000082 D1   
     370                                                      ; branchcc occurs ; |168| 
     371 000083       $C$DW$L$_Init_Search$2$E:
     372 000083       $C$L2:    
     373                      .dwpsn  file "C:/Users/a0221074/Desktop/C5000/IBM_Watson_TIdesign_workarea/CSL_bitbucket/c55_csl/c55x
     374 000083 E66D          MOV #0, *AR3(#8) ; |173| 
         000085 0000 
         000087 08   
     375                      .dwpsn  file "C:/Users/a0221074/Desktop/C5000/IBM_Watson_TIdesign_workarea/CSL_bitbucket/c55_csl/c55x
     376 000088 ED00          MOV dbl(*SP(#0)), XAR3
         00008a BF   
     377 00008b FB6D          MOV #1024, *AR3(#274) ; |176| 
         00008d 0400 
         00008f 0112 
     378                      .dwpsn  file "C:/Users/a0221074/Desktop/C5000/IBM_Watson_TIdesign_workarea/CSL_bitbucket/c55_csl/c55x
     379 000091 ED00          MOV dbl(*SP(#0)), XAR3
         000093 BF   
     380 000094 FB6D          MOV #28000, *AR3(#275) ; |177| 
         000096 6D60 
         000098 0113 
     381                      .dwpsn  file "C:/Users/a0221074/Desktop/C5000/IBM_Watson_TIdesign_workarea/CSL_bitbucket/c55_csl/c55x
     382 00009a ED00          MOV dbl(*SP(#0)), XAR3
         00009c BF   
     383 00009d FB6D          MOV #-192, *AR3(#1172) ; |179| 
         00009f FF40 
         0000a1 0494 
     384                      .dwpsn  file "C:/Users/a0221074/Desktop/C5000/IBM_Watson_TIdesign_workarea/CSL_bitbucket/c55_csl/c55x
     385 0000a3 ED00          MOV dbl(*SP(#0)), XAR3
         0000a5 BF   
     386 0000a6 E66D          MOV #0, *AR3(#1173) ; |180| 
         0000a8 0004 
TMS320C55x Assembler PC v4.4.1 Wed Sep 13 16:34:06 2017

Tools Copyright (c) 1996-2012 Texas Instruments Incorporated
C:\Users\a0221074\AppData\Local\Temp\0994410                         PAGE    9

         0000aa 95   
     387                      .dwpsn  file "C:/Users/a0221074/Desktop/C5000/IBM_Watson_TIdesign_workarea/CSL_bitbucket/c55_csl/c55x
     388 0000ab ED00          MOV dbl(*SP(#0)), XAR3
         0000ad BF   
     389 0000ae E66D          MOV #50, *AR3(#2044) ; |184| 
         0000b0 3207 
         0000b2 FC   
     390                      .dwpsn  file "C:/Users/a0221074/Desktop/C5000/IBM_Watson_TIdesign_workarea/CSL_bitbucket/c55_csl/c55x
     391 0000b3 ED00          MOV dbl(*SP(#0)), XAR3
         0000b5 BF   
     392 0000b6 FB6D          MOV #800, *AR3(#2045) ; |185| 
         0000b8 0320 
         0000ba 07FD 
     393                      .dwpsn  file "C:/Users/a0221074/Desktop/C5000/IBM_Watson_TIdesign_workarea/CSL_bitbucket/c55_csl/c55x
     394 0000bc ED00          MOV dbl(*SP(#0)), XAR3
         0000be BF   
     395 0000bf A90A          MOV *SP(#5), AR1 ; |188| 
     396 0000c1 C96D          MOV AR1, *AR3(#1170) ; |188| 
         0000c3 0492 
     397                      .dwpsn  file "C:/Users/a0221074/Desktop/C5000/IBM_Watson_TIdesign_workarea/CSL_bitbucket/c55_csl/c55x
     398 0000c5 4E07          AADD #7, SP
     399                      .dwcfi  cfa_offset, 1
     400              $C$DW$52        .dwtag  DW_TAG_TI_branch
     401                      .dwattr $C$DW$52, DW_AT_low_pc(0x00)
     402                      .dwattr $C$DW$52, DW_AT_TI_return
     403 0000c7 4804          RET
     404                                                      ; return occurs
     405              
     406              $C$DW$53        .dwtag  DW_TAG_TI_loop
     407                      .dwattr $C$DW$53, DW_AT_name("C:\\Users\\a0221074\\AppData\\Local\\Temp\\0994410:$C$L1:1:1505334845")
     408                      .dwattr $C$DW$53, DW_AT_TI_begin_file("C:/Users/a0221074/Desktop/C5000/IBM_Watson_TIdesign_workarea/C
     409                      .dwattr $C$DW$53, DW_AT_TI_begin_line(0xa8)
     410                      .dwattr $C$DW$53, DW_AT_TI_end_line(0xaa)
     411              $C$DW$54        .dwtag  DW_TAG_TI_loop_range
     412                      .dwattr $C$DW$54, DW_AT_low_pc($C$DW$L$_Init_Search$2$B)
     413                      .dwattr $C$DW$54, DW_AT_high_pc($C$DW$L$_Init_Search$2$E)
     414                      .dwendtag $C$DW$53
     415              
     416                      .dwattr $C$DW$43, DW_AT_TI_end_file("C:/Users/a0221074/Desktop/C5000/IBM_Watson_TIdesign_workarea/CSL
     417                      .dwattr $C$DW$43, DW_AT_TI_end_line(0xc6)
     418                      .dwattr $C$DW$43, DW_AT_TI_end_column(0x01)
     419                      .dwendentry
     420                      .dwendtag $C$DW$43
     421              
     422 000000               .sect   ".text:_SetDefault"
     423                      .clink
     424              
     425              $C$DW$55        .dwtag  DW_TAG_subprogram, DW_AT_name("SetDefault")
     426                      .dwattr $C$DW$55, DW_AT_low_pc(_SetDefault)
     427                      .dwattr $C$DW$55, DW_AT_high_pc(0x00)
     428                      .dwattr $C$DW$55, DW_AT_TI_symbol_name("_SetDefault")
     429                      .dwattr $C$DW$55, DW_AT_TI_begin_file("C:/Users/a0221074/Desktop/C5000/IBM_Watson_TIdesign_workarea/C
     430                      .dwattr $C$DW$55, DW_AT_TI_begin_line(0xc8)
     431                      .dwattr $C$DW$55, DW_AT_TI_begin_column(0x0d)
     432                      .dwattr $C$DW$55, DW_AT_TI_max_frame_size(0x04)
TMS320C55x Assembler PC v4.4.1 Wed Sep 13 16:34:06 2017

Tools Copyright (c) 1996-2012 Texas Instruments Incorporated
C:\Users\a0221074\AppData\Local\Temp\0994410                         PAGE   10

     433                      .dwpsn  file "C:/Users/a0221074/Desktop/C5000/IBM_Watson_TIdesign_workarea/CSL_bitbucket/c55_csl/c55x
     434              
     435                      .dwfde $C$DW$CIE, _SetDefault
     436              $C$DW$56        .dwtag  DW_TAG_formal_parameter, DW_AT_name("gv")
     437                      .dwattr $C$DW$56, DW_AT_TI_symbol_name("_gv")
     438                      .dwattr $C$DW$56, DW_AT_type(*$C$DW$T$94)
     439                      .dwattr $C$DW$56, DW_AT_location[DW_OP_reg17]
     440              ;*******************************************************************************
     441              ;* FUNCTION NAME: SetDefault                                                   *
     442              ;*                                                                             *
     443              ;*   Function Uses Regs : T0,T1,AR0,XAR0,SP,M40,SATA,SATD,RDM,FRCT,SMUL        *
     444              ;*   Stack Frame        : Compact (No Frame Pointer, w/ debug)                 *
     445              ;*   Total Frame Size   : 4 words                                              *
     446              ;*                        (2 return address/alignment)                         *
     447              ;*                        (2 local values)                                     *
     448              ;*   Min System Stack   : 1 word                                               *
     449              ;*******************************************************************************
     450 000000       _SetDefault:
     451                      .dwcfi  cfa_offset, 1
     452                      .dwcfi  save_reg_to_mem, 91, -1
     453 000000 4EFD          AADD #-3, SP
     454                      .dwcfi  cfa_offset, 4
     455              $C$DW$57        .dwtag  DW_TAG_variable, DW_AT_name("gv")
     456                      .dwattr $C$DW$57, DW_AT_TI_symbol_name("_gv")
     457                      .dwattr $C$DW$57, DW_AT_type(*$C$DW$T$94)
     458                      .dwattr $C$DW$57, DW_AT_location[DW_OP_bregx 0x24 0]
     459 000002 EB00          MOV XAR0, dbl(*SP(#0))
         000004 85   
     460                      .dwpsn  file "C:/Users/a0221074/Desktop/C5000/IBM_Watson_TIdesign_workarea/CSL_bitbucket/c55_csl/c55x
     461              $C$DW$58        .dwtag  DW_TAG_TI_branch
     462                      .dwattr $C$DW$58, DW_AT_low_pc(0x00)
     463                      .dwattr $C$DW$58, DW_AT_name("_JAC_set_default_params")
     464                      .dwattr $C$DW$58, DW_AT_TI_call
     465 000005 6C00          CALL #_JAC_set_default_params ; |203| 
         000007 0000!
     466                                                      ; call occurs [#_JAC_set_default_params] ; |203| 
     467                      .dwpsn  file "C:/Users/a0221074/Desktop/C5000/IBM_Watson_TIdesign_workarea/CSL_bitbucket/c55_csl/c55x
     468 000009 ED00          MOV dbl(*SP(#0)), XAR0
         00000b 8F   
     469              $C$DW$59        .dwtag  DW_TAG_TI_branch
     470                      .dwattr $C$DW$59, DW_AT_low_pc(0x00)
     471                      .dwattr $C$DW$59, DW_AT_name("_set_default_uttdet")
     472                      .dwattr $C$DW$59, DW_AT_TI_call
     473 00000c 6C00          CALL #_set_default_uttdet ; |210| 
         00000e 0000!
     474                                                      ; call occurs [#_set_default_uttdet] ; |210| 
     475                      .dwpsn  file "C:/Users/a0221074/Desktop/C5000/IBM_Watson_TIdesign_workarea/CSL_bitbucket/c55_csl/c55x
     476 000010 7600          MOV #20, T1 ; |213| 
         000012 1458 
     477 000014 76FF          MOV #-200, T0 ; |213| 
         000016 3848 
     478 000018 ED00          MOV dbl(*SP(#0)), XAR0
         00001a 8F   
     479              $C$DW$60        .dwtag  DW_TAG_TI_branch
     480                      .dwattr $C$DW$60, DW_AT_low_pc(0x00)
TMS320C55x Assembler PC v4.4.1 Wed Sep 13 16:34:06 2017

Tools Copyright (c) 1996-2012 Texas Instruments Incorporated
C:\Users\a0221074\AppData\Local\Temp\0994410                         PAGE   11

     481                      .dwattr $C$DW$60, DW_AT_name("_cm_set_param")
     482                      .dwattr $C$DW$60, DW_AT_TI_call
     483 00001b 6C00          CALL #_cm_set_param ; |213| 
         00001d 0000!
     484                                                      ; call occurs [#_cm_set_param] ; |213| 
     485                      .dwpsn  file "C:/Users/a0221074/Desktop/C5000/IBM_Watson_TIdesign_workarea/CSL_bitbucket/c55_csl/c55x
     486 00001f 4E03          AADD #3, SP
     487                      .dwcfi  cfa_offset, 1
     488              $C$DW$61        .dwtag  DW_TAG_TI_branch
     489                      .dwattr $C$DW$61, DW_AT_low_pc(0x00)
     490                      .dwattr $C$DW$61, DW_AT_TI_return
     491 000021 4804          RET
     492                                                      ; return occurs
     493                      .dwattr $C$DW$55, DW_AT_TI_end_file("C:/Users/a0221074/Desktop/C5000/IBM_Watson_TIdesign_workarea/CSL
     494                      .dwattr $C$DW$55, DW_AT_TI_end_line(0xe0)
     495                      .dwattr $C$DW$55, DW_AT_TI_end_column(0x01)
     496                      .dwendentry
     497                      .dwendtag $C$DW$55
     498              
     499 000000               .sect   ".text:_AllocateTIesrMemory"
     500                      .clink
     501              
     502              $C$DW$62        .dwtag  DW_TAG_subprogram, DW_AT_name("AllocateTIesrMemory")
     503                      .dwattr $C$DW$62, DW_AT_low_pc(_AllocateTIesrMemory)
     504                      .dwattr $C$DW$62, DW_AT_high_pc(0x00)
     505                      .dwattr $C$DW$62, DW_AT_TI_symbol_name("_AllocateTIesrMemory")
     506                      .dwattr $C$DW$62, DW_AT_type(*$C$DW$T$92)
     507                      .dwattr $C$DW$62, DW_AT_TI_begin_file("C:/Users/a0221074/Desktop/C5000/IBM_Watson_TIdesign_workarea/C
     508                      .dwattr $C$DW$62, DW_AT_TI_begin_line(0xee)
     509                      .dwattr $C$DW$62, DW_AT_TI_begin_column(0x1e)
     510                      .dwattr $C$DW$62, DW_AT_TI_max_frame_size(0x1c)
     511                      .dwpsn  file "C:/Users/a0221074/Desktop/C5000/IBM_Watson_TIdesign_workarea/CSL_bitbucket/c55_csl/c55x
     512              
     513                      .dwfde $C$DW$CIE, _AllocateTIesrMemory
     514              $C$DW$63        .dwtag  DW_TAG_formal_parameter, DW_AT_name("memoryPool")
     515                      .dwattr $C$DW$63, DW_AT_TI_symbol_name("_memoryPool")
     516                      .dwattr $C$DW$63, DW_AT_type(*$C$DW$T$21)
     517                      .dwattr $C$DW$63, DW_AT_location[DW_OP_reg17]
     518              $C$DW$64        .dwtag  DW_TAG_formal_parameter, DW_AT_name("max_frm")
     519                      .dwattr $C$DW$64, DW_AT_TI_symbol_name("_max_frm")
     520                      .dwattr $C$DW$64, DW_AT_type(*$C$DW$T$9)
     521                      .dwattr $C$DW$64, DW_AT_location[DW_OP_reg12]
     522              $C$DW$65        .dwtag  DW_TAG_formal_parameter, DW_AT_name("ptr_model_file_path")
     523                      .dwattr $C$DW$65, DW_AT_TI_symbol_name("_ptr_model_file_path")
     524                      .dwattr $C$DW$65, DW_AT_type(*$C$DW$T$74)
     525                      .dwattr $C$DW$65, DW_AT_location[DW_OP_reg19]
     526              ;*******************************************************************************
     527              ;* FUNCTION NAME: AllocateTIesrMemory                                          *
     528              ;*                                                                             *
     529              ;*   Function Uses Regs : AC0,AC0,AC1,AC1,AC2,AC2,T0,T1,AR0,XAR0,AR1,XAR1,AR2, *
     530              ;*                        XAR2,AR3,XAR3,SP,CARRY,TC1,M40,SATA,SATD,RDM,FRCT,   *
     531              ;*                        SMUL                                                 *
     532              ;*   Stack Frame        : Compact (No Frame Pointer, w/ debug)                 *
     533              ;*   Total Frame Size   : 28 words                                             *
     534              ;*                        (2 return address/alignment)                         *
TMS320C55x Assembler PC v4.4.1 Wed Sep 13 16:34:06 2017

Tools Copyright (c) 1996-2012 Texas Instruments Incorporated
C:\Users\a0221074\AppData\Local\Temp\0994410                         PAGE   12

     535              ;*                        (26 local values)                                    *
     536              ;*   Min System Stack   : 1 word                                               *
     537              ;*******************************************************************************
     538 000000       _AllocateTIesrMemory:
     539                      .dwcfi  cfa_offset, 1
     540                      .dwcfi  save_reg_to_mem, 91, -1
     541 000000 4EE5          AADD #-27, SP
     542                      .dwcfi  cfa_offset, 28
     543              $C$DW$66        .dwtag  DW_TAG_variable, DW_AT_name("memoryPool")
     544                      .dwattr $C$DW$66, DW_AT_TI_symbol_name("_memoryPool")
     545                      .dwattr $C$DW$66, DW_AT_type(*$C$DW$T$21)
     546                      .dwattr $C$DW$66, DW_AT_location[DW_OP_bregx 0x24 0]
     547              $C$DW$67        .dwtag  DW_TAG_variable, DW_AT_name("max_frm")
     548                      .dwattr $C$DW$67, DW_AT_TI_symbol_name("_max_frm")
     549                      .dwattr $C$DW$67, DW_AT_type(*$C$DW$T$9)
     550                      .dwattr $C$DW$67, DW_AT_location[DW_OP_bregx 0x24 2]
     551              $C$DW$68        .dwtag  DW_TAG_variable, DW_AT_name("ptr_model_file_path")
     552                      .dwattr $C$DW$68, DW_AT_TI_symbol_name("_ptr_model_file_path")
     553                      .dwattr $C$DW$68, DW_AT_type(*$C$DW$T$74)
     554                      .dwattr $C$DW$68, DW_AT_location[DW_OP_bregx 0x24 4]
     555              $C$DW$69        .dwtag  DW_TAG_variable, DW_AT_name("gv")
     556                      .dwattr $C$DW$69, DW_AT_TI_symbol_name("_gv")
     557                      .dwattr $C$DW$69, DW_AT_type(*$C$DW$T$94)
     558                      .dwattr $C$DW$69, DW_AT_location[DW_OP_bregx 0x24 6]
     559              $C$DW$70        .dwtag  DW_TAG_variable, DW_AT_name("BEAM_Z")
     560                      .dwattr $C$DW$70, DW_AT_TI_symbol_name("_BEAM_Z")
     561                      .dwattr $C$DW$70, DW_AT_type(*$C$DW$T$124)
     562                      .dwattr $C$DW$70, DW_AT_location[DW_OP_bregx 0x24 8]
     563              $C$DW$71        .dwtag  DW_TAG_variable, DW_AT_name("SYMB_Z")
     564                      .dwattr $C$DW$71, DW_AT_TI_symbol_name("_SYMB_Z")
     565                      .dwattr $C$DW$71, DW_AT_type(*$C$DW$T$124)
     566                      .dwattr $C$DW$71, DW_AT_location[DW_OP_bregx 0x24 10]
     567              $C$DW$72        .dwtag  DW_TAG_variable, DW_AT_name("STATE_Z")
     568                      .dwattr $C$DW$72, DW_AT_TI_symbol_name("_STATE_Z")
     569                      .dwattr $C$DW$72, DW_AT_type(*$C$DW$T$124)
     570                      .dwattr $C$DW$72, DW_AT_location[DW_OP_bregx 0x24 12]
     571              $C$DW$73        .dwtag  DW_TAG_variable, DW_AT_name("total_BSS")
     572                      .dwattr $C$DW$73, DW_AT_TI_symbol_name("_total_BSS")
     573                      .dwattr $C$DW$73, DW_AT_type(*$C$DW$T$124)
     574                      .dwattr $C$DW$73, DW_AT_location[DW_OP_bregx 0x24 14]
     575              $C$DW$74        .dwtag  DW_TAG_variable, DW_AT_name("a_size")
     576                      .dwattr $C$DW$74, DW_AT_TI_symbol_name("_a_size")
     577                      .dwattr $C$DW$74, DW_AT_type(*$C$DW$T$124)
     578                      .dwattr $C$DW$74, DW_AT_location[DW_OP_bregx 0x24 16]
     579              $C$DW$75        .dwtag  DW_TAG_variable, DW_AT_name("mfcc_memory_size")
     580                      .dwattr $C$DW$75, DW_AT_TI_symbol_name("_mfcc_memory_size")
     581                      .dwattr $C$DW$75, DW_AT_type(*$C$DW$T$124)
     582                      .dwattr $C$DW$75, DW_AT_location[DW_OP_bregx 0x24 18]
     583              $C$DW$76        .dwtag  DW_TAG_variable, DW_AT_name("search_mem")
     584                      .dwattr $C$DW$76, DW_AT_TI_symbol_name("_search_mem")
     585                      .dwattr $C$DW$76, DW_AT_type(*$C$DW$T$21)
     586                      .dwattr $C$DW$76, DW_AT_location[DW_OP_bregx 0x24 20]
     587              $C$DW$77        .dwtag  DW_TAG_variable, DW_AT_name("curt_mem")
     588                      .dwattr $C$DW$77, DW_AT_TI_symbol_name("_curt_mem")
     589                      .dwattr $C$DW$77, DW_AT_type(*$C$DW$T$124)
TMS320C55x Assembler PC v4.4.1 Wed Sep 13 16:34:06 2017

Tools Copyright (c) 1996-2012 Texas Instruments Incorporated
C:\Users\a0221074\AppData\Local\Temp\0994410                         PAGE   13

     590                      .dwattr $C$DW$77, DW_AT_location[DW_OP_bregx 0x24 22]
     591              $C$DW$78        .dwtag  DW_TAG_variable, DW_AT_name("stt_mem")
     592                      .dwattr $C$DW$78, DW_AT_TI_symbol_name("_stt_mem")
     593                      .dwattr $C$DW$78, DW_AT_type(*$C$DW$T$124)
     594                      .dwattr $C$DW$78, DW_AT_location[DW_OP_bregx 0x24 24]
     595 000002 EB08          MOV XAR1, dbl(*SP(#4))
         000004 95   
     596 000005 C404          MOV T0, *SP(#2) ; |241| 
     597 000007 EB00          MOV XAR0, dbl(*SP(#0))
         000009 85   
     598                      .dwpsn  file "C:/Users/a0221074/Desktop/C5000/IBM_Watson_TIdesign_workarea/CSL_bitbucket/c55_csl/c55x
     599 00000a 3C00          MOV #0, AC0 ; |547| 
     600 00000c EB30          MOV AC0, dbl(*SP(#24)) ; |547| 
         00000e 08   
     601                      .dwpsn  file "C:/Users/a0221074/Desktop/C5000/IBM_Watson_TIdesign_workarea/CSL_bitbucket/c55_csl/c55x
     602 00000f ED00          MOV dbl(*SP(#0)), XAR3
         000011 BF   
     603 000012 ED30          MOV dbl(*SP(#24)), AC0 ; |549| 
         000014 08   
     604 000015 900A          MOV AC0, XAR2
     605              
     606 000017 8E0C          MOV XAR3, dbl(*SP(#6))
         000019 BB10 
         00001b B5A1 
     607              ||      AADD XAR2, XAR3 ; |549| 
     608              
     609                      .dwpsn  file "C:/Users/a0221074/Desktop/C5000/IBM_Watson_TIdesign_workarea/CSL_bitbucket/c55_csl/c55x
     610 00001d 7603          MOV #1023, AC0 ; |550| 
         00001f FF08 
     611 000021 EB2C          MOV AC0, dbl(*SP(#22)) ; |550| 
         000023 08   
     612                      .dwpsn  file "C:/Users/a0221074/Desktop/C5000/IBM_Watson_TIdesign_workarea/CSL_bitbucket/c55_csl/c55x
     613 000024 ED2C          MOV dbl(*SP(#22)), AC0 ; |551| 
         000026 08   
     614 000027 ED30          ADD dbl(*SP(#24)), AC0, AC0 ; |551| 
         000029 00   
     615 00002a EB30          MOV AC0, dbl(*SP(#24)) ; |551| 
         00002c 08   
     616                      .dwpsn  file "C:/Users/a0221074/Desktop/C5000/IBM_Watson_TIdesign_workarea/CSL_bitbucket/c55_csl/c55x
     617 00002d ED0C          MOV dbl(*SP(#6)), XAR3
         00002f BF   
     618 000030 3C00          MOV #0, AC0 ; |555| 
     619 000032 EB6D          MOV AC0, dbl(*AR3(#1174))
         000034 0804 
         000036 96   
     620                      .dwpsn  file "C:/Users/a0221074/Desktop/C5000/IBM_Watson_TIdesign_workarea/CSL_bitbucket/c55_csl/c55x
     621 000037 ED0C          MOV dbl(*SP(#6)), XAR3
         000039 BF   
     622 00003a EB6D          MOV AC0, dbl(*AR3(#1102))
         00003c 0804 
         00003e 4E   
     623                      .dwpsn  file "C:/Users/a0221074/Desktop/C5000/IBM_Watson_TIdesign_workarea/CSL_bitbucket/c55_csl/c55x
     624 00003f ED0C          MOV dbl(*SP(#6)), XAR3
         000041 BF   
     625 000042 EB6D          MOV AC0, dbl(*AR3(#2014))
TMS320C55x Assembler PC v4.4.1 Wed Sep 13 16:34:06 2017

Tools Copyright (c) 1996-2012 Texas Instruments Incorporated
C:\Users\a0221074\AppData\Local\Temp\0994410                         PAGE   14

         000044 0807 
         000046 DE   
     626                      .dwpsn  file "C:/Users/a0221074/Desktop/C5000/IBM_Watson_TIdesign_workarea/CSL_bitbucket/c55_csl/c55x
     627 000047 A431          MOV *(#_SEG0), T0 ; |600| 
         000049 0000 
         00004b 00!  
     628 00004c 7605          MOV #1348, AC0 ; |600| 
         00004e 4408 
     629              $C$DW$79        .dwtag  DW_TAG_TI_branch
     630                      .dwattr $C$DW$79, DW_AT_low_pc(0x00)
     631                      .dwattr $C$DW$79, DW_AT_name("_MEM_alloc")
     632                      .dwattr $C$DW$79, DW_AT_TI_call
     633              
     634 000050 6C00          CALL #_MEM_alloc ; |600| 
         000052 0000!
     635 000054 3D01  ||      MOV #0, AC1 ; |600| 
     636              
     637                                                      ; call occurs [#_MEM_alloc] ; |600| 
     638 000056 ED0C          MOV dbl(*SP(#6)), XAR3
         000058 BF   
     639 000059 EB6D          MOV XAR0, dbl(*AR3(#2014))
         00005b 8507 
         00005d DE   
     640                      .dwpsn  file "C:/Users/a0221074/Desktop/C5000/IBM_Watson_TIdesign_workarea/CSL_bitbucket/c55_csl/c55x
     641 00005e ED0C          MOV dbl(*SP(#6)), XAR3
         000060 BF   
     642 000061 ED6D          MOV dbl(*AR3(#2014)), XAR3
         000063 BF07 
         000065 DE   
     643 000066 90B0          MOV XAR3, AC0
     644 000068 6390          BCC $C$L3,AC0 != #0 ; |601| 
     645                                                      ; branchcc occurs ; |601| 
     646                      .dwpsn  file "C:/Users/a0221074/Desktop/C5000/IBM_Watson_TIdesign_workarea/CSL_bitbucket/c55_csl/c55x
     647 00006a 7602          MOV #605, T0 ; |603| 
         00006c 5D48 
     648 00006e 0602          B $C$L13  ; |603| 
         000070 4D   
     649                                                      ; branch occurs ; |603| 
     650 000071       $C$L3:    
     651                      .dwpsn  file "C:/Users/a0221074/Desktop/C5000/IBM_Watson_TIdesign_workarea/CSL_bitbucket/c55_csl/c55x
     652 000071 ED0C          MOV dbl(*SP(#6)), XAR3
         000073 BF   
     653 000074 ED0C          MOV dbl(*SP(#6)), XAR1
         000076 9F   
     654 000077 ED6D          MOV dbl(*AR3(#2014)), XAR0
         000079 8F07 
         00007b DE   
     655              $C$DW$80        .dwtag  DW_TAG_TI_branch
     656                      .dwattr $C$DW$80, DW_AT_low_pc(0x00)
     657                      .dwattr $C$DW$80, DW_AT_name("_cm_open")
     658                      .dwattr $C$DW$80, DW_AT_TI_call
     659 00007c 6C00          CALL #_cm_open ; |615| 
         00007e 0000!
     660                                                      ; call occurs [#_cm_open] ; |615| 
     661 000080 7602          MOV #605, AR1 ; |615| 
TMS320C55x Assembler PC v4.4.1 Wed Sep 13 16:34:06 2017

Tools Copyright (c) 1996-2012 Texas Instruments Incorporated
C:\Users\a0221074\AppData\Local\Temp\0994410                         PAGE   15

         000082 5D98 
     662 000084 124C          CMP T0 != AR1, TC1 ; |615| 
         000086 90   
     663 000087 63E4          BCC $C$L4,TC1 ; |615| 
     664                                                      ; branchcc occurs ; |615| 
     665                      .dwpsn  file "C:/Users/a0221074/Desktop/C5000/IBM_Watson_TIdesign_workarea/CSL_bitbucket/c55_csl/c55x
     666 000089 7602          MOV #605, T0 ; |616| 
         00008b 5D48 
     667 00008d 0602          B $C$L13  ; |616| 
         00008f 2E   
     668                                                      ; branch occurs ; |616| 
     669 000090       $C$L4:    
     670                      .dwpsn  file "C:/Users/a0221074/Desktop/C5000/IBM_Watson_TIdesign_workarea/CSL_bitbucket/c55_csl/c55x
     671 000090 ED0C          MOV dbl(*SP(#6)), XAR3
         000092 BF   
     672 000093 3C00          MOV #0, AC0 ; |623| 
     673 000095 EB6D          MOV AC0, dbl(*AR3(#2010))
         000097 0807 
         000099 DA   
     674                      .dwpsn  file "C:/Users/a0221074/Desktop/C5000/IBM_Watson_TIdesign_workarea/CSL_bitbucket/c55_csl/c55x
     675 00009a ED0C          MOV dbl(*SP(#6)), XAR3
         00009c BF   
     676 00009d EB6D          MOV AC0, dbl(*AR3(#2008))
         00009f 0807 
         0000a1 D8   
     677                      .dwpsn  file "C:/Users/a0221074/Desktop/C5000/IBM_Watson_TIdesign_workarea/CSL_bitbucket/c55_csl/c55x
     678 0000a2 ED0C          MOV dbl(*SP(#6)), XAR2
         0000a4 AF   
     679 0000a5 ED0C          MOV dbl(*SP(#6)), XAR3
         0000a7 BF   
     680 0000a8 ED4D          MOV dbl(*AR2(#1176)), XAR2
         0000aa AF04 
         0000ac 98   
     681 0000ad ED6D          MOV dbl(*AR3(#1176)), XAR3
         0000af BF04 
         0000b1 98   
     682 0000b2 A431          MOV *(#_SEG0), T0 ; |681| 
         0000b4 0000 
         0000b6 00!  
     683 0000b7 A557          MOV *AR2(short(#3)), T1 ; |681| 
     684 0000b9 D373          MPYM *AR3(short(#1)), T1, AC0 ; |681| 
         0000bb 05   
     685 0000bc 4010          ADD #1, AC0 ; |681| 
     686 0000be 7DFF          AND #0xffff, AC0, AC0 ; |681| 
         0000c0 FF00 
     687              $C$DW$81        .dwtag  DW_TAG_TI_branch
     688                      .dwattr $C$DW$81, DW_AT_low_pc(0x00)
     689                      .dwattr $C$DW$81, DW_AT_name("_MEM_alloc")
     690                      .dwattr $C$DW$81, DW_AT_TI_call
     691              
     692 0000c2 6C00          CALL #_MEM_alloc ; |681| 
         0000c4 0000!
     693 0000c6 3D01  ||      MOV #0, AC1 ; |681| 
     694              
     695                                                      ; call occurs [#_MEM_alloc] ; |681| 
TMS320C55x Assembler PC v4.4.1 Wed Sep 13 16:34:06 2017

Tools Copyright (c) 1996-2012 Texas Instruments Incorporated
C:\Users\a0221074\AppData\Local\Temp\0994410                         PAGE   16

     696 0000c8 ED0C          MOV dbl(*SP(#6)), XAR3
         0000ca BF   
     697 0000cb EB6D          MOV XAR0, dbl(*AR3(#1266))
         0000cd 8504 
         0000cf F2   
     698                      .dwpsn  file "C:/Users/a0221074/Desktop/C5000/IBM_Watson_TIdesign_workarea/CSL_bitbucket/c55_csl/c55x
     699 0000d0 ED0C          MOV dbl(*SP(#6)), XAR2
         0000d2 AF   
     700 0000d3 ED0C          MOV dbl(*SP(#6)), XAR3
         0000d5 BF   
     701 0000d6 ED4D          MOV dbl(*AR2(#1176)), XAR2
         0000d8 AF04 
         0000da 98   
     702 0000db ED6D          MOV dbl(*AR3(#1176)), XAR3
         0000dd BF04 
         0000df 98   
     703 0000e0 A431          MOV *(#_SEG0), T0 ; |682| 
         0000e2 0000 
         0000e4 00!  
     704 0000e5 A557          MOV *AR2(short(#3)), T1 ; |682| 
     705 0000e7 D373          MPYM *AR3(short(#1)), T1, AC0 ; |682| 
         0000e9 05   
     706 0000ea 4010          ADD #1, AC0 ; |682| 
     707 0000ec 7DFF          AND #0xffff, AC0, AC0 ; |682| 
         0000ee FF00 
     708              $C$DW$82        .dwtag  DW_TAG_TI_branch
     709                      .dwattr $C$DW$82, DW_AT_low_pc(0x00)
     710                      .dwattr $C$DW$82, DW_AT_name("_MEM_alloc")
     711                      .dwattr $C$DW$82, DW_AT_TI_call
     712              
     713 0000f0 6C00          CALL #_MEM_alloc ; |682| 
         0000f2 0000!
     714 0000f4 3D01  ||      MOV #0, AC1 ; |682| 
     715              
     716                                                      ; call occurs [#_MEM_alloc] ; |682| 
     717 0000f6 ED0C          MOV dbl(*SP(#6)), XAR3
         0000f8 BF   
     718 0000f9 EB6D          MOV XAR0, dbl(*AR3(#1264))
         0000fb 8504 
         0000fd F0   
     719                      .dwpsn  file "C:/Users/a0221074/Desktop/C5000/IBM_Watson_TIdesign_workarea/CSL_bitbucket/c55_csl/c55x
     720 0000fe ED0C          MOV dbl(*SP(#6)), XAR3
         000100 BF   
     721 000101 ED6D          MOV dbl(*AR3(#1266)), XAR3
         000103 BF04 
         000105 F2   
     722 000106 90B0          MOV XAR3, AC0
     723 000108 6600          BCC $C$L5,AC0 == #0 ; |683| 
     724                                                      ; branchcc occurs ; |683| 
     725 00010a ED0C          MOV dbl(*SP(#6)), XAR3
         00010c BF   
     726 00010d ED6D          MOV dbl(*AR3(#1264)), XAR3
         00010f BF04 
         000111 F0   
     727 000112 90B0          MOV XAR3, AC0
TMS320C55x Assembler PC v4.4.1 Wed Sep 13 16:34:06 2017

Tools Copyright (c) 1996-2012 Texas Instruments Incorporated
C:\Users\a0221074\AppData\Local\Temp\0994410                         PAGE   17

     728 000114 6390          BCC $C$L6,AC0 != #0 ; |683| 
     729                                                      ; branchcc occurs ; |683| 
     730 000116       $C$L5:    
     731                      .dwpsn  file "C:/Users/a0221074/Desktop/C5000/IBM_Watson_TIdesign_workarea/CSL_bitbucket/c55_csl/c55x
     732 000116 7602          MOV #607, T0 ; |684| 
         000118 5F48 
     733 00011a 0601          B $C$L13  ; |684| 
         00011c A1   
     734                                                      ; branch occurs ; |684| 
     735 00011d       $C$L6:    
     736                      .dwpsn  file "C:/Users/a0221074/Desktop/C5000/IBM_Watson_TIdesign_workarea/CSL_bitbucket/c55_csl/c55x
     737 00011d ED0C          MOV dbl(*SP(#6)), XAR2
         00011f AF   
     738 000120 ED0C          MOV dbl(*SP(#6)), XAR3
         000122 BF   
     739 000123 ED4D          MOV dbl(*AR2(#1176)), XAR2
         000125 AF04 
         000127 98   
     740 000128 ED6D          MOV dbl(*AR3(#1176)), XAR3
         00012a BF04 
         00012c 98   
     741 00012d A557          MOV *AR2(short(#3)), T1 ; |690| 
     742 00012f D373          MPYM *AR3(short(#1)), T1, AC0 ; |690| 
         000131 05   
     743 000132 ED0C          MOV dbl(*SP(#6)), XAR3
         000134 BF   
     744 000135 4010          ADD #1, AC0 ; |690| 
     745 000137 C06D          MOV AC0, *AR3(#1262) ; |690| 
         000139 04EE 
     746                      .dwpsn  file "C:/Users/a0221074/Desktop/C5000/IBM_Watson_TIdesign_workarea/CSL_bitbucket/c55_csl/c55x
     747 00013b A431          MOV *(#_SEG0), T0 ; |714| 
         00013d 0000 
         00013f 00!  
     748 000140 7600          MOV #210, AC0 ; |714| 
         000142 D208 
     749              $C$DW$83        .dwtag  DW_TAG_TI_branch
     750                      .dwattr $C$DW$83, DW_AT_low_pc(0x00)
     751                      .dwattr $C$DW$83, DW_AT_name("_MEM_alloc")
     752                      .dwattr $C$DW$83, DW_AT_TI_call
     753              
     754 000144 6C00          CALL #_MEM_alloc ; |714| 
         000146 0000!
     755 000148 3D01  ||      MOV #0, AC1 ; |714| 
     756              
     757                                                      ; call occurs [#_MEM_alloc] ; |714| 
     758 00014a ED0C          MOV dbl(*SP(#6)), XAR3
         00014c BF   
     759 00014d EB6D          MOV XAR0, dbl(*AR3(#1152))
         00014f 8504 
         000151 80   
     760                      .dwpsn  file "C:/Users/a0221074/Desktop/C5000/IBM_Watson_TIdesign_workarea/CSL_bitbucket/c55_csl/c55x
     761 000152 ED0C          MOV dbl(*SP(#6)), XAR3
         000154 BF   
     762 000155 ED6D          MOV dbl(*AR3(#1152)), XAR3
         000157 BF04 
TMS320C55x Assembler PC v4.4.1 Wed Sep 13 16:34:06 2017

Tools Copyright (c) 1996-2012 Texas Instruments Incorporated
C:\Users\a0221074\AppData\Local\Temp\0994410                         PAGE   18

         000159 80   
     763 00015a ED0C          MOV dbl(*SP(#6)), XAR2
         00015c AF   
     764 00015d 1446          AADD #70, AR3 ; |715| 
         00015f B4   
     765 000160 EB4D          MOV XAR3, dbl(*AR2(#1154))
         000162 B504 
         000164 82   
     766                      .dwpsn  file "C:/Users/a0221074/Desktop/C5000/IBM_Watson_TIdesign_workarea/CSL_bitbucket/c55_csl/c55x
     767 000165 ED0C          MOV dbl(*SP(#6)), XAR3
         000167 BF   
     768 000168 ED6D          MOV dbl(*AR3(#1152)), XAR3
         00016a BF04 
         00016c 80   
     769 00016d ED0C          MOV dbl(*SP(#6)), XAR2
         00016f AF   
     770 000170 B46F          AMAR *+AR3(#140) ; |716| 
         000172 008C 
     771 000174 EB4D          MOV XAR3, dbl(*AR2(#1156))
         000176 B504 
         000178 84   
     772                      .dwpsn  file "C:/Users/a0221074/Desktop/C5000/IBM_Watson_TIdesign_workarea/CSL_bitbucket/c55_csl/c55x
     773 000179 ED0C          MOV dbl(*SP(#6)), XAR3
         00017b BF   
     774 00017c ED6D          MOV dbl(*AR3(#1152)), XAR3
         00017e BF04 
         000180 80   
     775 000181 90B0          MOV XAR3, AC0
     776 000183 6390          BCC $C$L7,AC0 != #0 ; |717| 
     777                                                      ; branchcc occurs ; |717| 
     778                      .dwpsn  file "C:/Users/a0221074/Desktop/C5000/IBM_Watson_TIdesign_workarea/CSL_bitbucket/c55_csl/c55x
     779 000185 7600          MOV #202, T0 ; |718| 
         000187 CA48 
     780 000189 0601          B $C$L13  ; |718| 
         00018b 32   
     781                                                      ; branch occurs ; |718| 
     782 00018c       $C$L7:    
     783                      .dwpsn  file "C:/Users/a0221074/Desktop/C5000/IBM_Watson_TIdesign_workarea/CSL_bitbucket/c55_csl/c55x
     784 00018c A431          MOV *(#_SEG0), T0 ; |736| 
         00018e 0000 
         000190 00!  
     785 000191 7600          MOV #20, AC0 ; |736| 
         000193 1408 
     786              $C$DW$84        .dwtag  DW_TAG_TI_branch
     787                      .dwattr $C$DW$84, DW_AT_low_pc(0x00)
     788                      .dwattr $C$DW$84, DW_AT_name("_MEM_alloc")
     789                      .dwattr $C$DW$84, DW_AT_TI_call
     790              
     791 000195 6C00          CALL #_MEM_alloc ; |736| 
         000197 0000!
     792 000199 3D01  ||      MOV #0, AC1 ; |736| 
     793              
     794                                                      ; call occurs [#_MEM_alloc] ; |736| 
     795 00019b ED0C          MOV dbl(*SP(#6)), XAR3
         00019d BF   
TMS320C55x Assembler PC v4.4.1 Wed Sep 13 16:34:06 2017

Tools Copyright (c) 1996-2012 Texas Instruments Incorporated
C:\Users\a0221074\AppData\Local\Temp\0994410                         PAGE   19

     796 00019e EB6D          MOV XAR0, dbl(*AR3(#1998))
         0001a0 8507 
         0001a2 CE   
     797                      .dwpsn  file "C:/Users/a0221074/Desktop/C5000/IBM_Watson_TIdesign_workarea/CSL_bitbucket/c55_csl/c55x
     798 0001a3 ED0C          MOV dbl(*SP(#6)), XAR3
         0001a5 BF   
     799 0001a6 ED6D          MOV dbl(*AR3(#1998)), XAR3
         0001a8 BF07 
         0001aa CE   
     800 0001ab 90B0          MOV XAR3, AC0
     801 0001ad 6390          BCC $C$L8,AC0 != #0 ; |737| 
     802                                                      ; branchcc occurs ; |737| 
     803                      .dwpsn  file "C:/Users/a0221074/Desktop/C5000/IBM_Watson_TIdesign_workarea/CSL_bitbucket/c55_csl/c55x
     804 0001af 7600          MOV #202, T0 ; |738| 
         0001b1 CA48 
     805 0001b3 0601          B $C$L13  ; |738| 
         0001b5 08   
     806                                                      ; branch occurs ; |738| 
     807 0001b6       $C$L8:    
     808                      .dwpsn  file "C:/Users/a0221074/Desktop/C5000/IBM_Watson_TIdesign_workarea/CSL_bitbucket/c55_csl/c55x
     809 0001b6 ED0C          MOV dbl(*SP(#6)), XAR3
         0001b8 BF   
     810 0001b9 A904          MOV *SP(#2), AR1 ; |740| 
     811 0001bb C96D          MOV AR1, *AR3(#1160) ; |740| 
         0001bd 0488 
     812                      .dwpsn  file "C:/Users/a0221074/Desktop/C5000/IBM_Watson_TIdesign_workarea/CSL_bitbucket/c55_csl/c55x
     813 0001bf ED0C          MOV dbl(*SP(#6)), XAR2
         0001c1 AF   
     814 0001c2 ED0C          MOV dbl(*SP(#6)), XAR3
         0001c4 BF   
     815 0001c5 A54D          MOV *AR2(#277), T1 ; |747| 
         0001c7 0115 
     816 0001c9 D36D          MPYM *AR3(#1160), T1, AC0 ; |747| 
         0001cb 0504 
         0001cd 88   
     817 0001ce 7DFF          AND #0xffff, AC0, AC0 ; |747| 
         0001d0 FF00 
     818 0001d2 EB24          MOV AC0, dbl(*SP(#18)) ; |747| 
         0001d4 08   
     819                      .dwpsn  file "C:/Users/a0221074/Desktop/C5000/IBM_Watson_TIdesign_workarea/CSL_bitbucket/c55_csl/c55x
     820 0001d5 A431          MOV *(#_SEG0), T0 ; |764| 
         0001d7 0000 
         0001d9 00!  
     821 0001da ED24          MOV dbl(*SP(#18)), AC0 ; |764| 
         0001dc 08   
     822              $C$DW$85        .dwtag  DW_TAG_TI_branch
     823                      .dwattr $C$DW$85, DW_AT_low_pc(0x00)
     824                      .dwattr $C$DW$85, DW_AT_name("_MEM_alloc")
     825                      .dwattr $C$DW$85, DW_AT_TI_call
     826              
     827 0001dd 6C00          CALL #_MEM_alloc ; |764| 
         0001df 0000!
     828 0001e1 3D01  ||      MOV #0, AC1 ; |764| 
     829              
     830                                                      ; call occurs [#_MEM_alloc] ; |764| 
TMS320C55x Assembler PC v4.4.1 Wed Sep 13 16:34:06 2017

Tools Copyright (c) 1996-2012 Texas Instruments Incorporated
C:\Users\a0221074\AppData\Local\Temp\0994410                         PAGE   20

     831 0001e3 ED0C          MOV dbl(*SP(#6)), XAR3
         0001e5 BF   
     832 0001e6 EB6D          MOV XAR0, dbl(*AR3(#2002))
         0001e8 8507 
         0001ea D2   
     833                      .dwpsn  file "C:/Users/a0221074/Desktop/C5000/IBM_Watson_TIdesign_workarea/CSL_bitbucket/c55_csl/c55x
     834 0001eb ED0C          MOV dbl(*SP(#6)), XAR3
         0001ed BF   
     835 0001ee ED6D          MOV dbl(*AR3(#2002)), XAR3
         0001f0 BF07 
         0001f2 D2   
     836 0001f3 90B0          MOV XAR3, AC0
     837 0001f5 6390          BCC $C$L9,AC0 != #0 ; |765| 
     838                                                      ; branchcc occurs ; |765| 
     839                      .dwpsn  file "C:/Users/a0221074/Desktop/C5000/IBM_Watson_TIdesign_workarea/CSL_bitbucket/c55_csl/c55x
     840 0001f7 7600          MOV #202, T0 ; |766| 
         0001f9 CA48 
     841 0001fb 0600          B $C$L13  ; |766| 
         0001fd C0   
     842                                                      ; branch occurs ; |766| 
     843 0001fe       $C$L9:    
     844                      .dwpsn  file "C:/Users/a0221074/Desktop/C5000/IBM_Watson_TIdesign_workarea/CSL_bitbucket/c55_csl/c55x
     845 0001fe 7648          MOV #18500, AC0 ; |789| 
         000200 4408 
     846 000202 EB1C          MOV AC0, dbl(*SP(#14)) ; |789| 
         000204 08   
     847                      .dwpsn  file "C:/Users/a0221074/Desktop/C5000/IBM_Watson_TIdesign_workarea/CSL_bitbucket/c55_csl/c55x
     848 000205 7607          MOV #2000, AC0 ; |793| 
         000207 D008 
     849 000209 EB20          MOV AC0, dbl(*SP(#16)) ; |793| 
         00020b 08   
     850                      .dwpsn  file "C:/Users/a0221074/Desktop/C5000/IBM_Watson_TIdesign_workarea/CSL_bitbucket/c55_csl/c55x
     851 00020c ED20          MOV dbl(*SP(#16)), AC0 ; |797| 
         00020e 08   
     852 00020f EB10          MOV AC0, dbl(*SP(#8)) ; |797| 
         000211 08   
     853                      .dwpsn  file "C:/Users/a0221074/Desktop/C5000/IBM_Watson_TIdesign_workarea/CSL_bitbucket/c55_csl/c55x
     854 000212 ED10          MOV dbl(*SP(#8)), AC1 ; |798| 
         000214 18   
     855 000215 1017          SFTL AC1, #1, AC0 ; |798| 
         000217 01   
     856              
     857 000218 ED1C          MOV dbl(*SP(#14)), AC1 ; |798| 
         00021a 18   
     858 00021b 2510  ||      ADD AC1, AC0 ; |798| 
     859              
     860 00021d 1204          CMPU AC1 > AC0, TC1 ; |798| 
         00021f 14   
     861 000220 63E4          BCC $C$L10,TC1 ; |798| 
     862                                                      ; branchcc occurs ; |798| 
     863                      .dwpsn  file "C:/Users/a0221074/Desktop/C5000/IBM_Watson_TIdesign_workarea/CSL_bitbucket/c55_csl/c55x
     864 000222 7600          MOV #202, T0 ; |799| 
         000224 CA48 
     865 000226 0600          B $C$L13  ; |799| 
         000228 95   
TMS320C55x Assembler PC v4.4.1 Wed Sep 13 16:34:06 2017

Tools Copyright (c) 1996-2012 Texas Instruments Incorporated
C:\Users\a0221074\AppData\Local\Temp\0994410                         PAGE   21

     866                                                      ; branch occurs ; |799| 
     867 000229       $C$L10:    
     868                      .dwpsn  file "C:/Users/a0221074/Desktop/C5000/IBM_Watson_TIdesign_workarea/CSL_bitbucket/c55_csl/c55x
     869 000229 ED10          MOV dbl(*SP(#8)), AC1 ; |802| 
         00022b 18   
     870 00022c 1017          SFTL AC1, #1, AC0 ; |802| 
         00022e 01   
     871 00022f 2410          ADD AC1, AC0 ; |802| 
     872 000231 ED1C          SUB AC0, dbl(*SP(#14)), AC1 ; |802| 
         000233 14   
     873 000234 1017          SFTL AC1, #4, AC0 ; |802| 
         000236 04   
     874              
     875 000237 7600          MOV #60, AC1 ; |802| 
         000239 3C18 
     876 00023b 2510  ||      ADD AC1, AC0 ; |802| 
     877              
     878              $C$DW$86        .dwtag  DW_TAG_TI_branch
     879                      .dwattr $C$DW$86, DW_AT_low_pc(0x00)
     880                      .dwattr $C$DW$86, DW_AT_name("__divul")
     881                      .dwattr $C$DW$86, DW_AT_TI_call
     882 00023d 6C00          CALL #__divul ; |802| 
         00023f 0000!
     883                                                      ; call occurs [#__divul] ; |802| 
     884 000241 EB18          MOV AC0, dbl(*SP(#12)) ; |802| 
         000243 08   
     885                      .dwpsn  file "C:/Users/a0221074/Desktop/C5000/IBM_Watson_TIdesign_workarea/CSL_bitbucket/c55_csl/c55x
     886 000244 ED18          MOV dbl(*SP(#12)), AC0 ; |810| 
         000246 08   
     887              
     888 00024a 1147          SFTL AC0, #1, AC1 ; |810| 
         00024c 01   
     889 000247 ED10  ||      MOV dbl(*SP(#8)), AC2 ; |810| 
         000249 28   
     890              
     891 00024d 1027          SFTL AC2, #1, AC0 ; |810| 
         00024f 01   
     892 000250 2501  ||      ADD AC0, AC1 ; |810| 
     893              
     894 000252 2420          ADD AC2, AC0 ; |810| 
     895 000254 ED1C          SUB AC0, dbl(*SP(#14)), AC0 ; |810| 
         000256 04   
     896 000257 2610          SUB AC1, AC0 ; |810| 
     897              $C$DW$87        .dwtag  DW_TAG_TI_branch
     898                      .dwattr $C$DW$87, DW_AT_low_pc(0x00)
     899                      .dwattr $C$DW$87, DW_AT_name("__divul")
     900                      .dwattr $C$DW$87, DW_AT_TI_call
     901              
     902 000259 6C00          CALL #__divul ; |810| 
         00025b 0000!
     903 00025d 3D31  ||      MOV #3, AC1 ; |810| 
     904              
     905                                                      ; call occurs [#__divul] ; |810| 
     906 00025f EB14          MOV AC0, dbl(*SP(#10)) ; |810| 
         000261 08   
TMS320C55x Assembler PC v4.4.1 Wed Sep 13 16:34:06 2017

Tools Copyright (c) 1996-2012 Texas Instruments Incorporated
C:\Users\a0221074\AppData\Local\Temp\0994410                         PAGE   22

     907                      .dwpsn  file "C:/Users/a0221074/Desktop/C5000/IBM_Watson_TIdesign_workarea/CSL_bitbucket/c55_csl/c55x
     908 000262 ED14          MOV dbl(*SP(#10)), AC0 ; |813| 
         000264 08   
     909 000265 6390          BCC $C$L11,AC0 != #0 ; |813| 
     910                                                      ; branchcc occurs ; |813| 
     911                      .dwpsn  file "C:/Users/a0221074/Desktop/C5000/IBM_Watson_TIdesign_workarea/CSL_bitbucket/c55_csl/c55x
     912 000267 7600          MOV #202, T0 ; |814| 
         000269 CA48 
     913 00026b 0600          B $C$L13  ; |814| 
         00026d 50   
     914                                                      ; branch occurs ; |814| 
     915 00026e       $C$L11:    
     916                      .dwpsn  file "C:/Users/a0221074/Desktop/C5000/IBM_Watson_TIdesign_workarea/CSL_bitbucket/c55_csl/c55x
     917 00026e ED10          MOV dbl(*SP(#8)), AC0 ; |847| 
         000270 08   
     918              
     919 000274 1147          SFTL AC0, #1, AC1 ; |847| 
         000276 01   
     920 000271 ED14  ||      MOV dbl(*SP(#10)), AC2 ; |847| 
         000273 28   
     921              
     922 000277 A431          MOV *(#_SEG0), T0 ; |847| 
         000279 0000 
         00027b 00!  
     923              
     924 00027c 1027          SFTL AC2, #1, AC0 ; |847| 
         00027e 01   
     925 00027f 2501  ||      ADD AC0, AC1 ; |847| 
     926              
     927 000281 ED18          MOV dbl(*SP(#12)), AC2 ; |847| 
         000283 28   
     928 000284 2520  ||      ADD AC2, AC0 ; |847| 
     929              
     930 000286 1067          SFTL AC2, #1, AC1 ; |847| 
         000288 01   
     931 000289 2510  ||      ADD AC1, AC0 ; |847| 
     932              
     933 00028b 2421          ADD AC2, AC1 ; |847| 
     934 00028d 2401          ADD AC0, AC1 ; |847| 
     935 00028f 7B01          ADD #400, AC1, AC0 ; |847| 
         000291 9001 
     936              $C$DW$88        .dwtag  DW_TAG_TI_branch
     937                      .dwattr $C$DW$88, DW_AT_low_pc(0x00)
     938                      .dwattr $C$DW$88, DW_AT_name("_MEM_alloc")
     939                      .dwattr $C$DW$88, DW_AT_TI_call
     940              
     941 000293 6C00          CALL #_MEM_alloc ; |847| 
         000295 0000!
     942 000297 3D01  ||      MOV #0, AC1 ; |847| 
     943              
     944                                                      ; call occurs [#_MEM_alloc] ; |847| 
     945 000299 EB28          MOV XAR0, dbl(*SP(#20))
         00029b 85   
     946                      .dwpsn  file "C:/Users/a0221074/Desktop/C5000/IBM_Watson_TIdesign_workarea/CSL_bitbucket/c55_csl/c55x
     947 00029c ED28          MOV dbl(*SP(#20)), XAR3
TMS320C55x Assembler PC v4.4.1 Wed Sep 13 16:34:06 2017

Tools Copyright (c) 1996-2012 Texas Instruments Incorporated
C:\Users\a0221074\AppData\Local\Temp\0994410                         PAGE   23

         00029e BF   
     948 00029f 90B0          MOV XAR3, AC0
     949 0002a1 6310          BCC $C$L12,AC0 != #0 ; |848| 
     950                                                      ; branchcc occurs ; |848| 
     951                      .dwpsn  file "C:/Users/a0221074/Desktop/C5000/IBM_Watson_TIdesign_workarea/CSL_bitbucket/c55_csl/c55x
     952 0002a3 7600          MOV #202, T0 ; |849| 
         0002a5 CA48 
     953 0002a7 4A15          B $C$L13  ; |849| 
     954                                                      ; branch occurs ; |849| 
     955 0002a9       $C$L12:    
     956                      .dwpsn  file "C:/Users/a0221074/Desktop/C5000/IBM_Watson_TIdesign_workarea/CSL_bitbucket/c55_csl/c55x
     957 0002a9 A412          MOV *SP(#9), T0 ; |851| 
     958 0002ab A516          MOV *SP(#11), T1 ; |851| 
     959 0002ad A91A          MOV *SP(#13), AR1 ; |851| 
     960 0002af ED0C          MOV dbl(*SP(#6)), XAR3
         0002b1 BF   
     961 0002b2 7600          MOV #200, AR2 ; |851| 
         0002b4 C8A8 
     962              $C$DW$89        .dwtag  DW_TAG_TI_branch
     963                      .dwattr $C$DW$89, DW_AT_low_pc(0x00)
     964                      .dwattr $C$DW$89, DW_AT_name("_set_search_space")
     965                      .dwattr $C$DW$89, DW_AT_TI_call
     966 0002b6 6C00          CALL #_set_search_space ; |851| 
         0002b8 0000!
     967                                                      ; call occurs [#_set_search_space] ; |851| 
     968                      .dwpsn  file "C:/Users/a0221074/Desktop/C5000/IBM_Watson_TIdesign_workarea/CSL_bitbucket/c55_csl/c55x
     969 0002ba 7600          MOV #100, T0 ; |855| 
         0002bc 6448 
     970 0002be       $C$L13:    
     971                      .dwpsn  file "C:/Users/a0221074/Desktop/C5000/IBM_Watson_TIdesign_workarea/CSL_bitbucket/c55_csl/c55x
     972 0002be 4E1B          AADD #27, SP
     973                      .dwcfi  cfa_offset, 1
     974              $C$DW$90        .dwtag  DW_TAG_TI_branch
     975                      .dwattr $C$DW$90, DW_AT_low_pc(0x00)
     976                      .dwattr $C$DW$90, DW_AT_TI_return
     977 0002c0 4804          RET
     978                                                      ; return occurs
     979                      .dwattr $C$DW$62, DW_AT_TI_end_file("C:/Users/a0221074/Desktop/C5000/IBM_Watson_TIdesign_workarea/CSL
     980                      .dwattr $C$DW$62, DW_AT_TI_end_line(0x35a)
     981                      .dwattr $C$DW$62, DW_AT_TI_end_column(0x01)
     982                      .dwendentry
     983                      .dwendtag $C$DW$62
     984              
     985 000000               .sect   ".text:_OpenASR"
     986                      .clink
     987                      .global _OpenASR
     988              
     989              $C$DW$91        .dwtag  DW_TAG_subprogram, DW_AT_name("OpenASR")
     990                      .dwattr $C$DW$91, DW_AT_low_pc(_OpenASR)
     991                      .dwattr $C$DW$91, DW_AT_high_pc(0x00)
     992                      .dwattr $C$DW$91, DW_AT_TI_symbol_name("_OpenASR")
     993                      .dwattr $C$DW$91, DW_AT_external
     994                      .dwattr $C$DW$91, DW_AT_type(*$C$DW$T$92)
     995                      .dwattr $C$DW$91, DW_AT_TI_begin_file("C:/Users/a0221074/Desktop/C5000/IBM_Watson_TIdesign_workarea/C
     996                      .dwattr $C$DW$91, DW_AT_TI_begin_line(0x369)
TMS320C55x Assembler PC v4.4.1 Wed Sep 13 16:34:06 2017

Tools Copyright (c) 1996-2012 Texas Instruments Incorporated
C:\Users\a0221074\AppData\Local\Temp\0994410                         PAGE   24

     997                      .dwattr $C$DW$91, DW_AT_TI_begin_column(0x17)
     998                      .dwattr $C$DW$91, DW_AT_TI_max_frame_size(0x0a)
     999                      .dwpsn  file "C:/Users/a0221074/Desktop/C5000/IBM_Watson_TIdesign_workarea/CSL_bitbucket/c55_csl/c55x
    1000              
    1001                      .dwfde $C$DW$CIE, _OpenASR
    1002              $C$DW$92        .dwtag  DW_TAG_formal_parameter, DW_AT_name("model_file_name")
    1003                      .dwattr $C$DW$92, DW_AT_TI_symbol_name("_model_file_name")
    1004                      .dwattr $C$DW$92, DW_AT_type(*$C$DW$T$74)
    1005                      .dwattr $C$DW$92, DW_AT_location[DW_OP_reg17]
    1006              $C$DW$93        .dwtag  DW_TAG_formal_parameter, DW_AT_name("total_words")
    1007                      .dwattr $C$DW$93, DW_AT_TI_symbol_name("_total_words")
    1008                      .dwattr $C$DW$93, DW_AT_type(*$C$DW$T$10)
    1009                      .dwattr $C$DW$93, DW_AT_location[DW_OP_reg12]
    1010              $C$DW$94        .dwtag  DW_TAG_formal_parameter, DW_AT_name("gv")
    1011                      .dwattr $C$DW$94, DW_AT_TI_symbol_name("_gv")
    1012                      .dwattr $C$DW$94, DW_AT_type(*$C$DW$T$94)
    1013                      .dwattr $C$DW$94, DW_AT_location[DW_OP_reg19]
    1014              ;*******************************************************************************
    1015              ;* FUNCTION NAME: OpenASR                                                      *
    1016              ;*                                                                             *
    1017              ;*   Function Uses Regs : AC0,AC0,T0,AR0,XAR0,AR1,XAR1,AR2,XAR2,AR3,XAR3,SP,   *
    1018              ;*                        TC1,M40,SATA,SATD,RDM,FRCT,SMUL                      *
    1019              ;*   Stack Frame        : Compact (No Frame Pointer, w/ debug)                 *
    1020              ;*   Total Frame Size   : 10 words                                             *
    1021              ;*                        (2 return address/alignment)                         *
    1022              ;*                        (8 local values)                                     *
    1023              ;*   Min System Stack   : 1 word                                               *
    1024              ;*******************************************************************************
    1025 000000       _OpenASR:
    1026                      .dwcfi  cfa_offset, 1
    1027                      .dwcfi  save_reg_to_mem, 91, -1
    1028 000000 4EF7          AADD #-9, SP
    1029                      .dwcfi  cfa_offset, 10
    1030              $C$DW$95        .dwtag  DW_TAG_variable, DW_AT_name("model_file_name")
    1031                      .dwattr $C$DW$95, DW_AT_TI_symbol_name("_model_file_name")
    1032                      .dwattr $C$DW$95, DW_AT_type(*$C$DW$T$74)
    1033                      .dwattr $C$DW$95, DW_AT_location[DW_OP_bregx 0x24 0]
    1034              $C$DW$96        .dwtag  DW_TAG_variable, DW_AT_name("total_words")
    1035                      .dwattr $C$DW$96, DW_AT_TI_symbol_name("_total_words")
    1036                      .dwattr $C$DW$96, DW_AT_type(*$C$DW$T$10)
    1037                      .dwattr $C$DW$96, DW_AT_location[DW_OP_bregx 0x24 2]
    1038              $C$DW$97        .dwtag  DW_TAG_variable, DW_AT_name("gv")
    1039                      .dwattr $C$DW$97, DW_AT_TI_symbol_name("_gv")
    1040                      .dwattr $C$DW$97, DW_AT_type(*$C$DW$T$94)
    1041                      .dwattr $C$DW$97, DW_AT_location[DW_OP_bregx 0x24 4]
    1042              $C$DW$98        .dwtag  DW_TAG_variable, DW_AT_name("status")
    1043                      .dwattr $C$DW$98, DW_AT_TI_symbol_name("_status")
    1044                      .dwattr $C$DW$98, DW_AT_type(*$C$DW$T$92)
    1045                      .dwattr $C$DW$98, DW_AT_location[DW_OP_bregx 0x24 6]
    1046              $C$DW$99        .dwtag  DW_TAG_variable, DW_AT_name("gvSize")
    1047                      .dwattr $C$DW$99, DW_AT_TI_symbol_name("_gvSize")
    1048                      .dwattr $C$DW$99, DW_AT_type(*$C$DW$T$11)
    1049                      .dwattr $C$DW$99, DW_AT_location[DW_OP_bregx 0x24 7]
    1050 000002 EB08          MOV XAR1, dbl(*SP(#4))
         000004 95   
TMS320C55x Assembler PC v4.4.1 Wed Sep 13 16:34:06 2017

Tools Copyright (c) 1996-2012 Texas Instruments Incorporated
C:\Users\a0221074\AppData\Local\Temp\0994410                         PAGE   25

    1051 000005 C404          MOV T0, *SP(#2) ; |875| 
    1052 000007 EB00          MOV XAR0, dbl(*SP(#0))
         000009 85   
    1053                      .dwpsn  file "C:/Users/a0221074/Desktop/C5000/IBM_Watson_TIdesign_workarea/CSL_bitbucket/c55_csl/c55x
    1054 00000a FB0E          MOV #2046, *SP(#7) ; |885| 
         00000c 07FE 
    1055                      .dwpsn  file "C:/Users/a0221074/Desktop/C5000/IBM_Watson_TIdesign_workarea/CSL_bitbucket/c55_csl/c55x
    1056 00000e AA04          MOV *SP(#2), AR2 ; |890| 
    1057 000010 A90E          MOV *SP(#7), AR1 ; |890| 
    1058 000012 12A8          CMPU AR2 >= AR1, TC1 ; |890| 
         000014 94   
    1059 000015 63E4          BCC $C$L14,TC1 ; |890| 
    1060                                                      ; branchcc occurs ; |890| 
    1061                      .dwpsn  file "C:/Users/a0221074/Desktop/C5000/IBM_Watson_TIdesign_workarea/CSL_bitbucket/c55_csl/c55x
    1062 000017 7601          MOV #402, T0 ; |891| 
         000019 9248 
    1063 00001b 0600          B $C$L15  ; |891| 
         00001d 60   
    1064                                                      ; branch occurs ; |891| 
    1065 00001e       $C$L14:    
    1066                      .dwpsn  file "C:/Users/a0221074/Desktop/C5000/IBM_Watson_TIdesign_workarea/CSL_bitbucket/c55_csl/c55x
    1067 00001e ED08          MOV dbl(*SP(#4)), XAR3
         000020 BF   
    1068 000021 3C00          MOV #0, AC0 ; |893| 
    1069 000023 EB6D          MOV AC0, dbl(*AR3(#1210))
         000025 0804 
         000027 BA   
    1070                      .dwpsn  file "C:/Users/a0221074/Desktop/C5000/IBM_Watson_TIdesign_workarea/CSL_bitbucket/c55_csl/c55x
    1071 000028 EC31          AMOV #0, XAR2 ; |898| 
         00002a AE00 
         00002c 0000 
    1072 00002e ED00          MOV dbl(*SP(#0)), XAR0
         000030 8F   
    1073 000031 ED08          MOV dbl(*SP(#4)), XAR1
         000033 9F   
    1074 000034 EC31          AMOV #0, XAR3 ; |898| 
         000036 BE00 
         000038 0000 
    1075              $C$DW$100       .dwtag  DW_TAG_TI_branch
    1076                      .dwattr $C$DW$100, DW_AT_low_pc(0x00)
    1077                      .dwattr $C$DW$100, DW_AT_name("_load_models")
    1078                      .dwattr $C$DW$100, DW_AT_TI_call
    1079              
    1080 00003a 6C00          CALL #_load_models ; |898| 
         00003c 0000!
    1081 00003e 3D04  ||      MOV #0, T0
    1082              
    1083                                                      ; call occurs [#_load_models] ; |898| 
    1084 000040 C40C          MOV T0, *SP(#6) ; |898| 
    1085                      .dwpsn  file "C:/Users/a0221074/Desktop/C5000/IBM_Watson_TIdesign_workarea/CSL_bitbucket/c55_csl/c55x
    1086 000042 F00C          CMP *SP(#6) == #100, TC1 ; |900| 
         000044 0064 
    1087 000046 0474          BCC $C$L15,!TC1 ; |900| 
         000048 35   
    1088                                                      ; branchcc occurs ; |900| 
TMS320C55x Assembler PC v4.4.1 Wed Sep 13 16:34:06 2017

Tools Copyright (c) 1996-2012 Texas Instruments Incorporated
C:\Users\a0221074\AppData\Local\Temp\0994410                         PAGE   26

    1089                      .dwpsn  file "C:/Users/a0221074/Desktop/C5000/IBM_Watson_TIdesign_workarea/CSL_bitbucket/c55_csl/c55x
    1090                      .dwpsn  file "C:/Users/a0221074/Desktop/C5000/IBM_Watson_TIdesign_workarea/CSL_bitbucket/c55_csl/c55x
    1091 000049 ED08          MOV dbl(*SP(#4)), XAR3
         00004b BF   
    1092 00004c A904          MOV *SP(#2), AR1 ; |906| 
    1093 00004e C96D          MOV AR1, *AR3(#1171) ; |906| 
         000050 0493 
    1094                      .dwpsn  file "C:/Users/a0221074/Desktop/C5000/IBM_Watson_TIdesign_workarea/CSL_bitbucket/c55_csl/c55x
    1095 000052 ED08          MOV dbl(*SP(#4)), XAR0
         000054 8F   
    1096 000055 EC31          AMOV #_K_mean, XAR1 ; |909| 
         000057 9E00 
         000059 0000+
    1097              $C$DW$101       .dwtag  DW_TAG_TI_branch
    1098                      .dwattr $C$DW$101, DW_AT_low_pc(0x00)
    1099                      .dwattr $C$DW$101, DW_AT_name("_Init_Search")
    1100                      .dwattr $C$DW$101, DW_AT_TI_call
    1101 00005b 6C00          CALL #_Init_Search ; |909| 
         00005d 0000+
    1102                                                      ; call occurs [#_Init_Search] ; |909| 
    1103                      .dwpsn  file "C:/Users/a0221074/Desktop/C5000/IBM_Watson_TIdesign_workarea/CSL_bitbucket/c55_csl/c55x
    1104 00005f 7600          MOV #200, T0 ; |921| 
         000061 C848 
    1105 000063 ED08          MOV dbl(*SP(#4)), XAR0
         000065 8F   
    1106 000066 ED00          MOV dbl(*SP(#0)), XAR1
         000068 9F   
    1107              $C$DW$102       .dwtag  DW_TAG_TI_branch
    1108                      .dwattr $C$DW$102, DW_AT_low_pc(0x00)
    1109                      .dwattr $C$DW$102, DW_AT_name("_AllocateTIesrMemory")
    1110                      .dwattr $C$DW$102, DW_AT_TI_call
    1111 000069 6C00          CALL #_AllocateTIesrMemory ; |921| 
         00006b 0000+
    1112                                                      ; call occurs [#_AllocateTIesrMemory] ; |921| 
    1113 00006d C40C          MOV T0, *SP(#6) ; |921| 
    1114                      .dwpsn  file "C:/Users/a0221074/Desktop/C5000/IBM_Watson_TIdesign_workarea/CSL_bitbucket/c55_csl/c55x
    1115 00006f F00C          CMP *SP(#6) == #100, TC1 ; |925| 
         000071 0064 
    1116 000073 64F4          BCC $C$L15,!TC1 ; |925| 
    1117                                                      ; branchcc occurs ; |925| 
    1118                      .dwpsn  file "C:/Users/a0221074/Desktop/C5000/IBM_Watson_TIdesign_workarea/CSL_bitbucket/c55_csl/c55x
    1119                      .dwpsn  file "C:/Users/a0221074/Desktop/C5000/IBM_Watson_TIdesign_workarea/CSL_bitbucket/c55_csl/c55x
    1120 000075 ED08          MOV dbl(*SP(#4)), XAR0
         000077 8F   
    1121              $C$DW$103       .dwtag  DW_TAG_TI_branch
    1122                      .dwattr $C$DW$103, DW_AT_low_pc(0x00)
    1123                      .dwattr $C$DW$103, DW_AT_name("_SetDefault")
    1124                      .dwattr $C$DW$103, DW_AT_TI_call
    1125 000078 6C00          CALL #_SetDefault ; |929| 
         00007a 0000+
    1126                                                      ; call occurs [#_SetDefault] ; |929| 
    1127                      .dwpsn  file "C:/Users/a0221074/Desktop/C5000/IBM_Watson_TIdesign_workarea/CSL_bitbucket/c55_csl/c55x
    1128 00007c A40C          MOV *SP(#6), T0 ; |931| 
    1129 00007e       $C$L15:    
    1130                      .dwpsn  file "C:/Users/a0221074/Desktop/C5000/IBM_Watson_TIdesign_workarea/CSL_bitbucket/c55_csl/c55x
TMS320C55x Assembler PC v4.4.1 Wed Sep 13 16:34:06 2017

Tools Copyright (c) 1996-2012 Texas Instruments Incorporated
C:\Users\a0221074\AppData\Local\Temp\0994410                         PAGE   27

    1131 00007e 4E09          AADD #9, SP
    1132                      .dwcfi  cfa_offset, 1
    1133              $C$DW$104       .dwtag  DW_TAG_TI_branch
    1134                      .dwattr $C$DW$104, DW_AT_low_pc(0x00)
    1135                      .dwattr $C$DW$104, DW_AT_TI_return
    1136 000080 4804          RET
    1137                                                      ; return occurs
    1138                      .dwattr $C$DW$91, DW_AT_TI_end_file("C:/Users/a0221074/Desktop/C5000/IBM_Watson_TIdesign_workarea/CSL
    1139                      .dwattr $C$DW$91, DW_AT_TI_end_line(0x3a4)
    1140                      .dwattr $C$DW$91, DW_AT_TI_end_column(0x01)
    1141                      .dwendentry
    1142                      .dwendtag $C$DW$91
    1143              
    1144 000000               .sect   ".text:_CloseASR"
    1145                      .clink
    1146                      .global _CloseASR
    1147              
    1148              $C$DW$105       .dwtag  DW_TAG_subprogram, DW_AT_name("CloseASR")
    1149                      .dwattr $C$DW$105, DW_AT_low_pc(_CloseASR)
    1150                      .dwattr $C$DW$105, DW_AT_high_pc(0x00)
    1151                      .dwattr $C$DW$105, DW_AT_TI_symbol_name("_CloseASR")
    1152                      .dwattr $C$DW$105, DW_AT_external
    1153                      .dwattr $C$DW$105, DW_AT_TI_begin_file("C:/Users/a0221074/Desktop/C5000/IBM_Watson_TIdesign_workarea/
    1154                      .dwattr $C$DW$105, DW_AT_TI_begin_line(0x3a8)
    1155                      .dwattr $C$DW$105, DW_AT_TI_begin_column(0x06)
    1156                      .dwattr $C$DW$105, DW_AT_TI_max_frame_size(0x06)
    1157                      .dwpsn  file "C:/Users/a0221074/Desktop/C5000/IBM_Watson_TIdesign_workarea/CSL_bitbucket/c55_csl/c55x
    1158              
    1159                      .dwfde $C$DW$CIE, _CloseASR
    1160              $C$DW$106       .dwtag  DW_TAG_formal_parameter, DW_AT_name("gvv")
    1161                      .dwattr $C$DW$106, DW_AT_TI_symbol_name("_gvv")
    1162                      .dwattr $C$DW$106, DW_AT_type(*$C$DW$T$94)
    1163                      .dwattr $C$DW$106, DW_AT_location[DW_OP_reg17]
    1164              ;*******************************************************************************
    1165              ;* FUNCTION NAME: CloseASR                                                     *
    1166              ;*                                                                             *
    1167              ;*   Function Uses Regs : AR0,XAR0,AR3,XAR3,SP,M40,SATA,SATD,RDM,FRCT,SMUL     *
    1168              ;*   Stack Frame        : Compact (No Frame Pointer, w/ debug)                 *
    1169              ;*   Total Frame Size   : 6 words                                              *
    1170              ;*                        (2 return address/alignment)                         *
    1171              ;*                        (4 local values)                                     *
    1172              ;*   Min System Stack   : 1 word                                               *
    1173              ;*******************************************************************************
    1174 000000       _CloseASR:
    1175                      .dwcfi  cfa_offset, 1
    1176                      .dwcfi  save_reg_to_mem, 91, -1
    1177 000000 4EFB          AADD #-5, SP
    1178                      .dwcfi  cfa_offset, 6
    1179              $C$DW$107       .dwtag  DW_TAG_variable, DW_AT_name("gvv")
    1180                      .dwattr $C$DW$107, DW_AT_TI_symbol_name("_gvv")
    1181                      .dwattr $C$DW$107, DW_AT_type(*$C$DW$T$94)
    1182                      .dwattr $C$DW$107, DW_AT_location[DW_OP_bregx 0x24 0]
    1183              $C$DW$108       .dwtag  DW_TAG_variable, DW_AT_name("gv")
    1184                      .dwattr $C$DW$108, DW_AT_TI_symbol_name("_gv")
    1185                      .dwattr $C$DW$108, DW_AT_type(*$C$DW$T$94)
TMS320C55x Assembler PC v4.4.1 Wed Sep 13 16:34:06 2017

Tools Copyright (c) 1996-2012 Texas Instruments Incorporated
C:\Users\a0221074\AppData\Local\Temp\0994410                         PAGE   28

    1186                      .dwattr $C$DW$108, DW_AT_location[DW_OP_bregx 0x24 2]
    1187 000002 EB00          MOV XAR0, dbl(*SP(#0))
         000004 85   
    1188                      .dwpsn  file "C:/Users/a0221074/Desktop/C5000/IBM_Watson_TIdesign_workarea/CSL_bitbucket/c55_csl/c55x
    1189 000005 ED00          MOV dbl(*SP(#0)), XAR3
         000007 BF   
    1190 000008 EB04          MOV XAR3, dbl(*SP(#2))
         00000a B5   
    1191                      .dwpsn  file "C:/Users/a0221074/Desktop/C5000/IBM_Watson_TIdesign_workarea/CSL_bitbucket/c55_csl/c55x
    1192              $C$DW$109       .dwtag  DW_TAG_TI_branch
    1193                      .dwattr $C$DW$109, DW_AT_low_pc(0x00)
    1194                      .dwattr $C$DW$109, DW_AT_name("_free_models")
    1195                      .dwattr $C$DW$109, DW_AT_TI_call
    1196 00000b 6C00          CALL #_free_models ; |940| 
         00000d 0000!
    1197                                                      ; call occurs [#_free_models] ; |940| 
    1198                      .dwpsn  file "C:/Users/a0221074/Desktop/C5000/IBM_Watson_TIdesign_workarea/CSL_bitbucket/c55_csl/c55x
    1199 00000f ED04          MOV dbl(*SP(#2)), XAR0
         000011 8F   
    1200              $C$DW$110       .dwtag  DW_TAG_TI_branch
    1201                      .dwattr $C$DW$110, DW_AT_low_pc(0x00)
    1202                      .dwattr $C$DW$110, DW_AT_name("_cm_close")
    1203                      .dwattr $C$DW$110, DW_AT_TI_call
    1204 000012 6C00          CALL #_cm_close ; |959| 
         000014 0000!
    1205                                                      ; call occurs [#_cm_close] ; |959| 
    1206                      .dwpsn  file "C:/Users/a0221074/Desktop/C5000/IBM_Watson_TIdesign_workarea/CSL_bitbucket/c55_csl/c55x
    1207 000016 4E05          AADD #5, SP
    1208                      .dwcfi  cfa_offset, 1
    1209              $C$DW$111       .dwtag  DW_TAG_TI_branch
    1210                      .dwattr $C$DW$111, DW_AT_low_pc(0x00)
    1211                      .dwattr $C$DW$111, DW_AT_TI_return
    1212 000018 4804          RET
    1213                                                      ; return occurs
    1214                      .dwattr $C$DW$105, DW_AT_TI_end_file("C:/Users/a0221074/Desktop/C5000/IBM_Watson_TIdesign_workarea/CS
    1215                      .dwattr $C$DW$105, DW_AT_TI_end_line(0x3c6)
    1216                      .dwattr $C$DW$105, DW_AT_TI_end_column(0x01)
    1217                      .dwendentry
    1218                      .dwendtag $C$DW$105
    1219              
    1220              ;******************************************************************************
    1221              ;* UNDEFINED EXTERNAL REFERENCES                                              *
    1222              ;******************************************************************************
    1223                      .global _MEM_alloc
    1224                      .global _set_search_space
    1225                      .global _dim_p2_init
    1226                      .global _set_default_uttdet
    1227                      .global _free_models
    1228                      .global _load_models
    1229                      .global _JAC_set_default_params
    1230                      .global _cm_open
    1231                      .global _cm_set_param
    1232                      .global _cm_close
    1233                      .global _SEG0
    1234                      .global __divul
TMS320C55x Assembler PC v4.4.1 Wed Sep 13 16:34:06 2017

Tools Copyright (c) 1996-2012 Texas Instruments Incorporated
C:\Users\a0221074\AppData\Local\Temp\0994410                         PAGE   29

    1235              
    1236              ;*******************************************************************************
    1237              ;* TYPE INFORMATION                                                            *
    1238              ;*******************************************************************************
    1239              
    1240              $C$DW$T$91      .dwtag  DW_TAG_enumeration_type
    1241                      .dwattr $C$DW$T$91, DW_AT_byte_size(0x01)
    1242              $C$DW$112       .dwtag  DW_TAG_enumerator, DW_AT_name("eTIesrEngineSuccess"), DW_AT_const_value(0x64)
    1243              $C$DW$113       .dwtag  DW_TAG_enumerator, DW_AT_name("eTIesrEngineEvalCellOverflow"), DW_AT_const_value(0x65
    1244              $C$DW$114       .dwtag  DW_TAG_enumerator, DW_AT_name("eTIesrEngineBeamCellOverflow"), DW_AT_const_value(0x66
    1245              $C$DW$115       .dwtag  DW_TAG_enumerator, DW_AT_name("eTIesrEngineTimeCellOverflow"), DW_AT_const_value(0x67
    1246              $C$DW$116       .dwtag  DW_TAG_enumerator, DW_AT_name("eTIesrEngineSearchSpace"), DW_AT_const_value(0xc8)
    1247              $C$DW$117       .dwtag  DW_TAG_enumerator, DW_AT_name("eTIesrEngineSearchMemoryLimit"), DW_AT_const_value(0xc
    1248              $C$DW$118       .dwtag  DW_TAG_enumerator, DW_AT_name("eTIesrEngineSearchMemorySize"), DW_AT_const_value(0xca
    1249              $C$DW$119       .dwtag  DW_TAG_enumerator, DW_AT_name("eTIesrEngineVQHMMMemorySize"), DW_AT_const_value(0xcb)
    1250              $C$DW$120       .dwtag  DW_TAG_enumerator, DW_AT_name("eTIesrEngineVQHMMGarbage"), DW_AT_const_value(0xcc)
    1251              $C$DW$121       .dwtag  DW_TAG_enumerator, DW_AT_name("eTIesrEngineVQHMMSave"), DW_AT_const_value(0xcd)
    1252              $C$DW$122       .dwtag  DW_TAG_enumerator, DW_AT_name("eTIesrEngineVQHMMLoad"), DW_AT_const_value(0xce)
    1253              $C$DW$123       .dwtag  DW_TAG_enumerator, DW_AT_name("eTIesrEngineCompFail"), DW_AT_const_value(0xcf)
    1254              $C$DW$124       .dwtag  DW_TAG_enumerator, DW_AT_name("eTIesrEngineFeatureMemoryOut"), DW_AT_const_value(0x12
    1255              $C$DW$125       .dwtag  DW_TAG_enumerator, DW_AT_name("eTIesrEngineSegmentMemoryOut"), DW_AT_const_value(0x12
    1256              $C$DW$126       .dwtag  DW_TAG_enumerator, DW_AT_name("eTIesrEngineMuSpaceMemoryOut"), DW_AT_const_value(0x12
    1257              $C$DW$127       .dwtag  DW_TAG_enumerator, DW_AT_name("eTIesrEngineFeatureFrameOut"), DW_AT_const_value(0x12f
    1258              $C$DW$128       .dwtag  DW_TAG_enumerator, DW_AT_name("eTIesrEngineAnswerMemoryOut"), DW_AT_const_value(0x130
    1259              $C$DW$129       .dwtag  DW_TAG_enumerator, DW_AT_name("eTIesrEngineTimeOut"), DW_AT_const_value(0x131)
    1260              $C$DW$130       .dwtag  DW_TAG_enumerator, DW_AT_name("eTIesrEngineNBestMem"), DW_AT_const_value(0x132)
    1261              $C$DW$131       .dwtag  DW_TAG_enumerator, DW_AT_name("eTIesrEngineModelLoadFail"), DW_AT_const_value(0x190)
    1262              $C$DW$132       .dwtag  DW_TAG_enumerator, DW_AT_name("eTIesrEngineAlignmentFail"), DW_AT_const_value(0x191)
    1263              $C$DW$133       .dwtag  DW_TAG_enumerator, DW_AT_name("eTIesrEngineMemorySizeFail"), DW_AT_const_value(0x192)
    1264              $C$DW$134       .dwtag  DW_TAG_enumerator, DW_AT_name("eTIesrEngineFailedJAC"), DW_AT_const_value(0x1a9)
    1265              $C$DW$135       .dwtag  DW_TAG_enumerator, DW_AT_name("eTIesrEngineFeatureDimensionFail"), DW_AT_const_value(
    1266              $C$DW$136       .dwtag  DW_TAG_enumerator, DW_AT_name("eTIesrEngineSegmentSizeCheckFail"), DW_AT_const_value(
    1267              $C$DW$137       .dwtag  DW_TAG_enumerator, DW_AT_name("eTIesrEngineModelFileFail"), DW_AT_const_value(0x1c4)
    1268              $C$DW$138       .dwtag  DW_TAG_enumerator, DW_AT_name("eTIesrEngineSaveFail"), DW_AT_const_value(0x1c5)
    1269              $C$DW$139       .dwtag  DW_TAG_enumerator, DW_AT_name("eTIesrEngineEnrollLoadFail"), DW_AT_const_value(0x1c6)
    1270              $C$DW$140       .dwtag  DW_TAG_enumerator, DW_AT_name("eTIesrEngineBackgoundCreationFail"), DW_AT_const_value
    1271              $C$DW$141       .dwtag  DW_TAG_enumerator, DW_AT_name("eTIesrEngineStateMemoryOut"), DW_AT_const_value(0x1f4)
    1272              $C$DW$142       .dwtag  DW_TAG_enumerator, DW_AT_name("eTIesrEngineSearchMemoryOut"), DW_AT_const_value(0x1f5
    1273              $C$DW$143       .dwtag  DW_TAG_enumerator, DW_AT_name("eTIesrEngineModelMemorySize"), DW_AT_const_value(0x258
    1274              $C$DW$144       .dwtag  DW_TAG_enumerator, DW_AT_name("eTIesrEngineFeatureMemorySize"), DW_AT_const_value(0x2
    1275              $C$DW$145       .dwtag  DW_TAG_enumerator, DW_AT_name("eTIesrEngineNetworkMemorySize"), DW_AT_const_value(0x2
    1276              $C$DW$146       .dwtag  DW_TAG_enumerator, DW_AT_name("eTIesrEngineModelSize"), DW_AT_const_value(0x25b)
    1277              $C$DW$147       .dwtag  DW_TAG_enumerator, DW_AT_name("eTIesrEngineBackTrackMemorySize"), DW_AT_const_value(0
    1278              $C$DW$148       .dwtag  DW_TAG_enumerator, DW_AT_name("eTIesrEngineCMMemorySize"), DW_AT_const_value(0x25d)
    1279              $C$DW$149       .dwtag  DW_TAG_enumerator, DW_AT_name("eTIesrEngineVALTreeMemorySize"), DW_AT_const_value(0x2
    1280              $C$DW$150       .dwtag  DW_TAG_enumerator, DW_AT_name("eTIesrEngineSym2PosMapSize"), DW_AT_const_value(0x25f)
    1281              $C$DW$151       .dwtag  DW_TAG_enumerator, DW_AT_name("eTIesrEngineShortUtterance"), DW_AT_const_value(0x2bc)
    1282              $C$DW$152       .dwtag  DW_TAG_enumerator, DW_AT_name("eTIesrTTSLoadHMM2Phone"), DW_AT_const_value(0x320)
    1283              $C$DW$153       .dwtag  DW_TAG_enumerator, DW_AT_name("eTIesrTTSNoSilencePhone"), DW_AT_const_value(0x321)
    1284              $C$DW$154       .dwtag  DW_TAG_enumerator, DW_AT_name("eTIesrTTSLoadPhone2Voicing"), DW_AT_const_value(0x322)
    1285              $C$DW$155       .dwtag  DW_TAG_enumerator, DW_AT_name("eTIesrTTSLoadPhoneDuration"), DW_AT_const_value(0x323)
    1286              $C$DW$156       .dwtag  DW_TAG_enumerator, DW_AT_name("eTIesrTTSPhoneMismatch"), DW_AT_const_value(0x324)
    1287              $C$DW$157       .dwtag  DW_TAG_enumerator, DW_AT_name("eTIesrTTSPhoneMissWord"), DW_AT_const_value(0x325)
    1288              $C$DW$158       .dwtag  DW_TAG_enumerator, DW_AT_name("eTIesrTTSPhoneDuration"), DW_AT_const_value(0x326)
    1289              $C$DW$159       .dwtag  DW_TAG_enumerator, DW_AT_name("eTIesrTTSPhoneWord"), DW_AT_const_value(0x327)
TMS320C55x Assembler PC v4.4.1 Wed Sep 13 16:34:06 2017

Tools Copyright (c) 1996-2012 Texas Instruments Incorporated
C:\Users\a0221074\AppData\Local\Temp\0994410                         PAGE   30

    1290              $C$DW$160       .dwtag  DW_TAG_enumerator, DW_AT_name("eTIesrTTSSaveTTSMean"), DW_AT_const_value(0x328)
    1291              $C$DW$161       .dwtag  DW_TAG_enumerator, DW_AT_name("eTIesrTTSSaveVoicing"), DW_AT_const_value(0x329)
    1292              $C$DW$162       .dwtag  DW_TAG_enumerator, DW_AT_name("eTIesrTTSSaveDuration"), DW_AT_const_value(0x32a)
    1293              $C$DW$163       .dwtag  DW_TAG_enumerator, DW_AT_name("eTIesrTTSTTS"), DW_AT_const_value(0x32b)
    1294              $C$DW$164       .dwtag  DW_TAG_enumerator, DW_AT_name("eTIesrTTSPhoneList"), DW_AT_const_value(0x32c)
    1295              $C$DW$165       .dwtag  DW_TAG_enumerator, DW_AT_name("eTIesrTTSNumPhones"), DW_AT_const_value(0x32d)
    1296              $C$DW$166       .dwtag  DW_TAG_enumerator, DW_AT_name("eTIesrTTSNumWords"), DW_AT_const_value(0x32e)
    1297              $C$DW$167       .dwtag  DW_TAG_enumerator, DW_AT_name("eTIesrTTSOutputFile"), DW_AT_const_value(0x32f)
    1298              $C$DW$168       .dwtag  DW_TAG_enumerator, DW_AT_name("eTIesrTTSInputMFCC"), DW_AT_const_value(0x330)
    1299              $C$DW$169       .dwtag  DW_TAG_enumerator, DW_AT_name("eTIesrTTSInputDuration"), DW_AT_const_value(0x331)
    1300              $C$DW$170       .dwtag  DW_TAG_enumerator, DW_AT_name("eTIesrTTSInputVoicing"), DW_AT_const_value(0x332)
    1301              $C$DW$171       .dwtag  DW_TAG_enumerator, DW_AT_name("eTIesrTTSNotFound"), DW_AT_const_value(0x333)
    1302              $C$DW$172       .dwtag  DW_TAG_enumerator, DW_AT_name("eTIesrTTSOutputMeanSize"), DW_AT_const_value(0x334)
    1303              $C$DW$173       .dwtag  DW_TAG_enumerator, DW_AT_name("eTIesrTTSOutput"), DW_AT_const_value(0x335)
    1304                      .dwendtag $C$DW$T$91
    1305              
    1306              $C$DW$T$92      .dwtag  DW_TAG_typedef, DW_AT_name("TIesrEngineStatusType")
    1307                      .dwattr $C$DW$T$92, DW_AT_type(*$C$DW$T$91)
    1308                      .dwattr $C$DW$T$92, DW_AT_language(DW_LANG_C)
    1309              
    1310              $C$DW$T$102     .dwtag  DW_TAG_enumeration_type
    1311                      .dwattr $C$DW$T$102, DW_AT_byte_size(0x01)
    1312              $C$DW$174       .dwtag  DW_TAG_enumerator, DW_AT_name("eTIesrEngineJACSuccess"), DW_AT_const_value(0x00)
    1313              $C$DW$175       .dwtag  DW_TAG_enumerator, DW_AT_name("eTIesrEngineJACMemoryFail"), DW_AT_const_value(0x01)
    1314              $C$DW$176       .dwtag  DW_TAG_enumerator, DW_AT_name("eTIesrEngineJACLoadFail"), DW_AT_const_value(0x02)
    1315              $C$DW$177       .dwtag  DW_TAG_enumerator, DW_AT_name("eTIesrEngineJACReset"), DW_AT_const_value(0x03)
    1316              $C$DW$178       .dwtag  DW_TAG_enumerator, DW_AT_name("eTIesrEngineJACSaveFail"), DW_AT_const_value(0x04)
    1317              $C$DW$179       .dwtag  DW_TAG_enumerator, DW_AT_name("eTIesrEngineJACSBCInitFail"), DW_AT_const_value(0x05)
    1318              $C$DW$180       .dwtag  DW_TAG_enumerator, DW_AT_name("eTIesrEngineJACSBCLoadFail"), DW_AT_const_value(0x06)
    1319              $C$DW$181       .dwtag  DW_TAG_enumerator, DW_AT_name("eTIesrEngineJACSVAFail"), DW_AT_const_value(0x07)
    1320              $C$DW$182       .dwtag  DW_TAG_enumerator, DW_AT_name("eTIesrEngineJACFail"), DW_AT_const_value(0x08)
    1321              $C$DW$183       .dwtag  DW_TAG_enumerator, DW_AT_name("eTIesrEngineJACNoAlignment"), DW_AT_const_value(0x09)
    1322              $C$DW$184       .dwtag  DW_TAG_enumerator, DW_AT_name("eTIesrEngineJACRJLoadFail"), DW_AT_const_value(0x0a)
    1323                      .dwendtag $C$DW$T$102
    1324              
    1325              $C$DW$T$103     .dwtag  DW_TAG_typedef, DW_AT_name("TIesrEngineJACStatusType")
    1326                      .dwattr $C$DW$T$103, DW_AT_type(*$C$DW$T$102)
    1327                      .dwattr $C$DW$T$103, DW_AT_language(DW_LANG_C)
    1328              
    1329              $C$DW$T$19      .dwtag  DW_TAG_structure_type
    1330                      .dwattr $C$DW$T$19, DW_AT_byte_size(0x03)
    1331              $C$DW$185       .dwtag  DW_TAG_member
    1332                      .dwattr $C$DW$185, DW_AT_type(*$C$DW$T$8)
    1333                      .dwattr $C$DW$185, DW_AT_name("num")
    1334                      .dwattr $C$DW$185, DW_AT_TI_symbol_name("_num")
    1335                      .dwattr $C$DW$185, DW_AT_data_member_location[DW_OP_plus_uconst 0x0]
    1336                      .dwattr $C$DW$185, DW_AT_accessibility(DW_ACCESS_public)
    1337              $C$DW$186       .dwtag  DW_TAG_member
    1338                      .dwattr $C$DW$186, DW_AT_type(*$C$DW$T$8)
    1339                      .dwattr $C$DW$186, DW_AT_name("x1")
    1340                      .dwattr $C$DW$186, DW_AT_TI_symbol_name("_x1")
    1341                      .dwattr $C$DW$186, DW_AT_data_member_location[DW_OP_plus_uconst 0x1]
    1342                      .dwattr $C$DW$186, DW_AT_accessibility(DW_ACCESS_public)
    1343              $C$DW$187       .dwtag  DW_TAG_member
    1344                      .dwattr $C$DW$187, DW_AT_type(*$C$DW$T$8)
TMS320C55x Assembler PC v4.4.1 Wed Sep 13 16:34:06 2017

Tools Copyright (c) 1996-2012 Texas Instruments Incorporated
C:\Users\a0221074\AppData\Local\Temp\0994410                         PAGE   31

    1345                      .dwattr $C$DW$187, DW_AT_name("x2")
    1346                      .dwattr $C$DW$187, DW_AT_TI_symbol_name("_x2")
    1347                      .dwattr $C$DW$187, DW_AT_data_member_location[DW_OP_plus_uconst 0x2]
    1348                      .dwattr $C$DW$187, DW_AT_accessibility(DW_ACCESS_public)
    1349                      .dwendtag $C$DW$T$19
    1350              
    1351              $C$DW$T$56      .dwtag  DW_TAG_typedef, DW_AT_name("mel_filter_type")
    1352                      .dwattr $C$DW$T$56, DW_AT_type(*$C$DW$T$19)
    1353                      .dwattr $C$DW$T$56, DW_AT_language(DW_LANG_C)
    1354              $C$DW$188       .dwtag  DW_TAG_TI_far_type
    1355                      .dwattr $C$DW$188, DW_AT_type(*$C$DW$T$56)
    1356              $C$DW$T$57      .dwtag  DW_TAG_const_type
    1357                      .dwattr $C$DW$T$57, DW_AT_type(*$C$DW$188)
    1358              $C$DW$T$58      .dwtag  DW_TAG_pointer_type
    1359                      .dwattr $C$DW$T$58, DW_AT_type(*$C$DW$T$57)
    1360                      .dwattr $C$DW$T$58, DW_AT_address_class(0x17)
    1361              
    1362              $C$DW$T$23      .dwtag  DW_TAG_structure_type
    1363                      .dwattr $C$DW$T$23, DW_AT_byte_size(0x18)
    1364              $C$DW$189       .dwtag  DW_TAG_member
    1365                      .dwattr $C$DW$189, DW_AT_type(*$C$DW$T$20)
    1366                      .dwattr $C$DW$189, DW_AT_name("max_mem_usage")
    1367                      .dwattr $C$DW$189, DW_AT_TI_symbol_name("_max_mem_usage")
    1368                      .dwattr $C$DW$189, DW_AT_data_member_location[DW_OP_plus_uconst 0x0]
    1369                      .dwattr $C$DW$189, DW_AT_accessibility(DW_ACCESS_public)
    1370              $C$DW$190       .dwtag  DW_TAG_member
    1371                      .dwattr $C$DW$190, DW_AT_type(*$C$DW$T$20)
    1372                      .dwattr $C$DW$190, DW_AT_name("n_terminals")
    1373                      .dwattr $C$DW$190, DW_AT_TI_symbol_name("_n_terminals")
    1374                      .dwattr $C$DW$190, DW_AT_data_member_location[DW_OP_plus_uconst 0x1]
    1375                      .dwattr $C$DW$190, DW_AT_accessibility(DW_ACCESS_public)
    1376              $C$DW$191       .dwtag  DW_TAG_member
    1377                      .dwattr $C$DW$191, DW_AT_type(*$C$DW$T$20)
    1378                      .dwattr $C$DW$191, DW_AT_name("n_monophones")
    1379                      .dwattr $C$DW$191, DW_AT_TI_symbol_name("_n_monophones")
    1380                      .dwattr $C$DW$191, DW_AT_data_member_location[DW_OP_plus_uconst 0x2]
    1381                      .dwattr $C$DW$191, DW_AT_accessibility(DW_ACCESS_public)
    1382              $C$DW$192       .dwtag  DW_TAG_member
    1383                      .dwattr $C$DW$192, DW_AT_type(*$C$DW$T$21)
    1384                      .dwattr $C$DW$192, DW_AT_name("hlrTreeBase")
    1385                      .dwattr $C$DW$192, DW_AT_TI_symbol_name("_hlrTreeBase")
    1386                      .dwattr $C$DW$192, DW_AT_data_member_location[DW_OP_plus_uconst 0x4]
    1387                      .dwattr $C$DW$192, DW_AT_accessibility(DW_ACCESS_public)
    1388              $C$DW$193       .dwtag  DW_TAG_member
    1389                      .dwattr $C$DW$193, DW_AT_type(*$C$DW$T$22)
    1390                      .dwattr $C$DW$193, DW_AT_name("hlrTerminal")
    1391                      .dwattr $C$DW$193, DW_AT_TI_symbol_name("_hlrTerminal")
    1392                      .dwattr $C$DW$193, DW_AT_data_member_location[DW_OP_plus_uconst 0x6]
    1393                      .dwattr $C$DW$193, DW_AT_accessibility(DW_ACCESS_public)
    1394              $C$DW$194       .dwtag  DW_TAG_member
    1395                      .dwattr $C$DW$194, DW_AT_type(*$C$DW$T$21)
    1396                      .dwattr $C$DW$194, DW_AT_name("pHMM2phone")
    1397                      .dwattr $C$DW$194, DW_AT_TI_symbol_name("_pHMM2phone")
    1398                      .dwattr $C$DW$194, DW_AT_data_member_location[DW_OP_plus_uconst 0x8]
    1399                      .dwattr $C$DW$194, DW_AT_accessibility(DW_ACCESS_public)
TMS320C55x Assembler PC v4.4.1 Wed Sep 13 16:34:06 2017

Tools Copyright (c) 1996-2012 Texas Instruments Incorporated
C:\Users\a0221074\AppData\Local\Temp\0994410                         PAGE   32

    1400              $C$DW$195       .dwtag  DW_TAG_member
    1401                      .dwattr $C$DW$195, DW_AT_type(*$C$DW$T$22)
    1402                      .dwattr $C$DW$195, DW_AT_name("hlrTransformIndex")
    1403                      .dwattr $C$DW$195, DW_AT_TI_symbol_name("_hlrTransformIndex")
    1404                      .dwattr $C$DW$195, DW_AT_data_member_location[DW_OP_plus_uconst 0xa]
    1405                      .dwattr $C$DW$195, DW_AT_accessibility(DW_ACCESS_public)
    1406              $C$DW$196       .dwtag  DW_TAG_member
    1407                      .dwattr $C$DW$196, DW_AT_type(*$C$DW$T$20)
    1408                      .dwattr $C$DW$196, DW_AT_name("hlr_TRANSFORM_SIZE")
    1409                      .dwattr $C$DW$196, DW_AT_TI_symbol_name("_hlr_TRANSFORM_SIZE")
    1410                      .dwattr $C$DW$196, DW_AT_data_member_location[DW_OP_plus_uconst 0xc]
    1411                      .dwattr $C$DW$196, DW_AT_accessibility(DW_ACCESS_public)
    1412              $C$DW$197       .dwtag  DW_TAG_member
    1413                      .dwattr $C$DW$197, DW_AT_type(*$C$DW$T$21)
    1414                      .dwattr $C$DW$197, DW_AT_name("hlrTransforms")
    1415                      .dwattr $C$DW$197, DW_AT_TI_symbol_name("_hlrTransforms")
    1416                      .dwattr $C$DW$197, DW_AT_data_member_location[DW_OP_plus_uconst 0xe]
    1417                      .dwattr $C$DW$197, DW_AT_accessibility(DW_ACCESS_public)
    1418              $C$DW$198       .dwtag  DW_TAG_member
    1419                      .dwattr $C$DW$198, DW_AT_type(*$C$DW$T$21)
    1420                      .dwattr $C$DW$198, DW_AT_name("pSegStat_dif1")
    1421                      .dwattr $C$DW$198, DW_AT_TI_symbol_name("_pSegStat_dif1")
    1422                      .dwattr $C$DW$198, DW_AT_data_member_location[DW_OP_plus_uconst 0x10]
    1423                      .dwattr $C$DW$198, DW_AT_accessibility(DW_ACCESS_public)
    1424              $C$DW$199       .dwtag  DW_TAG_member
    1425                      .dwattr $C$DW$199, DW_AT_type(*$C$DW$T$21)
    1426                      .dwattr $C$DW$199, DW_AT_name("pSegStat_dif2")
    1427                      .dwattr $C$DW$199, DW_AT_TI_symbol_name("_pSegStat_dif2")
    1428                      .dwattr $C$DW$199, DW_AT_data_member_location[DW_OP_plus_uconst 0x12]
    1429                      .dwattr $C$DW$199, DW_AT_accessibility(DW_ACCESS_public)
    1430              $C$DW$200       .dwtag  DW_TAG_member
    1431                      .dwattr $C$DW$200, DW_AT_type(*$C$DW$T$21)
    1432                      .dwattr $C$DW$200, DW_AT_name("pEnhanced")
    1433                      .dwattr $C$DW$200, DW_AT_TI_symbol_name("_pEnhanced")
    1434                      .dwattr $C$DW$200, DW_AT_data_member_location[DW_OP_plus_uconst 0x14]
    1435                      .dwattr $C$DW$200, DW_AT_accessibility(DW_ACCESS_public)
    1436              $C$DW$201       .dwtag  DW_TAG_member
    1437                      .dwattr $C$DW$201, DW_AT_type(*$C$DW$T$21)
    1438                      .dwattr $C$DW$201, DW_AT_name("bk_node_cnt")
    1439                      .dwattr $C$DW$201, DW_AT_TI_symbol_name("_bk_node_cnt")
    1440                      .dwattr $C$DW$201, DW_AT_data_member_location[DW_OP_plus_uconst 0x16]
    1441                      .dwattr $C$DW$201, DW_AT_accessibility(DW_ACCESS_public)
    1442                      .dwendtag $C$DW$T$23
    1443              
    1444              $C$DW$T$62      .dwtag  DW_TAG_typedef, DW_AT_name("FeaHLRAccType")
    1445                      .dwattr $C$DW$T$62, DW_AT_type(*$C$DW$T$23)
    1446                      .dwattr $C$DW$T$62, DW_AT_language(DW_LANG_C)
    1447              $C$DW$T$63      .dwtag  DW_TAG_pointer_type
    1448                      .dwattr $C$DW$T$63, DW_AT_type(*$C$DW$T$62)
    1449                      .dwattr $C$DW$T$63, DW_AT_address_class(0x17)
    1450              
    1451              $C$DW$T$24      .dwtag  DW_TAG_structure_type
    1452                      .dwattr $C$DW$T$24, DW_AT_byte_size(0x03)
    1453              $C$DW$202       .dwtag  DW_TAG_member
    1454                      .dwattr $C$DW$202, DW_AT_type(*$C$DW$T$9)
TMS320C55x Assembler PC v4.4.1 Wed Sep 13 16:34:06 2017

Tools Copyright (c) 1996-2012 Texas Instruments Incorporated
C:\Users\a0221074\AppData\Local\Temp\0994410                         PAGE   33

    1455                      .dwattr $C$DW$202, DW_AT_name("sym_code")
    1456                      .dwattr $C$DW$202, DW_AT_TI_symbol_name("_sym_code")
    1457                      .dwattr $C$DW$202, DW_AT_data_member_location[DW_OP_plus_uconst 0x0]
    1458                      .dwattr $C$DW$202, DW_AT_accessibility(DW_ACCESS_public)
    1459              $C$DW$203       .dwtag  DW_TAG_member
    1460                      .dwattr $C$DW$203, DW_AT_type(*$C$DW$T$9)
    1461                      .dwattr $C$DW$203, DW_AT_name("start_cell")
    1462                      .dwattr $C$DW$203, DW_AT_TI_symbol_name("_start_cell")
    1463                      .dwattr $C$DW$203, DW_AT_data_member_location[DW_OP_plus_uconst 0x1]
    1464                      .dwattr $C$DW$203, DW_AT_accessibility(DW_ACCESS_public)
    1465              $C$DW$204       .dwtag  DW_TAG_member
    1466                      .dwattr $C$DW$204, DW_AT_type(*$C$DW$T$9)
    1467                      .dwattr $C$DW$204, DW_AT_name("depth")
    1468                      .dwattr $C$DW$204, DW_AT_TI_symbol_name("_depth")
    1469                      .dwattr $C$DW$204, DW_AT_data_member_location[DW_OP_plus_uconst 0x2]
    1470                      .dwattr $C$DW$204, DW_AT_accessibility(DW_ACCESS_public)
    1471                      .dwendtag $C$DW$T$24
    1472              
    1473              $C$DW$T$65      .dwtag  DW_TAG_typedef, DW_AT_name("SymCell")
    1474                      .dwattr $C$DW$T$65, DW_AT_type(*$C$DW$T$24)
    1475                      .dwattr $C$DW$T$65, DW_AT_language(DW_LANG_C)
    1476              $C$DW$T$66      .dwtag  DW_TAG_pointer_type
    1477                      .dwattr $C$DW$T$66, DW_AT_type(*$C$DW$T$65)
    1478                      .dwattr $C$DW$T$66, DW_AT_address_class(0x17)
    1479              
    1480              $C$DW$T$25      .dwtag  DW_TAG_structure_type
    1481                      .dwattr $C$DW$T$25, DW_AT_byte_size(0x03)
    1482              $C$DW$205       .dwtag  DW_TAG_member
    1483                      .dwattr $C$DW$205, DW_AT_type(*$C$DW$T$8)
    1484                      .dwattr $C$DW$205, DW_AT_name("scr")
    1485                      .dwattr $C$DW$205, DW_AT_TI_symbol_name("_scr")
    1486                      .dwattr $C$DW$205, DW_AT_data_member_location[DW_OP_plus_uconst 0x0]
    1487                      .dwattr $C$DW$205, DW_AT_accessibility(DW_ACCESS_public)
    1488              $C$DW$206       .dwtag  DW_TAG_member
    1489                      .dwattr $C$DW$206, DW_AT_type(*$C$DW$T$9)
    1490                      .dwattr $C$DW$206, DW_AT_name("sym")
    1491                      .dwattr $C$DW$206, DW_AT_TI_symbol_name("_sym")
    1492                      .dwattr $C$DW$206, DW_AT_data_member_location[DW_OP_plus_uconst 0x1]
    1493                      .dwattr $C$DW$206, DW_AT_accessibility(DW_ACCESS_public)
    1494              $C$DW$207       .dwtag  DW_TAG_member
    1495                      .dwattr $C$DW$207, DW_AT_type(*$C$DW$T$9)
    1496                      .dwattr $C$DW$207, DW_AT_name("frm")
    1497                      .dwattr $C$DW$207, DW_AT_TI_symbol_name("_frm")
    1498                      .dwattr $C$DW$207, DW_AT_data_member_location[DW_OP_plus_uconst 0x2]
    1499                      .dwattr $C$DW$207, DW_AT_accessibility(DW_ACCESS_public)
    1500                      .dwendtag $C$DW$T$25
    1501              
    1502              $C$DW$T$67      .dwtag  DW_TAG_typedef, DW_AT_name("StateCell")
    1503                      .dwattr $C$DW$T$67, DW_AT_type(*$C$DW$T$25)
    1504                      .dwattr $C$DW$T$67, DW_AT_language(DW_LANG_C)
    1505              $C$DW$T$68      .dwtag  DW_TAG_pointer_type
    1506                      .dwattr $C$DW$T$68, DW_AT_type(*$C$DW$T$67)
    1507                      .dwattr $C$DW$T$68, DW_AT_address_class(0x17)
    1508              
    1509              $C$DW$T$26      .dwtag  DW_TAG_structure_type
TMS320C55x Assembler PC v4.4.1 Wed Sep 13 16:34:06 2017

Tools Copyright (c) 1996-2012 Texas Instruments Incorporated
C:\Users\a0221074\AppData\Local\Temp\0994410                         PAGE   34

    1510                      .dwattr $C$DW$T$26, DW_AT_byte_size(0x02)
    1511              $C$DW$208       .dwtag  DW_TAG_member
    1512                      .dwattr $C$DW$208, DW_AT_type(*$C$DW$T$9)
    1513                      .dwattr $C$DW$208, DW_AT_name("frm")
    1514                      .dwattr $C$DW$208, DW_AT_TI_symbol_name("_frm")
    1515                      .dwattr $C$DW$208, DW_AT_data_member_location[DW_OP_plus_uconst 0x0]
    1516                      .dwattr $C$DW$208, DW_AT_accessibility(DW_ACCESS_public)
    1517              $C$DW$209       .dwtag  DW_TAG_member
    1518                      .dwattr $C$DW$209, DW_AT_type(*$C$DW$T$9)
    1519                      .dwattr $C$DW$209, DW_AT_name("beam_idx")
    1520                      .dwattr $C$DW$209, DW_AT_TI_symbol_name("_beam_idx")
    1521                      .dwattr $C$DW$209, DW_AT_data_member_location[DW_OP_plus_uconst 0x1]
    1522                      .dwattr $C$DW$209, DW_AT_accessibility(DW_ACCESS_public)
    1523                      .dwendtag $C$DW$T$26
    1524              
    1525              $C$DW$T$71      .dwtag  DW_TAG_typedef, DW_AT_name("TimeType")
    1526                      .dwattr $C$DW$T$71, DW_AT_type(*$C$DW$T$26)
    1527                      .dwattr $C$DW$T$71, DW_AT_language(DW_LANG_C)
    1528              $C$DW$T$72      .dwtag  DW_TAG_pointer_type
    1529                      .dwattr $C$DW$T$72, DW_AT_type(*$C$DW$T$71)
    1530                      .dwattr $C$DW$T$72, DW_AT_address_class(0x17)
    1531              
    1532              $C$DW$T$28      .dwtag  DW_TAG_structure_type
    1533                      .dwattr $C$DW$T$28, DW_AT_byte_size(0x08)
    1534              $C$DW$210       .dwtag  DW_TAG_member
    1535                      .dwattr $C$DW$210, DW_AT_type(*$C$DW$T$9)
    1536                      .dwattr $C$DW$210, DW_AT_name("n_hmm")
    1537                      .dwattr $C$DW$210, DW_AT_TI_symbol_name("_n_hmm")
    1538                      .dwattr $C$DW$210, DW_AT_data_member_location[DW_OP_plus_uconst 0x0]
    1539                      .dwattr $C$DW$210, DW_AT_accessibility(DW_ACCESS_public)
    1540              $C$DW$211       .dwtag  DW_TAG_member
    1541                      .dwattr $C$DW$211, DW_AT_type(*$C$DW$T$9)
    1542                      .dwattr $C$DW$211, DW_AT_name("n_sym")
    1543                      .dwattr $C$DW$211, DW_AT_TI_symbol_name("_n_sym")
    1544                      .dwattr $C$DW$211, DW_AT_data_member_location[DW_OP_plus_uconst 0x1]
    1545                      .dwattr $C$DW$211, DW_AT_accessibility(DW_ACCESS_public)
    1546              $C$DW$212       .dwtag  DW_TAG_member
    1547                      .dwattr $C$DW$212, DW_AT_type(*$C$DW$T$9)
    1548                      .dwattr $C$DW$212, DW_AT_name("n_word")
    1549                      .dwattr $C$DW$212, DW_AT_TI_symbol_name("_n_word")
    1550                      .dwattr $C$DW$212, DW_AT_data_member_location[DW_OP_plus_uconst 0x2]
    1551                      .dwattr $C$DW$212, DW_AT_accessibility(DW_ACCESS_public)
    1552              $C$DW$213       .dwtag  DW_TAG_member
    1553                      .dwattr $C$DW$213, DW_AT_type(*$C$DW$T$9)
    1554                      .dwattr $C$DW$213, DW_AT_name("n_set")
    1555                      .dwattr $C$DW$213, DW_AT_TI_symbol_name("_n_set")
    1556                      .dwattr $C$DW$213, DW_AT_data_member_location[DW_OP_plus_uconst 0x3]
    1557                      .dwattr $C$DW$213, DW_AT_accessibility(DW_ACCESS_public)
    1558              $C$DW$214       .dwtag  DW_TAG_member
    1559                      .dwattr $C$DW$214, DW_AT_type(*$C$DW$T$9)
    1560                      .dwattr $C$DW$214, DW_AT_name("n_hmm_set")
    1561                      .dwattr $C$DW$214, DW_AT_TI_symbol_name("_n_hmm_set")
    1562                      .dwattr $C$DW$214, DW_AT_data_member_location[DW_OP_plus_uconst 0x4]
    1563                      .dwattr $C$DW$214, DW_AT_accessibility(DW_ACCESS_public)
    1564              $C$DW$215       .dwtag  DW_TAG_member
TMS320C55x Assembler PC v4.4.1 Wed Sep 13 16:34:06 2017

Tools Copyright (c) 1996-2012 Texas Instruments Incorporated
C:\Users\a0221074\AppData\Local\Temp\0994410                         PAGE   35

    1565                      .dwattr $C$DW$215, DW_AT_type(*$C$DW$T$9)
    1566                      .dwattr $C$DW$215, DW_AT_name("start")
    1567                      .dwattr $C$DW$215, DW_AT_TI_symbol_name("_start")
    1568                      .dwattr $C$DW$215, DW_AT_data_member_location[DW_OP_plus_uconst 0x5]
    1569                      .dwattr $C$DW$215, DW_AT_accessibility(DW_ACCESS_public)
    1570              $C$DW$216       .dwtag  DW_TAG_member
    1571                      .dwattr $C$DW$216, DW_AT_type(*$C$DW$T$9)
    1572                      .dwattr $C$DW$216, DW_AT_name("stop")
    1573                      .dwattr $C$DW$216, DW_AT_TI_symbol_name("_stop")
    1574                      .dwattr $C$DW$216, DW_AT_data_member_location[DW_OP_plus_uconst 0x6]
    1575                      .dwattr $C$DW$216, DW_AT_accessibility(DW_ACCESS_public)
    1576              $C$DW$217       .dwtag  DW_TAG_member
    1577                      .dwattr $C$DW$217, DW_AT_type(*$C$DW$T$27)
    1578                      .dwattr $C$DW$217, DW_AT_name("symlist")
    1579                      .dwattr $C$DW$217, DW_AT_TI_symbol_name("_symlist")
    1580                      .dwattr $C$DW$217, DW_AT_data_member_location[DW_OP_plus_uconst 0x7]
    1581                      .dwattr $C$DW$217, DW_AT_accessibility(DW_ACCESS_public)
    1582                      .dwendtag $C$DW$T$28
    1583              
    1584              $C$DW$T$75      .dwtag  DW_TAG_typedef, DW_AT_name("TransType")
    1585                      .dwattr $C$DW$T$75, DW_AT_type(*$C$DW$T$28)
    1586                      .dwattr $C$DW$T$75, DW_AT_language(DW_LANG_C)
    1587              $C$DW$T$76      .dwtag  DW_TAG_pointer_type
    1588                      .dwattr $C$DW$T$76, DW_AT_type(*$C$DW$T$75)
    1589                      .dwattr $C$DW$T$76, DW_AT_address_class(0x17)
    1590              
    1591              $C$DW$T$29      .dwtag  DW_TAG_structure_type
    1592                      .dwattr $C$DW$T$29, DW_AT_byte_size(0x02)
    1593              $C$DW$218       .dwtag  DW_TAG_member
    1594                      .dwattr $C$DW$218, DW_AT_type(*$C$DW$T$9)
    1595                      .dwattr $C$DW$218, DW_AT_name("high_pos")
    1596                      .dwattr $C$DW$218, DW_AT_TI_symbol_name("_high_pos")
    1597                      .dwattr $C$DW$218, DW_AT_data_member_location[DW_OP_plus_uconst 0x0]
    1598                      .dwattr $C$DW$218, DW_AT_accessibility(DW_ACCESS_public)
    1599              $C$DW$219       .dwtag  DW_TAG_member
    1600                      .dwattr $C$DW$219, DW_AT_type(*$C$DW$T$9)
    1601                      .dwattr $C$DW$219, DW_AT_name("cur_pos")
    1602                      .dwattr $C$DW$219, DW_AT_TI_symbol_name("_cur_pos")
    1603                      .dwattr $C$DW$219, DW_AT_data_member_location[DW_OP_plus_uconst 0x1]
    1604                      .dwattr $C$DW$219, DW_AT_accessibility(DW_ACCESS_public)
    1605                      .dwendtag $C$DW$T$29
    1606              
    1607              $C$DW$T$30      .dwtag  DW_TAG_typedef, DW_AT_name("PosType")
    1608                      .dwattr $C$DW$T$30, DW_AT_type(*$C$DW$T$29)
    1609                      .dwattr $C$DW$T$30, DW_AT_language(DW_LANG_C)
    1610              
    1611              $C$DW$T$31      .dwtag  DW_TAG_array_type
    1612                      .dwattr $C$DW$T$31, DW_AT_type(*$C$DW$T$30)
    1613                      .dwattr $C$DW$T$31, DW_AT_language(DW_LANG_C)
    1614                      .dwattr $C$DW$T$31, DW_AT_byte_size(0x04)
    1615              $C$DW$220       .dwtag  DW_TAG_subrange_type
    1616                      .dwattr $C$DW$220, DW_AT_upper_bound(0x01)
    1617                      .dwendtag $C$DW$T$31
    1618              
    1619              
TMS320C55x Assembler PC v4.4.1 Wed Sep 13 16:34:06 2017

Tools Copyright (c) 1996-2012 Texas Instruments Incorporated
C:\Users\a0221074\AppData\Local\Temp\0994410                         PAGE   36

    1620              $C$DW$T$32      .dwtag  DW_TAG_structure_type
    1621                      .dwattr $C$DW$T$32, DW_AT_byte_size(0x0a)
    1622              $C$DW$221       .dwtag  DW_TAG_member
    1623                      .dwattr $C$DW$221, DW_AT_type(*$C$DW$T$30)
    1624                      .dwattr $C$DW$221, DW_AT_name("state")
    1625                      .dwattr $C$DW$221, DW_AT_TI_symbol_name("_state")
    1626                      .dwattr $C$DW$221, DW_AT_data_member_location[DW_OP_plus_uconst 0x0]
    1627                      .dwattr $C$DW$221, DW_AT_accessibility(DW_ACCESS_public)
    1628              $C$DW$222       .dwtag  DW_TAG_member
    1629                      .dwattr $C$DW$222, DW_AT_type(*$C$DW$T$31)
    1630                      .dwattr $C$DW$222, DW_AT_name("sym")
    1631                      .dwattr $C$DW$222, DW_AT_TI_symbol_name("_sym")
    1632                      .dwattr $C$DW$222, DW_AT_data_member_location[DW_OP_plus_uconst 0x2]
    1633                      .dwattr $C$DW$222, DW_AT_accessibility(DW_ACCESS_public)
    1634              $C$DW$223       .dwtag  DW_TAG_member
    1635                      .dwattr $C$DW$223, DW_AT_type(*$C$DW$T$30)
    1636                      .dwattr $C$DW$223, DW_AT_name("beam")
    1637                      .dwattr $C$DW$223, DW_AT_TI_symbol_name("_beam")
    1638                      .dwattr $C$DW$223, DW_AT_data_member_location[DW_OP_plus_uconst 0x6]
    1639                      .dwattr $C$DW$223, DW_AT_accessibility(DW_ACCESS_public)
    1640              $C$DW$224       .dwtag  DW_TAG_member
    1641                      .dwattr $C$DW$224, DW_AT_type(*$C$DW$T$30)
    1642                      .dwattr $C$DW$224, DW_AT_name("time")
    1643                      .dwattr $C$DW$224, DW_AT_TI_symbol_name("_time")
    1644                      .dwattr $C$DW$224, DW_AT_data_member_location[DW_OP_plus_uconst 0x8]
    1645                      .dwattr $C$DW$224, DW_AT_accessibility(DW_ACCESS_public)
    1646                      .dwendtag $C$DW$T$32
    1647              
    1648              $C$DW$T$79      .dwtag  DW_TAG_typedef, DW_AT_name("EvalStat")
    1649                      .dwattr $C$DW$T$79, DW_AT_type(*$C$DW$T$32)
    1650                      .dwattr $C$DW$T$79, DW_AT_language(DW_LANG_C)
    1651              
    1652              $C$DW$T$34      .dwtag  DW_TAG_structure_type
    1653                      .dwattr $C$DW$T$34, DW_AT_byte_size(0x03)
    1654              $C$DW$225       .dwtag  DW_TAG_member
    1655                      .dwattr $C$DW$225, DW_AT_type(*$C$DW$T$33)
    1656                      .dwattr $C$DW$225, DW_AT_name("cur_sym")
    1657                      .dwattr $C$DW$225, DW_AT_TI_symbol_name("_cur_sym")
    1658                      .dwattr $C$DW$225, DW_AT_data_member_location[DW_OP_plus_uconst 0x0]
    1659                      .dwattr $C$DW$225, DW_AT_accessibility(DW_ACCESS_public)
    1660              $C$DW$226       .dwtag  DW_TAG_member
    1661                      .dwattr $C$DW$226, DW_AT_type(*$C$DW$T$9)
    1662                      .dwattr $C$DW$226, DW_AT_name("cur_state")
    1663                      .dwattr $C$DW$226, DW_AT_TI_symbol_name("_cur_state")
    1664                      .dwattr $C$DW$226, DW_AT_data_member_location[DW_OP_plus_uconst 0x2]
    1665                      .dwattr $C$DW$226, DW_AT_accessibility(DW_ACCESS_public)
    1666                      .dwendtag $C$DW$T$34
    1667              
    1668              $C$DW$T$80      .dwtag  DW_TAG_typedef, DW_AT_name("EvalIdx")
    1669                      .dwattr $C$DW$T$80, DW_AT_type(*$C$DW$T$34)
    1670                      .dwattr $C$DW$T$80, DW_AT_language(DW_LANG_C)
    1671              
    1672              $C$DW$T$81      .dwtag  DW_TAG_array_type
    1673                      .dwattr $C$DW$T$81, DW_AT_type(*$C$DW$T$80)
    1674                      .dwattr $C$DW$T$81, DW_AT_language(DW_LANG_C)
TMS320C55x Assembler PC v4.4.1 Wed Sep 13 16:34:06 2017

Tools Copyright (c) 1996-2012 Texas Instruments Incorporated
C:\Users\a0221074\AppData\Local\Temp\0994410                         PAGE   37

    1675                      .dwattr $C$DW$T$81, DW_AT_byte_size(0x06)
    1676              $C$DW$227       .dwtag  DW_TAG_subrange_type
    1677                      .dwattr $C$DW$227, DW_AT_upper_bound(0x01)
    1678                      .dwendtag $C$DW$T$81
    1679              
    1680              
    1681              $C$DW$T$36      .dwtag  DW_TAG_structure_type
    1682                      .dwattr $C$DW$T$36, DW_AT_byte_size(0x06)
    1683              $C$DW$228       .dwtag  DW_TAG_member
    1684                      .dwattr $C$DW$228, DW_AT_type(*$C$DW$T$9)
    1685                      .dwattr $C$DW$228, DW_AT_name("max_nbr_syms")
    1686                      .dwattr $C$DW$228, DW_AT_TI_symbol_name("_max_nbr_syms")
    1687                      .dwattr $C$DW$228, DW_AT_data_member_location[DW_OP_plus_uconst 0x0]
    1688                      .dwattr $C$DW$228, DW_AT_accessibility(DW_ACCESS_public)
    1689              $C$DW$229       .dwtag  DW_TAG_member
    1690                      .dwattr $C$DW$229, DW_AT_type(*$C$DW$T$8)
    1691                      .dwattr $C$DW$229, DW_AT_name("nbr_syms")
    1692                      .dwattr $C$DW$229, DW_AT_TI_symbol_name("_nbr_syms")
    1693                      .dwattr $C$DW$229, DW_AT_data_member_location[DW_OP_plus_uconst 0x1]
    1694                      .dwattr $C$DW$229, DW_AT_accessibility(DW_ACCESS_public)
    1695              $C$DW$230       .dwtag  DW_TAG_member
    1696                      .dwattr $C$DW$230, DW_AT_type(*$C$DW$T$21)
    1697                      .dwattr $C$DW$230, DW_AT_name("sym2pos")
    1698                      .dwattr $C$DW$230, DW_AT_TI_symbol_name("_sym2pos")
    1699                      .dwattr $C$DW$230, DW_AT_data_member_location[DW_OP_plus_uconst 0x2]
    1700                      .dwattr $C$DW$230, DW_AT_accessibility(DW_ACCESS_public)
    1701              $C$DW$231       .dwtag  DW_TAG_member
    1702                      .dwattr $C$DW$231, DW_AT_type(*$C$DW$T$35)
    1703                      .dwattr $C$DW$231, DW_AT_name("syms")
    1704                      .dwattr $C$DW$231, DW_AT_TI_symbol_name("_syms")
    1705                      .dwattr $C$DW$231, DW_AT_data_member_location[DW_OP_plus_uconst 0x4]
    1706                      .dwattr $C$DW$231, DW_AT_accessibility(DW_ACCESS_public)
    1707                      .dwendtag $C$DW$T$36
    1708              
    1709              $C$DW$T$82      .dwtag  DW_TAG_typedef, DW_AT_name("Sym2PosType")
    1710                      .dwattr $C$DW$T$82, DW_AT_type(*$C$DW$T$36)
    1711                      .dwattr $C$DW$T$82, DW_AT_language(DW_LANG_C)
    1712              
    1713              $C$DW$T$38      .dwtag  DW_TAG_structure_type
    1714                      .dwattr $C$DW$T$38, DW_AT_byte_size(0x16)
    1715              $C$DW$232       .dwtag  DW_TAG_member
    1716                      .dwattr $C$DW$232, DW_AT_type(*$C$DW$T$8)
    1717                      .dwattr $C$DW$232, DW_AT_name("scr")
    1718                      .dwattr $C$DW$232, DW_AT_TI_symbol_name("_scr")
    1719                      .dwattr $C$DW$232, DW_AT_data_member_location[DW_OP_plus_uconst 0x0]
    1720                      .dwattr $C$DW$232, DW_AT_accessibility(DW_ACCESS_public)
    1721              $C$DW$233       .dwtag  DW_TAG_member
    1722                      .dwattr $C$DW$233, DW_AT_type(*$C$DW$T$8)
    1723                      .dwattr $C$DW$233, DW_AT_name("n_ans")
    1724                      .dwattr $C$DW$233, DW_AT_TI_symbol_name("_n_ans")
    1725                      .dwattr $C$DW$233, DW_AT_data_member_location[DW_OP_plus_uconst 0x1]
    1726                      .dwattr $C$DW$233, DW_AT_accessibility(DW_ACCESS_public)
    1727              $C$DW$234       .dwtag  DW_TAG_member
    1728                      .dwattr $C$DW$234, DW_AT_type(*$C$DW$T$37)
    1729                      .dwattr $C$DW$234, DW_AT_name("answers")
TMS320C55x Assembler PC v4.4.1 Wed Sep 13 16:34:06 2017

Tools Copyright (c) 1996-2012 Texas Instruments Incorporated
C:\Users\a0221074\AppData\Local\Temp\0994410                         PAGE   38

    1730                      .dwattr $C$DW$234, DW_AT_TI_symbol_name("_answers")
    1731                      .dwattr $C$DW$234, DW_AT_data_member_location[DW_OP_plus_uconst 0x2]
    1732                      .dwattr $C$DW$234, DW_AT_accessibility(DW_ACCESS_public)
    1733                      .dwendtag $C$DW$T$38
    1734              
    1735              $C$DW$T$40      .dwtag  DW_TAG_typedef, DW_AT_name("NB_element")
    1736                      .dwattr $C$DW$T$40, DW_AT_type(*$C$DW$T$38)
    1737                      .dwattr $C$DW$T$40, DW_AT_language(DW_LANG_C)
    1738              
    1739              $C$DW$T$41      .dwtag  DW_TAG_array_type
    1740                      .dwattr $C$DW$T$41, DW_AT_type(*$C$DW$T$40)
    1741                      .dwattr $C$DW$T$41, DW_AT_language(DW_LANG_C)
    1742                      .dwattr $C$DW$T$41, DW_AT_byte_size(0x294)
    1743              $C$DW$235       .dwtag  DW_TAG_subrange_type
    1744                      .dwattr $C$DW$235, DW_AT_upper_bound(0x1d)
    1745                      .dwendtag $C$DW$T$41
    1746              
    1747              
    1748              $C$DW$T$42      .dwtag  DW_TAG_structure_type
    1749                      .dwattr $C$DW$T$42, DW_AT_byte_size(0x2b3)
    1750              $C$DW$236       .dwtag  DW_TAG_member
    1751                      .dwattr $C$DW$236, DW_AT_type(*$C$DW$T$8)
    1752                      .dwattr $C$DW$236, DW_AT_name("n_bests")
    1753                      .dwattr $C$DW$236, DW_AT_TI_symbol_name("_n_bests")
    1754                      .dwattr $C$DW$236, DW_AT_data_member_location[DW_OP_plus_uconst 0x0]
    1755                      .dwattr $C$DW$236, DW_AT_accessibility(DW_ACCESS_public)
    1756              $C$DW$237       .dwtag  DW_TAG_member
    1757                      .dwattr $C$DW$237, DW_AT_type(*$C$DW$T$39)
    1758                      .dwattr $C$DW$237, DW_AT_name("best_idx")
    1759                      .dwattr $C$DW$237, DW_AT_TI_symbol_name("_best_idx")
    1760                      .dwattr $C$DW$237, DW_AT_data_member_location[DW_OP_plus_uconst 0x1]
    1761                      .dwattr $C$DW$237, DW_AT_accessibility(DW_ACCESS_public)
    1762              $C$DW$238       .dwtag  DW_TAG_member
    1763                      .dwattr $C$DW$238, DW_AT_type(*$C$DW$T$41)
    1764                      .dwattr $C$DW$238, DW_AT_name("elem")
    1765                      .dwattr $C$DW$238, DW_AT_TI_symbol_name("_elem")
    1766                      .dwattr $C$DW$238, DW_AT_data_member_location[DW_OP_plus_uconst 0x1f]
    1767                      .dwattr $C$DW$238, DW_AT_accessibility(DW_ACCESS_public)
    1768                      .dwendtag $C$DW$T$42
    1769              
    1770              $C$DW$T$83      .dwtag  DW_TAG_typedef, DW_AT_name("NB_words")
    1771                      .dwattr $C$DW$T$83, DW_AT_type(*$C$DW$T$42)
    1772                      .dwattr $C$DW$T$83, DW_AT_language(DW_LANG_C)
    1773              
    1774              $C$DW$T$43      .dwtag  DW_TAG_structure_type
    1775                      .dwattr $C$DW$T$43, DW_AT_byte_size(0x14)
    1776              $C$DW$239       .dwtag  DW_TAG_member
    1777                      .dwattr $C$DW$239, DW_AT_type(*$C$DW$T$20)
    1778                      .dwattr $C$DW$239, DW_AT_name("alpha_p")
    1779                      .dwattr $C$DW$239, DW_AT_TI_symbol_name("_alpha_p")
    1780                      .dwattr $C$DW$239, DW_AT_data_member_location[DW_OP_plus_uconst 0x0]
    1781                      .dwattr $C$DW$239, DW_AT_accessibility(DW_ACCESS_public)
    1782              $C$DW$240       .dwtag  DW_TAG_member
    1783                      .dwattr $C$DW$240, DW_AT_type(*$C$DW$T$20)
    1784                      .dwattr $C$DW$240, DW_AT_name("sAlpha")
TMS320C55x Assembler PC v4.4.1 Wed Sep 13 16:34:06 2017

Tools Copyright (c) 1996-2012 Texas Instruments Incorporated
C:\Users\a0221074\AppData\Local\Temp\0994410                         PAGE   39

    1785                      .dwattr $C$DW$240, DW_AT_TI_symbol_name("_sAlpha")
    1786                      .dwattr $C$DW$240, DW_AT_data_member_location[DW_OP_plus_uconst 0x1]
    1787                      .dwattr $C$DW$240, DW_AT_accessibility(DW_ACCESS_public)
    1788              $C$DW$241       .dwtag  DW_TAG_member
    1789                      .dwattr $C$DW$241, DW_AT_type(*$C$DW$T$8)
    1790                      .dwattr $C$DW$241, DW_AT_name("sBeta")
    1791                      .dwattr $C$DW$241, DW_AT_TI_symbol_name("_sBeta")
    1792                      .dwattr $C$DW$241, DW_AT_data_member_location[DW_OP_plus_uconst 0x2]
    1793                      .dwattr $C$DW$241, DW_AT_accessibility(DW_ACCESS_public)
    1794              $C$DW$242       .dwtag  DW_TAG_member
    1795                      .dwattr $C$DW$242, DW_AT_type(*$C$DW$T$8)
    1796                      .dwattr $C$DW$242, DW_AT_name("lambdaLTEhigherE")
    1797                      .dwattr $C$DW$242, DW_AT_TI_symbol_name("_lambdaLTEhigherE")
    1798                      .dwattr $C$DW$242, DW_AT_data_member_location[DW_OP_plus_uconst 0x3]
    1799                      .dwattr $C$DW$242, DW_AT_accessibility(DW_ACCESS_public)
    1800              $C$DW$243       .dwtag  DW_TAG_member
    1801                      .dwattr $C$DW$243, DW_AT_type(*$C$DW$T$8)
    1802                      .dwattr $C$DW$243, DW_AT_name("frm_count")
    1803                      .dwattr $C$DW$243, DW_AT_TI_symbol_name("_frm_count")
    1804                      .dwattr $C$DW$243, DW_AT_data_member_location[DW_OP_plus_uconst 0x4]
    1805                      .dwattr $C$DW$243, DW_AT_accessibility(DW_ACCESS_public)
    1806              $C$DW$244       .dwtag  DW_TAG_member
    1807                      .dwattr $C$DW$244, DW_AT_type(*$C$DW$T$20)
    1808                      .dwattr $C$DW$244, DW_AT_name("prob_sp")
    1809                      .dwattr $C$DW$244, DW_AT_TI_symbol_name("_prob_sp")
    1810                      .dwattr $C$DW$244, DW_AT_data_member_location[DW_OP_plus_uconst 0x5]
    1811                      .dwattr $C$DW$244, DW_AT_accessibility(DW_ACCESS_public)
    1812              $C$DW$245       .dwtag  DW_TAG_member
    1813                      .dwattr $C$DW$245, DW_AT_type(*$C$DW$T$21)
    1814                      .dwattr $C$DW$245, DW_AT_name("s_noise_floor")
    1815                      .dwattr $C$DW$245, DW_AT_TI_symbol_name("_s_noise_floor")
    1816                      .dwattr $C$DW$245, DW_AT_data_member_location[DW_OP_plus_uconst 0x6]
    1817                      .dwattr $C$DW$245, DW_AT_accessibility(DW_ACCESS_public)
    1818              $C$DW$246       .dwtag  DW_TAG_member
    1819                      .dwattr $C$DW$246, DW_AT_type(*$C$DW$T$21)
    1820                      .dwattr $C$DW$246, DW_AT_name("snr")
    1821                      .dwattr $C$DW$246, DW_AT_TI_symbol_name("_snr")
    1822                      .dwattr $C$DW$246, DW_AT_data_member_location[DW_OP_plus_uconst 0x8]
    1823                      .dwattr $C$DW$246, DW_AT_accessibility(DW_ACCESS_public)
    1824              $C$DW$247       .dwtag  DW_TAG_member
    1825                      .dwattr $C$DW$247, DW_AT_type(*$C$DW$T$21)
    1826                      .dwattr $C$DW$247, DW_AT_name("ps_long_term_noise")
    1827                      .dwattr $C$DW$247, DW_AT_TI_symbol_name("_ps_long_term_noise")
    1828                      .dwattr $C$DW$247, DW_AT_data_member_location[DW_OP_plus_uconst 0xa]
    1829                      .dwattr $C$DW$247, DW_AT_accessibility(DW_ACCESS_public)
    1830              $C$DW$248       .dwtag  DW_TAG_member
    1831                      .dwattr $C$DW$248, DW_AT_type(*$C$DW$T$8)
    1832                      .dwattr $C$DW$248, DW_AT_name("frmEn")
    1833                      .dwattr $C$DW$248, DW_AT_TI_symbol_name("_frmEn")
    1834                      .dwattr $C$DW$248, DW_AT_data_member_location[DW_OP_plus_uconst 0xc]
    1835                      .dwattr $C$DW$248, DW_AT_accessibility(DW_ACCESS_public)
    1836              $C$DW$249       .dwtag  DW_TAG_member
    1837                      .dwattr $C$DW$249, DW_AT_type(*$C$DW$T$8)
    1838                      .dwattr $C$DW$249, DW_AT_name("meanEn")
    1839                      .dwattr $C$DW$249, DW_AT_TI_symbol_name("_meanEn")
TMS320C55x Assembler PC v4.4.1 Wed Sep 13 16:34:06 2017

Tools Copyright (c) 1996-2012 Texas Instruments Incorporated
C:\Users\a0221074\AppData\Local\Temp\0994410                         PAGE   40

    1840                      .dwattr $C$DW$249, DW_AT_data_member_location[DW_OP_plus_uconst 0xd]
    1841                      .dwattr $C$DW$249, DW_AT_accessibility(DW_ACCESS_public)
    1842              $C$DW$250       .dwtag  DW_TAG_member
    1843                      .dwattr $C$DW$250, DW_AT_type(*$C$DW$T$8)
    1844                      .dwattr $C$DW$250, DW_AT_name("prevMeanEn")
    1845                      .dwattr $C$DW$250, DW_AT_TI_symbol_name("_prevMeanEn")
    1846                      .dwattr $C$DW$250, DW_AT_data_member_location[DW_OP_plus_uconst 0xe]
    1847                      .dwattr $C$DW$250, DW_AT_accessibility(DW_ACCESS_public)
    1848              $C$DW$251       .dwtag  DW_TAG_member
    1849                      .dwattr $C$DW$251, DW_AT_type(*$C$DW$T$8)
    1850                      .dwattr $C$DW$251, DW_AT_name("noiselvl")
    1851                      .dwattr $C$DW$251, DW_AT_TI_symbol_name("_noiselvl")
    1852                      .dwattr $C$DW$251, DW_AT_data_member_location[DW_OP_plus_uconst 0xf]
    1853                      .dwattr $C$DW$251, DW_AT_accessibility(DW_ACCESS_public)
    1854              $C$DW$252       .dwtag  DW_TAG_member
    1855                      .dwattr $C$DW$252, DW_AT_type(*$C$DW$T$8)
    1856                      .dwattr $C$DW$252, DW_AT_name("lambdaLTE")
    1857                      .dwattr $C$DW$252, DW_AT_TI_symbol_name("_lambdaLTE")
    1858                      .dwattr $C$DW$252, DW_AT_data_member_location[DW_OP_plus_uconst 0x10]
    1859                      .dwattr $C$DW$252, DW_AT_accessibility(DW_ACCESS_public)
    1860              $C$DW$253       .dwtag  DW_TAG_member
    1861                      .dwattr $C$DW$253, DW_AT_type(*$C$DW$T$8)
    1862                      .dwattr $C$DW$253, DW_AT_name("nbSpeechFrame")
    1863                      .dwattr $C$DW$253, DW_AT_TI_symbol_name("_nbSpeechFrame")
    1864                      .dwattr $C$DW$253, DW_AT_data_member_location[DW_OP_plus_uconst 0x11]
    1865                      .dwattr $C$DW$253, DW_AT_accessibility(DW_ACCESS_public)
    1866              $C$DW$254       .dwtag  DW_TAG_member
    1867                      .dwattr $C$DW$254, DW_AT_type(*$C$DW$T$8)
    1868                      .dwattr $C$DW$254, DW_AT_name("hangOver")
    1869                      .dwattr $C$DW$254, DW_AT_TI_symbol_name("_hangOver")
    1870                      .dwattr $C$DW$254, DW_AT_data_member_location[DW_OP_plus_uconst 0x12]
    1871                      .dwattr $C$DW$254, DW_AT_accessibility(DW_ACCESS_public)
    1872                      .dwendtag $C$DW$T$43
    1873              
    1874              $C$DW$T$86      .dwtag  DW_TAG_typedef, DW_AT_name("NssType")
    1875                      .dwattr $C$DW$T$86, DW_AT_type(*$C$DW$T$43)
    1876                      .dwattr $C$DW$T$86, DW_AT_language(DW_LANG_C)
    1877              $C$DW$T$87      .dwtag  DW_TAG_pointer_type
    1878                      .dwattr $C$DW$T$87, DW_AT_type(*$C$DW$T$86)
    1879                      .dwattr $C$DW$T$87, DW_AT_address_class(0x17)
    1880              
    1881              $C$DW$T$44      .dwtag  DW_TAG_structure_type
    1882                      .dwattr $C$DW$T$44, DW_AT_byte_size(0x03)
    1883              $C$DW$255       .dwtag  DW_TAG_member
    1884                      .dwattr $C$DW$255, DW_AT_type(*$C$DW$T$8)
    1885                      .dwattr $C$DW$255, DW_AT_name("mean")
    1886                      .dwattr $C$DW$255, DW_AT_TI_symbol_name("_mean")
    1887                      .dwattr $C$DW$255, DW_AT_data_member_location[DW_OP_plus_uconst 0x0]
    1888                      .dwattr $C$DW$255, DW_AT_accessibility(DW_ACCESS_public)
    1889              $C$DW$256       .dwtag  DW_TAG_member
    1890                      .dwattr $C$DW$256, DW_AT_type(*$C$DW$T$8)
    1891                      .dwattr $C$DW$256, DW_AT_name("inv")
    1892                      .dwattr $C$DW$256, DW_AT_TI_symbol_name("_inv")
    1893                      .dwattr $C$DW$256, DW_AT_data_member_location[DW_OP_plus_uconst 0x1]
    1894                      .dwattr $C$DW$256, DW_AT_accessibility(DW_ACCESS_public)
TMS320C55x Assembler PC v4.4.1 Wed Sep 13 16:34:06 2017

Tools Copyright (c) 1996-2012 Texas Instruments Incorporated
C:\Users\a0221074\AppData\Local\Temp\0994410                         PAGE   41

    1895              $C$DW$257       .dwtag  DW_TAG_member
    1896                      .dwattr $C$DW$257, DW_AT_type(*$C$DW$T$8)
    1897                      .dwattr $C$DW$257, DW_AT_name("gconst")
    1898                      .dwattr $C$DW$257, DW_AT_TI_symbol_name("_gconst")
    1899                      .dwattr $C$DW$257, DW_AT_data_member_location[DW_OP_plus_uconst 0x2]
    1900                      .dwattr $C$DW$257, DW_AT_accessibility(DW_ACCESS_public)
    1901                      .dwendtag $C$DW$T$44
    1902              
    1903              $C$DW$T$46      .dwtag  DW_TAG_typedef, DW_AT_name("CM_hypo")
    1904                      .dwattr $C$DW$T$46, DW_AT_type(*$C$DW$T$44)
    1905                      .dwattr $C$DW$T$46, DW_AT_language(DW_LANG_C)
    1906              
    1907              $C$DW$T$48      .dwtag  DW_TAG_structure_type
    1908                      .dwattr $C$DW$T$48, DW_AT_byte_size(0x544)
    1909              $C$DW$258       .dwtag  DW_TAG_member
    1910                      .dwattr $C$DW$258, DW_AT_type(*$C$DW$T$45)
    1911                      .dwattr $C$DW$258, DW_AT_name("base_mem")
    1912                      .dwattr $C$DW$258, DW_AT_TI_symbol_name("_base_mem")
    1913                      .dwattr $C$DW$258, DW_AT_data_member_location[DW_OP_plus_uconst 0x0]
    1914                      .dwattr $C$DW$258, DW_AT_accessibility(DW_ACCESS_public)
    1915              $C$DW$259       .dwtag  DW_TAG_member
    1916                      .dwattr $C$DW$259, DW_AT_type(*$C$DW$T$20)
    1917                      .dwattr $C$DW$259, DW_AT_name("mem_count")
    1918                      .dwattr $C$DW$259, DW_AT_TI_symbol_name("_mem_count")
    1919                      .dwattr $C$DW$259, DW_AT_data_member_location[DW_OP_plus_uconst 0x514]
    1920                      .dwattr $C$DW$259, DW_AT_accessibility(DW_ACCESS_public)
    1921              $C$DW$260       .dwtag  DW_TAG_member
    1922                      .dwattr $C$DW$260, DW_AT_type(*$C$DW$T$22)
    1923                      .dwattr $C$DW$260, DW_AT_name("answers")
    1924                      .dwattr $C$DW$260, DW_AT_TI_symbol_name("_answers")
    1925                      .dwattr $C$DW$260, DW_AT_data_member_location[DW_OP_plus_uconst 0x516]
    1926                      .dwattr $C$DW$260, DW_AT_accessibility(DW_ACCESS_public)
    1927              $C$DW$261       .dwtag  DW_TAG_member
    1928                      .dwattr $C$DW$261, DW_AT_type(*$C$DW$T$22)
    1929                      .dwattr $C$DW$261, DW_AT_name("uStp")
    1930                      .dwattr $C$DW$261, DW_AT_TI_symbol_name("_uStp")
    1931                      .dwattr $C$DW$261, DW_AT_data_member_location[DW_OP_plus_uconst 0x518]
    1932                      .dwattr $C$DW$261, DW_AT_accessibility(DW_ACCESS_public)
    1933              $C$DW$262       .dwtag  DW_TAG_member
    1934                      .dwattr $C$DW$262, DW_AT_type(*$C$DW$T$20)
    1935                      .dwattr $C$DW$262, DW_AT_name("nWords")
    1936                      .dwattr $C$DW$262, DW_AT_TI_symbol_name("_nWords")
    1937                      .dwattr $C$DW$262, DW_AT_data_member_location[DW_OP_plus_uconst 0x51a]
    1938                      .dwattr $C$DW$262, DW_AT_accessibility(DW_ACCESS_public)
    1939              $C$DW$263       .dwtag  DW_TAG_member
    1940                      .dwattr $C$DW$263, DW_AT_type(*$C$DW$T$8)
    1941                      .dwattr $C$DW$263, DW_AT_name("nS")
    1942                      .dwattr $C$DW$263, DW_AT_TI_symbol_name("_nS")
    1943                      .dwattr $C$DW$263, DW_AT_data_member_location[DW_OP_plus_uconst 0x51b]
    1944                      .dwattr $C$DW$263, DW_AT_accessibility(DW_ACCESS_public)
    1945              $C$DW$264       .dwtag  DW_TAG_member
    1946                      .dwattr $C$DW$264, DW_AT_type(*$C$DW$T$21)
    1947                      .dwattr $C$DW$264, DW_AT_name("cm_scr")
    1948                      .dwattr $C$DW$264, DW_AT_TI_symbol_name("_cm_scr")
    1949                      .dwattr $C$DW$264, DW_AT_data_member_location[DW_OP_plus_uconst 0x51c]
TMS320C55x Assembler PC v4.4.1 Wed Sep 13 16:34:06 2017

Tools Copyright (c) 1996-2012 Texas Instruments Incorporated
C:\Users\a0221074\AppData\Local\Temp\0994410                         PAGE   42

    1950                      .dwattr $C$DW$264, DW_AT_accessibility(DW_ACCESS_public)
    1951              $C$DW$265       .dwtag  DW_TAG_member
    1952                      .dwattr $C$DW$265, DW_AT_type(*$C$DW$T$8)
    1953                      .dwattr $C$DW$265, DW_AT_name("bNeedUpdate")
    1954                      .dwattr $C$DW$265, DW_AT_TI_symbol_name("_bNeedUpdate")
    1955                      .dwattr $C$DW$265, DW_AT_data_member_location[DW_OP_plus_uconst 0x51e]
    1956                      .dwattr $C$DW$265, DW_AT_accessibility(DW_ACCESS_public)
    1957              $C$DW$266       .dwtag  DW_TAG_member
    1958                      .dwattr $C$DW$266, DW_AT_type(*$C$DW$T$21)
    1959                      .dwattr $C$DW$266, DW_AT_name("cm_anti_scr")
    1960                      .dwattr $C$DW$266, DW_AT_TI_symbol_name("_cm_anti_scr")
    1961                      .dwattr $C$DW$266, DW_AT_data_member_location[DW_OP_plus_uconst 0x520]
    1962                      .dwattr $C$DW$266, DW_AT_accessibility(DW_ACCESS_public)
    1963              $C$DW$267       .dwtag  DW_TAG_member
    1964                      .dwattr $C$DW$267, DW_AT_type(*$C$DW$T$12)
    1965                      .dwattr $C$DW$267, DW_AT_name("cm_fg_scr")
    1966                      .dwattr $C$DW$267, DW_AT_TI_symbol_name("_cm_fg_scr")
    1967                      .dwattr $C$DW$267, DW_AT_data_member_location[DW_OP_plus_uconst 0x522]
    1968                      .dwattr $C$DW$267, DW_AT_accessibility(DW_ACCESS_public)
    1969              $C$DW$268       .dwtag  DW_TAG_member
    1970                      .dwattr $C$DW$268, DW_AT_type(*$C$DW$T$12)
    1971                      .dwattr $C$DW$268, DW_AT_name("cm_bk_scr")
    1972                      .dwattr $C$DW$268, DW_AT_TI_symbol_name("_cm_bk_scr")
    1973                      .dwattr $C$DW$268, DW_AT_data_member_location[DW_OP_plus_uconst 0x524]
    1974                      .dwattr $C$DW$268, DW_AT_accessibility(DW_ACCESS_public)
    1975              $C$DW$269       .dwtag  DW_TAG_member
    1976                      .dwattr $C$DW$269, DW_AT_type(*$C$DW$T$8)
    1977                      .dwattr $C$DW$269, DW_AT_name("th_nbest")
    1978                      .dwattr $C$DW$269, DW_AT_TI_symbol_name("_th_nbest")
    1979                      .dwattr $C$DW$269, DW_AT_data_member_location[DW_OP_plus_uconst 0x526]
    1980                      .dwattr $C$DW$269, DW_AT_accessibility(DW_ACCESS_public)
    1981              $C$DW$270       .dwtag  DW_TAG_member
    1982                      .dwattr $C$DW$270, DW_AT_type(*$C$DW$T$8)
    1983                      .dwattr $C$DW$270, DW_AT_name("nSpeech")
    1984                      .dwattr $C$DW$270, DW_AT_TI_symbol_name("_nSpeech")
    1985                      .dwattr $C$DW$270, DW_AT_data_member_location[DW_OP_plus_uconst 0x527]
    1986                      .dwattr $C$DW$270, DW_AT_accessibility(DW_ACCESS_public)
    1987              $C$DW$271       .dwtag  DW_TAG_member
    1988                      .dwattr $C$DW$271, DW_AT_type(*$C$DW$T$8)
    1989                      .dwattr $C$DW$271, DW_AT_name("nNoise")
    1990                      .dwattr $C$DW$271, DW_AT_TI_symbol_name("_nNoise")
    1991                      .dwattr $C$DW$271, DW_AT_data_member_location[DW_OP_plus_uconst 0x528]
    1992                      .dwattr $C$DW$271, DW_AT_accessibility(DW_ACCESS_public)
    1993              $C$DW$272       .dwtag  DW_TAG_member
    1994                      .dwattr $C$DW$272, DW_AT_type(*$C$DW$T$12)
    1995                      .dwattr $C$DW$272, DW_AT_name("speech_power")
    1996                      .dwattr $C$DW$272, DW_AT_TI_symbol_name("_speech_power")
    1997                      .dwattr $C$DW$272, DW_AT_data_member_location[DW_OP_plus_uconst 0x52a]
    1998                      .dwattr $C$DW$272, DW_AT_accessibility(DW_ACCESS_public)
    1999              $C$DW$273       .dwtag  DW_TAG_member
    2000                      .dwattr $C$DW$273, DW_AT_type(*$C$DW$T$12)
    2001                      .dwattr $C$DW$273, DW_AT_name("noise_power")
    2002                      .dwattr $C$DW$273, DW_AT_TI_symbol_name("_noise_power")
    2003                      .dwattr $C$DW$273, DW_AT_data_member_location[DW_OP_plus_uconst 0x52c]
    2004                      .dwattr $C$DW$273, DW_AT_accessibility(DW_ACCESS_public)
TMS320C55x Assembler PC v4.4.1 Wed Sep 13 16:34:06 2017

Tools Copyright (c) 1996-2012 Texas Instruments Incorporated
C:\Users\a0221074\AppData\Local\Temp\0994410                         PAGE   43

    2005              $C$DW$274       .dwtag  DW_TAG_member
    2006                      .dwattr $C$DW$274, DW_AT_type(*$C$DW$T$12)
    2007                      .dwattr $C$DW$274, DW_AT_name("noise_power_sqr")
    2008                      .dwattr $C$DW$274, DW_AT_TI_symbol_name("_noise_power_sqr")
    2009                      .dwattr $C$DW$274, DW_AT_data_member_location[DW_OP_plus_uconst 0x52e]
    2010                      .dwattr $C$DW$274, DW_AT_accessibility(DW_ACCESS_public)
    2011              $C$DW$275       .dwtag  DW_TAG_member
    2012                      .dwattr $C$DW$275, DW_AT_type(*$C$DW$T$8)
    2013                      .dwattr $C$DW$275, DW_AT_name("NSNR")
    2014                      .dwattr $C$DW$275, DW_AT_TI_symbol_name("_NSNR")
    2015                      .dwattr $C$DW$275, DW_AT_data_member_location[DW_OP_plus_uconst 0x530]
    2016                      .dwattr $C$DW$275, DW_AT_accessibility(DW_ACCESS_public)
    2017              $C$DW$276       .dwtag  DW_TAG_member
    2018                      .dwattr $C$DW$276, DW_AT_type(*$C$DW$T$46)
    2019                      .dwattr $C$DW$276, DW_AT_name("H0")
    2020                      .dwattr $C$DW$276, DW_AT_TI_symbol_name("_H0")
    2021                      .dwattr $C$DW$276, DW_AT_data_member_location[DW_OP_plus_uconst 0x531]
    2022                      .dwattr $C$DW$276, DW_AT_accessibility(DW_ACCESS_public)
    2023              $C$DW$277       .dwtag  DW_TAG_member
    2024                      .dwattr $C$DW$277, DW_AT_type(*$C$DW$T$46)
    2025                      .dwattr $C$DW$277, DW_AT_name("H1")
    2026                      .dwattr $C$DW$277, DW_AT_TI_symbol_name("_H1")
    2027                      .dwattr $C$DW$277, DW_AT_data_member_location[DW_OP_plus_uconst 0x534]
    2028                      .dwattr $C$DW$277, DW_AT_accessibility(DW_ACCESS_public)
    2029              $C$DW$278       .dwtag  DW_TAG_member
    2030                      .dwattr $C$DW$278, DW_AT_type(*$C$DW$T$21)
    2031                      .dwattr $C$DW$278, DW_AT_name("lgBeta")
    2032                      .dwattr $C$DW$278, DW_AT_TI_symbol_name("_lgBeta")
    2033                      .dwattr $C$DW$278, DW_AT_data_member_location[DW_OP_plus_uconst 0x538]
    2034                      .dwattr $C$DW$278, DW_AT_accessibility(DW_ACCESS_public)
    2035              $C$DW$279       .dwtag  DW_TAG_member
    2036                      .dwattr $C$DW$279, DW_AT_type(*$C$DW$T$47)
    2037                      .dwattr $C$DW$279, DW_AT_name("acc_dif2_beta")
    2038                      .dwattr $C$DW$279, DW_AT_TI_symbol_name("_acc_dif2_beta")
    2039                      .dwattr $C$DW$279, DW_AT_data_member_location[DW_OP_plus_uconst 0x53a]
    2040                      .dwattr $C$DW$279, DW_AT_accessibility(DW_ACCESS_public)
    2041              $C$DW$280       .dwtag  DW_TAG_member
    2042                      .dwattr $C$DW$280, DW_AT_type(*$C$DW$T$8)
    2043                      .dwattr $C$DW$280, DW_AT_name("bCalced")
    2044                      .dwattr $C$DW$280, DW_AT_TI_symbol_name("_bCalced")
    2045                      .dwattr $C$DW$280, DW_AT_data_member_location[DW_OP_plus_uconst 0x53c]
    2046                      .dwattr $C$DW$280, DW_AT_accessibility(DW_ACCESS_public)
    2047              $C$DW$281       .dwtag  DW_TAG_member
    2048                      .dwattr $C$DW$281, DW_AT_type(*$C$DW$T$21)
    2049                      .dwattr $C$DW$281, DW_AT_name("sCH")
    2050                      .dwattr $C$DW$281, DW_AT_TI_symbol_name("_sCH")
    2051                      .dwattr $C$DW$281, DW_AT_data_member_location[DW_OP_plus_uconst 0x53e]
    2052                      .dwattr $C$DW$281, DW_AT_accessibility(DW_ACCESS_public)
    2053              $C$DW$282       .dwtag  DW_TAG_member
    2054                      .dwattr $C$DW$282, DW_AT_type(*$C$DW$T$47)
    2055                      .dwattr $C$DW$282, DW_AT_name("lAccum")
    2056                      .dwattr $C$DW$282, DW_AT_TI_symbol_name("_lAccum")
    2057                      .dwattr $C$DW$282, DW_AT_data_member_location[DW_OP_plus_uconst 0x540]
    2058                      .dwattr $C$DW$282, DW_AT_accessibility(DW_ACCESS_public)
    2059              $C$DW$283       .dwtag  DW_TAG_member
TMS320C55x Assembler PC v4.4.1 Wed Sep 13 16:34:06 2017

Tools Copyright (c) 1996-2012 Texas Instruments Incorporated
C:\Users\a0221074\AppData\Local\Temp\0994410                         PAGE   44

    2060                      .dwattr $C$DW$283, DW_AT_type(*$C$DW$T$8)
    2061                      .dwattr $C$DW$283, DW_AT_name("adp_th")
    2062                      .dwattr $C$DW$283, DW_AT_TI_symbol_name("_adp_th")
    2063                      .dwattr $C$DW$283, DW_AT_data_member_location[DW_OP_plus_uconst 0x542]
    2064                      .dwattr $C$DW$283, DW_AT_accessibility(DW_ACCESS_public)
    2065                      .dwendtag $C$DW$T$48
    2066              
    2067              $C$DW$T$88      .dwtag  DW_TAG_typedef, DW_AT_name("ConfType")
    2068                      .dwattr $C$DW$T$88, DW_AT_type(*$C$DW$T$48)
    2069                      .dwattr $C$DW$T$88, DW_AT_language(DW_LANG_C)
    2070              $C$DW$T$89      .dwtag  DW_TAG_pointer_type
    2071                      .dwattr $C$DW$T$89, DW_AT_type(*$C$DW$T$88)
    2072                      .dwattr $C$DW$T$89, DW_AT_address_class(0x17)
    2073              $C$DW$T$3       .dwtag  DW_TAG_pointer_type
    2074                      .dwattr $C$DW$T$3, DW_AT_address_class(0x17)
    2075              $C$DW$T$106     .dwtag  DW_TAG_typedef, DW_AT_name("Ptr")
    2076                      .dwattr $C$DW$T$106, DW_AT_type(*$C$DW$T$3)
    2077                      .dwattr $C$DW$T$106, DW_AT_language(DW_LANG_C)
    2078              $C$DW$T$4       .dwtag  DW_TAG_base_type
    2079                      .dwattr $C$DW$T$4, DW_AT_encoding(DW_ATE_boolean)
    2080                      .dwattr $C$DW$T$4, DW_AT_name("bool")
    2081                      .dwattr $C$DW$T$4, DW_AT_byte_size(0x01)
    2082              $C$DW$T$5       .dwtag  DW_TAG_base_type
    2083                      .dwattr $C$DW$T$5, DW_AT_encoding(DW_ATE_signed_char)
    2084                      .dwattr $C$DW$T$5, DW_AT_name("signed char")
    2085                      .dwattr $C$DW$T$5, DW_AT_byte_size(0x01)
    2086              $C$DW$T$6       .dwtag  DW_TAG_base_type
    2087                      .dwattr $C$DW$T$6, DW_AT_encoding(DW_ATE_unsigned_char)
    2088                      .dwattr $C$DW$T$6, DW_AT_name("unsigned char")
    2089                      .dwattr $C$DW$T$6, DW_AT_byte_size(0x01)
    2090              $C$DW$T$7       .dwtag  DW_TAG_base_type
    2091                      .dwattr $C$DW$T$7, DW_AT_encoding(DW_ATE_signed_char)
    2092                      .dwattr $C$DW$T$7, DW_AT_name("wchar_t")
    2093                      .dwattr $C$DW$T$7, DW_AT_byte_size(0x01)
    2094              $C$DW$T$8       .dwtag  DW_TAG_base_type
    2095                      .dwattr $C$DW$T$8, DW_AT_encoding(DW_ATE_signed)
    2096                      .dwattr $C$DW$T$8, DW_AT_name("short")
    2097                      .dwattr $C$DW$T$8, DW_AT_byte_size(0x01)
    2098              $C$DW$T$21      .dwtag  DW_TAG_pointer_type
    2099                      .dwattr $C$DW$T$21, DW_AT_type(*$C$DW$T$8)
    2100                      .dwattr $C$DW$T$21, DW_AT_address_class(0x17)
    2101              
    2102              $C$DW$T$39      .dwtag  DW_TAG_array_type
    2103                      .dwattr $C$DW$T$39, DW_AT_type(*$C$DW$T$8)
    2104                      .dwattr $C$DW$T$39, DW_AT_language(DW_LANG_C)
    2105                      .dwattr $C$DW$T$39, DW_AT_byte_size(0x1e)
    2106              $C$DW$284       .dwtag  DW_TAG_subrange_type
    2107                      .dwattr $C$DW$284, DW_AT_upper_bound(0x1d)
    2108                      .dwendtag $C$DW$T$39
    2109              
    2110              
    2111              $C$DW$T$45      .dwtag  DW_TAG_array_type
    2112                      .dwattr $C$DW$T$45, DW_AT_type(*$C$DW$T$8)
    2113                      .dwattr $C$DW$T$45, DW_AT_language(DW_LANG_C)
    2114                      .dwattr $C$DW$T$45, DW_AT_byte_size(0x514)
TMS320C55x Assembler PC v4.4.1 Wed Sep 13 16:34:06 2017

Tools Copyright (c) 1996-2012 Texas Instruments Incorporated
C:\Users\a0221074\AppData\Local\Temp\0994410                         PAGE   45

    2115              $C$DW$285       .dwtag  DW_TAG_subrange_type
    2116                      .dwattr $C$DW$285, DW_AT_upper_bound(0x513)
    2117                      .dwendtag $C$DW$T$45
    2118              
    2119              
    2120              $C$DW$T$50      .dwtag  DW_TAG_array_type
    2121                      .dwattr $C$DW$T$50, DW_AT_type(*$C$DW$T$8)
    2122                      .dwattr $C$DW$T$50, DW_AT_language(DW_LANG_C)
    2123                      .dwattr $C$DW$T$50, DW_AT_byte_size(0x100)
    2124              $C$DW$286       .dwtag  DW_TAG_subrange_type
    2125                      .dwattr $C$DW$286, DW_AT_upper_bound(0xff)
    2126                      .dwendtag $C$DW$T$50
    2127              
    2128              
    2129              $C$DW$T$51      .dwtag  DW_TAG_array_type
    2130                      .dwattr $C$DW$T$51, DW_AT_type(*$C$DW$T$8)
    2131                      .dwattr $C$DW$T$51, DW_AT_language(DW_LANG_C)
    2132                      .dwattr $C$DW$T$51, DW_AT_byte_size(0x10)
    2133              $C$DW$287       .dwtag  DW_TAG_subrange_type
    2134                      .dwattr $C$DW$287, DW_AT_upper_bound(0x0f)
    2135                      .dwendtag $C$DW$T$51
    2136              
    2137              
    2138              $C$DW$T$52      .dwtag  DW_TAG_array_type
    2139                      .dwattr $C$DW$T$52, DW_AT_type(*$C$DW$T$8)
    2140                      .dwattr $C$DW$T$52, DW_AT_language(DW_LANG_C)
    2141                      .dwattr $C$DW$T$52, DW_AT_byte_size(0xe0)
    2142              $C$DW$288       .dwtag  DW_TAG_subrange_type
    2143                      .dwattr $C$DW$288, DW_AT_upper_bound(0x0d)
    2144              $C$DW$289       .dwtag  DW_TAG_subrange_type
    2145                      .dwattr $C$DW$289, DW_AT_upper_bound(0x0f)
    2146                      .dwendtag $C$DW$T$52
    2147              
    2148              $C$DW$290       .dwtag  DW_TAG_TI_far_type
    2149                      .dwattr $C$DW$290, DW_AT_type(*$C$DW$T$8)
    2150              $C$DW$T$53      .dwtag  DW_TAG_const_type
    2151                      .dwattr $C$DW$T$53, DW_AT_type(*$C$DW$290)
    2152              $C$DW$T$54      .dwtag  DW_TAG_pointer_type
    2153                      .dwattr $C$DW$T$54, DW_AT_type(*$C$DW$T$53)
    2154                      .dwattr $C$DW$T$54, DW_AT_address_class(0x17)
    2155              
    2156              $C$DW$T$55      .dwtag  DW_TAG_array_type
    2157                      .dwattr $C$DW$T$55, DW_AT_type(*$C$DW$T$54)
    2158                      .dwattr $C$DW$T$55, DW_AT_language(DW_LANG_C)
    2159                      .dwattr $C$DW$T$55, DW_AT_byte_size(0x20)
    2160              $C$DW$291       .dwtag  DW_TAG_subrange_type
    2161                      .dwattr $C$DW$291, DW_AT_upper_bound(0x0f)
    2162                      .dwendtag $C$DW$T$55
    2163              
    2164              
    2165              $C$DW$T$122     .dwtag  DW_TAG_array_type
    2166                      .dwattr $C$DW$T$122, DW_AT_type(*$C$DW$T$53)
    2167                      .dwattr $C$DW$T$122, DW_AT_language(DW_LANG_C)
    2168                      .dwattr $C$DW$T$122, DW_AT_byte_size(0x10)
    2169              $C$DW$292       .dwtag  DW_TAG_subrange_type
TMS320C55x Assembler PC v4.4.1 Wed Sep 13 16:34:06 2017

Tools Copyright (c) 1996-2012 Texas Instruments Incorporated
C:\Users\a0221074\AppData\Local\Temp\0994410                         PAGE   46

    2170                      .dwattr $C$DW$292, DW_AT_upper_bound(0x0f)
    2171                      .dwendtag $C$DW$T$122
    2172              
    2173              
    2174              $C$DW$T$59      .dwtag  DW_TAG_array_type
    2175                      .dwattr $C$DW$T$59, DW_AT_type(*$C$DW$T$8)
    2176                      .dwattr $C$DW$T$59, DW_AT_language(DW_LANG_C)
    2177                      .dwattr $C$DW$T$59, DW_AT_byte_size(0x80)
    2178              $C$DW$293       .dwtag  DW_TAG_subrange_type
    2179                      .dwattr $C$DW$293, DW_AT_upper_bound(0x7f)
    2180                      .dwendtag $C$DW$T$59
    2181              
    2182              
    2183              $C$DW$T$60      .dwtag  DW_TAG_array_type
    2184                      .dwattr $C$DW$T$60, DW_AT_type(*$C$DW$T$8)
    2185                      .dwattr $C$DW$T$60, DW_AT_language(DW_LANG_C)
    2186                      .dwattr $C$DW$T$60, DW_AT_byte_size(0x1a)
    2187              $C$DW$294       .dwtag  DW_TAG_subrange_type
    2188                      .dwattr $C$DW$294, DW_AT_upper_bound(0x19)
    2189                      .dwendtag $C$DW$T$60
    2190              
    2191              
    2192              $C$DW$T$78      .dwtag  DW_TAG_array_type
    2193                      .dwattr $C$DW$T$78, DW_AT_type(*$C$DW$T$8)
    2194                      .dwattr $C$DW$T$78, DW_AT_language(DW_LANG_C)
    2195                      .dwattr $C$DW$T$78, DW_AT_byte_size(0x20)
    2196              $C$DW$295       .dwtag  DW_TAG_subrange_type
    2197                      .dwattr $C$DW$295, DW_AT_upper_bound(0x1f)
    2198                      .dwendtag $C$DW$T$78
    2199              
    2200              
    2201              $C$DW$T$84      .dwtag  DW_TAG_array_type
    2202                      .dwattr $C$DW$T$84, DW_AT_type(*$C$DW$T$8)
    2203                      .dwattr $C$DW$T$84, DW_AT_language(DW_LANG_C)
    2204                      .dwattr $C$DW$T$84, DW_AT_byte_size(0x14)
    2205              $C$DW$296       .dwtag  DW_TAG_subrange_type
    2206                      .dwattr $C$DW$296, DW_AT_upper_bound(0x13)
    2207                      .dwendtag $C$DW$T$84
    2208              
    2209              $C$DW$T$9       .dwtag  DW_TAG_base_type
    2210                      .dwattr $C$DW$T$9, DW_AT_encoding(DW_ATE_unsigned)
    2211                      .dwattr $C$DW$T$9, DW_AT_name("unsigned short")
    2212                      .dwattr $C$DW$T$9, DW_AT_byte_size(0x01)
    2213              
    2214              $C$DW$T$27      .dwtag  DW_TAG_array_type
    2215                      .dwattr $C$DW$T$27, DW_AT_type(*$C$DW$T$9)
    2216                      .dwattr $C$DW$T$27, DW_AT_language(DW_LANG_C)
    2217                      .dwattr $C$DW$T$27, DW_AT_byte_size(0x01)
    2218              $C$DW$297       .dwtag  DW_TAG_subrange_type
    2219                      .dwattr $C$DW$297, DW_AT_upper_bound(0x00)
    2220                      .dwendtag $C$DW$T$27
    2221              
    2222              
    2223              $C$DW$T$33      .dwtag  DW_TAG_array_type
    2224                      .dwattr $C$DW$T$33, DW_AT_type(*$C$DW$T$9)
TMS320C55x Assembler PC v4.4.1 Wed Sep 13 16:34:06 2017

Tools Copyright (c) 1996-2012 Texas Instruments Incorporated
C:\Users\a0221074\AppData\Local\Temp\0994410                         PAGE   47

    2225                      .dwattr $C$DW$T$33, DW_AT_language(DW_LANG_C)
    2226                      .dwattr $C$DW$T$33, DW_AT_byte_size(0x02)
    2227              $C$DW$298       .dwtag  DW_TAG_subrange_type
    2228                      .dwattr $C$DW$298, DW_AT_upper_bound(0x01)
    2229                      .dwendtag $C$DW$T$33
    2230              
    2231              $C$DW$T$35      .dwtag  DW_TAG_pointer_type
    2232                      .dwattr $C$DW$T$35, DW_AT_type(*$C$DW$T$9)
    2233                      .dwattr $C$DW$T$35, DW_AT_address_class(0x17)
    2234              $C$DW$T$20      .dwtag  DW_TAG_typedef, DW_AT_name("ushort")
    2235                      .dwattr $C$DW$T$20, DW_AT_type(*$C$DW$T$9)
    2236                      .dwattr $C$DW$T$20, DW_AT_language(DW_LANG_C)
    2237              $C$DW$T$22      .dwtag  DW_TAG_pointer_type
    2238                      .dwattr $C$DW$T$22, DW_AT_type(*$C$DW$T$20)
    2239                      .dwattr $C$DW$T$22, DW_AT_address_class(0x17)
    2240              
    2241              $C$DW$T$37      .dwtag  DW_TAG_array_type
    2242                      .dwattr $C$DW$T$37, DW_AT_type(*$C$DW$T$20)
    2243                      .dwattr $C$DW$T$37, DW_AT_language(DW_LANG_C)
    2244                      .dwattr $C$DW$T$37, DW_AT_byte_size(0x14)
    2245              $C$DW$299       .dwtag  DW_TAG_subrange_type
    2246                      .dwattr $C$DW$299, DW_AT_upper_bound(0x13)
    2247                      .dwendtag $C$DW$T$37
    2248              
    2249              
    2250              $C$DW$T$85      .dwtag  DW_TAG_array_type
    2251                      .dwattr $C$DW$T$85, DW_AT_type(*$C$DW$T$20)
    2252                      .dwattr $C$DW$T$85, DW_AT_language(DW_LANG_C)
    2253                      .dwattr $C$DW$T$85, DW_AT_byte_size(0x02)
    2254              $C$DW$300       .dwtag  DW_TAG_subrange_type
    2255                      .dwattr $C$DW$300, DW_AT_upper_bound(0x01)
    2256                      .dwendtag $C$DW$T$85
    2257              
    2258              $C$DW$T$10      .dwtag  DW_TAG_base_type
    2259                      .dwattr $C$DW$T$10, DW_AT_encoding(DW_ATE_signed)
    2260                      .dwattr $C$DW$T$10, DW_AT_name("int")
    2261                      .dwattr $C$DW$T$10, DW_AT_byte_size(0x01)
    2262              $C$DW$T$107     .dwtag  DW_TAG_typedef, DW_AT_name("Int")
    2263                      .dwattr $C$DW$T$107, DW_AT_type(*$C$DW$T$10)
    2264                      .dwattr $C$DW$T$107, DW_AT_language(DW_LANG_C)
    2265              $C$DW$T$11      .dwtag  DW_TAG_base_type
    2266                      .dwattr $C$DW$T$11, DW_AT_encoding(DW_ATE_unsigned)
    2267                      .dwattr $C$DW$T$11, DW_AT_name("unsigned int")
    2268                      .dwattr $C$DW$T$11, DW_AT_byte_size(0x01)
    2269              $C$DW$T$12      .dwtag  DW_TAG_base_type
    2270                      .dwattr $C$DW$T$12, DW_AT_encoding(DW_ATE_signed)
    2271                      .dwattr $C$DW$T$12, DW_AT_name("long")
    2272                      .dwattr $C$DW$T$12, DW_AT_byte_size(0x02)
    2273              $C$DW$T$47      .dwtag  DW_TAG_pointer_type
    2274                      .dwattr $C$DW$T$47, DW_AT_type(*$C$DW$T$12)
    2275                      .dwattr $C$DW$T$47, DW_AT_address_class(0x17)
    2276              
    2277              $C$DW$T$61      .dwtag  DW_TAG_array_type
    2278                      .dwattr $C$DW$T$61, DW_AT_type(*$C$DW$T$12)
    2279                      .dwattr $C$DW$T$61, DW_AT_language(DW_LANG_C)
TMS320C55x Assembler PC v4.4.1 Wed Sep 13 16:34:06 2017

Tools Copyright (c) 1996-2012 Texas Instruments Incorporated
C:\Users\a0221074\AppData\Local\Temp\0994410                         PAGE   48

    2280                      .dwattr $C$DW$T$61, DW_AT_byte_size(0xd0)
    2281              $C$DW$301       .dwtag  DW_TAG_subrange_type
    2282                      .dwattr $C$DW$301, DW_AT_upper_bound(0x67)
    2283                      .dwendtag $C$DW$T$61
    2284              
    2285              
    2286              $C$DW$T$64      .dwtag  DW_TAG_array_type
    2287                      .dwattr $C$DW$T$64, DW_AT_type(*$C$DW$T$12)
    2288                      .dwattr $C$DW$T$64, DW_AT_language(DW_LANG_C)
    2289                      .dwattr $C$DW$T$64, DW_AT_byte_size(0x20)
    2290              $C$DW$302       .dwtag  DW_TAG_subrange_type
    2291                      .dwattr $C$DW$302, DW_AT_upper_bound(0x0f)
    2292                      .dwendtag $C$DW$T$64
    2293              
    2294              $C$DW$T$13      .dwtag  DW_TAG_base_type
    2295                      .dwattr $C$DW$T$13, DW_AT_encoding(DW_ATE_unsigned)
    2296                      .dwattr $C$DW$T$13, DW_AT_name("unsigned long")
    2297                      .dwattr $C$DW$T$13, DW_AT_byte_size(0x02)
    2298              $C$DW$T$124     .dwtag  DW_TAG_typedef, DW_AT_name("Uint32")
    2299                      .dwattr $C$DW$T$124, DW_AT_type(*$C$DW$T$13)
    2300                      .dwattr $C$DW$T$124, DW_AT_language(DW_LANG_C)
    2301              $C$DW$T$108     .dwtag  DW_TAG_typedef, DW_AT_name("size_t")
    2302                      .dwattr $C$DW$T$108, DW_AT_type(*$C$DW$T$13)
    2303                      .dwattr $C$DW$T$108, DW_AT_language(DW_LANG_C)
    2304              $C$DW$T$14      .dwtag  DW_TAG_base_type
    2305                      .dwattr $C$DW$T$14, DW_AT_encoding(DW_ATE_signed)
    2306                      .dwattr $C$DW$T$14, DW_AT_name("long long")
    2307                      .dwattr $C$DW$T$14, DW_AT_byte_size(0x04)
    2308                      .dwattr $C$DW$T$14, DW_AT_bit_size(0x28)
    2309                      .dwattr $C$DW$T$14, DW_AT_bit_offset(0x18)
    2310              $C$DW$T$15      .dwtag  DW_TAG_base_type
    2311                      .dwattr $C$DW$T$15, DW_AT_encoding(DW_ATE_unsigned)
    2312                      .dwattr $C$DW$T$15, DW_AT_name("unsigned long long")
    2313                      .dwattr $C$DW$T$15, DW_AT_byte_size(0x04)
    2314                      .dwattr $C$DW$T$15, DW_AT_bit_size(0x28)
    2315                      .dwattr $C$DW$T$15, DW_AT_bit_offset(0x18)
    2316              $C$DW$T$16      .dwtag  DW_TAG_base_type
    2317                      .dwattr $C$DW$T$16, DW_AT_encoding(DW_ATE_float)
    2318                      .dwattr $C$DW$T$16, DW_AT_name("float")
    2319                      .dwattr $C$DW$T$16, DW_AT_byte_size(0x02)
    2320              $C$DW$T$17      .dwtag  DW_TAG_base_type
    2321                      .dwattr $C$DW$T$17, DW_AT_encoding(DW_ATE_float)
    2322                      .dwattr $C$DW$T$17, DW_AT_name("double")
    2323                      .dwattr $C$DW$T$17, DW_AT_byte_size(0x02)
    2324              $C$DW$T$18      .dwtag  DW_TAG_base_type
    2325                      .dwattr $C$DW$T$18, DW_AT_encoding(DW_ATE_float)
    2326                      .dwattr $C$DW$T$18, DW_AT_name("long double")
    2327                      .dwattr $C$DW$T$18, DW_AT_byte_size(0x02)
    2328              $C$DW$T$73      .dwtag  DW_TAG_base_type
    2329                      .dwattr $C$DW$T$73, DW_AT_encoding(DW_ATE_signed_char)
    2330                      .dwattr $C$DW$T$73, DW_AT_name("signed char")
    2331                      .dwattr $C$DW$T$73, DW_AT_byte_size(0x01)
    2332              $C$DW$T$74      .dwtag  DW_TAG_pointer_type
    2333                      .dwattr $C$DW$T$74, DW_AT_type(*$C$DW$T$73)
    2334                      .dwattr $C$DW$T$74, DW_AT_address_class(0x17)
TMS320C55x Assembler PC v4.4.1 Wed Sep 13 16:34:06 2017

Tools Copyright (c) 1996-2012 Texas Instruments Incorporated
C:\Users\a0221074\AppData\Local\Temp\0994410                         PAGE   49

    2335              $C$DW$T$77      .dwtag  DW_TAG_pointer_type
    2336                      .dwattr $C$DW$T$77, DW_AT_type(*$C$DW$T$74)
    2337                      .dwattr $C$DW$T$77, DW_AT_address_class(0x17)
    2338              
    2339              $C$DW$T$49      .dwtag  DW_TAG_structure_type
    2340                      .dwattr $C$DW$T$49, DW_AT_name("ele")
    2341                      .dwattr $C$DW$T$49, DW_AT_byte_size(0x03)
    2342              $C$DW$303       .dwtag  DW_TAG_member
    2343                      .dwattr $C$DW$303, DW_AT_type(*$C$DW$T$9)
    2344                      .dwattr $C$DW$303, DW_AT_name("sym")
    2345                      .dwattr $C$DW$303, DW_AT_TI_symbol_name("_sym")
    2346                      .dwattr $C$DW$303, DW_AT_data_member_location[DW_OP_plus_uconst 0x0]
    2347                      .dwattr $C$DW$303, DW_AT_accessibility(DW_ACCESS_public)
    2348              $C$DW$304       .dwtag  DW_TAG_member
    2349                      .dwattr $C$DW$304, DW_AT_type(*$C$DW$T$9)
    2350                      .dwattr $C$DW$304, DW_AT_name("idx_flag")
    2351                      .dwattr $C$DW$304, DW_AT_TI_symbol_name("_idx_flag")
    2352                      .dwattr $C$DW$304, DW_AT_data_member_location[DW_OP_plus_uconst 0x1]
    2353                      .dwattr $C$DW$304, DW_AT_accessibility(DW_ACCESS_public)
    2354              $C$DW$305       .dwtag  DW_TAG_member
    2355                      .dwattr $C$DW$305, DW_AT_type(*$C$DW$T$9)
    2356                      .dwattr $C$DW$305, DW_AT_name("next")
    2357                      .dwattr $C$DW$305, DW_AT_TI_symbol_name("_next")
    2358                      .dwattr $C$DW$305, DW_AT_data_member_location[DW_OP_plus_uconst 0x2]
    2359                      .dwattr $C$DW$305, DW_AT_accessibility(DW_ACCESS_public)
    2360                      .dwendtag $C$DW$T$49
    2361              
    2362              $C$DW$T$69      .dwtag  DW_TAG_typedef, DW_AT_name("BeamType")
    2363                      .dwattr $C$DW$T$69, DW_AT_type(*$C$DW$T$49)
    2364                      .dwattr $C$DW$T$69, DW_AT_language(DW_LANG_C)
    2365              $C$DW$T$70      .dwtag  DW_TAG_pointer_type
    2366                      .dwattr $C$DW$T$70, DW_AT_type(*$C$DW$T$69)
    2367                      .dwattr $C$DW$T$70, DW_AT_address_class(0x17)
    2368              
    2369              $C$DW$T$90      .dwtag  DW_TAG_structure_type
    2370                      .dwattr $C$DW$T$90, DW_AT_name("gmhmm_type")
    2371                      .dwattr $C$DW$T$90, DW_AT_byte_size(0x7fe)
    2372              $C$DW$306       .dwtag  DW_TAG_member
    2373                      .dwattr $C$DW$306, DW_AT_type(*$C$DW$T$20)
    2374                      .dwattr $C$DW$306, DW_AT_name("avedepth")
    2375                      .dwattr $C$DW$306, DW_AT_TI_symbol_name("_avedepth")
    2376                      .dwattr $C$DW$306, DW_AT_data_member_location[DW_OP_plus_uconst 0x0]
    2377                      .dwattr $C$DW$306, DW_AT_accessibility(DW_ACCESS_public)
    2378              $C$DW$307       .dwtag  DW_TAG_member
    2379                      .dwattr $C$DW$307, DW_AT_type(*$C$DW$T$20)
    2380                      .dwattr $C$DW$307, DW_AT_name("bestdepth")
    2381                      .dwattr $C$DW$307, DW_AT_TI_symbol_name("_bestdepth")
    2382                      .dwattr $C$DW$307, DW_AT_data_member_location[DW_OP_plus_uconst 0x1]
    2383                      .dwattr $C$DW$307, DW_AT_accessibility(DW_ACCESS_public)
    2384              $C$DW$308       .dwtag  DW_TAG_member
    2385                      .dwattr $C$DW$308, DW_AT_type(*$C$DW$T$20)
    2386                      .dwattr $C$DW$308, DW_AT_name("index_mean")
    2387                      .dwattr $C$DW$308, DW_AT_TI_symbol_name("_index_mean")
    2388                      .dwattr $C$DW$308, DW_AT_data_member_location[DW_OP_plus_uconst 0x2]
    2389                      .dwattr $C$DW$308, DW_AT_accessibility(DW_ACCESS_public)
TMS320C55x Assembler PC v4.4.1 Wed Sep 13 16:34:06 2017

Tools Copyright (c) 1996-2012 Texas Instruments Incorporated
C:\Users\a0221074\AppData\Local\Temp\0994410                         PAGE   50

    2390              $C$DW$309       .dwtag  DW_TAG_member
    2391                      .dwattr $C$DW$309, DW_AT_type(*$C$DW$T$20)
    2392                      .dwattr $C$DW$309, DW_AT_name("signal_cnt")
    2393                      .dwattr $C$DW$309, DW_AT_TI_symbol_name("_signal_cnt")
    2394                      .dwattr $C$DW$309, DW_AT_data_member_location[DW_OP_plus_uconst 0x3]
    2395                      .dwattr $C$DW$309, DW_AT_accessibility(DW_ACCESS_public)
    2396              $C$DW$310       .dwtag  DW_TAG_member
    2397                      .dwattr $C$DW$310, DW_AT_type(*$C$DW$T$8)
    2398                      .dwattr $C$DW$310, DW_AT_name("buf_idx")
    2399                      .dwattr $C$DW$310, DW_AT_TI_symbol_name("_buf_idx")
    2400                      .dwattr $C$DW$310, DW_AT_data_member_location[DW_OP_plus_uconst 0x4]
    2401                      .dwattr $C$DW$310, DW_AT_accessibility(DW_ACCESS_public)
    2402              $C$DW$311       .dwtag  DW_TAG_member
    2403                      .dwattr $C$DW$311, DW_AT_type(*$C$DW$T$20)
    2404                      .dwattr $C$DW$311, DW_AT_name("speech_detected")
    2405                      .dwattr $C$DW$311, DW_AT_TI_symbol_name("_speech_detected")
    2406                      .dwattr $C$DW$311, DW_AT_data_member_location[DW_OP_plus_uconst 0x5]
    2407                      .dwattr $C$DW$311, DW_AT_accessibility(DW_ACCESS_public)
    2408              $C$DW$312       .dwtag  DW_TAG_member
    2409                      .dwattr $C$DW$312, DW_AT_type(*$C$DW$T$20)
    2410                      .dwattr $C$DW$312, DW_AT_name("mfcc_cnt")
    2411                      .dwattr $C$DW$312, DW_AT_TI_symbol_name("_mfcc_cnt")
    2412                      .dwattr $C$DW$312, DW_AT_data_member_location[DW_OP_plus_uconst 0x6]
    2413                      .dwattr $C$DW$312, DW_AT_accessibility(DW_ACCESS_public)
    2414              $C$DW$313       .dwtag  DW_TAG_member
    2415                      .dwattr $C$DW$313, DW_AT_type(*$C$DW$T$20)
    2416                      .dwattr $C$DW$313, DW_AT_name("nbr_cpy")
    2417                      .dwattr $C$DW$313, DW_AT_TI_symbol_name("_nbr_cpy")
    2418                      .dwattr $C$DW$313, DW_AT_data_member_location[DW_OP_plus_uconst 0x7]
    2419                      .dwattr $C$DW$313, DW_AT_accessibility(DW_ACCESS_public)
    2420              $C$DW$314       .dwtag  DW_TAG_member
    2421                      .dwattr $C$DW$314, DW_AT_type(*$C$DW$T$8)
    2422                      .dwattr $C$DW$314, DW_AT_name("last_sig")
    2423                      .dwattr $C$DW$314, DW_AT_TI_symbol_name("_last_sig")
    2424                      .dwattr $C$DW$314, DW_AT_data_member_location[DW_OP_plus_uconst 0x8]
    2425                      .dwattr $C$DW$314, DW_AT_accessibility(DW_ACCESS_public)
    2426              $C$DW$315       .dwtag  DW_TAG_member
    2427                      .dwattr $C$DW$315, DW_AT_type(*$C$DW$T$50)
    2428                      .dwattr $C$DW$315, DW_AT_name("sample_signal")
    2429                      .dwattr $C$DW$315, DW_AT_TI_symbol_name("_sample_signal")
    2430                      .dwattr $C$DW$315, DW_AT_data_member_location[DW_OP_plus_uconst 0x9]
    2431                      .dwattr $C$DW$315, DW_AT_accessibility(DW_ACCESS_public)
    2432              $C$DW$316       .dwtag  DW_TAG_member
    2433                      .dwattr $C$DW$316, DW_AT_type(*$C$DW$T$8)
    2434                      .dwattr $C$DW$316, DW_AT_name("amplitude_max")
    2435                      .dwattr $C$DW$316, DW_AT_TI_symbol_name("_amplitude_max")
    2436                      .dwattr $C$DW$316, DW_AT_data_member_location[DW_OP_plus_uconst 0x109]
    2437                      .dwattr $C$DW$316, DW_AT_accessibility(DW_ACCESS_public)
    2438              $C$DW$317       .dwtag  DW_TAG_member
    2439                      .dwattr $C$DW$317, DW_AT_type(*$C$DW$T$8)
    2440                      .dwattr $C$DW$317, DW_AT_name("amplitude_min")
    2441                      .dwattr $C$DW$317, DW_AT_TI_symbol_name("_amplitude_min")
    2442                      .dwattr $C$DW$317, DW_AT_data_member_location[DW_OP_plus_uconst 0x10a]
    2443                      .dwattr $C$DW$317, DW_AT_accessibility(DW_ACCESS_public)
    2444              $C$DW$318       .dwtag  DW_TAG_member
TMS320C55x Assembler PC v4.4.1 Wed Sep 13 16:34:06 2017

Tools Copyright (c) 1996-2012 Texas Instruments Incorporated
C:\Users\a0221074\AppData\Local\Temp\0994410                         PAGE   51

    2445                      .dwattr $C$DW$318, DW_AT_type(*$C$DW$T$8)
    2446                      .dwattr $C$DW$318, DW_AT_name("pred_first_frame")
    2447                      .dwattr $C$DW$318, DW_AT_TI_symbol_name("_pred_first_frame")
    2448                      .dwattr $C$DW$318, DW_AT_data_member_location[DW_OP_plus_uconst 0x10b]
    2449                      .dwattr $C$DW$318, DW_AT_accessibility(DW_ACCESS_public)
    2450              $C$DW$319       .dwtag  DW_TAG_member
    2451                      .dwattr $C$DW$319, DW_AT_type(*$C$DW$T$8)
    2452                      .dwattr $C$DW$319, DW_AT_name("frm_cnt")
    2453                      .dwattr $C$DW$319, DW_AT_TI_symbol_name("_frm_cnt")
    2454                      .dwattr $C$DW$319, DW_AT_data_member_location[DW_OP_plus_uconst 0x10c]
    2455                      .dwattr $C$DW$319, DW_AT_accessibility(DW_ACCESS_public)
    2456              $C$DW$320       .dwtag  DW_TAG_member
    2457                      .dwattr $C$DW$320, DW_AT_type(*$C$DW$T$8)
    2458                      .dwattr $C$DW$320, DW_AT_name("beam_count")
    2459                      .dwattr $C$DW$320, DW_AT_TI_symbol_name("_beam_count")
    2460                      .dwattr $C$DW$320, DW_AT_data_member_location[DW_OP_plus_uconst 0x10d]
    2461                      .dwattr $C$DW$320, DW_AT_accessibility(DW_ACCESS_public)
    2462              $C$DW$321       .dwtag  DW_TAG_member
    2463                      .dwattr $C$DW$321, DW_AT_type(*$C$DW$T$8)
    2464                      .dwattr $C$DW$321, DW_AT_name("active_beam_cells")
    2465                      .dwattr $C$DW$321, DW_AT_TI_symbol_name("_active_beam_cells")
    2466                      .dwattr $C$DW$321, DW_AT_data_member_location[DW_OP_plus_uconst 0x10e]
    2467                      .dwattr $C$DW$321, DW_AT_accessibility(DW_ACCESS_public)
    2468              $C$DW$322       .dwtag  DW_TAG_member
    2469                      .dwattr $C$DW$322, DW_AT_type(*$C$DW$T$8)
    2470                      .dwattr $C$DW$322, DW_AT_name("active_time_cells")
    2471                      .dwattr $C$DW$322, DW_AT_TI_symbol_name("_active_time_cells")
    2472                      .dwattr $C$DW$322, DW_AT_data_member_location[DW_OP_plus_uconst 0x10f]
    2473                      .dwattr $C$DW$322, DW_AT_accessibility(DW_ACCESS_public)
    2474              $C$DW$323       .dwtag  DW_TAG_member
    2475                      .dwattr $C$DW$323, DW_AT_type(*$C$DW$T$9)
    2476                      .dwattr $C$DW$323, DW_AT_name("ending_sym_count")
    2477                      .dwattr $C$DW$323, DW_AT_TI_symbol_name("_ending_sym_count")
    2478                      .dwattr $C$DW$323, DW_AT_data_member_location[DW_OP_plus_uconst 0x110]
    2479                      .dwattr $C$DW$323, DW_AT_accessibility(DW_ACCESS_public)
    2480              $C$DW$324       .dwtag  DW_TAG_member
    2481                      .dwattr $C$DW$324, DW_AT_type(*$C$DW$T$8)
    2482                      .dwattr $C$DW$324, DW_AT_name("comp_type")
    2483                      .dwattr $C$DW$324, DW_AT_TI_symbol_name("_comp_type")
    2484                      .dwattr $C$DW$324, DW_AT_data_member_location[DW_OP_plus_uconst 0x111]
    2485                      .dwattr $C$DW$324, DW_AT_accessibility(DW_ACCESS_public)
    2486              $C$DW$325       .dwtag  DW_TAG_member
    2487                      .dwattr $C$DW$325, DW_AT_type(*$C$DW$T$9)
    2488                      .dwattr $C$DW$325, DW_AT_name("low_vol_limit")
    2489                      .dwattr $C$DW$325, DW_AT_TI_symbol_name("_low_vol_limit")
    2490                      .dwattr $C$DW$325, DW_AT_data_member_location[DW_OP_plus_uconst 0x112]
    2491                      .dwattr $C$DW$325, DW_AT_accessibility(DW_ACCESS_public)
    2492              $C$DW$326       .dwtag  DW_TAG_member
    2493                      .dwattr $C$DW$326, DW_AT_type(*$C$DW$T$9)
    2494                      .dwattr $C$DW$326, DW_AT_name("high_vol_limit")
    2495                      .dwattr $C$DW$326, DW_AT_TI_symbol_name("_high_vol_limit")
    2496                      .dwattr $C$DW$326, DW_AT_data_member_location[DW_OP_plus_uconst 0x113]
    2497                      .dwattr $C$DW$326, DW_AT_accessibility(DW_ACCESS_public)
    2498              $C$DW$327       .dwtag  DW_TAG_member
    2499                      .dwattr $C$DW$327, DW_AT_type(*$C$DW$T$8)
TMS320C55x Assembler PC v4.4.1 Wed Sep 13 16:34:06 2017

Tools Copyright (c) 1996-2012 Texas Instruments Incorporated
C:\Users\a0221074\AppData\Local\Temp\0994410                         PAGE   52

    2500                      .dwattr $C$DW$327, DW_AT_name("vol")
    2501                      .dwattr $C$DW$327, DW_AT_TI_symbol_name("_vol")
    2502                      .dwattr $C$DW$327, DW_AT_data_member_location[DW_OP_plus_uconst 0x114]
    2503                      .dwattr $C$DW$327, DW_AT_accessibility(DW_ACCESS_public)
    2504              $C$DW$328       .dwtag  DW_TAG_member
    2505                      .dwattr $C$DW$328, DW_AT_type(*$C$DW$T$20)
    2506                      .dwattr $C$DW$328, DW_AT_name("n_mfcc")
    2507                      .dwattr $C$DW$328, DW_AT_TI_symbol_name("_n_mfcc")
    2508                      .dwattr $C$DW$328, DW_AT_data_member_location[DW_OP_plus_uconst 0x115]
    2509                      .dwattr $C$DW$328, DW_AT_accessibility(DW_ACCESS_public)
    2510              $C$DW$329       .dwtag  DW_TAG_member
    2511                      .dwattr $C$DW$329, DW_AT_type(*$C$DW$T$8)
    2512                      .dwattr $C$DW$329, DW_AT_name("nbr_dim")
    2513                      .dwattr $C$DW$329, DW_AT_TI_symbol_name("_nbr_dim")
    2514                      .dwattr $C$DW$329, DW_AT_data_member_location[DW_OP_plus_uconst 0x116]
    2515                      .dwattr $C$DW$329, DW_AT_accessibility(DW_ACCESS_public)
    2516              $C$DW$330       .dwtag  DW_TAG_member
    2517                      .dwattr $C$DW$330, DW_AT_type(*$C$DW$T$20)
    2518                      .dwattr $C$DW$330, DW_AT_name("n_filter")
    2519                      .dwattr $C$DW$330, DW_AT_TI_symbol_name("_n_filter")
    2520                      .dwattr $C$DW$330, DW_AT_data_member_location[DW_OP_plus_uconst 0x117]
    2521                      .dwattr $C$DW$330, DW_AT_accessibility(DW_ACCESS_public)
    2522              $C$DW$331       .dwtag  DW_TAG_member
    2523                      .dwattr $C$DW$331, DW_AT_type(*$C$DW$T$52)
    2524                      .dwattr $C$DW$331, DW_AT_name("mfcc_buf")
    2525                      .dwattr $C$DW$331, DW_AT_TI_symbol_name("_mfcc_buf")
    2526                      .dwattr $C$DW$331, DW_AT_data_member_location[DW_OP_plus_uconst 0x118]
    2527                      .dwattr $C$DW$331, DW_AT_accessibility(DW_ACCESS_public)
    2528              $C$DW$332       .dwtag  DW_TAG_member
    2529                      .dwattr $C$DW$332, DW_AT_type(*$C$DW$T$51)
    2530                      .dwattr $C$DW$332, DW_AT_name("mfcc_mean")
    2531                      .dwattr $C$DW$332, DW_AT_TI_symbol_name("_mfcc_mean")
    2532                      .dwattr $C$DW$332, DW_AT_data_member_location[DW_OP_plus_uconst 0x1f8]
    2533                      .dwattr $C$DW$332, DW_AT_accessibility(DW_ACCESS_public)
    2534              $C$DW$333       .dwtag  DW_TAG_member
    2535                      .dwattr $C$DW$333, DW_AT_type(*$C$DW$T$55)
    2536                      .dwattr $C$DW$333, DW_AT_name("cosxfm")
    2537                      .dwattr $C$DW$333, DW_AT_TI_symbol_name("_cosxfm")
    2538                      .dwattr $C$DW$333, DW_AT_data_member_location[DW_OP_plus_uconst 0x208]
    2539                      .dwattr $C$DW$333, DW_AT_accessibility(DW_ACCESS_public)
    2540              $C$DW$334       .dwtag  DW_TAG_member
    2541                      .dwattr $C$DW$334, DW_AT_type(*$C$DW$T$58)
    2542                      .dwattr $C$DW$334, DW_AT_name("mel_filter")
    2543                      .dwattr $C$DW$334, DW_AT_TI_symbol_name("_mel_filter")
    2544                      .dwattr $C$DW$334, DW_AT_data_member_location[DW_OP_plus_uconst 0x228]
    2545                      .dwattr $C$DW$334, DW_AT_accessibility(DW_ACCESS_public)
    2546              $C$DW$335       .dwtag  DW_TAG_member
    2547                      .dwattr $C$DW$335, DW_AT_type(*$C$DW$T$8)
    2548                      .dwattr $C$DW$335, DW_AT_name("th_noise_flr")
    2549                      .dwattr $C$DW$335, DW_AT_TI_symbol_name("_th_noise_flr")
    2550                      .dwattr $C$DW$335, DW_AT_data_member_location[DW_OP_plus_uconst 0x22a]
    2551                      .dwattr $C$DW$335, DW_AT_accessibility(DW_ACCESS_public)
    2552              $C$DW$336       .dwtag  DW_TAG_member
    2553                      .dwattr $C$DW$336, DW_AT_type(*$C$DW$T$8)
    2554                      .dwattr $C$DW$336, DW_AT_name("th_speech_delta")
TMS320C55x Assembler PC v4.4.1 Wed Sep 13 16:34:06 2017

Tools Copyright (c) 1996-2012 Texas Instruments Incorporated
C:\Users\a0221074\AppData\Local\Temp\0994410                         PAGE   53

    2555                      .dwattr $C$DW$336, DW_AT_TI_symbol_name("_th_speech_delta")
    2556                      .dwattr $C$DW$336, DW_AT_data_member_location[DW_OP_plus_uconst 0x22b]
    2557                      .dwattr $C$DW$336, DW_AT_accessibility(DW_ACCESS_public)
    2558              $C$DW$337       .dwtag  DW_TAG_member
    2559                      .dwattr $C$DW$337, DW_AT_type(*$C$DW$T$8)
    2560                      .dwattr $C$DW$337, DW_AT_name("th_min_speech_db")
    2561                      .dwattr $C$DW$337, DW_AT_TI_symbol_name("_th_min_speech_db")
    2562                      .dwattr $C$DW$337, DW_AT_data_member_location[DW_OP_plus_uconst 0x22c]
    2563                      .dwattr $C$DW$337, DW_AT_accessibility(DW_ACCESS_public)
    2564              $C$DW$338       .dwtag  DW_TAG_member
    2565                      .dwattr $C$DW$338, DW_AT_type(*$C$DW$T$8)
    2566                      .dwattr $C$DW$338, DW_AT_name("th_min_beg_frm")
    2567                      .dwattr $C$DW$338, DW_AT_TI_symbol_name("_th_min_beg_frm")
    2568                      .dwattr $C$DW$338, DW_AT_data_member_location[DW_OP_plus_uconst 0x22d]
    2569                      .dwattr $C$DW$338, DW_AT_accessibility(DW_ACCESS_public)
    2570              $C$DW$339       .dwtag  DW_TAG_member
    2571                      .dwattr $C$DW$339, DW_AT_type(*$C$DW$T$8)
    2572                      .dwattr $C$DW$339, DW_AT_name("th_min_end_frm")
    2573                      .dwattr $C$DW$339, DW_AT_TI_symbol_name("_th_min_end_frm")
    2574                      .dwattr $C$DW$339, DW_AT_data_member_location[DW_OP_plus_uconst 0x22e]
    2575                      .dwattr $C$DW$339, DW_AT_accessibility(DW_ACCESS_public)
    2576              $C$DW$340       .dwtag  DW_TAG_member
    2577                      .dwattr $C$DW$340, DW_AT_type(*$C$DW$T$8)
    2578                      .dwattr $C$DW$340, DW_AT_name("uttdet_cnt")
    2579                      .dwattr $C$DW$340, DW_AT_TI_symbol_name("_uttdet_cnt")
    2580                      .dwattr $C$DW$340, DW_AT_data_member_location[DW_OP_plus_uconst 0x22f]
    2581                      .dwattr $C$DW$340, DW_AT_accessibility(DW_ACCESS_public)
    2582              $C$DW$341       .dwtag  DW_TAG_member
    2583                      .dwattr $C$DW$341, DW_AT_type(*$C$DW$T$8)
    2584                      .dwattr $C$DW$341, DW_AT_name("noise_smooth")
    2585                      .dwattr $C$DW$341, DW_AT_TI_symbol_name("_noise_smooth")
    2586                      .dwattr $C$DW$341, DW_AT_data_member_location[DW_OP_plus_uconst 0x230]
    2587                      .dwattr $C$DW$341, DW_AT_accessibility(DW_ACCESS_public)
    2588              $C$DW$342       .dwtag  DW_TAG_member
    2589                      .dwattr $C$DW$342, DW_AT_type(*$C$DW$T$59)
    2590                      .dwattr $C$DW$342, DW_AT_name("ps_noisy_smoothed")
    2591                      .dwattr $C$DW$342, DW_AT_TI_symbol_name("_ps_noisy_smoothed")
    2592                      .dwattr $C$DW$342, DW_AT_data_member_location[DW_OP_plus_uconst 0x231]
    2593                      .dwattr $C$DW$342, DW_AT_accessibility(DW_ACCESS_public)
    2594              $C$DW$343       .dwtag  DW_TAG_member
    2595                      .dwattr $C$DW$343, DW_AT_type(*$C$DW$T$59)
    2596                      .dwattr $C$DW$343, DW_AT_name("noise_floor")
    2597                      .dwattr $C$DW$343, DW_AT_TI_symbol_name("_noise_floor")
    2598                      .dwattr $C$DW$343, DW_AT_data_member_location[DW_OP_plus_uconst 0x2b1]
    2599                      .dwattr $C$DW$343, DW_AT_accessibility(DW_ACCESS_public)
    2600              $C$DW$344       .dwtag  DW_TAG_member
    2601                      .dwattr $C$DW$344, DW_AT_type(*$C$DW$T$8)
    2602                      .dwattr $C$DW$344, DW_AT_name("sm_autoc")
    2603                      .dwattr $C$DW$344, DW_AT_TI_symbol_name("_sm_autoc")
    2604                      .dwattr $C$DW$344, DW_AT_data_member_location[DW_OP_plus_uconst 0x331]
    2605                      .dwattr $C$DW$344, DW_AT_accessibility(DW_ACCESS_public)
    2606              $C$DW$345       .dwtag  DW_TAG_member
    2607                      .dwattr $C$DW$345, DW_AT_type(*$C$DW$T$8)
    2608                      .dwattr $C$DW$345, DW_AT_name("speech_level")
    2609                      .dwattr $C$DW$345, DW_AT_TI_symbol_name("_speech_level")
TMS320C55x Assembler PC v4.4.1 Wed Sep 13 16:34:06 2017

Tools Copyright (c) 1996-2012 Texas Instruments Incorporated
C:\Users\a0221074\AppData\Local\Temp\0994410                         PAGE   54

    2610                      .dwattr $C$DW$345, DW_AT_data_member_location[DW_OP_plus_uconst 0x332]
    2611                      .dwattr $C$DW$345, DW_AT_accessibility(DW_ACCESS_public)
    2612              $C$DW$346       .dwtag  DW_TAG_member
    2613                      .dwattr $C$DW$346, DW_AT_type(*$C$DW$T$8)
    2614                      .dwattr $C$DW$346, DW_AT_name("noise_level")
    2615                      .dwattr $C$DW$346, DW_AT_TI_symbol_name("_noise_level")
    2616                      .dwattr $C$DW$346, DW_AT_data_member_location[DW_OP_plus_uconst 0x333]
    2617                      .dwattr $C$DW$346, DW_AT_accessibility(DW_ACCESS_public)
    2618              $C$DW$347       .dwtag  DW_TAG_member
    2619                      .dwattr $C$DW$347, DW_AT_type(*$C$DW$T$8)
    2620                      .dwattr $C$DW$347, DW_AT_name("uttdet_isspeech")
    2621                      .dwattr $C$DW$347, DW_AT_TI_symbol_name("_uttdet_isspeech")
    2622                      .dwattr $C$DW$347, DW_AT_data_member_location[DW_OP_plus_uconst 0x334]
    2623                      .dwattr $C$DW$347, DW_AT_accessibility(DW_ACCESS_public)
    2624              $C$DW$348       .dwtag  DW_TAG_member
    2625                      .dwattr $C$DW$348, DW_AT_type(*$C$DW$T$12)
    2626                      .dwattr $C$DW$348, DW_AT_name("delta_sum_accum")
    2627                      .dwattr $C$DW$348, DW_AT_TI_symbol_name("_delta_sum_accum")
    2628                      .dwattr $C$DW$348, DW_AT_data_member_location[DW_OP_plus_uconst 0x336]
    2629                      .dwattr $C$DW$348, DW_AT_accessibility(DW_ACCESS_public)
    2630              $C$DW$349       .dwtag  DW_TAG_member
    2631                      .dwattr $C$DW$349, DW_AT_type(*$C$DW$T$8)
    2632                      .dwattr $C$DW$349, DW_AT_name("uttdet_state")
    2633                      .dwattr $C$DW$349, DW_AT_TI_symbol_name("_uttdet_state")
    2634                      .dwattr $C$DW$349, DW_AT_data_member_location[DW_OP_plus_uconst 0x338]
    2635                      .dwattr $C$DW$349, DW_AT_accessibility(DW_ACCESS_public)
    2636              $C$DW$350       .dwtag  DW_TAG_member
    2637                      .dwattr $C$DW$350, DW_AT_type(*$C$DW$T$8)
    2638                      .dwattr $C$DW$350, DW_AT_name("uttdet_beg_frm")
    2639                      .dwattr $C$DW$350, DW_AT_TI_symbol_name("_uttdet_beg_frm")
    2640                      .dwattr $C$DW$350, DW_AT_data_member_location[DW_OP_plus_uconst 0x339]
    2641                      .dwattr $C$DW$350, DW_AT_accessibility(DW_ACCESS_public)
    2642              $C$DW$351       .dwtag  DW_TAG_member
    2643                      .dwattr $C$DW$351, DW_AT_type(*$C$DW$T$8)
    2644                      .dwattr $C$DW$351, DW_AT_name("uttdet_end_frm")
    2645                      .dwattr $C$DW$351, DW_AT_TI_symbol_name("_uttdet_end_frm")
    2646                      .dwattr $C$DW$351, DW_AT_data_member_location[DW_OP_plus_uconst 0x33a]
    2647                      .dwattr $C$DW$351, DW_AT_accessibility(DW_ACCESS_public)
    2648              $C$DW$352       .dwtag  DW_TAG_member
    2649                      .dwattr $C$DW$352, DW_AT_type(*$C$DW$T$8)
    2650                      .dwattr $C$DW$352, DW_AT_name("sr_is_end_of_grammar")
    2651                      .dwattr $C$DW$352, DW_AT_TI_symbol_name("_sr_is_end_of_grammar")
    2652                      .dwattr $C$DW$352, DW_AT_data_member_location[DW_OP_plus_uconst 0x33b]
    2653                      .dwattr $C$DW$352, DW_AT_accessibility(DW_ACCESS_public)
    2654              $C$DW$353       .dwtag  DW_TAG_member
    2655                      .dwattr $C$DW$353, DW_AT_type(*$C$DW$T$8)
    2656                      .dwattr $C$DW$353, DW_AT_name("sr_MAX_END_SYM")
    2657                      .dwattr $C$DW$353, DW_AT_TI_symbol_name("_sr_MAX_END_SYM")
    2658                      .dwattr $C$DW$353, DW_AT_data_member_location[DW_OP_plus_uconst 0x33c]
    2659                      .dwattr $C$DW$353, DW_AT_accessibility(DW_ACCESS_public)
    2660              $C$DW$354       .dwtag  DW_TAG_member
    2661                      .dwattr $C$DW$354, DW_AT_type(*$C$DW$T$8)
    2662                      .dwattr $C$DW$354, DW_AT_name("sr_MIN_END_SYM")
    2663                      .dwattr $C$DW$354, DW_AT_TI_symbol_name("_sr_MIN_END_SYM")
    2664                      .dwattr $C$DW$354, DW_AT_data_member_location[DW_OP_plus_uconst 0x33d]
TMS320C55x Assembler PC v4.4.1 Wed Sep 13 16:34:06 2017

Tools Copyright (c) 1996-2012 Texas Instruments Incorporated
C:\Users\a0221074\AppData\Local\Temp\0994410                         PAGE   55

    2665                      .dwattr $C$DW$354, DW_AT_accessibility(DW_ACCESS_public)
    2666              $C$DW$355       .dwtag  DW_TAG_member
    2667                      .dwattr $C$DW$355, DW_AT_type(*$C$DW$T$8)
    2668                      .dwattr $C$DW$355, DW_AT_name("gbg_end_of_speech")
    2669                      .dwattr $C$DW$355, DW_AT_TI_symbol_name("_gbg_end_of_speech")
    2670                      .dwattr $C$DW$355, DW_AT_data_member_location[DW_OP_plus_uconst 0x33e]
    2671                      .dwattr $C$DW$355, DW_AT_accessibility(DW_ACCESS_public)
    2672              $C$DW$356       .dwtag  DW_TAG_member
    2673                      .dwattr $C$DW$356, DW_AT_type(*$C$DW$T$8)
    2674                      .dwattr $C$DW$356, DW_AT_name("jac_vec_per_frame")
    2675                      .dwattr $C$DW$356, DW_AT_TI_symbol_name("_jac_vec_per_frame")
    2676                      .dwattr $C$DW$356, DW_AT_data_member_location[DW_OP_plus_uconst 0x33f]
    2677                      .dwattr $C$DW$356, DW_AT_accessibility(DW_ACCESS_public)
    2678              $C$DW$357       .dwtag  DW_TAG_member
    2679                      .dwattr $C$DW$357, DW_AT_type(*$C$DW$T$8)
    2680                      .dwattr $C$DW$357, DW_AT_name("jac_component_likelihood")
    2681                      .dwattr $C$DW$357, DW_AT_TI_symbol_name("_jac_component_likelihood")
    2682                      .dwattr $C$DW$357, DW_AT_data_member_location[DW_OP_plus_uconst 0x340]
    2683                      .dwattr $C$DW$357, DW_AT_accessibility(DW_ACCESS_public)
    2684              $C$DW$358       .dwtag  DW_TAG_member
    2685                      .dwattr $C$DW$358, DW_AT_type(*$C$DW$T$8)
    2686                      .dwattr $C$DW$358, DW_AT_name("jac_max_segment_size")
    2687                      .dwattr $C$DW$358, DW_AT_TI_symbol_name("_jac_max_segment_size")
    2688                      .dwattr $C$DW$358, DW_AT_data_member_location[DW_OP_plus_uconst 0x341]
    2689                      .dwattr $C$DW$358, DW_AT_accessibility(DW_ACCESS_public)
    2690              $C$DW$359       .dwtag  DW_TAG_member
    2691                      .dwattr $C$DW$359, DW_AT_type(*$C$DW$T$8)
    2692                      .dwattr $C$DW$359, DW_AT_name("jac_smooth_coef")
    2693                      .dwattr $C$DW$359, DW_AT_TI_symbol_name("_jac_smooth_coef")
    2694                      .dwattr $C$DW$359, DW_AT_data_member_location[DW_OP_plus_uconst 0x342]
    2695                      .dwattr $C$DW$359, DW_AT_accessibility(DW_ACCESS_public)
    2696              $C$DW$360       .dwtag  DW_TAG_member
    2697                      .dwattr $C$DW$360, DW_AT_type(*$C$DW$T$8)
    2698                      .dwattr $C$DW$360, DW_AT_name("jac_discount_factor")
    2699                      .dwattr $C$DW$360, DW_AT_TI_symbol_name("_jac_discount_factor")
    2700                      .dwattr $C$DW$360, DW_AT_data_member_location[DW_OP_plus_uconst 0x343]
    2701                      .dwattr $C$DW$360, DW_AT_accessibility(DW_ACCESS_public)
    2702              $C$DW$361       .dwtag  DW_TAG_member
    2703                      .dwattr $C$DW$361, DW_AT_type(*$C$DW$T$8)
    2704                      .dwattr $C$DW$361, DW_AT_name("jac_deweight_factor")
    2705                      .dwattr $C$DW$361, DW_AT_TI_symbol_name("_jac_deweight_factor")
    2706                      .dwattr $C$DW$361, DW_AT_data_member_location[DW_OP_plus_uconst 0x344]
    2707                      .dwattr $C$DW$361, DW_AT_accessibility(DW_ACCESS_public)
    2708              $C$DW$362       .dwtag  DW_TAG_member
    2709                      .dwattr $C$DW$362, DW_AT_type(*$C$DW$T$8)
    2710                      .dwattr $C$DW$362, DW_AT_name("jac_bayesian_weight")
    2711                      .dwattr $C$DW$362, DW_AT_TI_symbol_name("_jac_bayesian_weight")
    2712                      .dwattr $C$DW$362, DW_AT_data_member_location[DW_OP_plus_uconst 0x345]
    2713                      .dwattr $C$DW$362, DW_AT_accessibility(DW_ACCESS_public)
    2714              $C$DW$363       .dwtag  DW_TAG_member
    2715                      .dwattr $C$DW$363, DW_AT_type(*$C$DW$T$8)
    2716                      .dwattr $C$DW$363, DW_AT_name("sva_var_forget_factor")
    2717                      .dwattr $C$DW$363, DW_AT_TI_symbol_name("_sva_var_forget_factor")
    2718                      .dwattr $C$DW$363, DW_AT_data_member_location[DW_OP_plus_uconst 0x346]
    2719                      .dwattr $C$DW$363, DW_AT_accessibility(DW_ACCESS_public)
TMS320C55x Assembler PC v4.4.1 Wed Sep 13 16:34:06 2017

Tools Copyright (c) 1996-2012 Texas Instruments Incorporated
C:\Users\a0221074\AppData\Local\Temp\0994410                         PAGE   56

    2720              $C$DW$364       .dwtag  DW_TAG_member
    2721                      .dwattr $C$DW$364, DW_AT_type(*$C$DW$T$8)
    2722                      .dwattr $C$DW$364, DW_AT_name("sbc_fgt")
    2723                      .dwattr $C$DW$364, DW_AT_TI_symbol_name("_sbc_fgt")
    2724                      .dwattr $C$DW$364, DW_AT_data_member_location[DW_OP_plus_uconst 0x347]
    2725                      .dwattr $C$DW$364, DW_AT_accessibility(DW_ACCESS_public)
    2726              $C$DW$365       .dwtag  DW_TAG_member
    2727                      .dwattr $C$DW$365, DW_AT_type(*$C$DW$T$60)
    2728                      .dwattr $C$DW$365, DW_AT_name("log_H")
    2729                      .dwattr $C$DW$365, DW_AT_TI_symbol_name("_log_H")
    2730                      .dwattr $C$DW$365, DW_AT_data_member_location[DW_OP_plus_uconst 0x348]
    2731                      .dwattr $C$DW$365, DW_AT_accessibility(DW_ACCESS_public)
    2732              $C$DW$366       .dwtag  DW_TAG_member
    2733                      .dwattr $C$DW$366, DW_AT_type(*$C$DW$T$60)
    2734                      .dwattr $C$DW$366, DW_AT_name("log_N")
    2735                      .dwattr $C$DW$366, DW_AT_TI_symbol_name("_log_N")
    2736                      .dwattr $C$DW$366, DW_AT_data_member_location[DW_OP_plus_uconst 0x362]
    2737                      .dwattr $C$DW$366, DW_AT_accessibility(DW_ACCESS_public)
    2738              $C$DW$367       .dwtag  DW_TAG_member
    2739                      .dwattr $C$DW$367, DW_AT_type(*$C$DW$T$61)
    2740                      .dwattr $C$DW$367, DW_AT_name("accum")
    2741                      .dwattr $C$DW$367, DW_AT_TI_symbol_name("_accum")
    2742                      .dwattr $C$DW$367, DW_AT_data_member_location[DW_OP_plus_uconst 0x37c]
    2743                      .dwattr $C$DW$367, DW_AT_accessibility(DW_ACCESS_public)
    2744              $C$DW$368       .dwtag  DW_TAG_member
    2745                      .dwattr $C$DW$368, DW_AT_type(*$C$DW$T$20)
    2746                      .dwattr $C$DW$368, DW_AT_name("smooth_coef")
    2747                      .dwattr $C$DW$368, DW_AT_TI_symbol_name("_smooth_coef")
    2748                      .dwattr $C$DW$368, DW_AT_data_member_location[DW_OP_plus_uconst 0x44c]
    2749                      .dwattr $C$DW$368, DW_AT_accessibility(DW_ACCESS_public)
    2750              $C$DW$369       .dwtag  DW_TAG_member
    2751                      .dwattr $C$DW$369, DW_AT_type(*$C$DW$T$63)
    2752                      .dwattr $C$DW$369, DW_AT_name("sbcState")
    2753                      .dwattr $C$DW$369, DW_AT_TI_symbol_name("_sbcState")
    2754                      .dwattr $C$DW$369, DW_AT_data_member_location[DW_OP_plus_uconst 0x44e]
    2755                      .dwattr $C$DW$369, DW_AT_accessibility(DW_ACCESS_public)
    2756              $C$DW$370       .dwtag  DW_TAG_member
    2757                      .dwattr $C$DW$370, DW_AT_type(*$C$DW$T$51)
    2758                      .dwattr $C$DW$370, DW_AT_name("mfcc_noise")
    2759                      .dwattr $C$DW$370, DW_AT_TI_symbol_name("_mfcc_noise")
    2760                      .dwattr $C$DW$370, DW_AT_data_member_location[DW_OP_plus_uconst 0x450]
    2761                      .dwattr $C$DW$370, DW_AT_accessibility(DW_ACCESS_public)
    2762              $C$DW$371       .dwtag  DW_TAG_member
    2763                      .dwattr $C$DW$371, DW_AT_type(*$C$DW$T$64)
    2764                      .dwattr $C$DW$371, DW_AT_name("mfcc_noise_init_acc")
    2765                      .dwattr $C$DW$371, DW_AT_TI_symbol_name("_mfcc_noise_init_acc")
    2766                      .dwattr $C$DW$371, DW_AT_data_member_location[DW_OP_plus_uconst 0x460]
    2767                      .dwattr $C$DW$371, DW_AT_accessibility(DW_ACCESS_public)
    2768              $C$DW$372       .dwtag  DW_TAG_member
    2769                      .dwattr $C$DW$372, DW_AT_type(*$C$DW$T$22)
    2770                      .dwattr $C$DW$372, DW_AT_name("hmm_code")
    2771                      .dwattr $C$DW$372, DW_AT_TI_symbol_name("_hmm_code")
    2772                      .dwattr $C$DW$372, DW_AT_data_member_location[DW_OP_plus_uconst 0x480]
    2773                      .dwattr $C$DW$372, DW_AT_accessibility(DW_ACCESS_public)
    2774              $C$DW$373       .dwtag  DW_TAG_member
TMS320C55x Assembler PC v4.4.1 Wed Sep 13 16:34:06 2017

Tools Copyright (c) 1996-2012 Texas Instruments Incorporated
C:\Users\a0221074\AppData\Local\Temp\0994410                         PAGE   57

    2775                      .dwattr $C$DW$373, DW_AT_type(*$C$DW$T$22)
    2776                      .dwattr $C$DW$373, DW_AT_name("stt")
    2777                      .dwattr $C$DW$373, DW_AT_TI_symbol_name("_stt")
    2778                      .dwattr $C$DW$373, DW_AT_data_member_location[DW_OP_plus_uconst 0x482]
    2779                      .dwattr $C$DW$373, DW_AT_accessibility(DW_ACCESS_public)
    2780              $C$DW$374       .dwtag  DW_TAG_member
    2781                      .dwattr $C$DW$374, DW_AT_type(*$C$DW$T$22)
    2782                      .dwattr $C$DW$374, DW_AT_name("stp")
    2783                      .dwattr $C$DW$374, DW_AT_TI_symbol_name("_stp")
    2784                      .dwattr $C$DW$374, DW_AT_data_member_location[DW_OP_plus_uconst 0x484]
    2785                      .dwattr $C$DW$374, DW_AT_accessibility(DW_ACCESS_public)
    2786              $C$DW$375       .dwtag  DW_TAG_member
    2787                      .dwattr $C$DW$375, DW_AT_type(*$C$DW$T$20)
    2788                      .dwattr $C$DW$375, DW_AT_name("nbr_seg")
    2789                      .dwattr $C$DW$375, DW_AT_TI_symbol_name("_nbr_seg")
    2790                      .dwattr $C$DW$375, DW_AT_data_member_location[DW_OP_plus_uconst 0x486]
    2791                      .dwattr $C$DW$375, DW_AT_accessibility(DW_ACCESS_public)
    2792              $C$DW$376       .dwtag  DW_TAG_member
    2793                      .dwattr $C$DW$376, DW_AT_type(*$C$DW$T$20)
    2794                      .dwattr $C$DW$376, DW_AT_name("hmm_dlt")
    2795                      .dwattr $C$DW$376, DW_AT_TI_symbol_name("_hmm_dlt")
    2796                      .dwattr $C$DW$376, DW_AT_data_member_location[DW_OP_plus_uconst 0x487]
    2797                      .dwattr $C$DW$376, DW_AT_accessibility(DW_ACCESS_public)
    2798              $C$DW$377       .dwtag  DW_TAG_member
    2799                      .dwattr $C$DW$377, DW_AT_type(*$C$DW$T$20)
    2800                      .dwattr $C$DW$377, DW_AT_name("max_frame_nbr")
    2801                      .dwattr $C$DW$377, DW_AT_TI_symbol_name("_max_frame_nbr")
    2802                      .dwattr $C$DW$377, DW_AT_data_member_location[DW_OP_plus_uconst 0x488]
    2803                      .dwattr $C$DW$377, DW_AT_accessibility(DW_ACCESS_public)
    2804              $C$DW$378       .dwtag  DW_TAG_member
    2805                      .dwattr $C$DW$378, DW_AT_type(*$C$DW$T$66)
    2806                      .dwattr $C$DW$378, DW_AT_name("symcell_base")
    2807                      .dwattr $C$DW$378, DW_AT_TI_symbol_name("_symcell_base")
    2808                      .dwattr $C$DW$378, DW_AT_data_member_location[DW_OP_plus_uconst 0x48a]
    2809                      .dwattr $C$DW$378, DW_AT_accessibility(DW_ACCESS_public)
    2810              $C$DW$379       .dwtag  DW_TAG_member
    2811                      .dwattr $C$DW$379, DW_AT_type(*$C$DW$T$68)
    2812                      .dwattr $C$DW$379, DW_AT_name("statecell_base")
    2813                      .dwattr $C$DW$379, DW_AT_TI_symbol_name("_statecell_base")
    2814                      .dwattr $C$DW$379, DW_AT_data_member_location[DW_OP_plus_uconst 0x48c]
    2815                      .dwattr $C$DW$379, DW_AT_accessibility(DW_ACCESS_public)
    2816              $C$DW$380       .dwtag  DW_TAG_member
    2817                      .dwattr $C$DW$380, DW_AT_type(*$C$DW$T$70)
    2818                      .dwattr $C$DW$380, DW_AT_name("beam_base")
    2819                      .dwattr $C$DW$380, DW_AT_TI_symbol_name("_beam_base")
    2820                      .dwattr $C$DW$380, DW_AT_data_member_location[DW_OP_plus_uconst 0x48e]
    2821                      .dwattr $C$DW$380, DW_AT_accessibility(DW_ACCESS_public)
    2822              $C$DW$381       .dwtag  DW_TAG_member
    2823                      .dwattr $C$DW$381, DW_AT_type(*$C$DW$T$72)
    2824                      .dwattr $C$DW$381, DW_AT_name("time_base")
    2825                      .dwattr $C$DW$381, DW_AT_TI_symbol_name("_time_base")
    2826                      .dwattr $C$DW$381, DW_AT_data_member_location[DW_OP_plus_uconst 0x490]
    2827                      .dwattr $C$DW$381, DW_AT_accessibility(DW_ACCESS_public)
    2828              $C$DW$382       .dwtag  DW_TAG_member
    2829                      .dwattr $C$DW$382, DW_AT_type(*$C$DW$T$8)
TMS320C55x Assembler PC v4.4.1 Wed Sep 13 16:34:06 2017

Tools Copyright (c) 1996-2012 Texas Instruments Incorporated
C:\Users\a0221074\AppData\Local\Temp\0994410                         PAGE   58

    2830                      .dwattr $C$DW$382, DW_AT_name("bUseNBest")
    2831                      .dwattr $C$DW$382, DW_AT_TI_symbol_name("_bUseNBest")
    2832                      .dwattr $C$DW$382, DW_AT_data_member_location[DW_OP_plus_uconst 0x492]
    2833                      .dwattr $C$DW$382, DW_AT_accessibility(DW_ACCESS_public)
    2834              $C$DW$383       .dwtag  DW_TAG_member
    2835                      .dwattr $C$DW$383, DW_AT_type(*$C$DW$T$11)
    2836                      .dwattr $C$DW$383, DW_AT_name("total_words")
    2837                      .dwattr $C$DW$383, DW_AT_TI_symbol_name("_total_words")
    2838                      .dwattr $C$DW$383, DW_AT_data_member_location[DW_OP_plus_uconst 0x493]
    2839                      .dwattr $C$DW$383, DW_AT_accessibility(DW_ACCESS_public)
    2840              $C$DW$384       .dwtag  DW_TAG_member
    2841                      .dwattr $C$DW$384, DW_AT_type(*$C$DW$T$8)
    2842                      .dwattr $C$DW$384, DW_AT_name("prune")
    2843                      .dwattr $C$DW$384, DW_AT_TI_symbol_name("_prune")
    2844                      .dwattr $C$DW$384, DW_AT_data_member_location[DW_OP_plus_uconst 0x494]
    2845                      .dwattr $C$DW$384, DW_AT_accessibility(DW_ACCESS_public)
    2846              $C$DW$385       .dwtag  DW_TAG_member
    2847                      .dwattr $C$DW$385, DW_AT_type(*$C$DW$T$8)
    2848                      .dwattr $C$DW$385, DW_AT_name("tranwgt")
    2849                      .dwattr $C$DW$385, DW_AT_TI_symbol_name("_tranwgt")
    2850                      .dwattr $C$DW$385, DW_AT_data_member_location[DW_OP_plus_uconst 0x495]
    2851                      .dwattr $C$DW$385, DW_AT_accessibility(DW_ACCESS_public)
    2852              $C$DW$386       .dwtag  DW_TAG_member
    2853                      .dwattr $C$DW$386, DW_AT_type(*$C$DW$T$74)
    2854                      .dwattr $C$DW$386, DW_AT_name("chpr_Model_Dir")
    2855                      .dwattr $C$DW$386, DW_AT_TI_symbol_name("_chpr_Model_Dir")
    2856                      .dwattr $C$DW$386, DW_AT_data_member_location[DW_OP_plus_uconst 0x496]
    2857                      .dwattr $C$DW$386, DW_AT_accessibility(DW_ACCESS_public)
    2858              $C$DW$387       .dwtag  DW_TAG_member
    2859                      .dwattr $C$DW$387, DW_AT_type(*$C$DW$T$76)
    2860                      .dwattr $C$DW$387, DW_AT_name("trans")
    2861                      .dwattr $C$DW$387, DW_AT_TI_symbol_name("_trans")
    2862                      .dwattr $C$DW$387, DW_AT_data_member_location[DW_OP_plus_uconst 0x498]
    2863                      .dwattr $C$DW$387, DW_AT_accessibility(DW_ACCESS_public)
    2864              $C$DW$388       .dwtag  DW_TAG_member
    2865                      .dwattr $C$DW$388, DW_AT_type(*$C$DW$T$21)
    2866                      .dwattr $C$DW$388, DW_AT_name("base_net")
    2867                      .dwattr $C$DW$388, DW_AT_TI_symbol_name("_base_net")
    2868                      .dwattr $C$DW$388, DW_AT_data_member_location[DW_OP_plus_uconst 0x49a]
    2869                      .dwattr $C$DW$388, DW_AT_accessibility(DW_ACCESS_public)
    2870              $C$DW$389       .dwtag  DW_TAG_member
    2871                      .dwattr $C$DW$389, DW_AT_type(*$C$DW$T$35)
    2872                      .dwattr $C$DW$389, DW_AT_name("base_hmms")
    2873                      .dwattr $C$DW$389, DW_AT_TI_symbol_name("_base_hmms")
    2874                      .dwattr $C$DW$389, DW_AT_data_member_location[DW_OP_plus_uconst 0x49c]
    2875                      .dwattr $C$DW$389, DW_AT_accessibility(DW_ACCESS_public)
    2876              $C$DW$390       .dwtag  DW_TAG_member
    2877                      .dwattr $C$DW$390, DW_AT_type(*$C$DW$T$21)
    2878                      .dwattr $C$DW$390, DW_AT_name("base_mu")
    2879                      .dwattr $C$DW$390, DW_AT_TI_symbol_name("_base_mu")
    2880                      .dwattr $C$DW$390, DW_AT_data_member_location[DW_OP_plus_uconst 0x49e]
    2881                      .dwattr $C$DW$390, DW_AT_accessibility(DW_ACCESS_public)
    2882              $C$DW$391       .dwtag  DW_TAG_member
    2883                      .dwattr $C$DW$391, DW_AT_type(*$C$DW$T$21)
    2884                      .dwattr $C$DW$391, DW_AT_name("base_mu_orig")
TMS320C55x Assembler PC v4.4.1 Wed Sep 13 16:34:06 2017

Tools Copyright (c) 1996-2012 Texas Instruments Incorporated
C:\Users\a0221074\AppData\Local\Temp\0994410                         PAGE   59

    2885                      .dwattr $C$DW$391, DW_AT_TI_symbol_name("_base_mu_orig")
    2886                      .dwattr $C$DW$391, DW_AT_data_member_location[DW_OP_plus_uconst 0x4a0]
    2887                      .dwattr $C$DW$391, DW_AT_accessibility(DW_ACCESS_public)
    2888              $C$DW$392       .dwtag  DW_TAG_member
    2889                      .dwattr $C$DW$392, DW_AT_type(*$C$DW$T$21)
    2890                      .dwattr $C$DW$392, DW_AT_name("base_var")
    2891                      .dwattr $C$DW$392, DW_AT_TI_symbol_name("_base_var")
    2892                      .dwattr $C$DW$392, DW_AT_data_member_location[DW_OP_plus_uconst 0x4a2]
    2893                      .dwattr $C$DW$392, DW_AT_accessibility(DW_ACCESS_public)
    2894              $C$DW$393       .dwtag  DW_TAG_member
    2895                      .dwattr $C$DW$393, DW_AT_type(*$C$DW$T$21)
    2896                      .dwattr $C$DW$393, DW_AT_name("base_var_orig")
    2897                      .dwattr $C$DW$393, DW_AT_TI_symbol_name("_base_var_orig")
    2898                      .dwattr $C$DW$393, DW_AT_data_member_location[DW_OP_plus_uconst 0x4a4]
    2899                      .dwattr $C$DW$393, DW_AT_accessibility(DW_ACCESS_public)
    2900              $C$DW$394       .dwtag  DW_TAG_member
    2901                      .dwattr $C$DW$394, DW_AT_type(*$C$DW$T$21)
    2902                      .dwattr $C$DW$394, DW_AT_name("base_tran")
    2903                      .dwattr $C$DW$394, DW_AT_TI_symbol_name("_base_tran")
    2904                      .dwattr $C$DW$394, DW_AT_data_member_location[DW_OP_plus_uconst 0x4a6]
    2905                      .dwattr $C$DW$394, DW_AT_accessibility(DW_ACCESS_public)
    2906              $C$DW$395       .dwtag  DW_TAG_member
    2907                      .dwattr $C$DW$395, DW_AT_type(*$C$DW$T$35)
    2908                      .dwattr $C$DW$395, DW_AT_name("base_pdf")
    2909                      .dwattr $C$DW$395, DW_AT_TI_symbol_name("_base_pdf")
    2910                      .dwattr $C$DW$395, DW_AT_data_member_location[DW_OP_plus_uconst 0x4a8]
    2911                      .dwattr $C$DW$395, DW_AT_accessibility(DW_ACCESS_public)
    2912              $C$DW$396       .dwtag  DW_TAG_member
    2913                      .dwattr $C$DW$396, DW_AT_type(*$C$DW$T$21)
    2914                      .dwattr $C$DW$396, DW_AT_name("base_mixture")
    2915                      .dwattr $C$DW$396, DW_AT_TI_symbol_name("_base_mixture")
    2916                      .dwattr $C$DW$396, DW_AT_data_member_location[DW_OP_plus_uconst 0x4aa]
    2917                      .dwattr $C$DW$396, DW_AT_accessibility(DW_ACCESS_public)
    2918              $C$DW$397       .dwtag  DW_TAG_member
    2919                      .dwattr $C$DW$397, DW_AT_type(*$C$DW$T$21)
    2920                      .dwattr $C$DW$397, DW_AT_name("base_gconst")
    2921                      .dwattr $C$DW$397, DW_AT_TI_symbol_name("_base_gconst")
    2922                      .dwattr $C$DW$397, DW_AT_data_member_location[DW_OP_plus_uconst 0x4ac]
    2923                      .dwattr $C$DW$397, DW_AT_accessibility(DW_ACCESS_public)
    2924              $C$DW$398       .dwtag  DW_TAG_member
    2925                      .dwattr $C$DW$398, DW_AT_type(*$C$DW$T$21)
    2926                      .dwattr $C$DW$398, DW_AT_name("obs_scr")
    2927                      .dwattr $C$DW$398, DW_AT_TI_symbol_name("_obs_scr")
    2928                      .dwattr $C$DW$398, DW_AT_data_member_location[DW_OP_plus_uconst 0x4ae]
    2929                      .dwattr $C$DW$398, DW_AT_accessibility(DW_ACCESS_public)
    2930              $C$DW$399       .dwtag  DW_TAG_member
    2931                      .dwattr $C$DW$399, DW_AT_type(*$C$DW$T$21)
    2932                      .dwattr $C$DW$399, DW_AT_name("gauss_scr")
    2933                      .dwattr $C$DW$399, DW_AT_TI_symbol_name("_gauss_scr")
    2934                      .dwattr $C$DW$399, DW_AT_data_member_location[DW_OP_plus_uconst 0x4b0]
    2935                      .dwattr $C$DW$399, DW_AT_accessibility(DW_ACCESS_public)
    2936              $C$DW$400       .dwtag  DW_TAG_member
    2937                      .dwattr $C$DW$400, DW_AT_type(*$C$DW$T$21)
    2938                      .dwattr $C$DW$400, DW_AT_name("scale_mu")
    2939                      .dwattr $C$DW$400, DW_AT_TI_symbol_name("_scale_mu")
TMS320C55x Assembler PC v4.4.1 Wed Sep 13 16:34:06 2017

Tools Copyright (c) 1996-2012 Texas Instruments Incorporated
C:\Users\a0221074\AppData\Local\Temp\0994410                         PAGE   60

    2940                      .dwattr $C$DW$400, DW_AT_data_member_location[DW_OP_plus_uconst 0x4b2]
    2941                      .dwattr $C$DW$400, DW_AT_accessibility(DW_ACCESS_public)
    2942              $C$DW$401       .dwtag  DW_TAG_member
    2943                      .dwattr $C$DW$401, DW_AT_type(*$C$DW$T$21)
    2944                      .dwattr $C$DW$401, DW_AT_name("scale_var")
    2945                      .dwattr $C$DW$401, DW_AT_TI_symbol_name("_scale_var")
    2946                      .dwattr $C$DW$401, DW_AT_data_member_location[DW_OP_plus_uconst 0x4b4]
    2947                      .dwattr $C$DW$401, DW_AT_accessibility(DW_ACCESS_public)
    2948              $C$DW$402       .dwtag  DW_TAG_member
    2949                      .dwattr $C$DW$402, DW_AT_type(*$C$DW$T$9)
    2950                      .dwattr $C$DW$402, DW_AT_name("n_pdf")
    2951                      .dwattr $C$DW$402, DW_AT_TI_symbol_name("_n_pdf")
    2952                      .dwattr $C$DW$402, DW_AT_data_member_location[DW_OP_plus_uconst 0x4b6]
    2953                      .dwattr $C$DW$402, DW_AT_accessibility(DW_ACCESS_public)
    2954              $C$DW$403       .dwtag  DW_TAG_member
    2955                      .dwattr $C$DW$403, DW_AT_type(*$C$DW$T$9)
    2956                      .dwattr $C$DW$403, DW_AT_name("n_mu")
    2957                      .dwattr $C$DW$403, DW_AT_TI_symbol_name("_n_mu")
    2958                      .dwattr $C$DW$403, DW_AT_data_member_location[DW_OP_plus_uconst 0x4b7]
    2959                      .dwattr $C$DW$403, DW_AT_accessibility(DW_ACCESS_public)
    2960              $C$DW$404       .dwtag  DW_TAG_member
    2961                      .dwattr $C$DW$404, DW_AT_type(*$C$DW$T$9)
    2962                      .dwattr $C$DW$404, DW_AT_name("n_var")
    2963                      .dwattr $C$DW$404, DW_AT_TI_symbol_name("_n_var")
    2964                      .dwattr $C$DW$404, DW_AT_data_member_location[DW_OP_plus_uconst 0x4b8]
    2965                      .dwattr $C$DW$404, DW_AT_accessibility(DW_ACCESS_public)
    2966              $C$DW$405       .dwtag  DW_TAG_member
    2967                      .dwattr $C$DW$405, DW_AT_type(*$C$DW$T$77)
    2968                      .dwattr $C$DW$405, DW_AT_name("vocabulary")
    2969                      .dwattr $C$DW$405, DW_AT_TI_symbol_name("_vocabulary")
    2970                      .dwattr $C$DW$405, DW_AT_data_member_location[DW_OP_plus_uconst 0x4ba]
    2971                      .dwattr $C$DW$405, DW_AT_accessibility(DW_ACCESS_public)
    2972              $C$DW$406       .dwtag  DW_TAG_member
    2973                      .dwattr $C$DW$406, DW_AT_type(*$C$DW$T$21)
    2974                      .dwattr $C$DW$406, DW_AT_name("scale_feat")
    2975                      .dwattr $C$DW$406, DW_AT_TI_symbol_name("_scale_feat")
    2976                      .dwattr $C$DW$406, DW_AT_data_member_location[DW_OP_plus_uconst 0x4bc]
    2977                      .dwattr $C$DW$406, DW_AT_accessibility(DW_ACCESS_public)
    2978              $C$DW$407       .dwtag  DW_TAG_member
    2979                      .dwattr $C$DW$407, DW_AT_type(*$C$DW$T$78)
    2980                      .dwattr $C$DW$407, DW_AT_name("muScaleP2")
    2981                      .dwattr $C$DW$407, DW_AT_TI_symbol_name("_muScaleP2")
    2982                      .dwattr $C$DW$407, DW_AT_data_member_location[DW_OP_plus_uconst 0x4be]
    2983                      .dwattr $C$DW$407, DW_AT_accessibility(DW_ACCESS_public)
    2984              $C$DW$408       .dwtag  DW_TAG_member
    2985                      .dwattr $C$DW$408, DW_AT_type(*$C$DW$T$79)
    2986                      .dwattr $C$DW$408, DW_AT_name("evalstat")
    2987                      .dwattr $C$DW$408, DW_AT_TI_symbol_name("_evalstat")
    2988                      .dwattr $C$DW$408, DW_AT_data_member_location[DW_OP_plus_uconst 0x4de]
    2989                      .dwattr $C$DW$408, DW_AT_accessibility(DW_ACCESS_public)
    2990              $C$DW$409       .dwtag  DW_TAG_member
    2991                      .dwattr $C$DW$409, DW_AT_type(*$C$DW$T$81)
    2992                      .dwattr $C$DW$409, DW_AT_name("eval")
    2993                      .dwattr $C$DW$409, DW_AT_TI_symbol_name("_eval")
    2994                      .dwattr $C$DW$409, DW_AT_data_member_location[DW_OP_plus_uconst 0x4e8]
TMS320C55x Assembler PC v4.4.1 Wed Sep 13 16:34:06 2017

Tools Copyright (c) 1996-2012 Texas Instruments Incorporated
C:\Users\a0221074\AppData\Local\Temp\0994410                         PAGE   61

    2995                      .dwattr $C$DW$409, DW_AT_accessibility(DW_ACCESS_public)
    2996              $C$DW$410       .dwtag  DW_TAG_member
    2997                      .dwattr $C$DW$410, DW_AT_type(*$C$DW$T$82)
    2998                      .dwattr $C$DW$410, DW_AT_name("sym2pos_map")
    2999                      .dwattr $C$DW$410, DW_AT_TI_symbol_name("_sym2pos_map")
    3000                      .dwattr $C$DW$410, DW_AT_data_member_location[DW_OP_plus_uconst 0x4ee]
    3001                      .dwattr $C$DW$410, DW_AT_accessibility(DW_ACCESS_public)
    3002              $C$DW$411       .dwtag  DW_TAG_member
    3003                      .dwattr $C$DW$411, DW_AT_type(*$C$DW$T$8)
    3004                      .dwattr $C$DW$411, DW_AT_name("best_cur_scr")
    3005                      .dwattr $C$DW$411, DW_AT_TI_symbol_name("_best_cur_scr")
    3006                      .dwattr $C$DW$411, DW_AT_data_member_location[DW_OP_plus_uconst 0x4f4]
    3007                      .dwattr $C$DW$411, DW_AT_accessibility(DW_ACCESS_public)
    3008              $C$DW$412       .dwtag  DW_TAG_member
    3009                      .dwattr $C$DW$412, DW_AT_type(*$C$DW$T$8)
    3010                      .dwattr $C$DW$412, DW_AT_name("best_prev_scr")
    3011                      .dwattr $C$DW$412, DW_AT_TI_symbol_name("_best_prev_scr")
    3012                      .dwattr $C$DW$412, DW_AT_data_member_location[DW_OP_plus_uconst 0x4f5]
    3013                      .dwattr $C$DW$412, DW_AT_accessibility(DW_ACCESS_public)
    3014              $C$DW$413       .dwtag  DW_TAG_member
    3015                      .dwattr $C$DW$413, DW_AT_type(*$C$DW$T$12)
    3016                      .dwattr $C$DW$413, DW_AT_name("cum_best_prev_scr")
    3017                      .dwattr $C$DW$413, DW_AT_TI_symbol_name("_cum_best_prev_scr")
    3018                      .dwattr $C$DW$413, DW_AT_data_member_location[DW_OP_plus_uconst 0x4f6]
    3019                      .dwattr $C$DW$413, DW_AT_accessibility(DW_ACCESS_public)
    3020              $C$DW$414       .dwtag  DW_TAG_member
    3021                      .dwattr $C$DW$414, DW_AT_type(*$C$DW$T$9)
    3022                      .dwattr $C$DW$414, DW_AT_name("best_sym")
    3023                      .dwattr $C$DW$414, DW_AT_TI_symbol_name("_best_sym")
    3024                      .dwattr $C$DW$414, DW_AT_data_member_location[DW_OP_plus_uconst 0x4f8]
    3025                      .dwattr $C$DW$414, DW_AT_accessibility(DW_ACCESS_public)
    3026              $C$DW$415       .dwtag  DW_TAG_member
    3027                      .dwattr $C$DW$415, DW_AT_type(*$C$DW$T$9)
    3028                      .dwattr $C$DW$415, DW_AT_name("best_word")
    3029                      .dwattr $C$DW$415, DW_AT_TI_symbol_name("_best_word")
    3030                      .dwattr $C$DW$415, DW_AT_data_member_location[DW_OP_plus_uconst 0x4f9]
    3031                      .dwattr $C$DW$415, DW_AT_accessibility(DW_ACCESS_public)
    3032              $C$DW$416       .dwtag  DW_TAG_member
    3033                      .dwattr $C$DW$416, DW_AT_type(*$C$DW$T$9)
    3034                      .dwattr $C$DW$416, DW_AT_name("best_word_frm")
    3035                      .dwattr $C$DW$416, DW_AT_TI_symbol_name("_best_word_frm")
    3036                      .dwattr $C$DW$416, DW_AT_data_member_location[DW_OP_plus_uconst 0x4fa]
    3037                      .dwattr $C$DW$416, DW_AT_accessibility(DW_ACCESS_public)
    3038              $C$DW$417       .dwtag  DW_TAG_member
    3039                      .dwattr $C$DW$417, DW_AT_type(*$C$DW$T$9)
    3040                      .dwattr $C$DW$417, DW_AT_name("best_word_gender")
    3041                      .dwattr $C$DW$417, DW_AT_TI_symbol_name("_best_word_gender")
    3042                      .dwattr $C$DW$417, DW_AT_data_member_location[DW_OP_plus_uconst 0x4fb]
    3043                      .dwattr $C$DW$417, DW_AT_accessibility(DW_ACCESS_public)
    3044              $C$DW$418       .dwtag  DW_TAG_member
    3045                      .dwattr $C$DW$418, DW_AT_type(*$C$DW$T$83)
    3046                      .dwattr $C$DW$418, DW_AT_name("nbest")
    3047                      .dwattr $C$DW$418, DW_AT_TI_symbol_name("_nbest")
    3048                      .dwattr $C$DW$418, DW_AT_data_member_location[DW_OP_plus_uconst 0x4fc]
    3049                      .dwattr $C$DW$418, DW_AT_accessibility(DW_ACCESS_public)
TMS320C55x Assembler PC v4.4.1 Wed Sep 13 16:34:06 2017

Tools Copyright (c) 1996-2012 Texas Instruments Incorporated
C:\Users\a0221074\AppData\Local\Temp\0994410                         PAGE   62

    3050              $C$DW$419       .dwtag  DW_TAG_member
    3051                      .dwattr $C$DW$419, DW_AT_type(*$C$DW$T$8)
    3052                      .dwattr $C$DW$419, DW_AT_name("need_compact")
    3053                      .dwattr $C$DW$419, DW_AT_TI_symbol_name("_need_compact")
    3054                      .dwattr $C$DW$419, DW_AT_data_member_location[DW_OP_plus_uconst 0x7af]
    3055                      .dwattr $C$DW$419, DW_AT_accessibility(DW_ACCESS_public)
    3056              $C$DW$420       .dwtag  DW_TAG_member
    3057                      .dwattr $C$DW$420, DW_AT_type(*$C$DW$T$8)
    3058                      .dwattr $C$DW$420, DW_AT_name("word_backtrace")
    3059                      .dwattr $C$DW$420, DW_AT_TI_symbol_name("_word_backtrace")
    3060                      .dwattr $C$DW$420, DW_AT_data_member_location[DW_OP_plus_uconst 0x7b0]
    3061                      .dwattr $C$DW$420, DW_AT_accessibility(DW_ACCESS_public)
    3062              $C$DW$421       .dwtag  DW_TAG_member
    3063                      .dwattr $C$DW$421, DW_AT_type(*$C$DW$T$12)
    3064                      .dwattr $C$DW$421, DW_AT_name("best_sym_scr")
    3065                      .dwattr $C$DW$421, DW_AT_TI_symbol_name("_best_sym_scr")
    3066                      .dwattr $C$DW$421, DW_AT_data_member_location[DW_OP_plus_uconst 0x7b2]
    3067                      .dwattr $C$DW$421, DW_AT_accessibility(DW_ACCESS_public)
    3068              $C$DW$422       .dwtag  DW_TAG_member
    3069                      .dwattr $C$DW$422, DW_AT_type(*$C$DW$T$9)
    3070                      .dwattr $C$DW$422, DW_AT_name("next_time")
    3071                      .dwattr $C$DW$422, DW_AT_TI_symbol_name("_next_time")
    3072                      .dwattr $C$DW$422, DW_AT_data_member_location[DW_OP_plus_uconst 0x7b4]
    3073                      .dwattr $C$DW$422, DW_AT_accessibility(DW_ACCESS_public)
    3074              $C$DW$423       .dwtag  DW_TAG_member
    3075                      .dwattr $C$DW$423, DW_AT_type(*$C$DW$T$9)
    3076                      .dwattr $C$DW$423, DW_AT_name("last_beam_cell")
    3077                      .dwattr $C$DW$423, DW_AT_TI_symbol_name("_last_beam_cell")
    3078                      .dwattr $C$DW$423, DW_AT_data_member_location[DW_OP_plus_uconst 0x7b5]
    3079                      .dwattr $C$DW$423, DW_AT_accessibility(DW_ACCESS_public)
    3080              $C$DW$424       .dwtag  DW_TAG_member
    3081                      .dwattr $C$DW$424, DW_AT_type(*$C$DW$T$20)
