TMS320C55x Assembler PC v4.4.1 Wed Sep 13 16:34:08 2017

Tools Copyright (c) 1996-2012 Texas Instruments Incorporated
C:\Users\a0221074\AppData\Local\Temp\1594410                         PAGE    1

    2601              ; Temporary Registers Used: None
       1              ;*******************************************************************************
       2              ;* TMS320C55x C/C++ Codegen                                          PC v4.4.1 *
       3              ;* Date/Time created: Wed Sep 13 16:34:07 2017                                 *
       4              ;*******************************************************************************
       5                      .compiler_opts --hll_source=on --mem_model:code=flat --mem_model:data=huge --object_format=coff --sil
       6                      .mmregs
       7                      .cpl_on
       8                      .arms_on
       9                      .c54cm_off
      10                      .asg AR6, FP
      11                      .asg XAR6, XFP
      12                      .asg DPH, MDP
      13                      .model call=c55_std
      14                      .model mem=huge
      15                      .noremark 5002  ; code respects overwrite rules
      16              ;*******************************************************************************
      17              ;* GLOBAL FILE PARAMETERS                                                      *
      18              ;*                                                                             *
      19              ;*   Architecture       : TMS320C55x                                           *
      20              ;*   Optimizing for     : Speed                                                *
      21              ;*   Memory             : Huge Model (23-Bit Data Pointers)                    *
      22              ;*   Calls              : Normal Library ASM calls                             *
      23              ;*   Debug Info         : Standard TI Debug Information                        *
      24              ;*******************************************************************************
      25              
      26              $C$DW$CU        .dwtag  DW_TAG_compile_unit
      27                      .dwattr $C$DW$CU, DW_AT_name("C:/Users/a0221074/Desktop/C5000/IBM_Watson_TIdesign_workarea/CSL_bitbuc
      28                      .dwattr $C$DW$CU, DW_AT_producer("TMS320C55x C/C++ Codegen PC v4.4.1 Copyright (c) 1996-2012 Texas In
      29                      .dwattr $C$DW$CU, DW_AT_TI_version(0x01)
      30                      .dwattr $C$DW$CU, DW_AT_comp_dir("C:\Users\a0221074\Desktop\C5000\IBM_Watson_TIdesign_workarea\CSL_bi
      31              
      32              $C$DW$1 .dwtag  DW_TAG_subprogram, DW_AT_name("search_a_frame")
      33                      .dwattr $C$DW$1, DW_AT_TI_symbol_name("_search_a_frame")
      34                      .dwattr $C$DW$1, DW_AT_type(*$C$DW$T$8)
      35                      .dwattr $C$DW$1, DW_AT_declaration
      36                      .dwattr $C$DW$1, DW_AT_external
      37              $C$DW$2 .dwtag  DW_TAG_formal_parameter
      38                      .dwattr $C$DW$2, DW_AT_type(*$C$DW$T$21)
      39              $C$DW$3 .dwtag  DW_TAG_formal_parameter
      40                      .dwattr $C$DW$3, DW_AT_type(*$C$DW$T$8)
      41              $C$DW$4 .dwtag  DW_TAG_formal_parameter
      42                      .dwattr $C$DW$4, DW_AT_type(*$C$DW$T$9)
      43              $C$DW$5 .dwtag  DW_TAG_formal_parameter
      44                      .dwattr $C$DW$5, DW_AT_type(*$C$DW$T$94)
      45                      .dwendtag $C$DW$1
      46              
      47              
      48              $C$DW$6 .dwtag  DW_TAG_subprogram, DW_AT_name("back_trace_beam")
      49                      .dwattr $C$DW$6, DW_AT_TI_symbol_name("_back_trace_beam")
      50                      .dwattr $C$DW$6, DW_AT_type(*$C$DW$T$92)
      51                      .dwattr $C$DW$6, DW_AT_declaration
      52                      .dwattr $C$DW$6, DW_AT_external
      53              $C$DW$7 .dwtag  DW_TAG_formal_parameter
      54                      .dwattr $C$DW$7, DW_AT_type(*$C$DW$T$8)
TMS320C55x Assembler PC v4.4.1 Wed Sep 13 16:34:08 2017

Tools Copyright (c) 1996-2012 Texas Instruments Incorporated
C:\Users\a0221074\AppData\Local\Temp\1594410                         PAGE    2

      55              $C$DW$8 .dwtag  DW_TAG_formal_parameter
      56                      .dwattr $C$DW$8, DW_AT_type(*$C$DW$T$8)
      57              $C$DW$9 .dwtag  DW_TAG_formal_parameter
      58                      .dwattr $C$DW$9, DW_AT_type(*$C$DW$T$22)
      59              $C$DW$10        .dwtag  DW_TAG_formal_parameter
      60                      .dwattr $C$DW$10, DW_AT_type(*$C$DW$T$22)
      61              $C$DW$11        .dwtag  DW_TAG_formal_parameter
      62                      .dwattr $C$DW$11, DW_AT_type(*$C$DW$T$22)
      63              $C$DW$12        .dwtag  DW_TAG_formal_parameter
      64                      .dwattr $C$DW$12, DW_AT_type(*$C$DW$T$22)
      65              $C$DW$13        .dwtag  DW_TAG_formal_parameter
      66                      .dwattr $C$DW$13, DW_AT_type(*$C$DW$T$22)
      67              $C$DW$14        .dwtag  DW_TAG_formal_parameter
      68                      .dwattr $C$DW$14, DW_AT_type(*$C$DW$T$94)
      69                      .dwendtag $C$DW$6
      70              
      71              
      72              $C$DW$15        .dwtag  DW_TAG_subprogram, DW_AT_name("set_volume_flag")
      73                      .dwattr $C$DW$15, DW_AT_TI_symbol_name("_set_volume_flag")
      74                      .dwattr $C$DW$15, DW_AT_type(*$C$DW$T$8)
      75                      .dwattr $C$DW$15, DW_AT_declaration
      76                      .dwattr $C$DW$15, DW_AT_external
      77              $C$DW$16        .dwtag  DW_TAG_formal_parameter
      78                      .dwattr $C$DW$16, DW_AT_type(*$C$DW$T$94)
      79                      .dwendtag $C$DW$15
      80              
      81              ;       C:\ti\ccsv7\tools\compiler\c5500_4.4.1\bin\acp55.exe -@C:\\Users\\a0221074\\AppData\\Local\\Temp\\159
      82 000000               .sect   ".text:_CloseSearchEngine"
      83                      .clink
      84                      .global _CloseSearchEngine
      85              
      86              $C$DW$17        .dwtag  DW_TAG_subprogram, DW_AT_name("CloseSearchEngine")
      87                      .dwattr $C$DW$17, DW_AT_low_pc(_CloseSearchEngine)
      88                      .dwattr $C$DW$17, DW_AT_high_pc(0x00)
      89                      .dwattr $C$DW$17, DW_AT_TI_symbol_name("_CloseSearchEngine")
      90                      .dwattr $C$DW$17, DW_AT_external
      91                      .dwattr $C$DW$17, DW_AT_type(*$C$DW$T$92)
      92                      .dwattr $C$DW$17, DW_AT_TI_begin_file("C:/Users/a0221074/Desktop/C5000/IBM_Watson_TIdesign_workarea/C
      93                      .dwattr $C$DW$17, DW_AT_TI_begin_line(0xae)
      94                      .dwattr $C$DW$17, DW_AT_TI_begin_column(0x2a)
      95                      .dwattr $C$DW$17, DW_AT_TI_max_frame_size(0x0a)
      96                      .dwpsn  file "C:/Users/a0221074/Desktop/C5000/IBM_Watson_TIdesign_workarea/CSL_bitbucket/c55_csl/c55x
      97              
      98                      .dwfde $C$DW$CIE, _CloseSearchEngine
      99              $C$DW$18        .dwtag  DW_TAG_formal_parameter, DW_AT_name("status")
     100                      .dwattr $C$DW$18, DW_AT_TI_symbol_name("_status")
     101                      .dwattr $C$DW$18, DW_AT_type(*$C$DW$T$92)
     102                      .dwattr $C$DW$18, DW_AT_location[DW_OP_reg12]
     103              $C$DW$19        .dwtag  DW_TAG_formal_parameter, DW_AT_name("gvv")
     104                      .dwattr $C$DW$19, DW_AT_TI_symbol_name("_gvv")
     105                      .dwattr $C$DW$19, DW_AT_type(*$C$DW$T$94)
     106                      .dwattr $C$DW$19, DW_AT_location[DW_OP_reg17]
     107              ;*******************************************************************************
     108              ;* FUNCTION NAME: CloseSearchEngine                                            *
     109              ;*                                                                             *
TMS320C55x Assembler PC v4.4.1 Wed Sep 13 16:34:08 2017

Tools Copyright (c) 1996-2012 Texas Instruments Incorporated
C:\Users\a0221074\AppData\Local\Temp\1594410                         PAGE    3

     110              ;*   Function Uses Regs : T0,T1,AR0,XAR0,AR1,XAR1,AR2,XAR2,AR3,XAR3,AR4,XAR4,  *
     111              ;*                        SP,CARRY,TC1,M40,SATA,SATD,RDM,FRCT,SMUL             *
     112              ;*   Stack Frame        : Compact (No Frame Pointer, w/ debug)                 *
     113              ;*   Total Frame Size   : 10 words                                             *
     114              ;*                        (2 return address/alignment)                         *
     115              ;*                        (2 function parameters)                              *
     116              ;*                        (6 local values)                                     *
     117              ;*   Min System Stack   : 1 word                                               *
     118              ;*******************************************************************************
     119 000000       _CloseSearchEngine:
     120                      .dwcfi  cfa_offset, 1
     121                      .dwcfi  save_reg_to_mem, 91, -1
     122 000000 4EF7          AADD #-9, SP
     123                      .dwcfi  cfa_offset, 10
     124              $C$DW$20        .dwtag  DW_TAG_variable, DW_AT_name("status")
     125                      .dwattr $C$DW$20, DW_AT_TI_symbol_name("_status")
     126                      .dwattr $C$DW$20, DW_AT_type(*$C$DW$T$92)
     127                      .dwattr $C$DW$20, DW_AT_location[DW_OP_bregx 0x24 2]
     128              $C$DW$21        .dwtag  DW_TAG_variable, DW_AT_name("gvv")
     129                      .dwattr $C$DW$21, DW_AT_TI_symbol_name("_gvv")
     130                      .dwattr $C$DW$21, DW_AT_type(*$C$DW$T$94)
     131                      .dwattr $C$DW$21, DW_AT_location[DW_OP_bregx 0x24 4]
     132              $C$DW$22        .dwtag  DW_TAG_variable, DW_AT_name("global_var")
     133                      .dwattr $C$DW$22, DW_AT_TI_symbol_name("_global_var")
     134                      .dwattr $C$DW$22, DW_AT_type(*$C$DW$T$94)
     135                      .dwattr $C$DW$22, DW_AT_location[DW_OP_bregx 0x24 6]
     136 000002 EB08          MOV XAR0, dbl(*SP(#4))
         000004 85   
     137 000005 C404          MOV T0, *SP(#2) ; |175| 
     138                      .dwpsn  file "C:/Users/a0221074/Desktop/C5000/IBM_Watson_TIdesign_workarea/CSL_bitbucket/c55_csl/c55x
     139 000007 ED08          MOV dbl(*SP(#4)), XAR3
         000009 BF   
     140 00000a EB0C          MOV XAR3, dbl(*SP(#6))
         00000c B5   
     141                      .dwpsn  file "C:/Users/a0221074/Desktop/C5000/IBM_Watson_TIdesign_workarea/CSL_bitbucket/c55_csl/c55x
     142 00000d E66D          MOV #0, *AR3(#1158) ; |181| 
         00000f 0004 
         000011 86   
     143                      .dwpsn  file "C:/Users/a0221074/Desktop/C5000/IBM_Watson_TIdesign_workarea/CSL_bitbucket/c55_csl/c55x
     144 000012 ED0C          MOV dbl(*SP(#6)), XAR3
         000014 BF   
     145 000015 E66D          MOV #0, *AR3(#2000) ; |182| 
         000017 0007 
         000019 D0   
     146                      .dwpsn  file "C:/Users/a0221074/Desktop/C5000/IBM_Watson_TIdesign_workarea/CSL_bitbucket/c55_csl/c55x
     147 00001a F004          CMP *SP(#2) == #100, TC1 ; |183| 
         00001c 0064 
     148 00001e 0474          BCC $C$L1,!TC1 ; |183| 
         000020 1A   
     149                                                      ; branchcc occurs ; |183| 
     150                      .dwpsn  file "C:/Users/a0221074/Desktop/C5000/IBM_Watson_TIdesign_workarea/CSL_bitbucket/c55_csl/c55x
     151 000021 ED0C          MOV dbl(*SP(#6)), XAR3
         000023 BF   
     152 000024 EC31          AMOV #0, XAR0 ; |183| 
         000026 8E00 
TMS320C55x Assembler PC v4.4.1 Wed Sep 13 16:34:08 2017

Tools Copyright (c) 1996-2012 Texas Instruments Incorporated
C:\Users\a0221074\AppData\Local\Temp\1594410                         PAGE    4

         000028 0000 
     153 00002a A96D          MOV *AR3(#268), AR1 ; |183| 
         00002c 010C 
     154 00002e 7C00          SUB #1, AR1, T1 ; |183| 
         000030 0159 
     155 000032 ED0C          MOV dbl(*SP(#6)), XAR1
         000034 9F   
     156              $C$DW$23        .dwtag  DW_TAG_TI_branch
     157                      .dwattr $C$DW$23, DW_AT_low_pc(0x00)
     158                      .dwattr $C$DW$23, DW_AT_name("_search_a_frame")
     159                      .dwattr $C$DW$23, DW_AT_TI_call
     160              
     161 000035 6C00          CALL #_search_a_frame ; |183| 
         000037 0000!
     162 000039 3D04  ||      MOV #0, T0
     163              
     164                                                      ; call occurs [#_search_a_frame] ; |183| 
     165 00003b       $C$L1:    
     166                      .dwpsn  file "C:/Users/a0221074/Desktop/C5000/IBM_Watson_TIdesign_workarea/CSL_bitbucket/c55_csl/c55x
     167 00003b F004          CMP *SP(#2) == #100, TC1 ; |184| 
         00003d 0064 
     168 00003f 6D74          BCC $C$L4,!TC1 ; |184| 
         000041 0089 
     169                                                      ; branchcc occurs ; |184| 
     170                      .dwpsn  file "C:/Users/a0221074/Desktop/C5000/IBM_Watson_TIdesign_workarea/CSL_bitbucket/c55_csl/c55x
     171 000043 ED0C          MOV dbl(*SP(#6)), XAR3
         000045 BF   
     172 000046 76FF          MOV #65535, AR2 ; |185| 
         000048 FFA8 
     173 00004a A96D          MOV *AR3(#1272), AR1 ; |185| 
         00004c 04F8 
     174 00004e 1290          CMPU AR1 == AR2, TC1 ; |185| 
         000050 A4   
     175 000051 0464          BCC $C$L3,TC1 ; |185| 
         000053 74   
     176                                                      ; branchcc occurs ; |185| 
     177                      .dwpsn  file "C:/Users/a0221074/Desktop/C5000/IBM_Watson_TIdesign_workarea/CSL_bitbucket/c55_csl/c55x
     178 000054 ED08          MOV dbl(*SP(#4)), XAR3
         000056 BF   
     179 000057 A96D          MOV *AR3(#1968), AR1 ; |205| 
         000059 07B0 
     180 00005b 0419          BCC $C$L2,AR1 != #0 ; |205| 
         00005d 33   
     181                                                      ; branchcc occurs ; |205| 
     182                      .dwpsn  file "C:/Users/a0221074/Desktop/C5000/IBM_Watson_TIdesign_workarea/CSL_bitbucket/c55_csl/c55x
     183 00005e ED0C          MOV dbl(*SP(#6)), XAR3
         000060 BF   
     184 000061 EB00          MOV XAR3, dbl(*SP(#0))
         000063 B5   
     185 000064 ED0C          MOV dbl(*SP(#6)), XAR4
         000066 CF   
     186 000067 ED0C          MOV dbl(*SP(#6)), XAR3
         000069 BF   
     187 00006a B48F          AMAR *+AR4(#1159) ; |206| 
         00006c 0487 
TMS320C55x Assembler PC v4.4.1 Wed Sep 13 16:34:08 2017

Tools Copyright (c) 1996-2012 Texas Instruments Incorporated
C:\Users\a0221074\AppData\Local\Temp\1594410                         PAGE    5

     188 00006e A46D          MOV *AR3(#1273), T0 ; |206| 
         000070 04F9 
     189 000072 A56D          MOV *AR3(#1274), T1 ; |206| 
         000074 04FA 
     190 000076 ED6D          MOV dbl(*AR3(#1152)), XAR0
         000078 8F04 
         00007a 80   
     191 00007b ED6D          MOV dbl(*AR3(#1154)), XAR1
         00007d 9F04 
         00007f 82   
     192 000080 ED6D          MOV dbl(*AR3(#1156)), XAR2
         000082 AF04 
         000084 84   
     193 000085 B46F          AMAR *+AR3(#1158) ; |206| 
         000087 0486 
     194              $C$DW$24        .dwtag  DW_TAG_TI_branch
     195                      .dwattr $C$DW$24, DW_AT_low_pc(0x00)
     196                      .dwattr $C$DW$24, DW_AT_name("_back_trace_beam")
     197                      .dwattr $C$DW$24, DW_AT_TI_call
     198 000089 6C00          CALL #_back_trace_beam ; |206| 
         00008b 0000!
     199                                                      ; call occurs [#_back_trace_beam] ; |206| 
     200 00008d C404          MOV T0, *SP(#2) ; |206| 
     201 00008f 4A3B          B $C$L4   ; |206| 
     202                                                      ; branch occurs ; |206| 
     203 000091       $C$L2:    
     204                      .dwpsn  file "C:/Users/a0221074/Desktop/C5000/IBM_Watson_TIdesign_workarea/CSL_bitbucket/c55_csl/c55x
     205 000091 ED0C          MOV dbl(*SP(#6)), XAR3
         000093 BF   
     206 000094 EB00          MOV XAR3, dbl(*SP(#0))
         000096 B5   
     207 000097 ED0C          MOV dbl(*SP(#6)), XAR4
         000099 CF   
     208 00009a ED0C          MOV dbl(*SP(#6)), XAR3
         00009c BF   
     209 00009d B48F          AMAR *+AR4(#1159) ; |210| 
         00009f 0487 
     210 0000a1 A96D          MOV *AR3(#268), AR1 ; |210| 
         0000a3 010C 
     211 0000a5 A46D          MOV *AR3(#1272), T0 ; |210| 
         0000a7 04F8 
     212 0000a9 ED6D          MOV dbl(*AR3(#1152)), XAR0
         0000ab 8F04 
         0000ad 80   
     213 0000ae ED6D          MOV dbl(*AR3(#1156)), XAR2
         0000b0 AF04 
         0000b2 84   
     214 0000b3 7C00          SUB #1, AR1, T1 ; |210| 
         0000b5 0159 
     215 0000b7 ED6D          MOV dbl(*AR3(#1154)), XAR1
         0000b9 9F04 
         0000bb 82   
     216 0000bc B46F          AMAR *+AR3(#1158) ; |210| 
         0000be 0486 
     217              $C$DW$25        .dwtag  DW_TAG_TI_branch
TMS320C55x Assembler PC v4.4.1 Wed Sep 13 16:34:08 2017

Tools Copyright (c) 1996-2012 Texas Instruments Incorporated
C:\Users\a0221074\AppData\Local\Temp\1594410                         PAGE    6

     218                      .dwattr $C$DW$25, DW_AT_low_pc(0x00)
     219                      .dwattr $C$DW$25, DW_AT_name("_back_trace_beam")
     220                      .dwattr $C$DW$25, DW_AT_TI_call
     221 0000c0 6C00          CALL #_back_trace_beam ; |210| 
         0000c2 0000!
     222                                                      ; call occurs [#_back_trace_beam] ; |210| 
     223 0000c4 C404          MOV T0, *SP(#2) ; |210| 
     224                      .dwpsn  file "C:/Users/a0221074/Desktop/C5000/IBM_Watson_TIdesign_workarea/CSL_bitbucket/c55_csl/c55x
     225 0000c6 4A04          B $C$L4   ; |217| 
     226                                                      ; branch occurs ; |217| 
     227 0000c8       $C$L3:    
     228                      .dwpsn  file "C:/Users/a0221074/Desktop/C5000/IBM_Watson_TIdesign_workarea/CSL_bitbucket/c55_csl/c55x
     229 0000c8 FB04          MOV #401, *SP(#2) ; |219| 
         0000ca 0191 
     230 0000cc       $C$L4:    
     231                      .dwpsn  file "C:/Users/a0221074/Desktop/C5000/IBM_Watson_TIdesign_workarea/CSL_bitbucket/c55_csl/c55x
     232 0000cc ED0C          MOV dbl(*SP(#6)), XAR3
         0000ce BF   
     233 0000cf 7600          MOV #70, AR2 ; |221| 
         0000d1 46A8 
     234 0000d3 A96D          MOV *AR3(#1158), AR1 ; |221| 
         0000d5 0486 
     235 0000d7 12A8          CMPU AR1 <= AR2, TC1 ; |221| 
         0000d9 94   
     236 0000da 6264          BCC $C$L5,TC1 ; |221| 
     237                                                      ; branchcc occurs ; |221| 
     238                      .dwpsn  file "C:/Users/a0221074/Desktop/C5000/IBM_Watson_TIdesign_workarea/CSL_bitbucket/c55_csl/c55x
     239 0000dc FB04          MOV #301, *SP(#2) ; |221| 
         0000de 012D 
     240 0000e0       $C$L5:    
     241                      .dwpsn  file "C:/Users/a0221074/Desktop/C5000/IBM_Watson_TIdesign_workarea/CSL_bitbucket/c55_csl/c55x
     242 0000e0 ED0C          MOV dbl(*SP(#6)), XAR0
         0000e2 8F   
     243              $C$DW$26        .dwtag  DW_TAG_TI_branch
     244                      .dwattr $C$DW$26, DW_AT_low_pc(0x00)
     245                      .dwattr $C$DW$26, DW_AT_name("_set_volume_flag")
     246                      .dwattr $C$DW$26, DW_AT_TI_call
     247 0000e3 6C00          CALL #_set_volume_flag ; |224| 
         0000e5 0000!
     248                                                      ; call occurs [#_set_volume_flag] ; |224| 
     249 0000e7 ED0C          MOV dbl(*SP(#6)), XAR3
         0000e9 BF   
     250 0000ea C46D          MOV T0, *AR3(#276) ; |224| 
         0000ec 0114 
     251                      .dwpsn  file "C:/Users/a0221074/Desktop/C5000/IBM_Watson_TIdesign_workarea/CSL_bitbucket/c55_csl/c55x
     252 0000ee A404          MOV *SP(#2), T0 ; |238| 
     253                      .dwpsn  file "C:/Users/a0221074/Desktop/C5000/IBM_Watson_TIdesign_workarea/CSL_bitbucket/c55_csl/c55x
     254 0000f0 4E09          AADD #9, SP
     255                      .dwcfi  cfa_offset, 1
     256              $C$DW$27        .dwtag  DW_TAG_TI_branch
     257                      .dwattr $C$DW$27, DW_AT_low_pc(0x00)
     258                      .dwattr $C$DW$27, DW_AT_TI_return
     259 0000f2 4804          RET
     260                                                      ; return occurs
     261                      .dwattr $C$DW$17, DW_AT_TI_end_file("C:/Users/a0221074/Desktop/C5000/IBM_Watson_TIdesign_workarea/CSL
TMS320C55x Assembler PC v4.4.1 Wed Sep 13 16:34:08 2017

Tools Copyright (c) 1996-2012 Texas Instruments Incorporated
C:\Users\a0221074\AppData\Local\Temp\1594410                         PAGE    7

     262                      .dwattr $C$DW$17, DW_AT_TI_end_line(0xef)
     263                      .dwattr $C$DW$17, DW_AT_TI_end_column(0x01)
     264                      .dwendentry
     265                      .dwendtag $C$DW$17
     266              
     267 000000               .sect   ".text:_GetSearchMemorySize"
     268                      .clink
     269                      .global _GetSearchMemorySize
     270              
     271              $C$DW$28        .dwtag  DW_TAG_subprogram, DW_AT_name("GetSearchMemorySize")
     272                      .dwattr $C$DW$28, DW_AT_low_pc(_GetSearchMemorySize)
     273                      .dwattr $C$DW$28, DW_AT_high_pc(0x00)
     274                      .dwattr $C$DW$28, DW_AT_TI_symbol_name("_GetSearchMemorySize")
     275                      .dwattr $C$DW$28, DW_AT_external
     276                      .dwattr $C$DW$28, DW_AT_type(*$C$DW$T$9)
     277                      .dwattr $C$DW$28, DW_AT_TI_begin_file("C:/Users/a0221074/Desktop/C5000/IBM_Watson_TIdesign_workarea/C
     278                      .dwattr $C$DW$28, DW_AT_TI_begin_line(0x135)
     279                      .dwattr $C$DW$28, DW_AT_TI_begin_column(0x10)
     280                      .dwattr $C$DW$28, DW_AT_TI_max_frame_size(0x06)
     281                      .dwpsn  file "C:/Users/a0221074/Desktop/C5000/IBM_Watson_TIdesign_workarea/CSL_bitbucket/c55_csl/c55x
     282              
     283                      .dwfde $C$DW$CIE, _GetSearchMemorySize
     284              $C$DW$29        .dwtag  DW_TAG_formal_parameter, DW_AT_name("gvv")
     285                      .dwattr $C$DW$29, DW_AT_TI_symbol_name("_gvv")
     286                      .dwattr $C$DW$29, DW_AT_type(*$C$DW$T$94)
     287                      .dwattr $C$DW$29, DW_AT_location[DW_OP_reg17]
     288              ;*******************************************************************************
     289              ;* FUNCTION NAME: GetSearchMemorySize                                          *
     290              ;*                                                                             *
     291              ;*   Function Uses Regs : AC0,T0,T1,AR0,XAR0,AR1,AR2,AR3,XAR3,SP,CARRY,TC1,M40,*
     292              ;*                        SATA,SATD,RDM,FRCT,SMUL                              *
     293              ;*   Stack Frame        : Compact (No Frame Pointer, w/ debug)                 *
     294              ;*   Total Frame Size   : 6 words                                              *
     295              ;*                        (2 return address/alignment)                         *
     296              ;*                        (4 local values)                                     *
     297              ;*   Min System Stack   : 1 word                                               *
     298              ;*******************************************************************************
     299 000000       _GetSearchMemorySize:
     300                      .dwcfi  cfa_offset, 1
     301                      .dwcfi  save_reg_to_mem, 91, -1
     302 000000 4EFB          AADD #-5, SP
     303                      .dwcfi  cfa_offset, 6
     304              $C$DW$30        .dwtag  DW_TAG_variable, DW_AT_name("gvv")
     305                      .dwattr $C$DW$30, DW_AT_TI_symbol_name("_gvv")
     306                      .dwattr $C$DW$30, DW_AT_type(*$C$DW$T$94)
     307                      .dwattr $C$DW$30, DW_AT_location[DW_OP_bregx 0x24 0]
     308              $C$DW$31        .dwtag  DW_TAG_variable, DW_AT_name("gv")
     309                      .dwattr $C$DW$31, DW_AT_TI_symbol_name("_gv")
     310                      .dwattr $C$DW$31, DW_AT_type(*$C$DW$T$94)
     311                      .dwattr $C$DW$31, DW_AT_location[DW_OP_bregx 0x24 2]
     312 000002 EB00          MOV XAR0, dbl(*SP(#0))
         000004 85   
     313                      .dwpsn  file "C:/Users/a0221074/Desktop/C5000/IBM_Watson_TIdesign_workarea/CSL_bitbucket/c55_csl/c55x
     314 000005 ED00          MOV dbl(*SP(#0)), XAR3
         000007 BF   
TMS320C55x Assembler PC v4.4.1 Wed Sep 13 16:34:08 2017

Tools Copyright (c) 1996-2012 Texas Instruments Incorporated
C:\Users\a0221074\AppData\Local\Temp\1594410                         PAGE    8

     315 000008 EB04          MOV XAR3, dbl(*SP(#2))
         00000a B5   
     316                      .dwpsn  file "C:/Users/a0221074/Desktop/C5000/IBM_Watson_TIdesign_workarea/CSL_bitbucket/c55_csl/c55x
     317 00000b A96D          MOV *AR3(#1250), AR1 ; |312| 
         00000d 04E2 
     318 00000f AA6D          MOV *AR3(#1248), AR2 ; |312| 
         000011 04E0 
     319 000013 1298          CMPU AR2 <= AR1, TC1 ; |312| 
         000015 A4   
     320 000016 6364          BCC $C$L6,TC1 ; |312| 
     321                                                      ; branchcc occurs ; |312| 
     322 000018 A56D          MOV *AR3(#1248), T1 ; |312| 
         00001a 04E0 
     323 00001c 4A04          B $C$L7   ; |312| 
     324                                                      ; branch occurs ; |312| 
     325 00001e       $C$L6:    
     326 00001e A56D          MOV *AR3(#1250), T1 ; |312| 
         000020 04E2 
     327 000022       $C$L7:    
     328 000022 F86D          MPYMK *AR3(#1252), #3, AC0 ; |312| 
         000024 0300 
         000026 04E4 
     329 000028 A46D          MOV *AR3(#1254), T0 ; |312| 
         00002a 04E6 
     330 00002c 1E03          MACK T1, #3, AC0, AC0 ; |312| 
         00002e 06   
     331 00002f F86D          MACMK *AR3(#1246), #3, AC0, AC0 ; |312| 
         000031 0304 
         000033 04DE 
     332 000035 5040          SFTL T0, #1 ; |312| 
     333 000037 2404          ADD AC0, T0 ; |312| 
     334                      .dwpsn  file "C:/Users/a0221074/Desktop/C5000/IBM_Watson_TIdesign_workarea/CSL_bitbucket/c55_csl/c55x
     335 000039 4E05          AADD #5, SP
     336                      .dwcfi  cfa_offset, 1
     337              $C$DW$32        .dwtag  DW_TAG_TI_branch
     338                      .dwattr $C$DW$32, DW_AT_low_pc(0x00)
     339                      .dwattr $C$DW$32, DW_AT_TI_return
     340 00003b 4804          RET
     341                                                      ; return occurs
     342                      .dwattr $C$DW$28, DW_AT_TI_end_file("C:/Users/a0221074/Desktop/C5000/IBM_Watson_TIdesign_workarea/CSL
     343                      .dwattr $C$DW$28, DW_AT_TI_end_line(0x139)
     344                      .dwattr $C$DW$28, DW_AT_TI_end_column(0x01)
     345                      .dwendentry
     346                      .dwendtag $C$DW$28
     347              
     348              ;******************************************************************************
     349              ;* UNDEFINED EXTERNAL REFERENCES                                              *
     350              ;******************************************************************************
     351                      .global _search_a_frame
     352                      .global _back_trace_beam
     353                      .global _set_volume_flag
     354              
     355              ;*******************************************************************************
     356              ;* TYPE INFORMATION                                                            *
     357              ;*******************************************************************************
TMS320C55x Assembler PC v4.4.1 Wed Sep 13 16:34:08 2017

Tools Copyright (c) 1996-2012 Texas Instruments Incorporated
C:\Users\a0221074\AppData\Local\Temp\1594410                         PAGE    9

     358              
     359              $C$DW$T$91      .dwtag  DW_TAG_enumeration_type
     360                      .dwattr $C$DW$T$91, DW_AT_byte_size(0x01)
     361              $C$DW$33        .dwtag  DW_TAG_enumerator, DW_AT_name("eTIesrEngineSuccess"), DW_AT_const_value(0x64)
     362              $C$DW$34        .dwtag  DW_TAG_enumerator, DW_AT_name("eTIesrEngineEvalCellOverflow"), DW_AT_const_value(0x65
     363              $C$DW$35        .dwtag  DW_TAG_enumerator, DW_AT_name("eTIesrEngineBeamCellOverflow"), DW_AT_const_value(0x66
     364              $C$DW$36        .dwtag  DW_TAG_enumerator, DW_AT_name("eTIesrEngineTimeCellOverflow"), DW_AT_const_value(0x67
     365              $C$DW$37        .dwtag  DW_TAG_enumerator, DW_AT_name("eTIesrEngineSearchSpace"), DW_AT_const_value(0xc8)
     366              $C$DW$38        .dwtag  DW_TAG_enumerator, DW_AT_name("eTIesrEngineSearchMemoryLimit"), DW_AT_const_value(0xc
     367              $C$DW$39        .dwtag  DW_TAG_enumerator, DW_AT_name("eTIesrEngineSearchMemorySize"), DW_AT_const_value(0xca
     368              $C$DW$40        .dwtag  DW_TAG_enumerator, DW_AT_name("eTIesrEngineVQHMMMemorySize"), DW_AT_const_value(0xcb)
     369              $C$DW$41        .dwtag  DW_TAG_enumerator, DW_AT_name("eTIesrEngineVQHMMGarbage"), DW_AT_const_value(0xcc)
     370              $C$DW$42        .dwtag  DW_TAG_enumerator, DW_AT_name("eTIesrEngineVQHMMSave"), DW_AT_const_value(0xcd)
     371              $C$DW$43        .dwtag  DW_TAG_enumerator, DW_AT_name("eTIesrEngineVQHMMLoad"), DW_AT_const_value(0xce)
     372              $C$DW$44        .dwtag  DW_TAG_enumerator, DW_AT_name("eTIesrEngineCompFail"), DW_AT_const_value(0xcf)
     373              $C$DW$45        .dwtag  DW_TAG_enumerator, DW_AT_name("eTIesrEngineFeatureMemoryOut"), DW_AT_const_value(0x12
     374              $C$DW$46        .dwtag  DW_TAG_enumerator, DW_AT_name("eTIesrEngineSegmentMemoryOut"), DW_AT_const_value(0x12
     375              $C$DW$47        .dwtag  DW_TAG_enumerator, DW_AT_name("eTIesrEngineMuSpaceMemoryOut"), DW_AT_const_value(0x12
     376              $C$DW$48        .dwtag  DW_TAG_enumerator, DW_AT_name("eTIesrEngineFeatureFrameOut"), DW_AT_const_value(0x12f
     377              $C$DW$49        .dwtag  DW_TAG_enumerator, DW_AT_name("eTIesrEngineAnswerMemoryOut"), DW_AT_const_value(0x130
     378              $C$DW$50        .dwtag  DW_TAG_enumerator, DW_AT_name("eTIesrEngineTimeOut"), DW_AT_const_value(0x131)
     379              $C$DW$51        .dwtag  DW_TAG_enumerator, DW_AT_name("eTIesrEngineNBestMem"), DW_AT_const_value(0x132)
     380              $C$DW$52        .dwtag  DW_TAG_enumerator, DW_AT_name("eTIesrEngineModelLoadFail"), DW_AT_const_value(0x190)
     381              $C$DW$53        .dwtag  DW_TAG_enumerator, DW_AT_name("eTIesrEngineAlignmentFail"), DW_AT_const_value(0x191)
     382              $C$DW$54        .dwtag  DW_TAG_enumerator, DW_AT_name("eTIesrEngineMemorySizeFail"), DW_AT_const_value(0x192)
     383              $C$DW$55        .dwtag  DW_TAG_enumerator, DW_AT_name("eTIesrEngineFailedJAC"), DW_AT_const_value(0x1a9)
     384              $C$DW$56        .dwtag  DW_TAG_enumerator, DW_AT_name("eTIesrEngineFeatureDimensionFail"), DW_AT_const_value(
     385              $C$DW$57        .dwtag  DW_TAG_enumerator, DW_AT_name("eTIesrEngineSegmentSizeCheckFail"), DW_AT_const_value(
     386              $C$DW$58        .dwtag  DW_TAG_enumerator, DW_AT_name("eTIesrEngineModelFileFail"), DW_AT_const_value(0x1c4)
     387              $C$DW$59        .dwtag  DW_TAG_enumerator, DW_AT_name("eTIesrEngineSaveFail"), DW_AT_const_value(0x1c5)
     388              $C$DW$60        .dwtag  DW_TAG_enumerator, DW_AT_name("eTIesrEngineEnrollLoadFail"), DW_AT_const_value(0x1c6)
     389              $C$DW$61        .dwtag  DW_TAG_enumerator, DW_AT_name("eTIesrEngineBackgoundCreationFail"), DW_AT_const_value
     390              $C$DW$62        .dwtag  DW_TAG_enumerator, DW_AT_name("eTIesrEngineStateMemoryOut"), DW_AT_const_value(0x1f4)
     391              $C$DW$63        .dwtag  DW_TAG_enumerator, DW_AT_name("eTIesrEngineSearchMemoryOut"), DW_AT_const_value(0x1f5
     392              $C$DW$64        .dwtag  DW_TAG_enumerator, DW_AT_name("eTIesrEngineModelMemorySize"), DW_AT_const_value(0x258
     393              $C$DW$65        .dwtag  DW_TAG_enumerator, DW_AT_name("eTIesrEngineFeatureMemorySize"), DW_AT_const_value(0x2
     394              $C$DW$66        .dwtag  DW_TAG_enumerator, DW_AT_name("eTIesrEngineNetworkMemorySize"), DW_AT_const_value(0x2
     395              $C$DW$67        .dwtag  DW_TAG_enumerator, DW_AT_name("eTIesrEngineModelSize"), DW_AT_const_value(0x25b)
     396              $C$DW$68        .dwtag  DW_TAG_enumerator, DW_AT_name("eTIesrEngineBackTrackMemorySize"), DW_AT_const_value(0
     397              $C$DW$69        .dwtag  DW_TAG_enumerator, DW_AT_name("eTIesrEngineCMMemorySize"), DW_AT_const_value(0x25d)
     398              $C$DW$70        .dwtag  DW_TAG_enumerator, DW_AT_name("eTIesrEngineVALTreeMemorySize"), DW_AT_const_value(0x2
     399              $C$DW$71        .dwtag  DW_TAG_enumerator, DW_AT_name("eTIesrEngineSym2PosMapSize"), DW_AT_const_value(0x25f)
     400              $C$DW$72        .dwtag  DW_TAG_enumerator, DW_AT_name("eTIesrEngineShortUtterance"), DW_AT_const_value(0x2bc)
     401              $C$DW$73        .dwtag  DW_TAG_enumerator, DW_AT_name("eTIesrTTSLoadHMM2Phone"), DW_AT_const_value(0x320)
     402              $C$DW$74        .dwtag  DW_TAG_enumerator, DW_AT_name("eTIesrTTSNoSilencePhone"), DW_AT_const_value(0x321)
     403              $C$DW$75        .dwtag  DW_TAG_enumerator, DW_AT_name("eTIesrTTSLoadPhone2Voicing"), DW_AT_const_value(0x322)
     404              $C$DW$76        .dwtag  DW_TAG_enumerator, DW_AT_name("eTIesrTTSLoadPhoneDuration"), DW_AT_const_value(0x323)
     405              $C$DW$77        .dwtag  DW_TAG_enumerator, DW_AT_name("eTIesrTTSPhoneMismatch"), DW_AT_const_value(0x324)
     406              $C$DW$78        .dwtag  DW_TAG_enumerator, DW_AT_name("eTIesrTTSPhoneMissWord"), DW_AT_const_value(0x325)
     407              $C$DW$79        .dwtag  DW_TAG_enumerator, DW_AT_name("eTIesrTTSPhoneDuration"), DW_AT_const_value(0x326)
     408              $C$DW$80        .dwtag  DW_TAG_enumerator, DW_AT_name("eTIesrTTSPhoneWord"), DW_AT_const_value(0x327)
     409              $C$DW$81        .dwtag  DW_TAG_enumerator, DW_AT_name("eTIesrTTSSaveTTSMean"), DW_AT_const_value(0x328)
     410              $C$DW$82        .dwtag  DW_TAG_enumerator, DW_AT_name("eTIesrTTSSaveVoicing"), DW_AT_const_value(0x329)
     411              $C$DW$83        .dwtag  DW_TAG_enumerator, DW_AT_name("eTIesrTTSSaveDuration"), DW_AT_const_value(0x32a)
     412              $C$DW$84        .dwtag  DW_TAG_enumerator, DW_AT_name("eTIesrTTSTTS"), DW_AT_const_value(0x32b)
TMS320C55x Assembler PC v4.4.1 Wed Sep 13 16:34:08 2017

Tools Copyright (c) 1996-2012 Texas Instruments Incorporated
C:\Users\a0221074\AppData\Local\Temp\1594410                         PAGE   10

     413              $C$DW$85        .dwtag  DW_TAG_enumerator, DW_AT_name("eTIesrTTSPhoneList"), DW_AT_const_value(0x32c)
     414              $C$DW$86        .dwtag  DW_TAG_enumerator, DW_AT_name("eTIesrTTSNumPhones"), DW_AT_const_value(0x32d)
     415              $C$DW$87        .dwtag  DW_TAG_enumerator, DW_AT_name("eTIesrTTSNumWords"), DW_AT_const_value(0x32e)
     416              $C$DW$88        .dwtag  DW_TAG_enumerator, DW_AT_name("eTIesrTTSOutputFile"), DW_AT_const_value(0x32f)
     417              $C$DW$89        .dwtag  DW_TAG_enumerator, DW_AT_name("eTIesrTTSInputMFCC"), DW_AT_const_value(0x330)
     418              $C$DW$90        .dwtag  DW_TAG_enumerator, DW_AT_name("eTIesrTTSInputDuration"), DW_AT_const_value(0x331)
     419              $C$DW$91        .dwtag  DW_TAG_enumerator, DW_AT_name("eTIesrTTSInputVoicing"), DW_AT_const_value(0x332)
     420              $C$DW$92        .dwtag  DW_TAG_enumerator, DW_AT_name("eTIesrTTSNotFound"), DW_AT_const_value(0x333)
     421              $C$DW$93        .dwtag  DW_TAG_enumerator, DW_AT_name("eTIesrTTSOutputMeanSize"), DW_AT_const_value(0x334)
     422              $C$DW$94        .dwtag  DW_TAG_enumerator, DW_AT_name("eTIesrTTSOutput"), DW_AT_const_value(0x335)
     423                      .dwendtag $C$DW$T$91
     424              
     425              $C$DW$T$92      .dwtag  DW_TAG_typedef, DW_AT_name("TIesrEngineStatusType")
     426                      .dwattr $C$DW$T$92, DW_AT_type(*$C$DW$T$91)
     427                      .dwattr $C$DW$T$92, DW_AT_language(DW_LANG_C)
     428              
     429              $C$DW$T$19      .dwtag  DW_TAG_structure_type
     430                      .dwattr $C$DW$T$19, DW_AT_byte_size(0x03)
     431              $C$DW$95        .dwtag  DW_TAG_member
     432                      .dwattr $C$DW$95, DW_AT_type(*$C$DW$T$8)
     433                      .dwattr $C$DW$95, DW_AT_name("num")
     434                      .dwattr $C$DW$95, DW_AT_TI_symbol_name("_num")
     435                      .dwattr $C$DW$95, DW_AT_data_member_location[DW_OP_plus_uconst 0x0]
     436                      .dwattr $C$DW$95, DW_AT_accessibility(DW_ACCESS_public)
     437              $C$DW$96        .dwtag  DW_TAG_member
     438                      .dwattr $C$DW$96, DW_AT_type(*$C$DW$T$8)
     439                      .dwattr $C$DW$96, DW_AT_name("x1")
     440                      .dwattr $C$DW$96, DW_AT_TI_symbol_name("_x1")
     441                      .dwattr $C$DW$96, DW_AT_data_member_location[DW_OP_plus_uconst 0x1]
     442                      .dwattr $C$DW$96, DW_AT_accessibility(DW_ACCESS_public)
     443              $C$DW$97        .dwtag  DW_TAG_member
     444                      .dwattr $C$DW$97, DW_AT_type(*$C$DW$T$8)
     445                      .dwattr $C$DW$97, DW_AT_name("x2")
     446                      .dwattr $C$DW$97, DW_AT_TI_symbol_name("_x2")
     447                      .dwattr $C$DW$97, DW_AT_data_member_location[DW_OP_plus_uconst 0x2]
     448                      .dwattr $C$DW$97, DW_AT_accessibility(DW_ACCESS_public)
     449                      .dwendtag $C$DW$T$19
     450              
     451              $C$DW$T$56      .dwtag  DW_TAG_typedef, DW_AT_name("mel_filter_type")
     452                      .dwattr $C$DW$T$56, DW_AT_type(*$C$DW$T$19)
     453                      .dwattr $C$DW$T$56, DW_AT_language(DW_LANG_C)
     454              $C$DW$98        .dwtag  DW_TAG_TI_far_type
     455                      .dwattr $C$DW$98, DW_AT_type(*$C$DW$T$56)
     456              $C$DW$T$57      .dwtag  DW_TAG_const_type
     457                      .dwattr $C$DW$T$57, DW_AT_type(*$C$DW$98)
     458              $C$DW$T$58      .dwtag  DW_TAG_pointer_type
     459                      .dwattr $C$DW$T$58, DW_AT_type(*$C$DW$T$57)
     460                      .dwattr $C$DW$T$58, DW_AT_address_class(0x17)
     461              
     462              $C$DW$T$23      .dwtag  DW_TAG_structure_type
     463                      .dwattr $C$DW$T$23, DW_AT_byte_size(0x18)
     464              $C$DW$99        .dwtag  DW_TAG_member
     465                      .dwattr $C$DW$99, DW_AT_type(*$C$DW$T$20)
     466                      .dwattr $C$DW$99, DW_AT_name("max_mem_usage")
     467                      .dwattr $C$DW$99, DW_AT_TI_symbol_name("_max_mem_usage")
TMS320C55x Assembler PC v4.4.1 Wed Sep 13 16:34:08 2017

Tools Copyright (c) 1996-2012 Texas Instruments Incorporated
C:\Users\a0221074\AppData\Local\Temp\1594410                         PAGE   11

     468                      .dwattr $C$DW$99, DW_AT_data_member_location[DW_OP_plus_uconst 0x0]
     469                      .dwattr $C$DW$99, DW_AT_accessibility(DW_ACCESS_public)
     470              $C$DW$100       .dwtag  DW_TAG_member
     471                      .dwattr $C$DW$100, DW_AT_type(*$C$DW$T$20)
     472                      .dwattr $C$DW$100, DW_AT_name("n_terminals")
     473                      .dwattr $C$DW$100, DW_AT_TI_symbol_name("_n_terminals")
     474                      .dwattr $C$DW$100, DW_AT_data_member_location[DW_OP_plus_uconst 0x1]
     475                      .dwattr $C$DW$100, DW_AT_accessibility(DW_ACCESS_public)
     476              $C$DW$101       .dwtag  DW_TAG_member
     477                      .dwattr $C$DW$101, DW_AT_type(*$C$DW$T$20)
     478                      .dwattr $C$DW$101, DW_AT_name("n_monophones")
     479                      .dwattr $C$DW$101, DW_AT_TI_symbol_name("_n_monophones")
     480                      .dwattr $C$DW$101, DW_AT_data_member_location[DW_OP_plus_uconst 0x2]
     481                      .dwattr $C$DW$101, DW_AT_accessibility(DW_ACCESS_public)
     482              $C$DW$102       .dwtag  DW_TAG_member
     483                      .dwattr $C$DW$102, DW_AT_type(*$C$DW$T$21)
     484                      .dwattr $C$DW$102, DW_AT_name("hlrTreeBase")
     485                      .dwattr $C$DW$102, DW_AT_TI_symbol_name("_hlrTreeBase")
     486                      .dwattr $C$DW$102, DW_AT_data_member_location[DW_OP_plus_uconst 0x4]
     487                      .dwattr $C$DW$102, DW_AT_accessibility(DW_ACCESS_public)
     488              $C$DW$103       .dwtag  DW_TAG_member
     489                      .dwattr $C$DW$103, DW_AT_type(*$C$DW$T$22)
     490                      .dwattr $C$DW$103, DW_AT_name("hlrTerminal")
     491                      .dwattr $C$DW$103, DW_AT_TI_symbol_name("_hlrTerminal")
     492                      .dwattr $C$DW$103, DW_AT_data_member_location[DW_OP_plus_uconst 0x6]
     493                      .dwattr $C$DW$103, DW_AT_accessibility(DW_ACCESS_public)
     494              $C$DW$104       .dwtag  DW_TAG_member
     495                      .dwattr $C$DW$104, DW_AT_type(*$C$DW$T$21)
     496                      .dwattr $C$DW$104, DW_AT_name("pHMM2phone")
     497                      .dwattr $C$DW$104, DW_AT_TI_symbol_name("_pHMM2phone")
     498                      .dwattr $C$DW$104, DW_AT_data_member_location[DW_OP_plus_uconst 0x8]
     499                      .dwattr $C$DW$104, DW_AT_accessibility(DW_ACCESS_public)
     500              $C$DW$105       .dwtag  DW_TAG_member
     501                      .dwattr $C$DW$105, DW_AT_type(*$C$DW$T$22)
     502                      .dwattr $C$DW$105, DW_AT_name("hlrTransformIndex")
     503                      .dwattr $C$DW$105, DW_AT_TI_symbol_name("_hlrTransformIndex")
     504                      .dwattr $C$DW$105, DW_AT_data_member_location[DW_OP_plus_uconst 0xa]
     505                      .dwattr $C$DW$105, DW_AT_accessibility(DW_ACCESS_public)
     506              $C$DW$106       .dwtag  DW_TAG_member
     507                      .dwattr $C$DW$106, DW_AT_type(*$C$DW$T$20)
     508                      .dwattr $C$DW$106, DW_AT_name("hlr_TRANSFORM_SIZE")
     509                      .dwattr $C$DW$106, DW_AT_TI_symbol_name("_hlr_TRANSFORM_SIZE")
     510                      .dwattr $C$DW$106, DW_AT_data_member_location[DW_OP_plus_uconst 0xc]
     511                      .dwattr $C$DW$106, DW_AT_accessibility(DW_ACCESS_public)
     512              $C$DW$107       .dwtag  DW_TAG_member
     513                      .dwattr $C$DW$107, DW_AT_type(*$C$DW$T$21)
     514                      .dwattr $C$DW$107, DW_AT_name("hlrTransforms")
     515                      .dwattr $C$DW$107, DW_AT_TI_symbol_name("_hlrTransforms")
     516                      .dwattr $C$DW$107, DW_AT_data_member_location[DW_OP_plus_uconst 0xe]
     517                      .dwattr $C$DW$107, DW_AT_accessibility(DW_ACCESS_public)
     518              $C$DW$108       .dwtag  DW_TAG_member
     519                      .dwattr $C$DW$108, DW_AT_type(*$C$DW$T$21)
     520                      .dwattr $C$DW$108, DW_AT_name("pSegStat_dif1")
     521                      .dwattr $C$DW$108, DW_AT_TI_symbol_name("_pSegStat_dif1")
     522                      .dwattr $C$DW$108, DW_AT_data_member_location[DW_OP_plus_uconst 0x10]
TMS320C55x Assembler PC v4.4.1 Wed Sep 13 16:34:08 2017

Tools Copyright (c) 1996-2012 Texas Instruments Incorporated
C:\Users\a0221074\AppData\Local\Temp\1594410                         PAGE   12

     523                      .dwattr $C$DW$108, DW_AT_accessibility(DW_ACCESS_public)
     524              $C$DW$109       .dwtag  DW_TAG_member
     525                      .dwattr $C$DW$109, DW_AT_type(*$C$DW$T$21)
     526                      .dwattr $C$DW$109, DW_AT_name("pSegStat_dif2")
     527                      .dwattr $C$DW$109, DW_AT_TI_symbol_name("_pSegStat_dif2")
     528                      .dwattr $C$DW$109, DW_AT_data_member_location[DW_OP_plus_uconst 0x12]
     529                      .dwattr $C$DW$109, DW_AT_accessibility(DW_ACCESS_public)
     530              $C$DW$110       .dwtag  DW_TAG_member
     531                      .dwattr $C$DW$110, DW_AT_type(*$C$DW$T$21)
     532                      .dwattr $C$DW$110, DW_AT_name("pEnhanced")
     533                      .dwattr $C$DW$110, DW_AT_TI_symbol_name("_pEnhanced")
     534                      .dwattr $C$DW$110, DW_AT_data_member_location[DW_OP_plus_uconst 0x14]
     535                      .dwattr $C$DW$110, DW_AT_accessibility(DW_ACCESS_public)
     536              $C$DW$111       .dwtag  DW_TAG_member
     537                      .dwattr $C$DW$111, DW_AT_type(*$C$DW$T$21)
     538                      .dwattr $C$DW$111, DW_AT_name("bk_node_cnt")
     539                      .dwattr $C$DW$111, DW_AT_TI_symbol_name("_bk_node_cnt")
     540                      .dwattr $C$DW$111, DW_AT_data_member_location[DW_OP_plus_uconst 0x16]
     541                      .dwattr $C$DW$111, DW_AT_accessibility(DW_ACCESS_public)
     542                      .dwendtag $C$DW$T$23
     543              
     544              $C$DW$T$62      .dwtag  DW_TAG_typedef, DW_AT_name("FeaHLRAccType")
     545                      .dwattr $C$DW$T$62, DW_AT_type(*$C$DW$T$23)
     546                      .dwattr $C$DW$T$62, DW_AT_language(DW_LANG_C)
     547              $C$DW$T$63      .dwtag  DW_TAG_pointer_type
     548                      .dwattr $C$DW$T$63, DW_AT_type(*$C$DW$T$62)
     549                      .dwattr $C$DW$T$63, DW_AT_address_class(0x17)
     550              
     551              $C$DW$T$24      .dwtag  DW_TAG_structure_type
     552                      .dwattr $C$DW$T$24, DW_AT_byte_size(0x03)
     553              $C$DW$112       .dwtag  DW_TAG_member
     554                      .dwattr $C$DW$112, DW_AT_type(*$C$DW$T$9)
     555                      .dwattr $C$DW$112, DW_AT_name("sym_code")
     556                      .dwattr $C$DW$112, DW_AT_TI_symbol_name("_sym_code")
     557                      .dwattr $C$DW$112, DW_AT_data_member_location[DW_OP_plus_uconst 0x0]
     558                      .dwattr $C$DW$112, DW_AT_accessibility(DW_ACCESS_public)
     559              $C$DW$113       .dwtag  DW_TAG_member
     560                      .dwattr $C$DW$113, DW_AT_type(*$C$DW$T$9)
     561                      .dwattr $C$DW$113, DW_AT_name("start_cell")
     562                      .dwattr $C$DW$113, DW_AT_TI_symbol_name("_start_cell")
     563                      .dwattr $C$DW$113, DW_AT_data_member_location[DW_OP_plus_uconst 0x1]
     564                      .dwattr $C$DW$113, DW_AT_accessibility(DW_ACCESS_public)
     565              $C$DW$114       .dwtag  DW_TAG_member
     566                      .dwattr $C$DW$114, DW_AT_type(*$C$DW$T$9)
     567                      .dwattr $C$DW$114, DW_AT_name("depth")
     568                      .dwattr $C$DW$114, DW_AT_TI_symbol_name("_depth")
     569                      .dwattr $C$DW$114, DW_AT_data_member_location[DW_OP_plus_uconst 0x2]
     570                      .dwattr $C$DW$114, DW_AT_accessibility(DW_ACCESS_public)
     571                      .dwendtag $C$DW$T$24
     572              
     573              $C$DW$T$65      .dwtag  DW_TAG_typedef, DW_AT_name("SymCell")
     574                      .dwattr $C$DW$T$65, DW_AT_type(*$C$DW$T$24)
     575                      .dwattr $C$DW$T$65, DW_AT_language(DW_LANG_C)
     576              $C$DW$T$66      .dwtag  DW_TAG_pointer_type
     577                      .dwattr $C$DW$T$66, DW_AT_type(*$C$DW$T$65)
TMS320C55x Assembler PC v4.4.1 Wed Sep 13 16:34:08 2017

Tools Copyright (c) 1996-2012 Texas Instruments Incorporated
C:\Users\a0221074\AppData\Local\Temp\1594410                         PAGE   13

     578                      .dwattr $C$DW$T$66, DW_AT_address_class(0x17)
     579              
     580              $C$DW$T$25      .dwtag  DW_TAG_structure_type
     581                      .dwattr $C$DW$T$25, DW_AT_byte_size(0x03)
     582              $C$DW$115       .dwtag  DW_TAG_member
     583                      .dwattr $C$DW$115, DW_AT_type(*$C$DW$T$8)
     584                      .dwattr $C$DW$115, DW_AT_name("scr")
     585                      .dwattr $C$DW$115, DW_AT_TI_symbol_name("_scr")
     586                      .dwattr $C$DW$115, DW_AT_data_member_location[DW_OP_plus_uconst 0x0]
     587                      .dwattr $C$DW$115, DW_AT_accessibility(DW_ACCESS_public)
     588              $C$DW$116       .dwtag  DW_TAG_member
     589                      .dwattr $C$DW$116, DW_AT_type(*$C$DW$T$9)
     590                      .dwattr $C$DW$116, DW_AT_name("sym")
     591                      .dwattr $C$DW$116, DW_AT_TI_symbol_name("_sym")
     592                      .dwattr $C$DW$116, DW_AT_data_member_location[DW_OP_plus_uconst 0x1]
     593                      .dwattr $C$DW$116, DW_AT_accessibility(DW_ACCESS_public)
     594              $C$DW$117       .dwtag  DW_TAG_member
     595                      .dwattr $C$DW$117, DW_AT_type(*$C$DW$T$9)
     596                      .dwattr $C$DW$117, DW_AT_name("frm")
     597                      .dwattr $C$DW$117, DW_AT_TI_symbol_name("_frm")
     598                      .dwattr $C$DW$117, DW_AT_data_member_location[DW_OP_plus_uconst 0x2]
     599                      .dwattr $C$DW$117, DW_AT_accessibility(DW_ACCESS_public)
     600                      .dwendtag $C$DW$T$25
     601              
     602              $C$DW$T$67      .dwtag  DW_TAG_typedef, DW_AT_name("StateCell")
     603                      .dwattr $C$DW$T$67, DW_AT_type(*$C$DW$T$25)
     604                      .dwattr $C$DW$T$67, DW_AT_language(DW_LANG_C)
     605              $C$DW$T$68      .dwtag  DW_TAG_pointer_type
     606                      .dwattr $C$DW$T$68, DW_AT_type(*$C$DW$T$67)
     607                      .dwattr $C$DW$T$68, DW_AT_address_class(0x17)
     608              
     609              $C$DW$T$26      .dwtag  DW_TAG_structure_type
     610                      .dwattr $C$DW$T$26, DW_AT_byte_size(0x02)
     611              $C$DW$118       .dwtag  DW_TAG_member
     612                      .dwattr $C$DW$118, DW_AT_type(*$C$DW$T$9)
     613                      .dwattr $C$DW$118, DW_AT_name("frm")
     614                      .dwattr $C$DW$118, DW_AT_TI_symbol_name("_frm")
     615                      .dwattr $C$DW$118, DW_AT_data_member_location[DW_OP_plus_uconst 0x0]
     616                      .dwattr $C$DW$118, DW_AT_accessibility(DW_ACCESS_public)
     617              $C$DW$119       .dwtag  DW_TAG_member
     618                      .dwattr $C$DW$119, DW_AT_type(*$C$DW$T$9)
     619                      .dwattr $C$DW$119, DW_AT_name("beam_idx")
     620                      .dwattr $C$DW$119, DW_AT_TI_symbol_name("_beam_idx")
     621                      .dwattr $C$DW$119, DW_AT_data_member_location[DW_OP_plus_uconst 0x1]
     622                      .dwattr $C$DW$119, DW_AT_accessibility(DW_ACCESS_public)
     623                      .dwendtag $C$DW$T$26
     624              
     625              $C$DW$T$71      .dwtag  DW_TAG_typedef, DW_AT_name("TimeType")
     626                      .dwattr $C$DW$T$71, DW_AT_type(*$C$DW$T$26)
     627                      .dwattr $C$DW$T$71, DW_AT_language(DW_LANG_C)
     628              $C$DW$T$72      .dwtag  DW_TAG_pointer_type
     629                      .dwattr $C$DW$T$72, DW_AT_type(*$C$DW$T$71)
     630                      .dwattr $C$DW$T$72, DW_AT_address_class(0x17)
     631              
     632              $C$DW$T$28      .dwtag  DW_TAG_structure_type
TMS320C55x Assembler PC v4.4.1 Wed Sep 13 16:34:08 2017

Tools Copyright (c) 1996-2012 Texas Instruments Incorporated
C:\Users\a0221074\AppData\Local\Temp\1594410                         PAGE   14

     633                      .dwattr $C$DW$T$28, DW_AT_byte_size(0x08)
     634              $C$DW$120       .dwtag  DW_TAG_member
     635                      .dwattr $C$DW$120, DW_AT_type(*$C$DW$T$9)
     636                      .dwattr $C$DW$120, DW_AT_name("n_hmm")
     637                      .dwattr $C$DW$120, DW_AT_TI_symbol_name("_n_hmm")
     638                      .dwattr $C$DW$120, DW_AT_data_member_location[DW_OP_plus_uconst 0x0]
     639                      .dwattr $C$DW$120, DW_AT_accessibility(DW_ACCESS_public)
     640              $C$DW$121       .dwtag  DW_TAG_member
     641                      .dwattr $C$DW$121, DW_AT_type(*$C$DW$T$9)
     642                      .dwattr $C$DW$121, DW_AT_name("n_sym")
     643                      .dwattr $C$DW$121, DW_AT_TI_symbol_name("_n_sym")
     644                      .dwattr $C$DW$121, DW_AT_data_member_location[DW_OP_plus_uconst 0x1]
     645                      .dwattr $C$DW$121, DW_AT_accessibility(DW_ACCESS_public)
     646              $C$DW$122       .dwtag  DW_TAG_member
     647                      .dwattr $C$DW$122, DW_AT_type(*$C$DW$T$9)
     648                      .dwattr $C$DW$122, DW_AT_name("n_word")
     649                      .dwattr $C$DW$122, DW_AT_TI_symbol_name("_n_word")
     650                      .dwattr $C$DW$122, DW_AT_data_member_location[DW_OP_plus_uconst 0x2]
     651                      .dwattr $C$DW$122, DW_AT_accessibility(DW_ACCESS_public)
     652              $C$DW$123       .dwtag  DW_TAG_member
     653                      .dwattr $C$DW$123, DW_AT_type(*$C$DW$T$9)
     654                      .dwattr $C$DW$123, DW_AT_name("n_set")
     655                      .dwattr $C$DW$123, DW_AT_TI_symbol_name("_n_set")
     656                      .dwattr $C$DW$123, DW_AT_data_member_location[DW_OP_plus_uconst 0x3]
     657                      .dwattr $C$DW$123, DW_AT_accessibility(DW_ACCESS_public)
     658              $C$DW$124       .dwtag  DW_TAG_member
     659                      .dwattr $C$DW$124, DW_AT_type(*$C$DW$T$9)
     660                      .dwattr $C$DW$124, DW_AT_name("n_hmm_set")
     661                      .dwattr $C$DW$124, DW_AT_TI_symbol_name("_n_hmm_set")
     662                      .dwattr $C$DW$124, DW_AT_data_member_location[DW_OP_plus_uconst 0x4]
     663                      .dwattr $C$DW$124, DW_AT_accessibility(DW_ACCESS_public)
     664              $C$DW$125       .dwtag  DW_TAG_member
     665                      .dwattr $C$DW$125, DW_AT_type(*$C$DW$T$9)
     666                      .dwattr $C$DW$125, DW_AT_name("start")
     667                      .dwattr $C$DW$125, DW_AT_TI_symbol_name("_start")
     668                      .dwattr $C$DW$125, DW_AT_data_member_location[DW_OP_plus_uconst 0x5]
     669                      .dwattr $C$DW$125, DW_AT_accessibility(DW_ACCESS_public)
     670              $C$DW$126       .dwtag  DW_TAG_member
     671                      .dwattr $C$DW$126, DW_AT_type(*$C$DW$T$9)
     672                      .dwattr $C$DW$126, DW_AT_name("stop")
     673                      .dwattr $C$DW$126, DW_AT_TI_symbol_name("_stop")
     674                      .dwattr $C$DW$126, DW_AT_data_member_location[DW_OP_plus_uconst 0x6]
     675                      .dwattr $C$DW$126, DW_AT_accessibility(DW_ACCESS_public)
     676              $C$DW$127       .dwtag  DW_TAG_member
     677                      .dwattr $C$DW$127, DW_AT_type(*$C$DW$T$27)
     678                      .dwattr $C$DW$127, DW_AT_name("symlist")
     679                      .dwattr $C$DW$127, DW_AT_TI_symbol_name("_symlist")
     680                      .dwattr $C$DW$127, DW_AT_data_member_location[DW_OP_plus_uconst 0x7]
     681                      .dwattr $C$DW$127, DW_AT_accessibility(DW_ACCESS_public)
     682                      .dwendtag $C$DW$T$28
     683              
     684              $C$DW$T$75      .dwtag  DW_TAG_typedef, DW_AT_name("TransType")
     685                      .dwattr $C$DW$T$75, DW_AT_type(*$C$DW$T$28)
     686                      .dwattr $C$DW$T$75, DW_AT_language(DW_LANG_C)
     687              $C$DW$T$76      .dwtag  DW_TAG_pointer_type
TMS320C55x Assembler PC v4.4.1 Wed Sep 13 16:34:08 2017

Tools Copyright (c) 1996-2012 Texas Instruments Incorporated
C:\Users\a0221074\AppData\Local\Temp\1594410                         PAGE   15

     688                      .dwattr $C$DW$T$76, DW_AT_type(*$C$DW$T$75)
     689                      .dwattr $C$DW$T$76, DW_AT_address_class(0x17)
     690              
     691              $C$DW$T$29      .dwtag  DW_TAG_structure_type
     692                      .dwattr $C$DW$T$29, DW_AT_byte_size(0x02)
     693              $C$DW$128       .dwtag  DW_TAG_member
     694                      .dwattr $C$DW$128, DW_AT_type(*$C$DW$T$9)
     695                      .dwattr $C$DW$128, DW_AT_name("high_pos")
     696                      .dwattr $C$DW$128, DW_AT_TI_symbol_name("_high_pos")
     697                      .dwattr $C$DW$128, DW_AT_data_member_location[DW_OP_plus_uconst 0x0]
     698                      .dwattr $C$DW$128, DW_AT_accessibility(DW_ACCESS_public)
     699              $C$DW$129       .dwtag  DW_TAG_member
     700                      .dwattr $C$DW$129, DW_AT_type(*$C$DW$T$9)
     701                      .dwattr $C$DW$129, DW_AT_name("cur_pos")
     702                      .dwattr $C$DW$129, DW_AT_TI_symbol_name("_cur_pos")
     703                      .dwattr $C$DW$129, DW_AT_data_member_location[DW_OP_plus_uconst 0x1]
     704                      .dwattr $C$DW$129, DW_AT_accessibility(DW_ACCESS_public)
     705                      .dwendtag $C$DW$T$29
     706              
     707              $C$DW$T$30      .dwtag  DW_TAG_typedef, DW_AT_name("PosType")
     708                      .dwattr $C$DW$T$30, DW_AT_type(*$C$DW$T$29)
     709                      .dwattr $C$DW$T$30, DW_AT_language(DW_LANG_C)
     710              
     711              $C$DW$T$31      .dwtag  DW_TAG_array_type
     712                      .dwattr $C$DW$T$31, DW_AT_type(*$C$DW$T$30)
     713                      .dwattr $C$DW$T$31, DW_AT_language(DW_LANG_C)
     714                      .dwattr $C$DW$T$31, DW_AT_byte_size(0x04)
     715              $C$DW$130       .dwtag  DW_TAG_subrange_type
     716                      .dwattr $C$DW$130, DW_AT_upper_bound(0x01)
     717                      .dwendtag $C$DW$T$31
     718              
     719              
     720              $C$DW$T$32      .dwtag  DW_TAG_structure_type
     721                      .dwattr $C$DW$T$32, DW_AT_byte_size(0x0a)
     722              $C$DW$131       .dwtag  DW_TAG_member
     723                      .dwattr $C$DW$131, DW_AT_type(*$C$DW$T$30)
     724                      .dwattr $C$DW$131, DW_AT_name("state")
     725                      .dwattr $C$DW$131, DW_AT_TI_symbol_name("_state")
     726                      .dwattr $C$DW$131, DW_AT_data_member_location[DW_OP_plus_uconst 0x0]
     727                      .dwattr $C$DW$131, DW_AT_accessibility(DW_ACCESS_public)
     728              $C$DW$132       .dwtag  DW_TAG_member
     729                      .dwattr $C$DW$132, DW_AT_type(*$C$DW$T$31)
     730                      .dwattr $C$DW$132, DW_AT_name("sym")
     731                      .dwattr $C$DW$132, DW_AT_TI_symbol_name("_sym")
     732                      .dwattr $C$DW$132, DW_AT_data_member_location[DW_OP_plus_uconst 0x2]
     733                      .dwattr $C$DW$132, DW_AT_accessibility(DW_ACCESS_public)
     734              $C$DW$133       .dwtag  DW_TAG_member
     735                      .dwattr $C$DW$133, DW_AT_type(*$C$DW$T$30)
     736                      .dwattr $C$DW$133, DW_AT_name("beam")
     737                      .dwattr $C$DW$133, DW_AT_TI_symbol_name("_beam")
     738                      .dwattr $C$DW$133, DW_AT_data_member_location[DW_OP_plus_uconst 0x6]
     739                      .dwattr $C$DW$133, DW_AT_accessibility(DW_ACCESS_public)
     740              $C$DW$134       .dwtag  DW_TAG_member
     741                      .dwattr $C$DW$134, DW_AT_type(*$C$DW$T$30)
     742                      .dwattr $C$DW$134, DW_AT_name("time")
TMS320C55x Assembler PC v4.4.1 Wed Sep 13 16:34:08 2017

Tools Copyright (c) 1996-2012 Texas Instruments Incorporated
C:\Users\a0221074\AppData\Local\Temp\1594410                         PAGE   16

     743                      .dwattr $C$DW$134, DW_AT_TI_symbol_name("_time")
     744                      .dwattr $C$DW$134, DW_AT_data_member_location[DW_OP_plus_uconst 0x8]
     745                      .dwattr $C$DW$134, DW_AT_accessibility(DW_ACCESS_public)
     746                      .dwendtag $C$DW$T$32
     747              
     748              $C$DW$T$79      .dwtag  DW_TAG_typedef, DW_AT_name("EvalStat")
     749                      .dwattr $C$DW$T$79, DW_AT_type(*$C$DW$T$32)
     750                      .dwattr $C$DW$T$79, DW_AT_language(DW_LANG_C)
     751              
     752              $C$DW$T$34      .dwtag  DW_TAG_structure_type
     753                      .dwattr $C$DW$T$34, DW_AT_byte_size(0x03)
     754              $C$DW$135       .dwtag  DW_TAG_member
     755                      .dwattr $C$DW$135, DW_AT_type(*$C$DW$T$33)
     756                      .dwattr $C$DW$135, DW_AT_name("cur_sym")
     757                      .dwattr $C$DW$135, DW_AT_TI_symbol_name("_cur_sym")
     758                      .dwattr $C$DW$135, DW_AT_data_member_location[DW_OP_plus_uconst 0x0]
     759                      .dwattr $C$DW$135, DW_AT_accessibility(DW_ACCESS_public)
     760              $C$DW$136       .dwtag  DW_TAG_member
     761                      .dwattr $C$DW$136, DW_AT_type(*$C$DW$T$9)
     762                      .dwattr $C$DW$136, DW_AT_name("cur_state")
     763                      .dwattr $C$DW$136, DW_AT_TI_symbol_name("_cur_state")
     764                      .dwattr $C$DW$136, DW_AT_data_member_location[DW_OP_plus_uconst 0x2]
     765                      .dwattr $C$DW$136, DW_AT_accessibility(DW_ACCESS_public)
     766                      .dwendtag $C$DW$T$34
     767              
     768              $C$DW$T$80      .dwtag  DW_TAG_typedef, DW_AT_name("EvalIdx")
     769                      .dwattr $C$DW$T$80, DW_AT_type(*$C$DW$T$34)
     770                      .dwattr $C$DW$T$80, DW_AT_language(DW_LANG_C)
     771              
     772              $C$DW$T$81      .dwtag  DW_TAG_array_type
     773                      .dwattr $C$DW$T$81, DW_AT_type(*$C$DW$T$80)
     774                      .dwattr $C$DW$T$81, DW_AT_language(DW_LANG_C)
     775                      .dwattr $C$DW$T$81, DW_AT_byte_size(0x06)
     776              $C$DW$137       .dwtag  DW_TAG_subrange_type
     777                      .dwattr $C$DW$137, DW_AT_upper_bound(0x01)
     778                      .dwendtag $C$DW$T$81
     779              
     780              
     781              $C$DW$T$36      .dwtag  DW_TAG_structure_type
     782                      .dwattr $C$DW$T$36, DW_AT_byte_size(0x06)
     783              $C$DW$138       .dwtag  DW_TAG_member
     784                      .dwattr $C$DW$138, DW_AT_type(*$C$DW$T$9)
     785                      .dwattr $C$DW$138, DW_AT_name("max_nbr_syms")
     786                      .dwattr $C$DW$138, DW_AT_TI_symbol_name("_max_nbr_syms")
     787                      .dwattr $C$DW$138, DW_AT_data_member_location[DW_OP_plus_uconst 0x0]
     788                      .dwattr $C$DW$138, DW_AT_accessibility(DW_ACCESS_public)
     789              $C$DW$139       .dwtag  DW_TAG_member
     790                      .dwattr $C$DW$139, DW_AT_type(*$C$DW$T$8)
     791                      .dwattr $C$DW$139, DW_AT_name("nbr_syms")
     792                      .dwattr $C$DW$139, DW_AT_TI_symbol_name("_nbr_syms")
     793                      .dwattr $C$DW$139, DW_AT_data_member_location[DW_OP_plus_uconst 0x1]
     794                      .dwattr $C$DW$139, DW_AT_accessibility(DW_ACCESS_public)
     795              $C$DW$140       .dwtag  DW_TAG_member
     796                      .dwattr $C$DW$140, DW_AT_type(*$C$DW$T$21)
     797                      .dwattr $C$DW$140, DW_AT_name("sym2pos")
TMS320C55x Assembler PC v4.4.1 Wed Sep 13 16:34:08 2017

Tools Copyright (c) 1996-2012 Texas Instruments Incorporated
C:\Users\a0221074\AppData\Local\Temp\1594410                         PAGE   17

     798                      .dwattr $C$DW$140, DW_AT_TI_symbol_name("_sym2pos")
     799                      .dwattr $C$DW$140, DW_AT_data_member_location[DW_OP_plus_uconst 0x2]
     800                      .dwattr $C$DW$140, DW_AT_accessibility(DW_ACCESS_public)
     801              $C$DW$141       .dwtag  DW_TAG_member
     802                      .dwattr $C$DW$141, DW_AT_type(*$C$DW$T$35)
     803                      .dwattr $C$DW$141, DW_AT_name("syms")
     804                      .dwattr $C$DW$141, DW_AT_TI_symbol_name("_syms")
     805                      .dwattr $C$DW$141, DW_AT_data_member_location[DW_OP_plus_uconst 0x4]
     806                      .dwattr $C$DW$141, DW_AT_accessibility(DW_ACCESS_public)
     807                      .dwendtag $C$DW$T$36
     808              
     809              $C$DW$T$82      .dwtag  DW_TAG_typedef, DW_AT_name("Sym2PosType")
     810                      .dwattr $C$DW$T$82, DW_AT_type(*$C$DW$T$36)
     811                      .dwattr $C$DW$T$82, DW_AT_language(DW_LANG_C)
     812              
     813              $C$DW$T$38      .dwtag  DW_TAG_structure_type
     814                      .dwattr $C$DW$T$38, DW_AT_byte_size(0x16)
     815              $C$DW$142       .dwtag  DW_TAG_member
     816                      .dwattr $C$DW$142, DW_AT_type(*$C$DW$T$8)
     817                      .dwattr $C$DW$142, DW_AT_name("scr")
     818                      .dwattr $C$DW$142, DW_AT_TI_symbol_name("_scr")
     819                      .dwattr $C$DW$142, DW_AT_data_member_location[DW_OP_plus_uconst 0x0]
     820                      .dwattr $C$DW$142, DW_AT_accessibility(DW_ACCESS_public)
     821              $C$DW$143       .dwtag  DW_TAG_member
     822                      .dwattr $C$DW$143, DW_AT_type(*$C$DW$T$8)
     823                      .dwattr $C$DW$143, DW_AT_name("n_ans")
     824                      .dwattr $C$DW$143, DW_AT_TI_symbol_name("_n_ans")
     825                      .dwattr $C$DW$143, DW_AT_data_member_location[DW_OP_plus_uconst 0x1]
     826                      .dwattr $C$DW$143, DW_AT_accessibility(DW_ACCESS_public)
     827              $C$DW$144       .dwtag  DW_TAG_member
     828                      .dwattr $C$DW$144, DW_AT_type(*$C$DW$T$37)
     829                      .dwattr $C$DW$144, DW_AT_name("answers")
     830                      .dwattr $C$DW$144, DW_AT_TI_symbol_name("_answers")
     831                      .dwattr $C$DW$144, DW_AT_data_member_location[DW_OP_plus_uconst 0x2]
     832                      .dwattr $C$DW$144, DW_AT_accessibility(DW_ACCESS_public)
     833                      .dwendtag $C$DW$T$38
     834              
     835              $C$DW$T$40      .dwtag  DW_TAG_typedef, DW_AT_name("NB_element")
     836                      .dwattr $C$DW$T$40, DW_AT_type(*$C$DW$T$38)
     837                      .dwattr $C$DW$T$40, DW_AT_language(DW_LANG_C)
     838              
     839              $C$DW$T$41      .dwtag  DW_TAG_array_type
     840                      .dwattr $C$DW$T$41, DW_AT_type(*$C$DW$T$40)
     841                      .dwattr $C$DW$T$41, DW_AT_language(DW_LANG_C)
     842                      .dwattr $C$DW$T$41, DW_AT_byte_size(0x294)
     843              $C$DW$145       .dwtag  DW_TAG_subrange_type
     844                      .dwattr $C$DW$145, DW_AT_upper_bound(0x1d)
     845                      .dwendtag $C$DW$T$41
     846              
     847              
     848              $C$DW$T$42      .dwtag  DW_TAG_structure_type
     849                      .dwattr $C$DW$T$42, DW_AT_byte_size(0x2b3)
     850              $C$DW$146       .dwtag  DW_TAG_member
     851                      .dwattr $C$DW$146, DW_AT_type(*$C$DW$T$8)
     852                      .dwattr $C$DW$146, DW_AT_name("n_bests")
TMS320C55x Assembler PC v4.4.1 Wed Sep 13 16:34:08 2017

Tools Copyright (c) 1996-2012 Texas Instruments Incorporated
C:\Users\a0221074\AppData\Local\Temp\1594410                         PAGE   18

     853                      .dwattr $C$DW$146, DW_AT_TI_symbol_name("_n_bests")
     854                      .dwattr $C$DW$146, DW_AT_data_member_location[DW_OP_plus_uconst 0x0]
     855                      .dwattr $C$DW$146, DW_AT_accessibility(DW_ACCESS_public)
     856              $C$DW$147       .dwtag  DW_TAG_member
     857                      .dwattr $C$DW$147, DW_AT_type(*$C$DW$T$39)
     858                      .dwattr $C$DW$147, DW_AT_name("best_idx")
     859                      .dwattr $C$DW$147, DW_AT_TI_symbol_name("_best_idx")
     860                      .dwattr $C$DW$147, DW_AT_data_member_location[DW_OP_plus_uconst 0x1]
     861                      .dwattr $C$DW$147, DW_AT_accessibility(DW_ACCESS_public)
     862              $C$DW$148       .dwtag  DW_TAG_member
     863                      .dwattr $C$DW$148, DW_AT_type(*$C$DW$T$41)
     864                      .dwattr $C$DW$148, DW_AT_name("elem")
     865                      .dwattr $C$DW$148, DW_AT_TI_symbol_name("_elem")
     866                      .dwattr $C$DW$148, DW_AT_data_member_location[DW_OP_plus_uconst 0x1f]
     867                      .dwattr $C$DW$148, DW_AT_accessibility(DW_ACCESS_public)
     868                      .dwendtag $C$DW$T$42
     869              
     870              $C$DW$T$83      .dwtag  DW_TAG_typedef, DW_AT_name("NB_words")
     871                      .dwattr $C$DW$T$83, DW_AT_type(*$C$DW$T$42)
     872                      .dwattr $C$DW$T$83, DW_AT_language(DW_LANG_C)
     873              
     874              $C$DW$T$43      .dwtag  DW_TAG_structure_type
     875                      .dwattr $C$DW$T$43, DW_AT_byte_size(0x14)
     876              $C$DW$149       .dwtag  DW_TAG_member
     877                      .dwattr $C$DW$149, DW_AT_type(*$C$DW$T$20)
     878                      .dwattr $C$DW$149, DW_AT_name("alpha_p")
     879                      .dwattr $C$DW$149, DW_AT_TI_symbol_name("_alpha_p")
     880                      .dwattr $C$DW$149, DW_AT_data_member_location[DW_OP_plus_uconst 0x0]
     881                      .dwattr $C$DW$149, DW_AT_accessibility(DW_ACCESS_public)
     882              $C$DW$150       .dwtag  DW_TAG_member
     883                      .dwattr $C$DW$150, DW_AT_type(*$C$DW$T$20)
     884                      .dwattr $C$DW$150, DW_AT_name("sAlpha")
     885                      .dwattr $C$DW$150, DW_AT_TI_symbol_name("_sAlpha")
     886                      .dwattr $C$DW$150, DW_AT_data_member_location[DW_OP_plus_uconst 0x1]
     887                      .dwattr $C$DW$150, DW_AT_accessibility(DW_ACCESS_public)
     888              $C$DW$151       .dwtag  DW_TAG_member
     889                      .dwattr $C$DW$151, DW_AT_type(*$C$DW$T$8)
     890                      .dwattr $C$DW$151, DW_AT_name("sBeta")
     891                      .dwattr $C$DW$151, DW_AT_TI_symbol_name("_sBeta")
     892                      .dwattr $C$DW$151, DW_AT_data_member_location[DW_OP_plus_uconst 0x2]
     893                      .dwattr $C$DW$151, DW_AT_accessibility(DW_ACCESS_public)
     894              $C$DW$152       .dwtag  DW_TAG_member
     895                      .dwattr $C$DW$152, DW_AT_type(*$C$DW$T$8)
     896                      .dwattr $C$DW$152, DW_AT_name("lambdaLTEhigherE")
     897                      .dwattr $C$DW$152, DW_AT_TI_symbol_name("_lambdaLTEhigherE")
     898                      .dwattr $C$DW$152, DW_AT_data_member_location[DW_OP_plus_uconst 0x3]
     899                      .dwattr $C$DW$152, DW_AT_accessibility(DW_ACCESS_public)
     900              $C$DW$153       .dwtag  DW_TAG_member
     901                      .dwattr $C$DW$153, DW_AT_type(*$C$DW$T$8)
     902                      .dwattr $C$DW$153, DW_AT_name("frm_count")
     903                      .dwattr $C$DW$153, DW_AT_TI_symbol_name("_frm_count")
     904                      .dwattr $C$DW$153, DW_AT_data_member_location[DW_OP_plus_uconst 0x4]
     905                      .dwattr $C$DW$153, DW_AT_accessibility(DW_ACCESS_public)
     906              $C$DW$154       .dwtag  DW_TAG_member
     907                      .dwattr $C$DW$154, DW_AT_type(*$C$DW$T$20)
TMS320C55x Assembler PC v4.4.1 Wed Sep 13 16:34:08 2017

Tools Copyright (c) 1996-2012 Texas Instruments Incorporated
C:\Users\a0221074\AppData\Local\Temp\1594410                         PAGE   19

     908                      .dwattr $C$DW$154, DW_AT_name("prob_sp")
     909                      .dwattr $C$DW$154, DW_AT_TI_symbol_name("_prob_sp")
     910                      .dwattr $C$DW$154, DW_AT_data_member_location[DW_OP_plus_uconst 0x5]
     911                      .dwattr $C$DW$154, DW_AT_accessibility(DW_ACCESS_public)
     912              $C$DW$155       .dwtag  DW_TAG_member
     913                      .dwattr $C$DW$155, DW_AT_type(*$C$DW$T$21)
     914                      .dwattr $C$DW$155, DW_AT_name("s_noise_floor")
     915                      .dwattr $C$DW$155, DW_AT_TI_symbol_name("_s_noise_floor")
     916                      .dwattr $C$DW$155, DW_AT_data_member_location[DW_OP_plus_uconst 0x6]
     917                      .dwattr $C$DW$155, DW_AT_accessibility(DW_ACCESS_public)
     918              $C$DW$156       .dwtag  DW_TAG_member
     919                      .dwattr $C$DW$156, DW_AT_type(*$C$DW$T$21)
     920                      .dwattr $C$DW$156, DW_AT_name("snr")
     921                      .dwattr $C$DW$156, DW_AT_TI_symbol_name("_snr")
     922                      .dwattr $C$DW$156, DW_AT_data_member_location[DW_OP_plus_uconst 0x8]
     923                      .dwattr $C$DW$156, DW_AT_accessibility(DW_ACCESS_public)
     924              $C$DW$157       .dwtag  DW_TAG_member
     925                      .dwattr $C$DW$157, DW_AT_type(*$C$DW$T$21)
     926                      .dwattr $C$DW$157, DW_AT_name("ps_long_term_noise")
     927                      .dwattr $C$DW$157, DW_AT_TI_symbol_name("_ps_long_term_noise")
     928                      .dwattr $C$DW$157, DW_AT_data_member_location[DW_OP_plus_uconst 0xa]
     929                      .dwattr $C$DW$157, DW_AT_accessibility(DW_ACCESS_public)
     930              $C$DW$158       .dwtag  DW_TAG_member
     931                      .dwattr $C$DW$158, DW_AT_type(*$C$DW$T$8)
     932                      .dwattr $C$DW$158, DW_AT_name("frmEn")
     933                      .dwattr $C$DW$158, DW_AT_TI_symbol_name("_frmEn")
     934                      .dwattr $C$DW$158, DW_AT_data_member_location[DW_OP_plus_uconst 0xc]
     935                      .dwattr $C$DW$158, DW_AT_accessibility(DW_ACCESS_public)
     936              $C$DW$159       .dwtag  DW_TAG_member
     937                      .dwattr $C$DW$159, DW_AT_type(*$C$DW$T$8)
     938                      .dwattr $C$DW$159, DW_AT_name("meanEn")
     939                      .dwattr $C$DW$159, DW_AT_TI_symbol_name("_meanEn")
     940                      .dwattr $C$DW$159, DW_AT_data_member_location[DW_OP_plus_uconst 0xd]
     941                      .dwattr $C$DW$159, DW_AT_accessibility(DW_ACCESS_public)
     942              $C$DW$160       .dwtag  DW_TAG_member
     943                      .dwattr $C$DW$160, DW_AT_type(*$C$DW$T$8)
     944                      .dwattr $C$DW$160, DW_AT_name("prevMeanEn")
     945                      .dwattr $C$DW$160, DW_AT_TI_symbol_name("_prevMeanEn")
     946                      .dwattr $C$DW$160, DW_AT_data_member_location[DW_OP_plus_uconst 0xe]
     947                      .dwattr $C$DW$160, DW_AT_accessibility(DW_ACCESS_public)
     948              $C$DW$161       .dwtag  DW_TAG_member
     949                      .dwattr $C$DW$161, DW_AT_type(*$C$DW$T$8)
     950                      .dwattr $C$DW$161, DW_AT_name("noiselvl")
     951                      .dwattr $C$DW$161, DW_AT_TI_symbol_name("_noiselvl")
     952                      .dwattr $C$DW$161, DW_AT_data_member_location[DW_OP_plus_uconst 0xf]
     953                      .dwattr $C$DW$161, DW_AT_accessibility(DW_ACCESS_public)
     954              $C$DW$162       .dwtag  DW_TAG_member
     955                      .dwattr $C$DW$162, DW_AT_type(*$C$DW$T$8)
     956                      .dwattr $C$DW$162, DW_AT_name("lambdaLTE")
     957                      .dwattr $C$DW$162, DW_AT_TI_symbol_name("_lambdaLTE")
     958                      .dwattr $C$DW$162, DW_AT_data_member_location[DW_OP_plus_uconst 0x10]
     959                      .dwattr $C$DW$162, DW_AT_accessibility(DW_ACCESS_public)
     960              $C$DW$163       .dwtag  DW_TAG_member
     961                      .dwattr $C$DW$163, DW_AT_type(*$C$DW$T$8)
     962                      .dwattr $C$DW$163, DW_AT_name("nbSpeechFrame")
TMS320C55x Assembler PC v4.4.1 Wed Sep 13 16:34:08 2017

Tools Copyright (c) 1996-2012 Texas Instruments Incorporated
C:\Users\a0221074\AppData\Local\Temp\1594410                         PAGE   20

     963                      .dwattr $C$DW$163, DW_AT_TI_symbol_name("_nbSpeechFrame")
     964                      .dwattr $C$DW$163, DW_AT_data_member_location[DW_OP_plus_uconst 0x11]
     965                      .dwattr $C$DW$163, DW_AT_accessibility(DW_ACCESS_public)
     966              $C$DW$164       .dwtag  DW_TAG_member
     967                      .dwattr $C$DW$164, DW_AT_type(*$C$DW$T$8)
     968                      .dwattr $C$DW$164, DW_AT_name("hangOver")
     969                      .dwattr $C$DW$164, DW_AT_TI_symbol_name("_hangOver")
     970                      .dwattr $C$DW$164, DW_AT_data_member_location[DW_OP_plus_uconst 0x12]
     971                      .dwattr $C$DW$164, DW_AT_accessibility(DW_ACCESS_public)
     972                      .dwendtag $C$DW$T$43
     973              
     974              $C$DW$T$86      .dwtag  DW_TAG_typedef, DW_AT_name("NssType")
     975                      .dwattr $C$DW$T$86, DW_AT_type(*$C$DW$T$43)
     976                      .dwattr $C$DW$T$86, DW_AT_language(DW_LANG_C)
     977              $C$DW$T$87      .dwtag  DW_TAG_pointer_type
     978                      .dwattr $C$DW$T$87, DW_AT_type(*$C$DW$T$86)
     979                      .dwattr $C$DW$T$87, DW_AT_address_class(0x17)
     980              
     981              $C$DW$T$44      .dwtag  DW_TAG_structure_type
     982                      .dwattr $C$DW$T$44, DW_AT_byte_size(0x03)
     983              $C$DW$165       .dwtag  DW_TAG_member
     984                      .dwattr $C$DW$165, DW_AT_type(*$C$DW$T$8)
     985                      .dwattr $C$DW$165, DW_AT_name("mean")
     986                      .dwattr $C$DW$165, DW_AT_TI_symbol_name("_mean")
     987                      .dwattr $C$DW$165, DW_AT_data_member_location[DW_OP_plus_uconst 0x0]
     988                      .dwattr $C$DW$165, DW_AT_accessibility(DW_ACCESS_public)
     989              $C$DW$166       .dwtag  DW_TAG_member
     990                      .dwattr $C$DW$166, DW_AT_type(*$C$DW$T$8)
     991                      .dwattr $C$DW$166, DW_AT_name("inv")
     992                      .dwattr $C$DW$166, DW_AT_TI_symbol_name("_inv")
     993                      .dwattr $C$DW$166, DW_AT_data_member_location[DW_OP_plus_uconst 0x1]
     994                      .dwattr $C$DW$166, DW_AT_accessibility(DW_ACCESS_public)
     995              $C$DW$167       .dwtag  DW_TAG_member
     996                      .dwattr $C$DW$167, DW_AT_type(*$C$DW$T$8)
     997                      .dwattr $C$DW$167, DW_AT_name("gconst")
     998                      .dwattr $C$DW$167, DW_AT_TI_symbol_name("_gconst")
     999                      .dwattr $C$DW$167, DW_AT_data_member_location[DW_OP_plus_uconst 0x2]
    1000                      .dwattr $C$DW$167, DW_AT_accessibility(DW_ACCESS_public)
    1001                      .dwendtag $C$DW$T$44
    1002              
    1003              $C$DW$T$46      .dwtag  DW_TAG_typedef, DW_AT_name("CM_hypo")
    1004                      .dwattr $C$DW$T$46, DW_AT_type(*$C$DW$T$44)
    1005                      .dwattr $C$DW$T$46, DW_AT_language(DW_LANG_C)
    1006              
    1007              $C$DW$T$48      .dwtag  DW_TAG_structure_type
    1008                      .dwattr $C$DW$T$48, DW_AT_byte_size(0x544)
    1009              $C$DW$168       .dwtag  DW_TAG_member
    1010                      .dwattr $C$DW$168, DW_AT_type(*$C$DW$T$45)
    1011                      .dwattr $C$DW$168, DW_AT_name("base_mem")
    1012                      .dwattr $C$DW$168, DW_AT_TI_symbol_name("_base_mem")
    1013                      .dwattr $C$DW$168, DW_AT_data_member_location[DW_OP_plus_uconst 0x0]
    1014                      .dwattr $C$DW$168, DW_AT_accessibility(DW_ACCESS_public)
    1015              $C$DW$169       .dwtag  DW_TAG_member
    1016                      .dwattr $C$DW$169, DW_AT_type(*$C$DW$T$20)
    1017                      .dwattr $C$DW$169, DW_AT_name("mem_count")
TMS320C55x Assembler PC v4.4.1 Wed Sep 13 16:34:08 2017

Tools Copyright (c) 1996-2012 Texas Instruments Incorporated
C:\Users\a0221074\AppData\Local\Temp\1594410                         PAGE   21

    1018                      .dwattr $C$DW$169, DW_AT_TI_symbol_name("_mem_count")
    1019                      .dwattr $C$DW$169, DW_AT_data_member_location[DW_OP_plus_uconst 0x514]
    1020                      .dwattr $C$DW$169, DW_AT_accessibility(DW_ACCESS_public)
    1021              $C$DW$170       .dwtag  DW_TAG_member
    1022                      .dwattr $C$DW$170, DW_AT_type(*$C$DW$T$22)
    1023                      .dwattr $C$DW$170, DW_AT_name("answers")
    1024                      .dwattr $C$DW$170, DW_AT_TI_symbol_name("_answers")
    1025                      .dwattr $C$DW$170, DW_AT_data_member_location[DW_OP_plus_uconst 0x516]
    1026                      .dwattr $C$DW$170, DW_AT_accessibility(DW_ACCESS_public)
    1027              $C$DW$171       .dwtag  DW_TAG_member
    1028                      .dwattr $C$DW$171, DW_AT_type(*$C$DW$T$22)
    1029                      .dwattr $C$DW$171, DW_AT_name("uStp")
    1030                      .dwattr $C$DW$171, DW_AT_TI_symbol_name("_uStp")
    1031                      .dwattr $C$DW$171, DW_AT_data_member_location[DW_OP_plus_uconst 0x518]
    1032                      .dwattr $C$DW$171, DW_AT_accessibility(DW_ACCESS_public)
    1033              $C$DW$172       .dwtag  DW_TAG_member
    1034                      .dwattr $C$DW$172, DW_AT_type(*$C$DW$T$20)
    1035                      .dwattr $C$DW$172, DW_AT_name("nWords")
    1036                      .dwattr $C$DW$172, DW_AT_TI_symbol_name("_nWords")
    1037                      .dwattr $C$DW$172, DW_AT_data_member_location[DW_OP_plus_uconst 0x51a]
    1038                      .dwattr $C$DW$172, DW_AT_accessibility(DW_ACCESS_public)
    1039              $C$DW$173       .dwtag  DW_TAG_member
    1040                      .dwattr $C$DW$173, DW_AT_type(*$C$DW$T$8)
    1041                      .dwattr $C$DW$173, DW_AT_name("nS")
    1042                      .dwattr $C$DW$173, DW_AT_TI_symbol_name("_nS")
    1043                      .dwattr $C$DW$173, DW_AT_data_member_location[DW_OP_plus_uconst 0x51b]
    1044                      .dwattr $C$DW$173, DW_AT_accessibility(DW_ACCESS_public)
    1045              $C$DW$174       .dwtag  DW_TAG_member
    1046                      .dwattr $C$DW$174, DW_AT_type(*$C$DW$T$21)
    1047                      .dwattr $C$DW$174, DW_AT_name("cm_scr")
    1048                      .dwattr $C$DW$174, DW_AT_TI_symbol_name("_cm_scr")
    1049                      .dwattr $C$DW$174, DW_AT_data_member_location[DW_OP_plus_uconst 0x51c]
    1050                      .dwattr $C$DW$174, DW_AT_accessibility(DW_ACCESS_public)
    1051              $C$DW$175       .dwtag  DW_TAG_member
    1052                      .dwattr $C$DW$175, DW_AT_type(*$C$DW$T$8)
    1053                      .dwattr $C$DW$175, DW_AT_name("bNeedUpdate")
    1054                      .dwattr $C$DW$175, DW_AT_TI_symbol_name("_bNeedUpdate")
    1055                      .dwattr $C$DW$175, DW_AT_data_member_location[DW_OP_plus_uconst 0x51e]
    1056                      .dwattr $C$DW$175, DW_AT_accessibility(DW_ACCESS_public)
    1057              $C$DW$176       .dwtag  DW_TAG_member
    1058                      .dwattr $C$DW$176, DW_AT_type(*$C$DW$T$21)
    1059                      .dwattr $C$DW$176, DW_AT_name("cm_anti_scr")
    1060                      .dwattr $C$DW$176, DW_AT_TI_symbol_name("_cm_anti_scr")
    1061                      .dwattr $C$DW$176, DW_AT_data_member_location[DW_OP_plus_uconst 0x520]
    1062                      .dwattr $C$DW$176, DW_AT_accessibility(DW_ACCESS_public)
    1063              $C$DW$177       .dwtag  DW_TAG_member
    1064                      .dwattr $C$DW$177, DW_AT_type(*$C$DW$T$12)
    1065                      .dwattr $C$DW$177, DW_AT_name("cm_fg_scr")
    1066                      .dwattr $C$DW$177, DW_AT_TI_symbol_name("_cm_fg_scr")
    1067                      .dwattr $C$DW$177, DW_AT_data_member_location[DW_OP_plus_uconst 0x522]
    1068                      .dwattr $C$DW$177, DW_AT_accessibility(DW_ACCESS_public)
    1069              $C$DW$178       .dwtag  DW_TAG_member
    1070                      .dwattr $C$DW$178, DW_AT_type(*$C$DW$T$12)
    1071                      .dwattr $C$DW$178, DW_AT_name("cm_bk_scr")
    1072                      .dwattr $C$DW$178, DW_AT_TI_symbol_name("_cm_bk_scr")
TMS320C55x Assembler PC v4.4.1 Wed Sep 13 16:34:08 2017

Tools Copyright (c) 1996-2012 Texas Instruments Incorporated
C:\Users\a0221074\AppData\Local\Temp\1594410                         PAGE   22

    1073                      .dwattr $C$DW$178, DW_AT_data_member_location[DW_OP_plus_uconst 0x524]
    1074                      .dwattr $C$DW$178, DW_AT_accessibility(DW_ACCESS_public)
    1075              $C$DW$179       .dwtag  DW_TAG_member
    1076                      .dwattr $C$DW$179, DW_AT_type(*$C$DW$T$8)
    1077                      .dwattr $C$DW$179, DW_AT_name("th_nbest")
    1078                      .dwattr $C$DW$179, DW_AT_TI_symbol_name("_th_nbest")
    1079                      .dwattr $C$DW$179, DW_AT_data_member_location[DW_OP_plus_uconst 0x526]
    1080                      .dwattr $C$DW$179, DW_AT_accessibility(DW_ACCESS_public)
    1081              $C$DW$180       .dwtag  DW_TAG_member
    1082                      .dwattr $C$DW$180, DW_AT_type(*$C$DW$T$8)
    1083                      .dwattr $C$DW$180, DW_AT_name("nSpeech")
    1084                      .dwattr $C$DW$180, DW_AT_TI_symbol_name("_nSpeech")
    1085                      .dwattr $C$DW$180, DW_AT_data_member_location[DW_OP_plus_uconst 0x527]
    1086                      .dwattr $C$DW$180, DW_AT_accessibility(DW_ACCESS_public)
    1087              $C$DW$181       .dwtag  DW_TAG_member
    1088                      .dwattr $C$DW$181, DW_AT_type(*$C$DW$T$8)
    1089                      .dwattr $C$DW$181, DW_AT_name("nNoise")
    1090                      .dwattr $C$DW$181, DW_AT_TI_symbol_name("_nNoise")
    1091                      .dwattr $C$DW$181, DW_AT_data_member_location[DW_OP_plus_uconst 0x528]
    1092                      .dwattr $C$DW$181, DW_AT_accessibility(DW_ACCESS_public)
    1093              $C$DW$182       .dwtag  DW_TAG_member
    1094                      .dwattr $C$DW$182, DW_AT_type(*$C$DW$T$12)
    1095                      .dwattr $C$DW$182, DW_AT_name("speech_power")
    1096                      .dwattr $C$DW$182, DW_AT_TI_symbol_name("_speech_power")
    1097                      .dwattr $C$DW$182, DW_AT_data_member_location[DW_OP_plus_uconst 0x52a]
    1098                      .dwattr $C$DW$182, DW_AT_accessibility(DW_ACCESS_public)
    1099              $C$DW$183       .dwtag  DW_TAG_member
    1100                      .dwattr $C$DW$183, DW_AT_type(*$C$DW$T$12)
    1101                      .dwattr $C$DW$183, DW_AT_name("noise_power")
    1102                      .dwattr $C$DW$183, DW_AT_TI_symbol_name("_noise_power")
    1103                      .dwattr $C$DW$183, DW_AT_data_member_location[DW_OP_plus_uconst 0x52c]
    1104                      .dwattr $C$DW$183, DW_AT_accessibility(DW_ACCESS_public)
    1105              $C$DW$184       .dwtag  DW_TAG_member
    1106                      .dwattr $C$DW$184, DW_AT_type(*$C$DW$T$12)
    1107                      .dwattr $C$DW$184, DW_AT_name("noise_power_sqr")
    1108                      .dwattr $C$DW$184, DW_AT_TI_symbol_name("_noise_power_sqr")
    1109                      .dwattr $C$DW$184, DW_AT_data_member_location[DW_OP_plus_uconst 0x52e]
    1110                      .dwattr $C$DW$184, DW_AT_accessibility(DW_ACCESS_public)
    1111              $C$DW$185       .dwtag  DW_TAG_member
    1112                      .dwattr $C$DW$185, DW_AT_type(*$C$DW$T$8)
    1113                      .dwattr $C$DW$185, DW_AT_name("NSNR")
    1114                      .dwattr $C$DW$185, DW_AT_TI_symbol_name("_NSNR")
    1115                      .dwattr $C$DW$185, DW_AT_data_member_location[DW_OP_plus_uconst 0x530]
    1116                      .dwattr $C$DW$185, DW_AT_accessibility(DW_ACCESS_public)
    1117              $C$DW$186       .dwtag  DW_TAG_member
    1118                      .dwattr $C$DW$186, DW_AT_type(*$C$DW$T$46)
    1119                      .dwattr $C$DW$186, DW_AT_name("H0")
    1120                      .dwattr $C$DW$186, DW_AT_TI_symbol_name("_H0")
    1121                      .dwattr $C$DW$186, DW_AT_data_member_location[DW_OP_plus_uconst 0x531]
    1122                      .dwattr $C$DW$186, DW_AT_accessibility(DW_ACCESS_public)
    1123              $C$DW$187       .dwtag  DW_TAG_member
    1124                      .dwattr $C$DW$187, DW_AT_type(*$C$DW$T$46)
    1125                      .dwattr $C$DW$187, DW_AT_name("H1")
    1126                      .dwattr $C$DW$187, DW_AT_TI_symbol_name("_H1")
    1127                      .dwattr $C$DW$187, DW_AT_data_member_location[DW_OP_plus_uconst 0x534]
TMS320C55x Assembler PC v4.4.1 Wed Sep 13 16:34:08 2017

Tools Copyright (c) 1996-2012 Texas Instruments Incorporated
C:\Users\a0221074\AppData\Local\Temp\1594410                         PAGE   23

    1128                      .dwattr $C$DW$187, DW_AT_accessibility(DW_ACCESS_public)
    1129              $C$DW$188       .dwtag  DW_TAG_member
    1130                      .dwattr $C$DW$188, DW_AT_type(*$C$DW$T$21)
    1131                      .dwattr $C$DW$188, DW_AT_name("lgBeta")
    1132                      .dwattr $C$DW$188, DW_AT_TI_symbol_name("_lgBeta")
    1133                      .dwattr $C$DW$188, DW_AT_data_member_location[DW_OP_plus_uconst 0x538]
    1134                      .dwattr $C$DW$188, DW_AT_accessibility(DW_ACCESS_public)
    1135              $C$DW$189       .dwtag  DW_TAG_member
    1136                      .dwattr $C$DW$189, DW_AT_type(*$C$DW$T$47)
    1137                      .dwattr $C$DW$189, DW_AT_name("acc_dif2_beta")
    1138                      .dwattr $C$DW$189, DW_AT_TI_symbol_name("_acc_dif2_beta")
    1139                      .dwattr $C$DW$189, DW_AT_data_member_location[DW_OP_plus_uconst 0x53a]
    1140                      .dwattr $C$DW$189, DW_AT_accessibility(DW_ACCESS_public)
    1141              $C$DW$190       .dwtag  DW_TAG_member
    1142                      .dwattr $C$DW$190, DW_AT_type(*$C$DW$T$8)
    1143                      .dwattr $C$DW$190, DW_AT_name("bCalced")
    1144                      .dwattr $C$DW$190, DW_AT_TI_symbol_name("_bCalced")
    1145                      .dwattr $C$DW$190, DW_AT_data_member_location[DW_OP_plus_uconst 0x53c]
    1146                      .dwattr $C$DW$190, DW_AT_accessibility(DW_ACCESS_public)
    1147              $C$DW$191       .dwtag  DW_TAG_member
    1148                      .dwattr $C$DW$191, DW_AT_type(*$C$DW$T$21)
    1149                      .dwattr $C$DW$191, DW_AT_name("sCH")
    1150                      .dwattr $C$DW$191, DW_AT_TI_symbol_name("_sCH")
    1151                      .dwattr $C$DW$191, DW_AT_data_member_location[DW_OP_plus_uconst 0x53e]
    1152                      .dwattr $C$DW$191, DW_AT_accessibility(DW_ACCESS_public)
    1153              $C$DW$192       .dwtag  DW_TAG_member
    1154                      .dwattr $C$DW$192, DW_AT_type(*$C$DW$T$47)
    1155                      .dwattr $C$DW$192, DW_AT_name("lAccum")
    1156                      .dwattr $C$DW$192, DW_AT_TI_symbol_name("_lAccum")
    1157                      .dwattr $C$DW$192, DW_AT_data_member_location[DW_OP_plus_uconst 0x540]
    1158                      .dwattr $C$DW$192, DW_AT_accessibility(DW_ACCESS_public)
    1159              $C$DW$193       .dwtag  DW_TAG_member
    1160                      .dwattr $C$DW$193, DW_AT_type(*$C$DW$T$8)
    1161                      .dwattr $C$DW$193, DW_AT_name("adp_th")
    1162                      .dwattr $C$DW$193, DW_AT_TI_symbol_name("_adp_th")
    1163                      .dwattr $C$DW$193, DW_AT_data_member_location[DW_OP_plus_uconst 0x542]
    1164                      .dwattr $C$DW$193, DW_AT_accessibility(DW_ACCESS_public)
    1165                      .dwendtag $C$DW$T$48
    1166              
    1167              $C$DW$T$88      .dwtag  DW_TAG_typedef, DW_AT_name("ConfType")
    1168                      .dwattr $C$DW$T$88, DW_AT_type(*$C$DW$T$48)
    1169                      .dwattr $C$DW$T$88, DW_AT_language(DW_LANG_C)
    1170              $C$DW$T$89      .dwtag  DW_TAG_pointer_type
    1171                      .dwattr $C$DW$T$89, DW_AT_type(*$C$DW$T$88)
    1172                      .dwattr $C$DW$T$89, DW_AT_address_class(0x17)
    1173              $C$DW$T$4       .dwtag  DW_TAG_base_type
    1174                      .dwattr $C$DW$T$4, DW_AT_encoding(DW_ATE_boolean)
    1175                      .dwattr $C$DW$T$4, DW_AT_name("bool")
    1176                      .dwattr $C$DW$T$4, DW_AT_byte_size(0x01)
    1177              $C$DW$T$5       .dwtag  DW_TAG_base_type
    1178                      .dwattr $C$DW$T$5, DW_AT_encoding(DW_ATE_signed_char)
    1179                      .dwattr $C$DW$T$5, DW_AT_name("signed char")
    1180                      .dwattr $C$DW$T$5, DW_AT_byte_size(0x01)
    1181              $C$DW$T$6       .dwtag  DW_TAG_base_type
    1182                      .dwattr $C$DW$T$6, DW_AT_encoding(DW_ATE_unsigned_char)
TMS320C55x Assembler PC v4.4.1 Wed Sep 13 16:34:08 2017

Tools Copyright (c) 1996-2012 Texas Instruments Incorporated
C:\Users\a0221074\AppData\Local\Temp\1594410                         PAGE   24

    1183                      .dwattr $C$DW$T$6, DW_AT_name("unsigned char")
    1184                      .dwattr $C$DW$T$6, DW_AT_byte_size(0x01)
    1185              $C$DW$T$7       .dwtag  DW_TAG_base_type
    1186                      .dwattr $C$DW$T$7, DW_AT_encoding(DW_ATE_signed_char)
    1187                      .dwattr $C$DW$T$7, DW_AT_name("wchar_t")
    1188                      .dwattr $C$DW$T$7, DW_AT_byte_size(0x01)
    1189              $C$DW$T$8       .dwtag  DW_TAG_base_type
    1190                      .dwattr $C$DW$T$8, DW_AT_encoding(DW_ATE_signed)
    1191                      .dwattr $C$DW$T$8, DW_AT_name("short")
    1192                      .dwattr $C$DW$T$8, DW_AT_byte_size(0x01)
    1193              $C$DW$T$21      .dwtag  DW_TAG_pointer_type
    1194                      .dwattr $C$DW$T$21, DW_AT_type(*$C$DW$T$8)
    1195                      .dwattr $C$DW$T$21, DW_AT_address_class(0x17)
    1196              
    1197              $C$DW$T$39      .dwtag  DW_TAG_array_type
    1198                      .dwattr $C$DW$T$39, DW_AT_type(*$C$DW$T$8)
    1199                      .dwattr $C$DW$T$39, DW_AT_language(DW_LANG_C)
    1200                      .dwattr $C$DW$T$39, DW_AT_byte_size(0x1e)
    1201              $C$DW$194       .dwtag  DW_TAG_subrange_type
    1202                      .dwattr $C$DW$194, DW_AT_upper_bound(0x1d)
    1203                      .dwendtag $C$DW$T$39
    1204              
    1205              
    1206              $C$DW$T$45      .dwtag  DW_TAG_array_type
    1207                      .dwattr $C$DW$T$45, DW_AT_type(*$C$DW$T$8)
    1208                      .dwattr $C$DW$T$45, DW_AT_language(DW_LANG_C)
    1209                      .dwattr $C$DW$T$45, DW_AT_byte_size(0x514)
    1210              $C$DW$195       .dwtag  DW_TAG_subrange_type
    1211                      .dwattr $C$DW$195, DW_AT_upper_bound(0x513)
    1212                      .dwendtag $C$DW$T$45
    1213              
    1214              
    1215              $C$DW$T$50      .dwtag  DW_TAG_array_type
    1216                      .dwattr $C$DW$T$50, DW_AT_type(*$C$DW$T$8)
    1217                      .dwattr $C$DW$T$50, DW_AT_language(DW_LANG_C)
    1218                      .dwattr $C$DW$T$50, DW_AT_byte_size(0x100)
    1219              $C$DW$196       .dwtag  DW_TAG_subrange_type
    1220                      .dwattr $C$DW$196, DW_AT_upper_bound(0xff)
    1221                      .dwendtag $C$DW$T$50
    1222              
    1223              
    1224              $C$DW$T$51      .dwtag  DW_TAG_array_type
    1225                      .dwattr $C$DW$T$51, DW_AT_type(*$C$DW$T$8)
    1226                      .dwattr $C$DW$T$51, DW_AT_language(DW_LANG_C)
    1227                      .dwattr $C$DW$T$51, DW_AT_byte_size(0x10)
    1228              $C$DW$197       .dwtag  DW_TAG_subrange_type
    1229                      .dwattr $C$DW$197, DW_AT_upper_bound(0x0f)
    1230                      .dwendtag $C$DW$T$51
    1231              
    1232              
    1233              $C$DW$T$52      .dwtag  DW_TAG_array_type
    1234                      .dwattr $C$DW$T$52, DW_AT_type(*$C$DW$T$8)
    1235                      .dwattr $C$DW$T$52, DW_AT_language(DW_LANG_C)
    1236                      .dwattr $C$DW$T$52, DW_AT_byte_size(0xe0)
    1237              $C$DW$198       .dwtag  DW_TAG_subrange_type
TMS320C55x Assembler PC v4.4.1 Wed Sep 13 16:34:08 2017

Tools Copyright (c) 1996-2012 Texas Instruments Incorporated
C:\Users\a0221074\AppData\Local\Temp\1594410                         PAGE   25

    1238                      .dwattr $C$DW$198, DW_AT_upper_bound(0x0d)
    1239              $C$DW$199       .dwtag  DW_TAG_subrange_type
    1240                      .dwattr $C$DW$199, DW_AT_upper_bound(0x0f)
    1241                      .dwendtag $C$DW$T$52
    1242              
    1243              $C$DW$200       .dwtag  DW_TAG_TI_far_type
    1244                      .dwattr $C$DW$200, DW_AT_type(*$C$DW$T$8)
    1245              $C$DW$T$53      .dwtag  DW_TAG_const_type
    1246                      .dwattr $C$DW$T$53, DW_AT_type(*$C$DW$200)
    1247              $C$DW$T$54      .dwtag  DW_TAG_pointer_type
    1248                      .dwattr $C$DW$T$54, DW_AT_type(*$C$DW$T$53)
    1249                      .dwattr $C$DW$T$54, DW_AT_address_class(0x17)
    1250              
    1251              $C$DW$T$55      .dwtag  DW_TAG_array_type
    1252                      .dwattr $C$DW$T$55, DW_AT_type(*$C$DW$T$54)
    1253                      .dwattr $C$DW$T$55, DW_AT_language(DW_LANG_C)
    1254                      .dwattr $C$DW$T$55, DW_AT_byte_size(0x20)
    1255              $C$DW$201       .dwtag  DW_TAG_subrange_type
    1256                      .dwattr $C$DW$201, DW_AT_upper_bound(0x0f)
    1257                      .dwendtag $C$DW$T$55
    1258              
    1259              
    1260              $C$DW$T$59      .dwtag  DW_TAG_array_type
    1261                      .dwattr $C$DW$T$59, DW_AT_type(*$C$DW$T$8)
    1262                      .dwattr $C$DW$T$59, DW_AT_language(DW_LANG_C)
    1263                      .dwattr $C$DW$T$59, DW_AT_byte_size(0x80)
    1264              $C$DW$202       .dwtag  DW_TAG_subrange_type
    1265                      .dwattr $C$DW$202, DW_AT_upper_bound(0x7f)
    1266                      .dwendtag $C$DW$T$59
    1267              
    1268              
    1269              $C$DW$T$60      .dwtag  DW_TAG_array_type
    1270                      .dwattr $C$DW$T$60, DW_AT_type(*$C$DW$T$8)
    1271                      .dwattr $C$DW$T$60, DW_AT_language(DW_LANG_C)
    1272                      .dwattr $C$DW$T$60, DW_AT_byte_size(0x1a)
    1273              $C$DW$203       .dwtag  DW_TAG_subrange_type
    1274                      .dwattr $C$DW$203, DW_AT_upper_bound(0x19)
    1275                      .dwendtag $C$DW$T$60
    1276              
    1277              
    1278              $C$DW$T$78      .dwtag  DW_TAG_array_type
    1279                      .dwattr $C$DW$T$78, DW_AT_type(*$C$DW$T$8)
    1280                      .dwattr $C$DW$T$78, DW_AT_language(DW_LANG_C)
    1281                      .dwattr $C$DW$T$78, DW_AT_byte_size(0x20)
    1282              $C$DW$204       .dwtag  DW_TAG_subrange_type
    1283                      .dwattr $C$DW$204, DW_AT_upper_bound(0x1f)
    1284                      .dwendtag $C$DW$T$78
    1285              
    1286              
    1287              $C$DW$T$84      .dwtag  DW_TAG_array_type
    1288                      .dwattr $C$DW$T$84, DW_AT_type(*$C$DW$T$8)
    1289                      .dwattr $C$DW$T$84, DW_AT_language(DW_LANG_C)
    1290                      .dwattr $C$DW$T$84, DW_AT_byte_size(0x14)
    1291              $C$DW$205       .dwtag  DW_TAG_subrange_type
    1292                      .dwattr $C$DW$205, DW_AT_upper_bound(0x13)
TMS320C55x Assembler PC v4.4.1 Wed Sep 13 16:34:08 2017

Tools Copyright (c) 1996-2012 Texas Instruments Incorporated
C:\Users\a0221074\AppData\Local\Temp\1594410                         PAGE   26

    1293                      .dwendtag $C$DW$T$84
    1294              
    1295              $C$DW$T$9       .dwtag  DW_TAG_base_type
    1296                      .dwattr $C$DW$T$9, DW_AT_encoding(DW_ATE_unsigned)
    1297                      .dwattr $C$DW$T$9, DW_AT_name("unsigned short")
    1298                      .dwattr $C$DW$T$9, DW_AT_byte_size(0x01)
    1299              
    1300              $C$DW$T$27      .dwtag  DW_TAG_array_type
    1301                      .dwattr $C$DW$T$27, DW_AT_type(*$C$DW$T$9)
    1302                      .dwattr $C$DW$T$27, DW_AT_language(DW_LANG_C)
    1303                      .dwattr $C$DW$T$27, DW_AT_byte_size(0x01)
    1304              $C$DW$206       .dwtag  DW_TAG_subrange_type
    1305                      .dwattr $C$DW$206, DW_AT_upper_bound(0x00)
    1306                      .dwendtag $C$DW$T$27
    1307              
    1308              
    1309              $C$DW$T$33      .dwtag  DW_TAG_array_type
    1310                      .dwattr $C$DW$T$33, DW_AT_type(*$C$DW$T$9)
    1311                      .dwattr $C$DW$T$33, DW_AT_language(DW_LANG_C)
    1312                      .dwattr $C$DW$T$33, DW_AT_byte_size(0x02)
    1313              $C$DW$207       .dwtag  DW_TAG_subrange_type
    1314                      .dwattr $C$DW$207, DW_AT_upper_bound(0x01)
    1315                      .dwendtag $C$DW$T$33
    1316              
    1317              $C$DW$T$35      .dwtag  DW_TAG_pointer_type
    1318                      .dwattr $C$DW$T$35, DW_AT_type(*$C$DW$T$9)
    1319                      .dwattr $C$DW$T$35, DW_AT_address_class(0x17)
    1320              $C$DW$T$20      .dwtag  DW_TAG_typedef, DW_AT_name("ushort")
    1321                      .dwattr $C$DW$T$20, DW_AT_type(*$C$DW$T$9)
    1322                      .dwattr $C$DW$T$20, DW_AT_language(DW_LANG_C)
    1323              $C$DW$T$22      .dwtag  DW_TAG_pointer_type
    1324                      .dwattr $C$DW$T$22, DW_AT_type(*$C$DW$T$20)
    1325                      .dwattr $C$DW$T$22, DW_AT_address_class(0x17)
    1326              
    1327              $C$DW$T$37      .dwtag  DW_TAG_array_type
    1328                      .dwattr $C$DW$T$37, DW_AT_type(*$C$DW$T$20)
    1329                      .dwattr $C$DW$T$37, DW_AT_language(DW_LANG_C)
    1330                      .dwattr $C$DW$T$37, DW_AT_byte_size(0x14)
    1331              $C$DW$208       .dwtag  DW_TAG_subrange_type
    1332                      .dwattr $C$DW$208, DW_AT_upper_bound(0x13)
    1333                      .dwendtag $C$DW$T$37
    1334              
    1335              
    1336              $C$DW$T$85      .dwtag  DW_TAG_array_type
    1337                      .dwattr $C$DW$T$85, DW_AT_type(*$C$DW$T$20)
    1338                      .dwattr $C$DW$T$85, DW_AT_language(DW_LANG_C)
    1339                      .dwattr $C$DW$T$85, DW_AT_byte_size(0x02)
    1340              $C$DW$209       .dwtag  DW_TAG_subrange_type
    1341                      .dwattr $C$DW$209, DW_AT_upper_bound(0x01)
    1342                      .dwendtag $C$DW$T$85
    1343              
    1344              $C$DW$T$10      .dwtag  DW_TAG_base_type
    1345                      .dwattr $C$DW$T$10, DW_AT_encoding(DW_ATE_signed)
    1346                      .dwattr $C$DW$T$10, DW_AT_name("int")
    1347                      .dwattr $C$DW$T$10, DW_AT_byte_size(0x01)
TMS320C55x Assembler PC v4.4.1 Wed Sep 13 16:34:08 2017

Tools Copyright (c) 1996-2012 Texas Instruments Incorporated
C:\Users\a0221074\AppData\Local\Temp\1594410                         PAGE   27

    1348              $C$DW$T$11      .dwtag  DW_TAG_base_type
    1349                      .dwattr $C$DW$T$11, DW_AT_encoding(DW_ATE_unsigned)
    1350                      .dwattr $C$DW$T$11, DW_AT_name("unsigned int")
    1351                      .dwattr $C$DW$T$11, DW_AT_byte_size(0x01)
    1352              $C$DW$T$12      .dwtag  DW_TAG_base_type
    1353                      .dwattr $C$DW$T$12, DW_AT_encoding(DW_ATE_signed)
    1354                      .dwattr $C$DW$T$12, DW_AT_name("long")
    1355                      .dwattr $C$DW$T$12, DW_AT_byte_size(0x02)
    1356              $C$DW$T$47      .dwtag  DW_TAG_pointer_type
    1357                      .dwattr $C$DW$T$47, DW_AT_type(*$C$DW$T$12)
    1358                      .dwattr $C$DW$T$47, DW_AT_address_class(0x17)
    1359              
    1360              $C$DW$T$61      .dwtag  DW_TAG_array_type
    1361                      .dwattr $C$DW$T$61, DW_AT_type(*$C$DW$T$12)
    1362                      .dwattr $C$DW$T$61, DW_AT_language(DW_LANG_C)
    1363                      .dwattr $C$DW$T$61, DW_AT_byte_size(0xd0)
    1364              $C$DW$210       .dwtag  DW_TAG_subrange_type
    1365                      .dwattr $C$DW$210, DW_AT_upper_bound(0x67)
    1366                      .dwendtag $C$DW$T$61
    1367              
    1368              
    1369              $C$DW$T$64      .dwtag  DW_TAG_array_type
    1370                      .dwattr $C$DW$T$64, DW_AT_type(*$C$DW$T$12)
    1371                      .dwattr $C$DW$T$64, DW_AT_language(DW_LANG_C)
    1372                      .dwattr $C$DW$T$64, DW_AT_byte_size(0x20)
    1373              $C$DW$211       .dwtag  DW_TAG_subrange_type
    1374                      .dwattr $C$DW$211, DW_AT_upper_bound(0x0f)
    1375                      .dwendtag $C$DW$T$64
    1376              
    1377              $C$DW$T$13      .dwtag  DW_TAG_base_type
    1378                      .dwattr $C$DW$T$13, DW_AT_encoding(DW_ATE_unsigned)
    1379                      .dwattr $C$DW$T$13, DW_AT_name("unsigned long")
    1380                      .dwattr $C$DW$T$13, DW_AT_byte_size(0x02)
    1381              $C$DW$T$14      .dwtag  DW_TAG_base_type
    1382                      .dwattr $C$DW$T$14, DW_AT_encoding(DW_ATE_signed)
    1383                      .dwattr $C$DW$T$14, DW_AT_name("long long")
    1384                      .dwattr $C$DW$T$14, DW_AT_byte_size(0x04)
    1385                      .dwattr $C$DW$T$14, DW_AT_bit_size(0x28)
    1386                      .dwattr $C$DW$T$14, DW_AT_bit_offset(0x18)
    1387              $C$DW$T$15      .dwtag  DW_TAG_base_type
    1388                      .dwattr $C$DW$T$15, DW_AT_encoding(DW_ATE_unsigned)
    1389                      .dwattr $C$DW$T$15, DW_AT_name("unsigned long long")
    1390                      .dwattr $C$DW$T$15, DW_AT_byte_size(0x04)
    1391                      .dwattr $C$DW$T$15, DW_AT_bit_size(0x28)
    1392                      .dwattr $C$DW$T$15, DW_AT_bit_offset(0x18)
    1393              $C$DW$T$16      .dwtag  DW_TAG_base_type
    1394                      .dwattr $C$DW$T$16, DW_AT_encoding(DW_ATE_float)
    1395                      .dwattr $C$DW$T$16, DW_AT_name("float")
    1396                      .dwattr $C$DW$T$16, DW_AT_byte_size(0x02)
    1397              $C$DW$T$17      .dwtag  DW_TAG_base_type
    1398                      .dwattr $C$DW$T$17, DW_AT_encoding(DW_ATE_float)
    1399                      .dwattr $C$DW$T$17, DW_AT_name("double")
    1400                      .dwattr $C$DW$T$17, DW_AT_byte_size(0x02)
    1401              $C$DW$T$18      .dwtag  DW_TAG_base_type
    1402                      .dwattr $C$DW$T$18, DW_AT_encoding(DW_ATE_float)
TMS320C55x Assembler PC v4.4.1 Wed Sep 13 16:34:08 2017

Tools Copyright (c) 1996-2012 Texas Instruments Incorporated
C:\Users\a0221074\AppData\Local\Temp\1594410                         PAGE   28

    1403                      .dwattr $C$DW$T$18, DW_AT_name("long double")
    1404                      .dwattr $C$DW$T$18, DW_AT_byte_size(0x02)
    1405              $C$DW$T$73      .dwtag  DW_TAG_base_type
    1406                      .dwattr $C$DW$T$73, DW_AT_encoding(DW_ATE_signed_char)
    1407                      .dwattr $C$DW$T$73, DW_AT_name("signed char")
    1408                      .dwattr $C$DW$T$73, DW_AT_byte_size(0x01)
    1409              $C$DW$T$74      .dwtag  DW_TAG_pointer_type
    1410                      .dwattr $C$DW$T$74, DW_AT_type(*$C$DW$T$73)
    1411                      .dwattr $C$DW$T$74, DW_AT_address_class(0x17)
    1412              $C$DW$T$77      .dwtag  DW_TAG_pointer_type
    1413                      .dwattr $C$DW$T$77, DW_AT_type(*$C$DW$T$74)
    1414                      .dwattr $C$DW$T$77, DW_AT_address_class(0x17)
    1415              
    1416              $C$DW$T$49      .dwtag  DW_TAG_structure_type
    1417                      .dwattr $C$DW$T$49, DW_AT_name("ele")
    1418                      .dwattr $C$DW$T$49, DW_AT_byte_size(0x03)
    1419              $C$DW$212       .dwtag  DW_TAG_member
    1420                      .dwattr $C$DW$212, DW_AT_type(*$C$DW$T$9)
    1421                      .dwattr $C$DW$212, DW_AT_name("sym")
    1422                      .dwattr $C$DW$212, DW_AT_TI_symbol_name("_sym")
    1423                      .dwattr $C$DW$212, DW_AT_data_member_location[DW_OP_plus_uconst 0x0]
    1424                      .dwattr $C$DW$212, DW_AT_accessibility(DW_ACCESS_public)
    1425              $C$DW$213       .dwtag  DW_TAG_member
    1426                      .dwattr $C$DW$213, DW_AT_type(*$C$DW$T$9)
    1427                      .dwattr $C$DW$213, DW_AT_name("idx_flag")
    1428                      .dwattr $C$DW$213, DW_AT_TI_symbol_name("_idx_flag")
    1429                      .dwattr $C$DW$213, DW_AT_data_member_location[DW_OP_plus_uconst 0x1]
    1430                      .dwattr $C$DW$213, DW_AT_accessibility(DW_ACCESS_public)
    1431              $C$DW$214       .dwtag  DW_TAG_member
    1432                      .dwattr $C$DW$214, DW_AT_type(*$C$DW$T$9)
    1433                      .dwattr $C$DW$214, DW_AT_name("next")
    1434                      .dwattr $C$DW$214, DW_AT_TI_symbol_name("_next")
    1435                      .dwattr $C$DW$214, DW_AT_data_member_location[DW_OP_plus_uconst 0x2]
    1436                      .dwattr $C$DW$214, DW_AT_accessibility(DW_ACCESS_public)
    1437                      .dwendtag $C$DW$T$49
    1438              
    1439              $C$DW$T$69      .dwtag  DW_TAG_typedef, DW_AT_name("BeamType")
    1440                      .dwattr $C$DW$T$69, DW_AT_type(*$C$DW$T$49)
    1441                      .dwattr $C$DW$T$69, DW_AT_language(DW_LANG_C)
    1442              $C$DW$T$70      .dwtag  DW_TAG_pointer_type
    1443                      .dwattr $C$DW$T$70, DW_AT_type(*$C$DW$T$69)
    1444                      .dwattr $C$DW$T$70, DW_AT_address_class(0x17)
    1445              
    1446              $C$DW$T$90      .dwtag  DW_TAG_structure_type
    1447                      .dwattr $C$DW$T$90, DW_AT_name("gmhmm_type")
    1448                      .dwattr $C$DW$T$90, DW_AT_byte_size(0x7fe)
    1449              $C$DW$215       .dwtag  DW_TAG_member
    1450                      .dwattr $C$DW$215, DW_AT_type(*$C$DW$T$20)
    1451                      .dwattr $C$DW$215, DW_AT_name("avedepth")
    1452                      .dwattr $C$DW$215, DW_AT_TI_symbol_name("_avedepth")
    1453                      .dwattr $C$DW$215, DW_AT_data_member_location[DW_OP_plus_uconst 0x0]
    1454                      .dwattr $C$DW$215, DW_AT_accessibility(DW_ACCESS_public)
    1455              $C$DW$216       .dwtag  DW_TAG_member
    1456                      .dwattr $C$DW$216, DW_AT_type(*$C$DW$T$20)
    1457                      .dwattr $C$DW$216, DW_AT_name("bestdepth")
TMS320C55x Assembler PC v4.4.1 Wed Sep 13 16:34:08 2017

Tools Copyright (c) 1996-2012 Texas Instruments Incorporated
C:\Users\a0221074\AppData\Local\Temp\1594410                         PAGE   29

    1458                      .dwattr $C$DW$216, DW_AT_TI_symbol_name("_bestdepth")
    1459                      .dwattr $C$DW$216, DW_AT_data_member_location[DW_OP_plus_uconst 0x1]
    1460                      .dwattr $C$DW$216, DW_AT_accessibility(DW_ACCESS_public)
    1461              $C$DW$217       .dwtag  DW_TAG_member
    1462                      .dwattr $C$DW$217, DW_AT_type(*$C$DW$T$20)
    1463                      .dwattr $C$DW$217, DW_AT_name("index_mean")
    1464                      .dwattr $C$DW$217, DW_AT_TI_symbol_name("_index_mean")
    1465                      .dwattr $C$DW$217, DW_AT_data_member_location[DW_OP_plus_uconst 0x2]
    1466                      .dwattr $C$DW$217, DW_AT_accessibility(DW_ACCESS_public)
    1467              $C$DW$218       .dwtag  DW_TAG_member
    1468                      .dwattr $C$DW$218, DW_AT_type(*$C$DW$T$20)
    1469                      .dwattr $C$DW$218, DW_AT_name("signal_cnt")
    1470                      .dwattr $C$DW$218, DW_AT_TI_symbol_name("_signal_cnt")
    1471                      .dwattr $C$DW$218, DW_AT_data_member_location[DW_OP_plus_uconst 0x3]
    1472                      .dwattr $C$DW$218, DW_AT_accessibility(DW_ACCESS_public)
    1473              $C$DW$219       .dwtag  DW_TAG_member
    1474                      .dwattr $C$DW$219, DW_AT_type(*$C$DW$T$8)
    1475                      .dwattr $C$DW$219, DW_AT_name("buf_idx")
    1476                      .dwattr $C$DW$219, DW_AT_TI_symbol_name("_buf_idx")
    1477                      .dwattr $C$DW$219, DW_AT_data_member_location[DW_OP_plus_uconst 0x4]
    1478                      .dwattr $C$DW$219, DW_AT_accessibility(DW_ACCESS_public)
    1479              $C$DW$220       .dwtag  DW_TAG_member
    1480                      .dwattr $C$DW$220, DW_AT_type(*$C$DW$T$20)
    1481                      .dwattr $C$DW$220, DW_AT_name("speech_detected")
    1482                      .dwattr $C$DW$220, DW_AT_TI_symbol_name("_speech_detected")
    1483                      .dwattr $C$DW$220, DW_AT_data_member_location[DW_OP_plus_uconst 0x5]
    1484                      .dwattr $C$DW$220, DW_AT_accessibility(DW_ACCESS_public)
    1485              $C$DW$221       .dwtag  DW_TAG_member
    1486                      .dwattr $C$DW$221, DW_AT_type(*$C$DW$T$20)
    1487                      .dwattr $C$DW$221, DW_AT_name("mfcc_cnt")
    1488                      .dwattr $C$DW$221, DW_AT_TI_symbol_name("_mfcc_cnt")
    1489                      .dwattr $C$DW$221, DW_AT_data_member_location[DW_OP_plus_uconst 0x6]
    1490                      .dwattr $C$DW$221, DW_AT_accessibility(DW_ACCESS_public)
    1491              $C$DW$222       .dwtag  DW_TAG_member
    1492                      .dwattr $C$DW$222, DW_AT_type(*$C$DW$T$20)
    1493                      .dwattr $C$DW$222, DW_AT_name("nbr_cpy")
    1494                      .dwattr $C$DW$222, DW_AT_TI_symbol_name("_nbr_cpy")
    1495                      .dwattr $C$DW$222, DW_AT_data_member_location[DW_OP_plus_uconst 0x7]
    1496                      .dwattr $C$DW$222, DW_AT_accessibility(DW_ACCESS_public)
    1497              $C$DW$223       .dwtag  DW_TAG_member
    1498                      .dwattr $C$DW$223, DW_AT_type(*$C$DW$T$8)
    1499                      .dwattr $C$DW$223, DW_AT_name("last_sig")
    1500                      .dwattr $C$DW$223, DW_AT_TI_symbol_name("_last_sig")
    1501                      .dwattr $C$DW$223, DW_AT_data_member_location[DW_OP_plus_uconst 0x8]
    1502                      .dwattr $C$DW$223, DW_AT_accessibility(DW_ACCESS_public)
    1503              $C$DW$224       .dwtag  DW_TAG_member
    1504                      .dwattr $C$DW$224, DW_AT_type(*$C$DW$T$50)
    1505                      .dwattr $C$DW$224, DW_AT_name("sample_signal")
    1506                      .dwattr $C$DW$224, DW_AT_TI_symbol_name("_sample_signal")
    1507                      .dwattr $C$DW$224, DW_AT_data_member_location[DW_OP_plus_uconst 0x9]
    1508                      .dwattr $C$DW$224, DW_AT_accessibility(DW_ACCESS_public)
    1509              $C$DW$225       .dwtag  DW_TAG_member
    1510                      .dwattr $C$DW$225, DW_AT_type(*$C$DW$T$8)
    1511                      .dwattr $C$DW$225, DW_AT_name("amplitude_max")
    1512                      .dwattr $C$DW$225, DW_AT_TI_symbol_name("_amplitude_max")
TMS320C55x Assembler PC v4.4.1 Wed Sep 13 16:34:08 2017

Tools Copyright (c) 1996-2012 Texas Instruments Incorporated
C:\Users\a0221074\AppData\Local\Temp\1594410                         PAGE   30

    1513                      .dwattr $C$DW$225, DW_AT_data_member_location[DW_OP_plus_uconst 0x109]
    1514                      .dwattr $C$DW$225, DW_AT_accessibility(DW_ACCESS_public)
    1515              $C$DW$226       .dwtag  DW_TAG_member
    1516                      .dwattr $C$DW$226, DW_AT_type(*$C$DW$T$8)
    1517                      .dwattr $C$DW$226, DW_AT_name("amplitude_min")
    1518                      .dwattr $C$DW$226, DW_AT_TI_symbol_name("_amplitude_min")
    1519                      .dwattr $C$DW$226, DW_AT_data_member_location[DW_OP_plus_uconst 0x10a]
    1520                      .dwattr $C$DW$226, DW_AT_accessibility(DW_ACCESS_public)
    1521              $C$DW$227       .dwtag  DW_TAG_member
    1522                      .dwattr $C$DW$227, DW_AT_type(*$C$DW$T$8)
    1523                      .dwattr $C$DW$227, DW_AT_name("pred_first_frame")
    1524                      .dwattr $C$DW$227, DW_AT_TI_symbol_name("_pred_first_frame")
    1525                      .dwattr $C$DW$227, DW_AT_data_member_location[DW_OP_plus_uconst 0x10b]
    1526                      .dwattr $C$DW$227, DW_AT_accessibility(DW_ACCESS_public)
    1527              $C$DW$228       .dwtag  DW_TAG_member
    1528                      .dwattr $C$DW$228, DW_AT_type(*$C$DW$T$8)
    1529                      .dwattr $C$DW$228, DW_AT_name("frm_cnt")
    1530                      .dwattr $C$DW$228, DW_AT_TI_symbol_name("_frm_cnt")
    1531                      .dwattr $C$DW$228, DW_AT_data_member_location[DW_OP_plus_uconst 0x10c]
    1532                      .dwattr $C$DW$228, DW_AT_accessibility(DW_ACCESS_public)
    1533              $C$DW$229       .dwtag  DW_TAG_member
    1534                      .dwattr $C$DW$229, DW_AT_type(*$C$DW$T$8)
    1535                      .dwattr $C$DW$229, DW_AT_name("beam_count")
    1536                      .dwattr $C$DW$229, DW_AT_TI_symbol_name("_beam_count")
    1537                      .dwattr $C$DW$229, DW_AT_data_member_location[DW_OP_plus_uconst 0x10d]
    1538                      .dwattr $C$DW$229, DW_AT_accessibility(DW_ACCESS_public)
    1539              $C$DW$230       .dwtag  DW_TAG_member
    1540                      .dwattr $C$DW$230, DW_AT_type(*$C$DW$T$8)
    1541                      .dwattr $C$DW$230, DW_AT_name("active_beam_cells")
    1542                      .dwattr $C$DW$230, DW_AT_TI_symbol_name("_active_beam_cells")
    1543                      .dwattr $C$DW$230, DW_AT_data_member_location[DW_OP_plus_uconst 0x10e]
    1544                      .dwattr $C$DW$230, DW_AT_accessibility(DW_ACCESS_public)
    1545              $C$DW$231       .dwtag  DW_TAG_member
    1546                      .dwattr $C$DW$231, DW_AT_type(*$C$DW$T$8)
    1547                      .dwattr $C$DW$231, DW_AT_name("active_time_cells")
    1548                      .dwattr $C$DW$231, DW_AT_TI_symbol_name("_active_time_cells")
    1549                      .dwattr $C$DW$231, DW_AT_data_member_location[DW_OP_plus_uconst 0x10f]
    1550                      .dwattr $C$DW$231, DW_AT_accessibility(DW_ACCESS_public)
    1551              $C$DW$232       .dwtag  DW_TAG_member
    1552                      .dwattr $C$DW$232, DW_AT_type(*$C$DW$T$9)
    1553                      .dwattr $C$DW$232, DW_AT_name("ending_sym_count")
    1554                      .dwattr $C$DW$232, DW_AT_TI_symbol_name("_ending_sym_count")
    1555                      .dwattr $C$DW$232, DW_AT_data_member_location[DW_OP_plus_uconst 0x110]
    1556                      .dwattr $C$DW$232, DW_AT_accessibility(DW_ACCESS_public)
    1557              $C$DW$233       .dwtag  DW_TAG_member
    1558                      .dwattr $C$DW$233, DW_AT_type(*$C$DW$T$8)
    1559                      .dwattr $C$DW$233, DW_AT_name("comp_type")
    1560                      .dwattr $C$DW$233, DW_AT_TI_symbol_name("_comp_type")
    1561                      .dwattr $C$DW$233, DW_AT_data_member_location[DW_OP_plus_uconst 0x111]
    1562                      .dwattr $C$DW$233, DW_AT_accessibility(DW_ACCESS_public)
    1563              $C$DW$234       .dwtag  DW_TAG_member
    1564                      .dwattr $C$DW$234, DW_AT_type(*$C$DW$T$9)
    1565                      .dwattr $C$DW$234, DW_AT_name("low_vol_limit")
    1566                      .dwattr $C$DW$234, DW_AT_TI_symbol_name("_low_vol_limit")
    1567                      .dwattr $C$DW$234, DW_AT_data_member_location[DW_OP_plus_uconst 0x112]
TMS320C55x Assembler PC v4.4.1 Wed Sep 13 16:34:08 2017

Tools Copyright (c) 1996-2012 Texas Instruments Incorporated
C:\Users\a0221074\AppData\Local\Temp\1594410                         PAGE   31

    1568                      .dwattr $C$DW$234, DW_AT_accessibility(DW_ACCESS_public)
    1569              $C$DW$235       .dwtag  DW_TAG_member
    1570                      .dwattr $C$DW$235, DW_AT_type(*$C$DW$T$9)
    1571                      .dwattr $C$DW$235, DW_AT_name("high_vol_limit")
    1572                      .dwattr $C$DW$235, DW_AT_TI_symbol_name("_high_vol_limit")
    1573                      .dwattr $C$DW$235, DW_AT_data_member_location[DW_OP_plus_uconst 0x113]
    1574                      .dwattr $C$DW$235, DW_AT_accessibility(DW_ACCESS_public)
    1575              $C$DW$236       .dwtag  DW_TAG_member
    1576                      .dwattr $C$DW$236, DW_AT_type(*$C$DW$T$8)
    1577                      .dwattr $C$DW$236, DW_AT_name("vol")
    1578                      .dwattr $C$DW$236, DW_AT_TI_symbol_name("_vol")
    1579                      .dwattr $C$DW$236, DW_AT_data_member_location[DW_OP_plus_uconst 0x114]
    1580                      .dwattr $C$DW$236, DW_AT_accessibility(DW_ACCESS_public)
    1581              $C$DW$237       .dwtag  DW_TAG_member
    1582                      .dwattr $C$DW$237, DW_AT_type(*$C$DW$T$20)
    1583                      .dwattr $C$DW$237, DW_AT_name("n_mfcc")
    1584                      .dwattr $C$DW$237, DW_AT_TI_symbol_name("_n_mfcc")
    1585                      .dwattr $C$DW$237, DW_AT_data_member_location[DW_OP_plus_uconst 0x115]
    1586                      .dwattr $C$DW$237, DW_AT_accessibility(DW_ACCESS_public)
    1587              $C$DW$238       .dwtag  DW_TAG_member
    1588                      .dwattr $C$DW$238, DW_AT_type(*$C$DW$T$8)
    1589                      .dwattr $C$DW$238, DW_AT_name("nbr_dim")
    1590                      .dwattr $C$DW$238, DW_AT_TI_symbol_name("_nbr_dim")
    1591                      .dwattr $C$DW$238, DW_AT_data_member_location[DW_OP_plus_uconst 0x116]
    1592                      .dwattr $C$DW$238, DW_AT_accessibility(DW_ACCESS_public)
    1593              $C$DW$239       .dwtag  DW_TAG_member
    1594                      .dwattr $C$DW$239, DW_AT_type(*$C$DW$T$20)
    1595                      .dwattr $C$DW$239, DW_AT_name("n_filter")
    1596                      .dwattr $C$DW$239, DW_AT_TI_symbol_name("_n_filter")
    1597                      .dwattr $C$DW$239, DW_AT_data_member_location[DW_OP_plus_uconst 0x117]
    1598                      .dwattr $C$DW$239, DW_AT_accessibility(DW_ACCESS_public)
    1599              $C$DW$240       .dwtag  DW_TAG_member
    1600                      .dwattr $C$DW$240, DW_AT_type(*$C$DW$T$52)
    1601                      .dwattr $C$DW$240, DW_AT_name("mfcc_buf")
    1602                      .dwattr $C$DW$240, DW_AT_TI_symbol_name("_mfcc_buf")
    1603                      .dwattr $C$DW$240, DW_AT_data_member_location[DW_OP_plus_uconst 0x118]
    1604                      .dwattr $C$DW$240, DW_AT_accessibility(DW_ACCESS_public)
    1605              $C$DW$241       .dwtag  DW_TAG_member
    1606                      .dwattr $C$DW$241, DW_AT_type(*$C$DW$T$51)
    1607                      .dwattr $C$DW$241, DW_AT_name("mfcc_mean")
    1608                      .dwattr $C$DW$241, DW_AT_TI_symbol_name("_mfcc_mean")
    1609                      .dwattr $C$DW$241, DW_AT_data_member_location[DW_OP_plus_uconst 0x1f8]
    1610                      .dwattr $C$DW$241, DW_AT_accessibility(DW_ACCESS_public)
    1611              $C$DW$242       .dwtag  DW_TAG_member
    1612                      .dwattr $C$DW$242, DW_AT_type(*$C$DW$T$55)
    1613                      .dwattr $C$DW$242, DW_AT_name("cosxfm")
    1614                      .dwattr $C$DW$242, DW_AT_TI_symbol_name("_cosxfm")
    1615                      .dwattr $C$DW$242, DW_AT_data_member_location[DW_OP_plus_uconst 0x208]
    1616                      .dwattr $C$DW$242, DW_AT_accessibility(DW_ACCESS_public)
    1617              $C$DW$243       .dwtag  DW_TAG_member
    1618                      .dwattr $C$DW$243, DW_AT_type(*$C$DW$T$58)
    1619                      .dwattr $C$DW$243, DW_AT_name("mel_filter")
    1620                      .dwattr $C$DW$243, DW_AT_TI_symbol_name("_mel_filter")
    1621                      .dwattr $C$DW$243, DW_AT_data_member_location[DW_OP_plus_uconst 0x228]
    1622                      .dwattr $C$DW$243, DW_AT_accessibility(DW_ACCESS_public)
TMS320C55x Assembler PC v4.4.1 Wed Sep 13 16:34:08 2017

Tools Copyright (c) 1996-2012 Texas Instruments Incorporated
C:\Users\a0221074\AppData\Local\Temp\1594410                         PAGE   32

    1623              $C$DW$244       .dwtag  DW_TAG_member
    1624                      .dwattr $C$DW$244, DW_AT_type(*$C$DW$T$8)
    1625                      .dwattr $C$DW$244, DW_AT_name("th_noise_flr")
    1626                      .dwattr $C$DW$244, DW_AT_TI_symbol_name("_th_noise_flr")
    1627                      .dwattr $C$DW$244, DW_AT_data_member_location[DW_OP_plus_uconst 0x22a]
    1628                      .dwattr $C$DW$244, DW_AT_accessibility(DW_ACCESS_public)
    1629              $C$DW$245       .dwtag  DW_TAG_member
    1630                      .dwattr $C$DW$245, DW_AT_type(*$C$DW$T$8)
    1631                      .dwattr $C$DW$245, DW_AT_name("th_speech_delta")
    1632                      .dwattr $C$DW$245, DW_AT_TI_symbol_name("_th_speech_delta")
    1633                      .dwattr $C$DW$245, DW_AT_data_member_location[DW_OP_plus_uconst 0x22b]
    1634                      .dwattr $C$DW$245, DW_AT_accessibility(DW_ACCESS_public)
    1635              $C$DW$246       .dwtag  DW_TAG_member
    1636                      .dwattr $C$DW$246, DW_AT_type(*$C$DW$T$8)
    1637                      .dwattr $C$DW$246, DW_AT_name("th_min_speech_db")
    1638                      .dwattr $C$DW$246, DW_AT_TI_symbol_name("_th_min_speech_db")
    1639                      .dwattr $C$DW$246, DW_AT_data_member_location[DW_OP_plus_uconst 0x22c]
    1640                      .dwattr $C$DW$246, DW_AT_accessibility(DW_ACCESS_public)
    1641              $C$DW$247       .dwtag  DW_TAG_member
    1642                      .dwattr $C$DW$247, DW_AT_type(*$C$DW$T$8)
    1643                      .dwattr $C$DW$247, DW_AT_name("th_min_beg_frm")
    1644                      .dwattr $C$DW$247, DW_AT_TI_symbol_name("_th_min_beg_frm")
    1645                      .dwattr $C$DW$247, DW_AT_data_member_location[DW_OP_plus_uconst 0x22d]
    1646                      .dwattr $C$DW$247, DW_AT_accessibility(DW_ACCESS_public)
    1647              $C$DW$248       .dwtag  DW_TAG_member
    1648                      .dwattr $C$DW$248, DW_AT_type(*$C$DW$T$8)
    1649                      .dwattr $C$DW$248, DW_AT_name("th_min_end_frm")
    1650                      .dwattr $C$DW$248, DW_AT_TI_symbol_name("_th_min_end_frm")
    1651                      .dwattr $C$DW$248, DW_AT_data_member_location[DW_OP_plus_uconst 0x22e]
    1652                      .dwattr $C$DW$248, DW_AT_accessibility(DW_ACCESS_public)
    1653              $C$DW$249       .dwtag  DW_TAG_member
    1654                      .dwattr $C$DW$249, DW_AT_type(*$C$DW$T$8)
    1655                      .dwattr $C$DW$249, DW_AT_name("uttdet_cnt")
    1656                      .dwattr $C$DW$249, DW_AT_TI_symbol_name("_uttdet_cnt")
    1657                      .dwattr $C$DW$249, DW_AT_data_member_location[DW_OP_plus_uconst 0x22f]
    1658                      .dwattr $C$DW$249, DW_AT_accessibility(DW_ACCESS_public)
    1659              $C$DW$250       .dwtag  DW_TAG_member
    1660                      .dwattr $C$DW$250, DW_AT_type(*$C$DW$T$8)
    1661                      .dwattr $C$DW$250, DW_AT_name("noise_smooth")
    1662                      .dwattr $C$DW$250, DW_AT_TI_symbol_name("_noise_smooth")
    1663                      .dwattr $C$DW$250, DW_AT_data_member_location[DW_OP_plus_uconst 0x230]
    1664                      .dwattr $C$DW$250, DW_AT_accessibility(DW_ACCESS_public)
    1665              $C$DW$251       .dwtag  DW_TAG_member
    1666                      .dwattr $C$DW$251, DW_AT_type(*$C$DW$T$59)
    1667                      .dwattr $C$DW$251, DW_AT_name("ps_noisy_smoothed")
    1668                      .dwattr $C$DW$251, DW_AT_TI_symbol_name("_ps_noisy_smoothed")
    1669                      .dwattr $C$DW$251, DW_AT_data_member_location[DW_OP_plus_uconst 0x231]
    1670                      .dwattr $C$DW$251, DW_AT_accessibility(DW_ACCESS_public)
    1671              $C$DW$252       .dwtag  DW_TAG_member
    1672                      .dwattr $C$DW$252, DW_AT_type(*$C$DW$T$59)
    1673                      .dwattr $C$DW$252, DW_AT_name("noise_floor")
    1674                      .dwattr $C$DW$252, DW_AT_TI_symbol_name("_noise_floor")
    1675                      .dwattr $C$DW$252, DW_AT_data_member_location[DW_OP_plus_uconst 0x2b1]
    1676                      .dwattr $C$DW$252, DW_AT_accessibility(DW_ACCESS_public)
    1677              $C$DW$253       .dwtag  DW_TAG_member
TMS320C55x Assembler PC v4.4.1 Wed Sep 13 16:34:08 2017

Tools Copyright (c) 1996-2012 Texas Instruments Incorporated
C:\Users\a0221074\AppData\Local\Temp\1594410                         PAGE   33

    1678                      .dwattr $C$DW$253, DW_AT_type(*$C$DW$T$8)
    1679                      .dwattr $C$DW$253, DW_AT_name("sm_autoc")
    1680                      .dwattr $C$DW$253, DW_AT_TI_symbol_name("_sm_autoc")
    1681                      .dwattr $C$DW$253, DW_AT_data_member_location[DW_OP_plus_uconst 0x331]
    1682                      .dwattr $C$DW$253, DW_AT_accessibility(DW_ACCESS_public)
    1683              $C$DW$254       .dwtag  DW_TAG_member
    1684                      .dwattr $C$DW$254, DW_AT_type(*$C$DW$T$8)
    1685                      .dwattr $C$DW$254, DW_AT_name("speech_level")
    1686                      .dwattr $C$DW$254, DW_AT_TI_symbol_name("_speech_level")
    1687                      .dwattr $C$DW$254, DW_AT_data_member_location[DW_OP_plus_uconst 0x332]
    1688                      .dwattr $C$DW$254, DW_AT_accessibility(DW_ACCESS_public)
    1689              $C$DW$255       .dwtag  DW_TAG_member
    1690                      .dwattr $C$DW$255, DW_AT_type(*$C$DW$T$8)
    1691                      .dwattr $C$DW$255, DW_AT_name("noise_level")
    1692                      .dwattr $C$DW$255, DW_AT_TI_symbol_name("_noise_level")
    1693                      .dwattr $C$DW$255, DW_AT_data_member_location[DW_OP_plus_uconst 0x333]
    1694                      .dwattr $C$DW$255, DW_AT_accessibility(DW_ACCESS_public)
    1695              $C$DW$256       .dwtag  DW_TAG_member
    1696                      .dwattr $C$DW$256, DW_AT_type(*$C$DW$T$8)
    1697                      .dwattr $C$DW$256, DW_AT_name("uttdet_isspeech")
    1698                      .dwattr $C$DW$256, DW_AT_TI_symbol_name("_uttdet_isspeech")
    1699                      .dwattr $C$DW$256, DW_AT_data_member_location[DW_OP_plus_uconst 0x334]
    1700                      .dwattr $C$DW$256, DW_AT_accessibility(DW_ACCESS_public)
    1701              $C$DW$257       .dwtag  DW_TAG_member
    1702                      .dwattr $C$DW$257, DW_AT_type(*$C$DW$T$12)
    1703                      .dwattr $C$DW$257, DW_AT_name("delta_sum_accum")
    1704                      .dwattr $C$DW$257, DW_AT_TI_symbol_name("_delta_sum_accum")
    1705                      .dwattr $C$DW$257, DW_AT_data_member_location[DW_OP_plus_uconst 0x336]
    1706                      .dwattr $C$DW$257, DW_AT_accessibility(DW_ACCESS_public)
    1707              $C$DW$258       .dwtag  DW_TAG_member
    1708                      .dwattr $C$DW$258, DW_AT_type(*$C$DW$T$8)
    1709                      .dwattr $C$DW$258, DW_AT_name("uttdet_state")
    1710                      .dwattr $C$DW$258, DW_AT_TI_symbol_name("_uttdet_state")
    1711                      .dwattr $C$DW$258, DW_AT_data_member_location[DW_OP_plus_uconst 0x338]
    1712                      .dwattr $C$DW$258, DW_AT_accessibility(DW_ACCESS_public)
    1713              $C$DW$259       .dwtag  DW_TAG_member
    1714                      .dwattr $C$DW$259, DW_AT_type(*$C$DW$T$8)
    1715                      .dwattr $C$DW$259, DW_AT_name("uttdet_beg_frm")
    1716                      .dwattr $C$DW$259, DW_AT_TI_symbol_name("_uttdet_beg_frm")
    1717                      .dwattr $C$DW$259, DW_AT_data_member_location[DW_OP_plus_uconst 0x339]
    1718                      .dwattr $C$DW$259, DW_AT_accessibility(DW_ACCESS_public)
    1719              $C$DW$260       .dwtag  DW_TAG_member
    1720                      .dwattr $C$DW$260, DW_AT_type(*$C$DW$T$8)
    1721                      .dwattr $C$DW$260, DW_AT_name("uttdet_end_frm")
    1722                      .dwattr $C$DW$260, DW_AT_TI_symbol_name("_uttdet_end_frm")
    1723                      .dwattr $C$DW$260, DW_AT_data_member_location[DW_OP_plus_uconst 0x33a]
    1724                      .dwattr $C$DW$260, DW_AT_accessibility(DW_ACCESS_public)
    1725              $C$DW$261       .dwtag  DW_TAG_member
    1726                      .dwattr $C$DW$261, DW_AT_type(*$C$DW$T$8)
    1727                      .dwattr $C$DW$261, DW_AT_name("sr_is_end_of_grammar")
    1728                      .dwattr $C$DW$261, DW_AT_TI_symbol_name("_sr_is_end_of_grammar")
    1729                      .dwattr $C$DW$261, DW_AT_data_member_location[DW_OP_plus_uconst 0x33b]
    1730                      .dwattr $C$DW$261, DW_AT_accessibility(DW_ACCESS_public)
    1731              $C$DW$262       .dwtag  DW_TAG_member
    1732                      .dwattr $C$DW$262, DW_AT_type(*$C$DW$T$8)
TMS320C55x Assembler PC v4.4.1 Wed Sep 13 16:34:08 2017

Tools Copyright (c) 1996-2012 Texas Instruments Incorporated
C:\Users\a0221074\AppData\Local\Temp\1594410                         PAGE   34

    1733                      .dwattr $C$DW$262, DW_AT_name("sr_MAX_END_SYM")
    1734                      .dwattr $C$DW$262, DW_AT_TI_symbol_name("_sr_MAX_END_SYM")
    1735                      .dwattr $C$DW$262, DW_AT_data_member_location[DW_OP_plus_uconst 0x33c]
    1736                      .dwattr $C$DW$262, DW_AT_accessibility(DW_ACCESS_public)
    1737              $C$DW$263       .dwtag  DW_TAG_member
    1738                      .dwattr $C$DW$263, DW_AT_type(*$C$DW$T$8)
    1739                      .dwattr $C$DW$263, DW_AT_name("sr_MIN_END_SYM")
    1740                      .dwattr $C$DW$263, DW_AT_TI_symbol_name("_sr_MIN_END_SYM")
    1741                      .dwattr $C$DW$263, DW_AT_data_member_location[DW_OP_plus_uconst 0x33d]
    1742                      .dwattr $C$DW$263, DW_AT_accessibility(DW_ACCESS_public)
    1743              $C$DW$264       .dwtag  DW_TAG_member
    1744                      .dwattr $C$DW$264, DW_AT_type(*$C$DW$T$8)
    1745                      .dwattr $C$DW$264, DW_AT_name("gbg_end_of_speech")
    1746                      .dwattr $C$DW$264, DW_AT_TI_symbol_name("_gbg_end_of_speech")
    1747                      .dwattr $C$DW$264, DW_AT_data_member_location[DW_OP_plus_uconst 0x33e]
    1748                      .dwattr $C$DW$264, DW_AT_accessibility(DW_ACCESS_public)
    1749              $C$DW$265       .dwtag  DW_TAG_member
    1750                      .dwattr $C$DW$265, DW_AT_type(*$C$DW$T$8)
    1751                      .dwattr $C$DW$265, DW_AT_name("jac_vec_per_frame")
    1752                      .dwattr $C$DW$265, DW_AT_TI_symbol_name("_jac_vec_per_frame")
    1753                      .dwattr $C$DW$265, DW_AT_data_member_location[DW_OP_plus_uconst 0x33f]
    1754                      .dwattr $C$DW$265, DW_AT_accessibility(DW_ACCESS_public)
    1755              $C$DW$266       .dwtag  DW_TAG_member
    1756                      .dwattr $C$DW$266, DW_AT_type(*$C$DW$T$8)
    1757                      .dwattr $C$DW$266, DW_AT_name("jac_component_likelihood")
    1758                      .dwattr $C$DW$266, DW_AT_TI_symbol_name("_jac_component_likelihood")
    1759                      .dwattr $C$DW$266, DW_AT_data_member_location[DW_OP_plus_uconst 0x340]
    1760                      .dwattr $C$DW$266, DW_AT_accessibility(DW_ACCESS_public)
    1761              $C$DW$267       .dwtag  DW_TAG_member
    1762                      .dwattr $C$DW$267, DW_AT_type(*$C$DW$T$8)
    1763                      .dwattr $C$DW$267, DW_AT_name("jac_max_segment_size")
    1764                      .dwattr $C$DW$267, DW_AT_TI_symbol_name("_jac_max_segment_size")
    1765                      .dwattr $C$DW$267, DW_AT_data_member_location[DW_OP_plus_uconst 0x341]
    1766                      .dwattr $C$DW$267, DW_AT_accessibility(DW_ACCESS_public)
    1767              $C$DW$268       .dwtag  DW_TAG_member
    1768                      .dwattr $C$DW$268, DW_AT_type(*$C$DW$T$8)
    1769                      .dwattr $C$DW$268, DW_AT_name("jac_smooth_coef")
    1770                      .dwattr $C$DW$268, DW_AT_TI_symbol_name("_jac_smooth_coef")
    1771                      .dwattr $C$DW$268, DW_AT_data_member_location[DW_OP_plus_uconst 0x342]
    1772                      .dwattr $C$DW$268, DW_AT_accessibility(DW_ACCESS_public)
    1773              $C$DW$269       .dwtag  DW_TAG_member
    1774                      .dwattr $C$DW$269, DW_AT_type(*$C$DW$T$8)
    1775                      .dwattr $C$DW$269, DW_AT_name("jac_discount_factor")
    1776                      .dwattr $C$DW$269, DW_AT_TI_symbol_name("_jac_discount_factor")
    1777                      .dwattr $C$DW$269, DW_AT_data_member_location[DW_OP_plus_uconst 0x343]
    1778                      .dwattr $C$DW$269, DW_AT_accessibility(DW_ACCESS_public)
    1779              $C$DW$270       .dwtag  DW_TAG_member
    1780                      .dwattr $C$DW$270, DW_AT_type(*$C$DW$T$8)
    1781                      .dwattr $C$DW$270, DW_AT_name("jac_deweight_factor")
    1782                      .dwattr $C$DW$270, DW_AT_TI_symbol_name("_jac_deweight_factor")
    1783                      .dwattr $C$DW$270, DW_AT_data_member_location[DW_OP_plus_uconst 0x344]
    1784                      .dwattr $C$DW$270, DW_AT_accessibility(DW_ACCESS_public)
    1785              $C$DW$271       .dwtag  DW_TAG_member
    1786                      .dwattr $C$DW$271, DW_AT_type(*$C$DW$T$8)
    1787                      .dwattr $C$DW$271, DW_AT_name("jac_bayesian_weight")
TMS320C55x Assembler PC v4.4.1 Wed Sep 13 16:34:08 2017

Tools Copyright (c) 1996-2012 Texas Instruments Incorporated
C:\Users\a0221074\AppData\Local\Temp\1594410                         PAGE   35

    1788                      .dwattr $C$DW$271, DW_AT_TI_symbol_name("_jac_bayesian_weight")
    1789                      .dwattr $C$DW$271, DW_AT_data_member_location[DW_OP_plus_uconst 0x345]
    1790                      .dwattr $C$DW$271, DW_AT_accessibility(DW_ACCESS_public)
    1791              $C$DW$272       .dwtag  DW_TAG_member
    1792                      .dwattr $C$DW$272, DW_AT_type(*$C$DW$T$8)
    1793                      .dwattr $C$DW$272, DW_AT_name("sva_var_forget_factor")
    1794                      .dwattr $C$DW$272, DW_AT_TI_symbol_name("_sva_var_forget_factor")
    1795                      .dwattr $C$DW$272, DW_AT_data_member_location[DW_OP_plus_uconst 0x346]
    1796                      .dwattr $C$DW$272, DW_AT_accessibility(DW_ACCESS_public)
    1797              $C$DW$273       .dwtag  DW_TAG_member
    1798                      .dwattr $C$DW$273, DW_AT_type(*$C$DW$T$8)
    1799                      .dwattr $C$DW$273, DW_AT_name("sbc_fgt")
    1800                      .dwattr $C$DW$273, DW_AT_TI_symbol_name("_sbc_fgt")
    1801                      .dwattr $C$DW$273, DW_AT_data_member_location[DW_OP_plus_uconst 0x347]
    1802                      .dwattr $C$DW$273, DW_AT_accessibility(DW_ACCESS_public)
    1803              $C$DW$274       .dwtag  DW_TAG_member
    1804                      .dwattr $C$DW$274, DW_AT_type(*$C$DW$T$60)
    1805                      .dwattr $C$DW$274, DW_AT_name("log_H")
    1806                      .dwattr $C$DW$274, DW_AT_TI_symbol_name("_log_H")
    1807                      .dwattr $C$DW$274, DW_AT_data_member_location[DW_OP_plus_uconst 0x348]
    1808                      .dwattr $C$DW$274, DW_AT_accessibility(DW_ACCESS_public)
    1809              $C$DW$275       .dwtag  DW_TAG_member
    1810                      .dwattr $C$DW$275, DW_AT_type(*$C$DW$T$60)
    1811                      .dwattr $C$DW$275, DW_AT_name("log_N")
    1812                      .dwattr $C$DW$275, DW_AT_TI_symbol_name("_log_N")
    1813                      .dwattr $C$DW$275, DW_AT_data_member_location[DW_OP_plus_uconst 0x362]
    1814                      .dwattr $C$DW$275, DW_AT_accessibility(DW_ACCESS_public)
    1815              $C$DW$276       .dwtag  DW_TAG_member
    1816                      .dwattr $C$DW$276, DW_AT_type(*$C$DW$T$61)
    1817                      .dwattr $C$DW$276, DW_AT_name("accum")
    1818                      .dwattr $C$DW$276, DW_AT_TI_symbol_name("_accum")
    1819                      .dwattr $C$DW$276, DW_AT_data_member_location[DW_OP_plus_uconst 0x37c]
    1820                      .dwattr $C$DW$276, DW_AT_accessibility(DW_ACCESS_public)
    1821              $C$DW$277       .dwtag  DW_TAG_member
    1822                      .dwattr $C$DW$277, DW_AT_type(*$C$DW$T$20)
    1823                      .dwattr $C$DW$277, DW_AT_name("smooth_coef")
    1824                      .dwattr $C$DW$277, DW_AT_TI_symbol_name("_smooth_coef")
    1825                      .dwattr $C$DW$277, DW_AT_data_member_location[DW_OP_plus_uconst 0x44c]
    1826                      .dwattr $C$DW$277, DW_AT_accessibility(DW_ACCESS_public)
    1827              $C$DW$278       .dwtag  DW_TAG_member
    1828                      .dwattr $C$DW$278, DW_AT_type(*$C$DW$T$63)
    1829                      .dwattr $C$DW$278, DW_AT_name("sbcState")
    1830                      .dwattr $C$DW$278, DW_AT_TI_symbol_name("_sbcState")
    1831                      .dwattr $C$DW$278, DW_AT_data_member_location[DW_OP_plus_uconst 0x44e]
    1832                      .dwattr $C$DW$278, DW_AT_accessibility(DW_ACCESS_public)
    1833              $C$DW$279       .dwtag  DW_TAG_member
    1834                      .dwattr $C$DW$279, DW_AT_type(*$C$DW$T$51)
    1835                      .dwattr $C$DW$279, DW_AT_name("mfcc_noise")
    1836                      .dwattr $C$DW$279, DW_AT_TI_symbol_name("_mfcc_noise")
    1837                      .dwattr $C$DW$279, DW_AT_data_member_location[DW_OP_plus_uconst 0x450]
    1838                      .dwattr $C$DW$279, DW_AT_accessibility(DW_ACCESS_public)
    1839              $C$DW$280       .dwtag  DW_TAG_member
    1840                      .dwattr $C$DW$280, DW_AT_type(*$C$DW$T$64)
    1841                      .dwattr $C$DW$280, DW_AT_name("mfcc_noise_init_acc")
    1842                      .dwattr $C$DW$280, DW_AT_TI_symbol_name("_mfcc_noise_init_acc")
TMS320C55x Assembler PC v4.4.1 Wed Sep 13 16:34:08 2017

Tools Copyright (c) 1996-2012 Texas Instruments Incorporated
C:\Users\a0221074\AppData\Local\Temp\1594410                         PAGE   36

    1843                      .dwattr $C$DW$280, DW_AT_data_member_location[DW_OP_plus_uconst 0x460]
    1844                      .dwattr $C$DW$280, DW_AT_accessibility(DW_ACCESS_public)
    1845              $C$DW$281       .dwtag  DW_TAG_member
    1846                      .dwattr $C$DW$281, DW_AT_type(*$C$DW$T$22)
    1847                      .dwattr $C$DW$281, DW_AT_name("hmm_code")
    1848                      .dwattr $C$DW$281, DW_AT_TI_symbol_name("_hmm_code")
    1849                      .dwattr $C$DW$281, DW_AT_data_member_location[DW_OP_plus_uconst 0x480]
    1850                      .dwattr $C$DW$281, DW_AT_accessibility(DW_ACCESS_public)
    1851              $C$DW$282       .dwtag  DW_TAG_member
    1852                      .dwattr $C$DW$282, DW_AT_type(*$C$DW$T$22)
    1853                      .dwattr $C$DW$282, DW_AT_name("stt")
    1854                      .dwattr $C$DW$282, DW_AT_TI_symbol_name("_stt")
    1855                      .dwattr $C$DW$282, DW_AT_data_member_location[DW_OP_plus_uconst 0x482]
    1856                      .dwattr $C$DW$282, DW_AT_accessibility(DW_ACCESS_public)
    1857              $C$DW$283       .dwtag  DW_TAG_member
    1858                      .dwattr $C$DW$283, DW_AT_type(*$C$DW$T$22)
    1859                      .dwattr $C$DW$283, DW_AT_name("stp")
    1860                      .dwattr $C$DW$283, DW_AT_TI_symbol_name("_stp")
    1861                      .dwattr $C$DW$283, DW_AT_data_member_location[DW_OP_plus_uconst 0x484]
    1862                      .dwattr $C$DW$283, DW_AT_accessibility(DW_ACCESS_public)
    1863              $C$DW$284       .dwtag  DW_TAG_member
    1864                      .dwattr $C$DW$284, DW_AT_type(*$C$DW$T$20)
    1865                      .dwattr $C$DW$284, DW_AT_name("nbr_seg")
    1866                      .dwattr $C$DW$284, DW_AT_TI_symbol_name("_nbr_seg")
    1867                      .dwattr $C$DW$284, DW_AT_data_member_location[DW_OP_plus_uconst 0x486]
    1868                      .dwattr $C$DW$284, DW_AT_accessibility(DW_ACCESS_public)
    1869              $C$DW$285       .dwtag  DW_TAG_member
    1870                      .dwattr $C$DW$285, DW_AT_type(*$C$DW$T$20)
    1871                      .dwattr $C$DW$285, DW_AT_name("hmm_dlt")
    1872                      .dwattr $C$DW$285, DW_AT_TI_symbol_name("_hmm_dlt")
    1873                      .dwattr $C$DW$285, DW_AT_data_member_location[DW_OP_plus_uconst 0x487]
    1874                      .dwattr $C$DW$285, DW_AT_accessibility(DW_ACCESS_public)
    1875              $C$DW$286       .dwtag  DW_TAG_member
    1876                      .dwattr $C$DW$286, DW_AT_type(*$C$DW$T$20)
    1877                      .dwattr $C$DW$286, DW_AT_name("max_frame_nbr")
    1878                      .dwattr $C$DW$286, DW_AT_TI_symbol_name("_max_frame_nbr")
    1879                      .dwattr $C$DW$286, DW_AT_data_member_location[DW_OP_plus_uconst 0x488]
    1880                      .dwattr $C$DW$286, DW_AT_accessibility(DW_ACCESS_public)
    1881              $C$DW$287       .dwtag  DW_TAG_member
    1882                      .dwattr $C$DW$287, DW_AT_type(*$C$DW$T$66)
    1883                      .dwattr $C$DW$287, DW_AT_name("symcell_base")
    1884                      .dwattr $C$DW$287, DW_AT_TI_symbol_name("_symcell_base")
    1885                      .dwattr $C$DW$287, DW_AT_data_member_location[DW_OP_plus_uconst 0x48a]
    1886                      .dwattr $C$DW$287, DW_AT_accessibility(DW_ACCESS_public)
    1887              $C$DW$288       .dwtag  DW_TAG_member
    1888                      .dwattr $C$DW$288, DW_AT_type(*$C$DW$T$68)
    1889                      .dwattr $C$DW$288, DW_AT_name("statecell_base")
    1890                      .dwattr $C$DW$288, DW_AT_TI_symbol_name("_statecell_base")
    1891                      .dwattr $C$DW$288, DW_AT_data_member_location[DW_OP_plus_uconst 0x48c]
    1892                      .dwattr $C$DW$288, DW_AT_accessibility(DW_ACCESS_public)
    1893              $C$DW$289       .dwtag  DW_TAG_member
    1894                      .dwattr $C$DW$289, DW_AT_type(*$C$DW$T$70)
    1895                      .dwattr $C$DW$289, DW_AT_name("beam_base")
    1896                      .dwattr $C$DW$289, DW_AT_TI_symbol_name("_beam_base")
    1897                      .dwattr $C$DW$289, DW_AT_data_member_location[DW_OP_plus_uconst 0x48e]
TMS320C55x Assembler PC v4.4.1 Wed Sep 13 16:34:08 2017

Tools Copyright (c) 1996-2012 Texas Instruments Incorporated
C:\Users\a0221074\AppData\Local\Temp\1594410                         PAGE   37

    1898                      .dwattr $C$DW$289, DW_AT_accessibility(DW_ACCESS_public)
    1899              $C$DW$290       .dwtag  DW_TAG_member
    1900                      .dwattr $C$DW$290, DW_AT_type(*$C$DW$T$72)
    1901                      .dwattr $C$DW$290, DW_AT_name("time_base")
    1902                      .dwattr $C$DW$290, DW_AT_TI_symbol_name("_time_base")
    1903                      .dwattr $C$DW$290, DW_AT_data_member_location[DW_OP_plus_uconst 0x490]
    1904                      .dwattr $C$DW$290, DW_AT_accessibility(DW_ACCESS_public)
    1905              $C$DW$291       .dwtag  DW_TAG_member
    1906                      .dwattr $C$DW$291, DW_AT_type(*$C$DW$T$8)
    1907                      .dwattr $C$DW$291, DW_AT_name("bUseNBest")
    1908                      .dwattr $C$DW$291, DW_AT_TI_symbol_name("_bUseNBest")
    1909                      .dwattr $C$DW$291, DW_AT_data_member_location[DW_OP_plus_uconst 0x492]
    1910                      .dwattr $C$DW$291, DW_AT_accessibility(DW_ACCESS_public)
    1911              $C$DW$292       .dwtag  DW_TAG_member
    1912                      .dwattr $C$DW$292, DW_AT_type(*$C$DW$T$11)
    1913                      .dwattr $C$DW$292, DW_AT_name("total_words")
    1914                      .dwattr $C$DW$292, DW_AT_TI_symbol_name("_total_words")
    1915                      .dwattr $C$DW$292, DW_AT_data_member_location[DW_OP_plus_uconst 0x493]
    1916                      .dwattr $C$DW$292, DW_AT_accessibility(DW_ACCESS_public)
    1917              $C$DW$293       .dwtag  DW_TAG_member
    1918                      .dwattr $C$DW$293, DW_AT_type(*$C$DW$T$8)
    1919                      .dwattr $C$DW$293, DW_AT_name("prune")
    1920                      .dwattr $C$DW$293, DW_AT_TI_symbol_name("_prune")
    1921                      .dwattr $C$DW$293, DW_AT_data_member_location[DW_OP_plus_uconst 0x494]
    1922                      .dwattr $C$DW$293, DW_AT_accessibility(DW_ACCESS_public)
    1923              $C$DW$294       .dwtag  DW_TAG_member
    1924                      .dwattr $C$DW$294, DW_AT_type(*$C$DW$T$8)
    1925                      .dwattr $C$DW$294, DW_AT_name("tranwgt")
    1926                      .dwattr $C$DW$294, DW_AT_TI_symbol_name("_tranwgt")
    1927                      .dwattr $C$DW$294, DW_AT_data_member_location[DW_OP_plus_uconst 0x495]
    1928                      .dwattr $C$DW$294, DW_AT_accessibility(DW_ACCESS_public)
    1929              $C$DW$295       .dwtag  DW_TAG_member
    1930                      .dwattr $C$DW$295, DW_AT_type(*$C$DW$T$74)
    1931                      .dwattr $C$DW$295, DW_AT_name("chpr_Model_Dir")
    1932                      .dwattr $C$DW$295, DW_AT_TI_symbol_name("_chpr_Model_Dir")
    1933                      .dwattr $C$DW$295, DW_AT_data_member_location[DW_OP_plus_uconst 0x496]
    1934                      .dwattr $C$DW$295, DW_AT_accessibility(DW_ACCESS_public)
    1935              $C$DW$296       .dwtag  DW_TAG_member
    1936                      .dwattr $C$DW$296, DW_AT_type(*$C$DW$T$76)
    1937                      .dwattr $C$DW$296, DW_AT_name("trans")
    1938                      .dwattr $C$DW$296, DW_AT_TI_symbol_name("_trans")
    1939                      .dwattr $C$DW$296, DW_AT_data_member_location[DW_OP_plus_uconst 0x498]
    1940                      .dwattr $C$DW$296, DW_AT_accessibility(DW_ACCESS_public)
    1941              $C$DW$297       .dwtag  DW_TAG_member
    1942                      .dwattr $C$DW$297, DW_AT_type(*$C$DW$T$21)
    1943                      .dwattr $C$DW$297, DW_AT_name("base_net")
    1944                      .dwattr $C$DW$297, DW_AT_TI_symbol_name("_base_net")
    1945                      .dwattr $C$DW$297, DW_AT_data_member_location[DW_OP_plus_uconst 0x49a]
    1946                      .dwattr $C$DW$297, DW_AT_accessibility(DW_ACCESS_public)
    1947              $C$DW$298       .dwtag  DW_TAG_member
    1948                      .dwattr $C$DW$298, DW_AT_type(*$C$DW$T$35)
    1949                      .dwattr $C$DW$298, DW_AT_name("base_hmms")
    1950                      .dwattr $C$DW$298, DW_AT_TI_symbol_name("_base_hmms")
    1951                      .dwattr $C$DW$298, DW_AT_data_member_location[DW_OP_plus_uconst 0x49c]
    1952                      .dwattr $C$DW$298, DW_AT_accessibility(DW_ACCESS_public)
TMS320C55x Assembler PC v4.4.1 Wed Sep 13 16:34:08 2017

Tools Copyright (c) 1996-2012 Texas Instruments Incorporated
C:\Users\a0221074\AppData\Local\Temp\1594410                         PAGE   38

    1953              $C$DW$299       .dwtag  DW_TAG_member
    1954                      .dwattr $C$DW$299, DW_AT_type(*$C$DW$T$21)
    1955                      .dwattr $C$DW$299, DW_AT_name("base_mu")
    1956                      .dwattr $C$DW$299, DW_AT_TI_symbol_name("_base_mu")
    1957                      .dwattr $C$DW$299, DW_AT_data_member_location[DW_OP_plus_uconst 0x49e]
    1958                      .dwattr $C$DW$299, DW_AT_accessibility(DW_ACCESS_public)
    1959              $C$DW$300       .dwtag  DW_TAG_member
    1960                      .dwattr $C$DW$300, DW_AT_type(*$C$DW$T$21)
    1961                      .dwattr $C$DW$300, DW_AT_name("base_mu_orig")
    1962                      .dwattr $C$DW$300, DW_AT_TI_symbol_name("_base_mu_orig")
    1963                      .dwattr $C$DW$300, DW_AT_data_member_location[DW_OP_plus_uconst 0x4a0]
    1964                      .dwattr $C$DW$300, DW_AT_accessibility(DW_ACCESS_public)
    1965              $C$DW$301       .dwtag  DW_TAG_member
    1966                      .dwattr $C$DW$301, DW_AT_type(*$C$DW$T$21)
    1967                      .dwattr $C$DW$301, DW_AT_name("base_var")
    1968                      .dwattr $C$DW$301, DW_AT_TI_symbol_name("_base_var")
    1969                      .dwattr $C$DW$301, DW_AT_data_member_location[DW_OP_plus_uconst 0x4a2]
    1970                      .dwattr $C$DW$301, DW_AT_accessibility(DW_ACCESS_public)
    1971              $C$DW$302       .dwtag  DW_TAG_member
    1972                      .dwattr $C$DW$302, DW_AT_type(*$C$DW$T$21)
    1973                      .dwattr $C$DW$302, DW_AT_name("base_var_orig")
    1974                      .dwattr $C$DW$302, DW_AT_TI_symbol_name("_base_var_orig")
    1975                      .dwattr $C$DW$302, DW_AT_data_member_location[DW_OP_plus_uconst 0x4a4]
    1976                      .dwattr $C$DW$302, DW_AT_accessibility(DW_ACCESS_public)
    1977              $C$DW$303       .dwtag  DW_TAG_member
    1978                      .dwattr $C$DW$303, DW_AT_type(*$C$DW$T$21)
    1979                      .dwattr $C$DW$303, DW_AT_name("base_tran")
    1980                      .dwattr $C$DW$303, DW_AT_TI_symbol_name("_base_tran")
    1981                      .dwattr $C$DW$303, DW_AT_data_member_location[DW_OP_plus_uconst 0x4a6]
    1982                      .dwattr $C$DW$303, DW_AT_accessibility(DW_ACCESS_public)
    1983              $C$DW$304       .dwtag  DW_TAG_member
    1984                      .dwattr $C$DW$304, DW_AT_type(*$C$DW$T$35)
    1985                      .dwattr $C$DW$304, DW_AT_name("base_pdf")
    1986                      .dwattr $C$DW$304, DW_AT_TI_symbol_name("_base_pdf")
    1987                      .dwattr $C$DW$304, DW_AT_data_member_location[DW_OP_plus_uconst 0x4a8]
    1988                      .dwattr $C$DW$304, DW_AT_accessibility(DW_ACCESS_public)
    1989              $C$DW$305       .dwtag  DW_TAG_member
    1990                      .dwattr $C$DW$305, DW_AT_type(*$C$DW$T$21)
    1991                      .dwattr $C$DW$305, DW_AT_name("base_mixture")
    1992                      .dwattr $C$DW$305, DW_AT_TI_symbol_name("_base_mixture")
    1993                      .dwattr $C$DW$305, DW_AT_data_member_location[DW_OP_plus_uconst 0x4aa]
    1994                      .dwattr $C$DW$305, DW_AT_accessibility(DW_ACCESS_public)
    1995              $C$DW$306       .dwtag  DW_TAG_member
    1996                      .dwattr $C$DW$306, DW_AT_type(*$C$DW$T$21)
    1997                      .dwattr $C$DW$306, DW_AT_name("base_gconst")
    1998                      .dwattr $C$DW$306, DW_AT_TI_symbol_name("_base_gconst")
    1999                      .dwattr $C$DW$306, DW_AT_data_member_location[DW_OP_plus_uconst 0x4ac]
    2000                      .dwattr $C$DW$306, DW_AT_accessibility(DW_ACCESS_public)
    2001              $C$DW$307       .dwtag  DW_TAG_member
    2002                      .dwattr $C$DW$307, DW_AT_type(*$C$DW$T$21)
    2003                      .dwattr $C$DW$307, DW_AT_name("obs_scr")
    2004                      .dwattr $C$DW$307, DW_AT_TI_symbol_name("_obs_scr")
    2005                      .dwattr $C$DW$307, DW_AT_data_member_location[DW_OP_plus_uconst 0x4ae]
    2006                      .dwattr $C$DW$307, DW_AT_accessibility(DW_ACCESS_public)
    2007              $C$DW$308       .dwtag  DW_TAG_member
TMS320C55x Assembler PC v4.4.1 Wed Sep 13 16:34:08 2017

Tools Copyright (c) 1996-2012 Texas Instruments Incorporated
C:\Users\a0221074\AppData\Local\Temp\1594410                         PAGE   39

    2008                      .dwattr $C$DW$308, DW_AT_type(*$C$DW$T$21)
    2009                      .dwattr $C$DW$308, DW_AT_name("gauss_scr")
    2010                      .dwattr $C$DW$308, DW_AT_TI_symbol_name("_gauss_scr")
    2011                      .dwattr $C$DW$308, DW_AT_data_member_location[DW_OP_plus_uconst 0x4b0]
    2012                      .dwattr $C$DW$308, DW_AT_accessibility(DW_ACCESS_public)
    2013              $C$DW$309       .dwtag  DW_TAG_member
    2014                      .dwattr $C$DW$309, DW_AT_type(*$C$DW$T$21)
    2015                      .dwattr $C$DW$309, DW_AT_name("scale_mu")
    2016                      .dwattr $C$DW$309, DW_AT_TI_symbol_name("_scale_mu")
    2017                      .dwattr $C$DW$309, DW_AT_data_member_location[DW_OP_plus_uconst 0x4b2]
    2018                      .dwattr $C$DW$309, DW_AT_accessibility(DW_ACCESS_public)
    2019              $C$DW$310       .dwtag  DW_TAG_member
    2020                      .dwattr $C$DW$310, DW_AT_type(*$C$DW$T$21)
    2021                      .dwattr $C$DW$310, DW_AT_name("scale_var")
    2022                      .dwattr $C$DW$310, DW_AT_TI_symbol_name("_scale_var")
    2023                      .dwattr $C$DW$310, DW_AT_data_member_location[DW_OP_plus_uconst 0x4b4]
    2024                      .dwattr $C$DW$310, DW_AT_accessibility(DW_ACCESS_public)
    2025              $C$DW$311       .dwtag  DW_TAG_member
    2026                      .dwattr $C$DW$311, DW_AT_type(*$C$DW$T$9)
    2027                      .dwattr $C$DW$311, DW_AT_name("n_pdf")
    2028                      .dwattr $C$DW$311, DW_AT_TI_symbol_name("_n_pdf")
    2029                      .dwattr $C$DW$311, DW_AT_data_member_location[DW_OP_plus_uconst 0x4b6]
    2030                      .dwattr $C$DW$311, DW_AT_accessibility(DW_ACCESS_public)
    2031              $C$DW$312       .dwtag  DW_TAG_member
    2032                      .dwattr $C$DW$312, DW_AT_type(*$C$DW$T$9)
    2033                      .dwattr $C$DW$312, DW_AT_name("n_mu")
    2034                      .dwattr $C$DW$312, DW_AT_TI_symbol_name("_n_mu")
    2035                      .dwattr $C$DW$312, DW_AT_data_member_location[DW_OP_plus_uconst 0x4b7]
    2036                      .dwattr $C$DW$312, DW_AT_accessibility(DW_ACCESS_public)
    2037              $C$DW$313       .dwtag  DW_TAG_member
    2038                      .dwattr $C$DW$313, DW_AT_type(*$C$DW$T$9)
    2039                      .dwattr $C$DW$313, DW_AT_name("n_var")
    2040                      .dwattr $C$DW$313, DW_AT_TI_symbol_name("_n_var")
    2041                      .dwattr $C$DW$313, DW_AT_data_member_location[DW_OP_plus_uconst 0x4b8]
    2042                      .dwattr $C$DW$313, DW_AT_accessibility(DW_ACCESS_public)
    2043              $C$DW$314       .dwtag  DW_TAG_member
    2044                      .dwattr $C$DW$314, DW_AT_type(*$C$DW$T$77)
    2045                      .dwattr $C$DW$314, DW_AT_name("vocabulary")
    2046                      .dwattr $C$DW$314, DW_AT_TI_symbol_name("_vocabulary")
    2047                      .dwattr $C$DW$314, DW_AT_data_member_location[DW_OP_plus_uconst 0x4ba]
    2048                      .dwattr $C$DW$314, DW_AT_accessibility(DW_ACCESS_public)
    2049              $C$DW$315       .dwtag  DW_TAG_member
    2050                      .dwattr $C$DW$315, DW_AT_type(*$C$DW$T$21)
    2051                      .dwattr $C$DW$315, DW_AT_name("scale_feat")
    2052                      .dwattr $C$DW$315, DW_AT_TI_symbol_name("_scale_feat")
    2053                      .dwattr $C$DW$315, DW_AT_data_member_location[DW_OP_plus_uconst 0x4bc]
    2054                      .dwattr $C$DW$315, DW_AT_accessibility(DW_ACCESS_public)
    2055              $C$DW$316       .dwtag  DW_TAG_member
    2056                      .dwattr $C$DW$316, DW_AT_type(*$C$DW$T$78)
    2057                      .dwattr $C$DW$316, DW_AT_name("muScaleP2")
    2058                      .dwattr $C$DW$316, DW_AT_TI_symbol_name("_muScaleP2")
    2059                      .dwattr $C$DW$316, DW_AT_data_member_location[DW_OP_plus_uconst 0x4be]
    2060                      .dwattr $C$DW$316, DW_AT_accessibility(DW_ACCESS_public)
    2061              $C$DW$317       .dwtag  DW_TAG_member
    2062                      .dwattr $C$DW$317, DW_AT_type(*$C$DW$T$79)
TMS320C55x Assembler PC v4.4.1 Wed Sep 13 16:34:08 2017

Tools Copyright (c) 1996-2012 Texas Instruments Incorporated
C:\Users\a0221074\AppData\Local\Temp\1594410                         PAGE   40

    2063                      .dwattr $C$DW$317, DW_AT_name("evalstat")
    2064                      .dwattr $C$DW$317, DW_AT_TI_symbol_name("_evalstat")
    2065                      .dwattr $C$DW$317, DW_AT_data_member_location[DW_OP_plus_uconst 0x4de]
    2066                      .dwattr $C$DW$317, DW_AT_accessibility(DW_ACCESS_public)
    2067              $C$DW$318       .dwtag  DW_TAG_member
    2068                      .dwattr $C$DW$318, DW_AT_type(*$C$DW$T$81)
    2069                      .dwattr $C$DW$318, DW_AT_name("eval")
    2070                      .dwattr $C$DW$318, DW_AT_TI_symbol_name("_eval")
    2071                      .dwattr $C$DW$318, DW_AT_data_member_location[DW_OP_plus_uconst 0x4e8]
    2072                      .dwattr $C$DW$318, DW_AT_accessibility(DW_ACCESS_public)
    2073              $C$DW$319       .dwtag  DW_TAG_member
    2074                      .dwattr $C$DW$319, DW_AT_type(*$C$DW$T$82)
    2075                      .dwattr $C$DW$319, DW_AT_name("sym2pos_map")
    2076                      .dwattr $C$DW$319, DW_AT_TI_symbol_name("_sym2pos_map")
    2077                      .dwattr $C$DW$319, DW_AT_data_member_location[DW_OP_plus_uconst 0x4ee]
    2078                      .dwattr $C$DW$319, DW_AT_accessibility(DW_ACCESS_public)
    2079              $C$DW$320       .dwtag  DW_TAG_member
    2080                      .dwattr $C$DW$320, DW_AT_type(*$C$DW$T$8)
    2081                      .dwattr $C$DW$320, DW_AT_name("best_cur_scr")
    2082                      .dwattr $C$DW$320, DW_AT_TI_symbol_name("_best_cur_scr")
    2083                      .dwattr $C$DW$320, DW_AT_data_member_location[DW_OP_plus_uconst 0x4f4]
    2084                      .dwattr $C$DW$320, DW_AT_accessibility(DW_ACCESS_public)
    2085              $C$DW$321       .dwtag  DW_TAG_member
    2086                      .dwattr $C$DW$321, DW_AT_type(*$C$DW$T$8)
    2087                      .dwattr $C$DW$321, DW_AT_name("best_prev_scr")
    2088                      .dwattr $C$DW$321, DW_AT_TI_symbol_name("_best_prev_scr")
    2089                      .dwattr $C$DW$321, DW_AT_data_member_location[DW_OP_plus_uconst 0x4f5]
    2090                      .dwattr $C$DW$321, DW_AT_accessibility(DW_ACCESS_public)
    2091              $C$DW$322       .dwtag  DW_TAG_member
    2092                      .dwattr $C$DW$322, DW_AT_type(*$C$DW$T$12)
    2093                      .dwattr $C$DW$322, DW_AT_name("cum_best_prev_scr")
    2094                      .dwattr $C$DW$322, DW_AT_TI_symbol_name("_cum_best_prev_scr")
    2095                      .dwattr $C$DW$322, DW_AT_data_member_location[DW_OP_plus_uconst 0x4f6]
    2096                      .dwattr $C$DW$322, DW_AT_accessibility(DW_ACCESS_public)
    2097              $C$DW$323       .dwtag  DW_TAG_member
    2098                      .dwattr $C$DW$323, DW_AT_type(*$C$DW$T$9)
    2099                      .dwattr $C$DW$323, DW_AT_name("best_sym")
    2100                      .dwattr $C$DW$323, DW_AT_TI_symbol_name("_best_sym")
    2101                      .dwattr $C$DW$323, DW_AT_data_member_location[DW_OP_plus_uconst 0x4f8]
    2102                      .dwattr $C$DW$323, DW_AT_accessibility(DW_ACCESS_public)
    2103              $C$DW$324       .dwtag  DW_TAG_member
    2104                      .dwattr $C$DW$324, DW_AT_type(*$C$DW$T$9)
    2105                      .dwattr $C$DW$324, DW_AT_name("best_word")
    2106                      .dwattr $C$DW$324, DW_AT_TI_symbol_name("_best_word")
    2107                      .dwattr $C$DW$324, DW_AT_data_member_location[DW_OP_plus_uconst 0x4f9]
    2108                      .dwattr $C$DW$324, DW_AT_accessibility(DW_ACCESS_public)
    2109              $C$DW$325       .dwtag  DW_TAG_member
    2110                      .dwattr $C$DW$325, DW_AT_type(*$C$DW$T$9)
    2111                      .dwattr $C$DW$325, DW_AT_name("best_word_frm")
    2112                      .dwattr $C$DW$325, DW_AT_TI_symbol_name("_best_word_frm")
    2113                      .dwattr $C$DW$325, DW_AT_data_member_location[DW_OP_plus_uconst 0x4fa]
    2114                      .dwattr $C$DW$325, DW_AT_accessibility(DW_ACCESS_public)
    2115              $C$DW$326       .dwtag  DW_TAG_member
    2116                      .dwattr $C$DW$326, DW_AT_type(*$C$DW$T$9)
    2117                      .dwattr $C$DW$326, DW_AT_name("best_word_gender")
TMS320C55x Assembler PC v4.4.1 Wed Sep 13 16:34:08 2017

Tools Copyright (c) 1996-2012 Texas Instruments Incorporated
C:\Users\a0221074\AppData\Local\Temp\1594410                         PAGE   41

    2118                      .dwattr $C$DW$326, DW_AT_TI_symbol_name("_best_word_gender")
    2119                      .dwattr $C$DW$326, DW_AT_data_member_location[DW_OP_plus_uconst 0x4fb]
    2120                      .dwattr $C$DW$326, DW_AT_accessibility(DW_ACCESS_public)
    2121              $C$DW$327       .dwtag  DW_TAG_member
    2122                      .dwattr $C$DW$327, DW_AT_type(*$C$DW$T$83)
    2123                      .dwattr $C$DW$327, DW_AT_name("nbest")
    2124                      .dwattr $C$DW$327, DW_AT_TI_symbol_name("_nbest")
    2125                      .dwattr $C$DW$327, DW_AT_data_member_location[DW_OP_plus_uconst 0x4fc]
    2126                      .dwattr $C$DW$327, DW_AT_accessibility(DW_ACCESS_public)
    2127              $C$DW$328       .dwtag  DW_TAG_member
    2128                      .dwattr $C$DW$328, DW_AT_type(*$C$DW$T$8)
    2129                      .dwattr $C$DW$328, DW_AT_name("need_compact")
    2130                      .dwattr $C$DW$328, DW_AT_TI_symbol_name("_need_compact")
    2131                      .dwattr $C$DW$328, DW_AT_data_member_location[DW_OP_plus_uconst 0x7af]
    2132                      .dwattr $C$DW$328, DW_AT_accessibility(DW_ACCESS_public)
    2133              $C$DW$329       .dwtag  DW_TAG_member
    2134                      .dwattr $C$DW$329, DW_AT_type(*$C$DW$T$8)
    2135                      .dwattr $C$DW$329, DW_AT_name("word_backtrace")
    2136                      .dwattr $C$DW$329, DW_AT_TI_symbol_name("_word_backtrace")
    2137                      .dwattr $C$DW$329, DW_AT_data_member_location[DW_OP_plus_uconst 0x7b0]
    2138                      .dwattr $C$DW$329, DW_AT_accessibility(DW_ACCESS_public)
    2139              $C$DW$330       .dwtag  DW_TAG_member
    2140                      .dwattr $C$DW$330, DW_AT_type(*$C$DW$T$12)
    2141                      .dwattr $C$DW$330, DW_AT_name("best_sym_scr")
    2142                      .dwattr $C$DW$330, DW_AT_TI_symbol_name("_best_sym_scr")
    2143                      .dwattr $C$DW$330, DW_AT_data_member_location[DW_OP_plus_uconst 0x7b2]
    2144                      .dwattr $C$DW$330, DW_AT_accessibility(DW_ACCESS_public)
    2145              $C$DW$331       .dwtag  DW_TAG_member
    2146                      .dwattr $C$DW$331, DW_AT_type(*$C$DW$T$9)
    2147                      .dwattr $C$DW$331, DW_AT_name("next_time")
    2148                      .dwattr $C$DW$331, DW_AT_TI_symbol_name("_next_time")
    2149                      .dwattr $C$DW$331, DW_AT_data_member_location[DW_OP_plus_uconst 0x7b4]
    2150                      .dwattr $C$DW$331, DW_AT_accessibility(DW_ACCESS_public)
    2151              $C$DW$332       .dwtag  DW_TAG_member
    2152                      .dwattr $C$DW$332, DW_AT_type(*$C$DW$T$9)
    2153                      .dwattr $C$DW$332, DW_AT_name("last_beam_cell")
    2154                      .dwattr $C$DW$332, DW_AT_TI_symbol_name("_last_beam_cell")
    2155                      .dwattr $C$DW$332, DW_AT_data_member_location[DW_OP_plus_uconst 0x7b5]
    2156                      .dwattr $C$DW$332, DW_AT_accessibility(DW_ACCESS_public)
    2157              $C$DW$333       .dwtag  DW_TAG_member
    2158                      .dwattr $C$DW$333, DW_AT_type(*$C$DW$T$20)
    2159                      .dwattr $C$DW$333, DW_AT_name("max_state_cell")
    2160                      .dwattr $C$DW$333, DW_AT_TI_symbol_name("_max_state_cell")
    2161                      .dwattr $C$DW$333, DW_AT_data_member_location[DW_OP_plus_uconst 0x7b6]
    2162                      .dwattr $C$DW$333, DW_AT_accessibility(DW_ACCESS_public)
    2163              $C$DW$334       .dwtag  DW_TAG_member
    2164                      .dwattr $C$DW$334, DW_AT_type(*$C$DW$T$20)
    2165                      .dwattr $C$DW$334, DW_AT_name("max_beam_cell")
    2166                      .dwattr $C$DW$334, DW_AT_TI_symbol_name("_max_beam_cell")
    2167                      .dwattr $C$DW$334, DW_AT_data_member_location[DW_OP_plus_uconst 0x7b7]
    2168                      .dwattr $C$DW$334, DW_AT_accessibility(DW_ACCESS_public)
    2169              $C$DW$335       .dwtag  DW_TAG_member
    2170                      .dwattr $C$DW$335, DW_AT_type(*$C$DW$T$20)
    2171                      .dwattr $C$DW$335, DW_AT_name("max_time_cell")
    2172                      .dwattr $C$DW$335, DW_AT_TI_symbol_name("_max_time_cell")
TMS320C55x Assembler PC v4.4.1 Wed Sep 13 16:34:08 2017

Tools Copyright (c) 1996-2012 Texas Instruments Incorporated
C:\Users\a0221074\AppData\Local\Temp\1594410                         PAGE   42

    2173                      .dwattr $C$DW$335, DW_AT_data_member_location[DW_OP_plus_uconst 0x7b8]
    2174                      .dwattr $C$DW$335, DW_AT_accessibility(DW_ACCESS_public)
    2175              $C$DW$336       .dwtag  DW_TAG_member
    2176                      .dwattr $C$DW$336, DW_AT_type(*$C$DW$T$20)
    2177                      .dwattr $C$DW$336, DW_AT_name("max_sym_cell2")
    2178                      .dwattr $C$DW$336, DW_AT_TI_symbol_name("_max_sym_cell2")
    2179                      .dwattr $C$DW$336, DW_AT_data_member_location[DW_OP_plus_uconst 0x7b9]
    2180                      .dwattr $C$DW$336, DW_AT_accessibility(DW_ACCESS_public)
    2181              $C$DW$337       .dwtag  DW_TAG_member
    2182                      .dwattr $C$DW$337, DW_AT_type(*$C$DW$T$84)
    2183                      .dwattr $C$DW$337, DW_AT_name("time_table_idx")
    2184                      .dwattr $C$DW$337, DW_AT_TI_symbol_name("_time_table_idx")
    2185                      .dwattr $C$DW$337, DW_AT_data_member_location[DW_OP_plus_uconst 0x7ba]
    2186                      .dwattr $C$DW$337, DW_AT_accessibility(DW_ACCESS_public)
    2187              $C$DW$338       .dwtag  DW_TAG_member
    2188                      .dwattr $C$DW$338, DW_AT_type(*$C$DW$T$22)
    2189                      .dwattr $C$DW$338, DW_AT_name("answer")
    2190                      .dwattr $C$DW$338, DW_AT_TI_symbol_name("_answer")
    2191                      .dwattr $C$DW$338, DW_AT_data_member_location[DW_OP_plus_uconst 0x7ce]
    2192                      .dwattr $C$DW$338, DW_AT_accessibility(DW_ACCESS_public)
    2193              $C$DW$339       .dwtag  DW_TAG_member
    2194                      .dwattr $C$DW$339, DW_AT_type(*$C$DW$T$20)
    2195                      .dwattr $C$DW$339, DW_AT_name("nbr_ans")
    2196                      .dwattr $C$DW$339, DW_AT_TI_symbol_name("_nbr_ans")
    2197                      .dwattr $C$DW$339, DW_AT_data_member_location[DW_OP_plus_uconst 0x7d0]
    2198                      .dwattr $C$DW$339, DW_AT_accessibility(DW_ACCESS_public)
    2199              $C$DW$340       .dwtag  DW_TAG_member
    2200                      .dwattr $C$DW$340, DW_AT_type(*$C$DW$T$22)
    2201                      .dwattr $C$DW$340, DW_AT_name("mem_feature")
    2202                      .dwattr $C$DW$340, DW_AT_TI_symbol_name("_mem_feature")
    2203                      .dwattr $C$DW$340, DW_AT_data_member_location[DW_OP_plus_uconst 0x7d2]
    2204                      .dwattr $C$DW$340, DW_AT_accessibility(DW_ACCESS_public)
    2205              $C$DW$341       .dwtag  DW_TAG_member
    2206                      .dwattr $C$DW$341, DW_AT_type(*$C$DW$T$85)
    2207                      .dwattr $C$DW$341, DW_AT_name("total_frames")
    2208                      .dwattr $C$DW$341, DW_AT_TI_symbol_name("_total_frames")
    2209                      .dwattr $C$DW$341, DW_AT_data_member_location[DW_OP_plus_uconst 0x7d4]
    2210                      .dwattr $C$DW$341, DW_AT_accessibility(DW_ACCESS_public)
    2211              $C$DW$342       .dwtag  DW_TAG_member
    2212                      .dwattr $C$DW$342, DW_AT_type(*$C$DW$T$8)
    2213                      .dwattr $C$DW$342, DW_AT_name("nbr_loaded_utter")
    2214                      .dwattr $C$DW$342, DW_AT_TI_symbol_name("_nbr_loaded_utter")
    2215                      .dwattr $C$DW$342, DW_AT_data_member_location[DW_OP_plus_uconst 0x7d6]
    2216                      .dwattr $C$DW$342, DW_AT_accessibility(DW_ACCESS_public)
    2217              $C$DW$343       .dwtag  DW_TAG_member
    2218                      .dwattr $C$DW$343, DW_AT_type(*$C$DW$T$20)
    2219                      .dwattr $C$DW$343, DW_AT_name("mem_start_frame")
    2220                      .dwattr $C$DW$343, DW_AT_TI_symbol_name("_mem_start_frame")
    2221                      .dwattr $C$DW$343, DW_AT_data_member_location[DW_OP_plus_uconst 0x7d7]
    2222                      .dwattr $C$DW$343, DW_AT_accessibility(DW_ACCESS_public)
    2223              $C$DW$344       .dwtag  DW_TAG_member
    2224                      .dwattr $C$DW$344, DW_AT_type(*$C$DW$T$21)
    2225                      .dwattr $C$DW$344, DW_AT_name("offline_vq")
    2226                      .dwattr $C$DW$344, DW_AT_TI_symbol_name("_offline_vq")
    2227                      .dwattr $C$DW$344, DW_AT_data_member_location[DW_OP_plus_uconst 0x7d8]
TMS320C55x Assembler PC v4.4.1 Wed Sep 13 16:34:08 2017

Tools Copyright (c) 1996-2012 Texas Instruments Incorporated
C:\Users\a0221074\AppData\Local\Temp\1594410                         PAGE   43

    2228                      .dwattr $C$DW$344, DW_AT_accessibility(DW_ACCESS_public)
    2229              $C$DW$345       .dwtag  DW_TAG_member
    2230                      .dwattr $C$DW$345, DW_AT_type(*$C$DW$T$87)
    2231                      .dwattr $C$DW$345, DW_AT_name("pNss")
    2232                      .dwattr $C$DW$345, DW_AT_TI_symbol_name("_pNss")
    2233                      .dwattr $C$DW$345, DW_AT_data_member_location[DW_OP_plus_uconst 0x7da]
    2234                      .dwattr $C$DW$345, DW_AT_accessibility(DW_ACCESS_public)
    2235              $C$DW$346       .dwtag  DW_TAG_member
    2236                      .dwattr $C$DW$346, DW_AT_type(*$C$DW$T$8)
    2237                      .dwattr $C$DW$346, DW_AT_name("cm_score")
    2238                      .dwattr $C$DW$346, DW_AT_TI_symbol_name("_cm_score")
    2239                      .dwattr $C$DW$346, DW_AT_data_member_location[DW_OP_plus_uconst 0x7dc]
    2240                      .dwattr $C$DW$346, DW_AT_accessibility(DW_ACCESS_public)
    2241              $C$DW$347       .dwtag  DW_TAG_member
    2242                      .dwattr $C$DW$347, DW_AT_type(*$C$DW$T$89)
    2243                      .dwattr $C$DW$347, DW_AT_name("pConf")
    2244                      .dwattr $C$DW$347, DW_AT_TI_symbol_name("_pConf")
    2245                      .dwattr $C$DW$347, DW_AT_data_member_location[DW_OP_plus_uconst 0x7de]
    2246                      .dwattr $C$DW$347, DW_AT_accessibility(DW_ACCESS_public)
    2247              $C$DW$348       .dwtag  DW_TAG_member
    2248                      .dwattr $C$DW$348, DW_AT_type(*$C$DW$T$76)
    2249                      .dwattr $C$DW$348, DW_AT_name("trans_bk")
    2250                      .dwattr $C$DW$348, DW_AT_TI_symbol_name("_trans_bk")
    2251                      .dwattr $C$DW$348, DW_AT_data_member_location[DW_OP_plus_uconst 0x7e0]
    2252                      .dwattr $C$DW$348, DW_AT_accessibility(DW_ACCESS_public)
    2253              $C$DW$349       .dwtag  DW_TAG_member
    2254                      .dwattr $C$DW$349, DW_AT_type(*$C$DW$T$21)
    2255                      .dwattr $C$DW$349, DW_AT_name("base_net_bk")
    2256                      .dwattr $C$DW$349, DW_AT_TI_symbol_name("_base_net_bk")
    2257                      .dwattr $C$DW$349, DW_AT_data_member_location[DW_OP_plus_uconst 0x7e2]
    2258                      .dwattr $C$DW$349, DW_AT_accessibility(DW_ACCESS_public)
    2259              $C$DW$350       .dwtag  DW_TAG_member
    2260                      .dwattr $C$DW$350, DW_AT_type(*$C$DW$T$8)
    2261                      .dwattr $C$DW$350, DW_AT_name("nbr_ans_bk")
    2262                      .dwattr $C$DW$350, DW_AT_TI_symbol_name("_nbr_ans_bk")
    2263                      .dwattr $C$DW$350, DW_AT_data_member_location[DW_OP_plus_uconst 0x7e4]
    2264                      .dwattr $C$DW$350, DW_AT_accessibility(DW_ACCESS_public)
    2265              $C$DW$351       .dwtag  DW_TAG_member
    2266                      .dwattr $C$DW$351, DW_AT_type(*$C$DW$T$84)
    2267                      .dwattr $C$DW$351, DW_AT_name("answer_bk")
    2268                      .dwattr $C$DW$351, DW_AT_TI_symbol_name("_answer_bk")
    2269                      .dwattr $C$DW$351, DW_AT_data_member_location[DW_OP_plus_uconst 0x7e5]
    2270                      .dwattr $C$DW$351, DW_AT_accessibility(DW_ACCESS_public)
    2271              $C$DW$352       .dwtag  DW_TAG_member
    2272                      .dwattr $C$DW$352, DW_AT_type(*$C$DW$T$11)
    2273                      .dwattr $C$DW$352, DW_AT_name("FramesQueued")
    2274                      .dwattr $C$DW$352, DW_AT_TI_symbol_name("_FramesQueued")
    2275                      .dwattr $C$DW$352, DW_AT_data_member_location[DW_OP_plus_uconst 0x7f9]
    2276                      .dwattr $C$DW$352, DW_AT_accessibility(DW_ACCESS_public)
    2277              $C$DW$353       .dwtag  DW_TAG_member
    2278                      .dwattr $C$DW$353, DW_AT_type(*$C$DW$T$11)
    2279                      .dwattr $C$DW$353, DW_AT_name("prev_FramesQueued")
    2280                      .dwattr $C$DW$353, DW_AT_TI_symbol_name("_prev_FramesQueued")
    2281                      .dwattr $C$DW$353, DW_AT_data_member_location[DW_OP_plus_uconst 0x7fa]
    2282                      .dwattr $C$DW$353, DW_AT_accessibility(DW_ACCESS_public)
TMS320C55x Assembler PC v4.4.1 Wed Sep 13 16:34:08 2017

Tools Copyright (c) 1996-2012 Texas Instruments Incorporated
C:\Users\a0221074\AppData\Local\Temp\1594410                         PAGE   44

    2283              $C$DW$354       .dwtag  DW_TAG_member
    2284                      .dwattr $C$DW$354, DW_AT_type(*$C$DW$T$8)
    2285                      .dwattr $C$DW$354, DW_AT_name("guard")
    2286                      .dwattr $C$DW$354, DW_AT_TI_symbol_name("_guard")
    2287                      .dwattr $C$DW$354, DW_AT_data_member_location[DW_OP_plus_uconst 0x7fb]
    2288                      .dwattr $C$DW$354, DW_AT_accessibility(DW_ACCESS_public)
    2289              $C$DW$355       .dwtag  DW_TAG_member
    2290                      .dwattr $C$DW$355, DW_AT_type(*$C$DW$T$8)
    2291                      .dwattr $C$DW$355, DW_AT_name("realtime_th")
    2292                      .dwattr $C$DW$355, DW_AT_TI_symbol_name("_realtime_th")
    2293                      .dwattr $C$DW$355, DW_AT_data_member_location[DW_OP_plus_uconst 0x7fc]
    2294                      .dwattr $C$DW$355, DW_AT_accessibility(DW_ACCESS_public)
    2295              $C$DW$356       .dwtag  DW_TAG_member
    2296                      .dwattr $C$DW$356, DW_AT_type(*$C$DW$T$8)
    2297                      .dwattr $C$DW$356, DW_AT_name("realt_guard")
    2298                      .dwattr $C$DW$356, DW_AT_TI_symbol_name("_realt_guard")
    2299                      .dwattr $C$DW$356, DW_AT_data_member_location[DW_OP_plus_uconst 0x7fd]
    2300                      .dwattr $C$DW$356, DW_AT_accessibility(DW_ACCESS_public)
    2301                      .dwendtag $C$DW$T$90
    2302              
    2303              $C$DW$T$93      .dwtag  DW_TAG_typedef, DW_AT_name("gmhmm_type")
    2304                      .dwattr $C$DW$T$93, DW_AT_type(*$C$DW$T$90)
    2305                      .dwattr $C$DW$T$93, DW_AT_language(DW_LANG_C)
    2306              $C$DW$T$94      .dwtag  DW_TAG_pointer_type
    2307                      .dwattr $C$DW$T$94, DW_AT_type(*$C$DW$T$93)
    2308                      .dwattr $C$DW$T$94, DW_AT_address_class(0x17)
    2309                      .dwattr $C$DW$CU, DW_AT_language(DW_LANG_C)
    2310              
    2311              ;***************************************************************
    2312              ;* DWARF CIE ENTRIES                                           *
    2313              ;***************************************************************
    2314              
    2315              $C$DW$CIE       .dwcie 91
    2316                      .dwcfi  cfa_register, 36
    2317                      .dwcfi  cfa_offset, 0
    2318                      .dwcfi  undefined, 0
    2319                      .dwcfi  undefined, 1
    2320                      .dwcfi  undefined, 2
    2321                      .dwcfi  undefined, 3
    2322                      .dwcfi  undefined, 4
    2323                      .dwcfi  undefined, 5
    2324                      .dwcfi  undefined, 6
    2325                      .dwcfi  undefined, 7
    2326                      .dwcfi  undefined, 8
    2327                      .dwcfi  undefined, 9
    2328                      .dwcfi  undefined, 10
    2329                      .dwcfi  undefined, 11
    2330                      .dwcfi  undefined, 12
    2331                      .dwcfi  undefined, 13
    2332                      .dwcfi  same_value, 14
    2333                      .dwcfi  same_value, 15
    2334                      .dwcfi  undefined, 16
    2335                      .dwcfi  undefined, 17
    2336                      .dwcfi  undefined, 18
    2337                      .dwcfi  undefined, 19
TMS320C55x Assembler PC v4.4.1 Wed Sep 13 16:34:08 2017

Tools Copyright (c) 1996-2012 Texas Instruments Incorporated
C:\Users\a0221074\AppData\Local\Temp\1594410                         PAGE   45

    2338                      .dwcfi  undefined, 20
    2339                      .dwcfi  undefined, 21
    2340                      .dwcfi  undefined, 22
    2341                      .dwcfi  undefined, 23
    2342                      .dwcfi  undefined, 24
    2343                      .dwcfi  undefined, 25
    2344                      .dwcfi  same_value, 26
    2345                      .dwcfi  same_value, 27
    2346                      .dwcfi  same_value, 28
    2347                      .dwcfi  same_value, 29
    2348                      .dwcfi  same_value, 30
    2349                      .dwcfi  same_value, 31
    2350                      .dwcfi  undefined, 32
    2351                      .dwcfi  undefined, 33
    2352                      .dwcfi  undefined, 34
    2353                      .dwcfi  undefined, 35
    2354                      .dwcfi  undefined, 36
    2355                      .dwcfi  undefined, 37
    2356                      .dwcfi  undefined, 38
    2357                      .dwcfi  undefined, 39
    2358                      .dwcfi  undefined, 40
    2359                      .dwcfi  undefined, 41
    2360                      .dwcfi  undefined, 42
    2361                      .dwcfi  undefined, 43
    2362                      .dwcfi  undefined, 44
    2363                      .dwcfi  undefined, 45
    2364                      .dwcfi  undefined, 46
    2365                      .dwcfi  undefined, 47
    2366                      .dwcfi  undefined, 48
    2367                      .dwcfi  undefined, 49
    2368                      .dwcfi  undefined, 50
    2369                      .dwcfi  undefined, 51
    2370                      .dwcfi  undefined, 52
    2371                      .dwcfi  undefined, 53
    2372                      .dwcfi  undefined, 54
    2373                      .dwcfi  undefined, 55
    2374                      .dwcfi  undefined, 56
    2375                      .dwcfi  undefined, 57
    2376                      .dwcfi  undefined, 58
    2377                      .dwcfi  undefined, 59
    2378                      .dwcfi  undefined, 60
    2379                      .dwcfi  undefined, 61
    2380                      .dwcfi  undefined, 62
    2381                      .dwcfi  undefined, 63
    2382                      .dwcfi  undefined, 64
    2383                      .dwcfi  undefined, 65
    2384                      .dwcfi  undefined, 66
    2385                      .dwcfi  undefined, 67
    2386                      .dwcfi  undefined, 68
    2387                      .dwcfi  undefined, 69
    2388                      .dwcfi  undefined, 70
    2389                      .dwcfi  undefined, 71
    2390                      .dwcfi  undefined, 72
    2391                      .dwcfi  undefined, 73
    2392                      .dwcfi  undefined, 74
TMS320C55x Assembler PC v4.4.1 Wed Sep 13 16:34:08 2017

Tools Copyright (c) 1996-2012 Texas Instruments Incorporated
C:\Users\a0221074\AppData\Local\Temp\1594410                         PAGE   46

    2393                      .dwcfi  undefined, 75
    2394                      .dwcfi  undefined, 76
    2395                      .dwcfi  undefined, 77
    2396                      .dwcfi  undefined, 78
    2397                      .dwcfi  undefined, 79
    2398                      .dwcfi  undefined, 80
    2399                      .dwcfi  undefined, 81
    2400                      .dwcfi  undefined, 82
    2401                      .dwcfi  undefined, 83
    2402                      .dwcfi  undefined, 84
    2403                      .dwcfi  undefined, 85
    2404                      .dwcfi  undefined, 86
    2405                      .dwcfi  undefined, 87
    2406                      .dwcfi  undefined, 88
    2407                      .dwcfi  undefined, 89
    2408                      .dwcfi  undefined, 90
    2409                      .dwcfi  undefined, 91
    2410                      .dwendentry
    2411              
    2412              ;***************************************************************
    2413              ;* DWARF REGISTER MAP                                          *
    2414              ;***************************************************************
    2415              
    2416              $C$DW$357       .dwtag  DW_TAG_TI_assign_register, DW_AT_name("AC0")
    2417                      .dwattr $C$DW$357, DW_AT_location[DW_OP_reg0]
    2418              $C$DW$358       .dwtag  DW_TAG_TI_assign_register, DW_AT_name("AC0")
    2419                      .dwattr $C$DW$358, DW_AT_location[DW_OP_reg1]
    2420              $C$DW$359       .dwtag  DW_TAG_TI_assign_register, DW_AT_name("AC0_G")
    2421                      .dwattr $C$DW$359, DW_AT_location[DW_OP_reg2]
    2422              $C$DW$360       .dwtag  DW_TAG_TI_assign_register, DW_AT_name("AC1")
    2423                      .dwattr $C$DW$360, DW_AT_location[DW_OP_reg3]
    2424              $C$DW$361       .dwtag  DW_TAG_TI_assign_register, DW_AT_name("AC1")
    2425                      .dwattr $C$DW$361, DW_AT_location[DW_OP_reg4]
    2426              $C$DW$362       .dwtag  DW_TAG_TI_assign_register, DW_AT_name("AC1_G")
    2427                      .dwattr $C$DW$362, DW_AT_location[DW_OP_reg5]
    2428              $C$DW$363       .dwtag  DW_TAG_TI_assign_register, DW_AT_name("AC2")
    2429                      .dwattr $C$DW$363, DW_AT_location[DW_OP_reg6]
    2430              $C$DW$364       .dwtag  DW_TAG_TI_assign_register, DW_AT_name("AC2")
    2431                      .dwattr $C$DW$364, DW_AT_location[DW_OP_reg7]
    2432              $C$DW$365       .dwtag  DW_TAG_TI_assign_register, DW_AT_name("AC2_G")
    2433                      .dwattr $C$DW$365, DW_AT_location[DW_OP_reg8]
    2434              $C$DW$366       .dwtag  DW_TAG_TI_assign_register, DW_AT_name("AC3")
    2435                      .dwattr $C$DW$366, DW_AT_location[DW_OP_reg9]
    2436              $C$DW$367       .dwtag  DW_TAG_TI_assign_register, DW_AT_name("AC3")
    2437                      .dwattr $C$DW$367, DW_AT_location[DW_OP_reg10]
    2438              $C$DW$368       .dwtag  DW_TAG_TI_assign_register, DW_AT_name("AC3_G")
    2439                      .dwattr $C$DW$368, DW_AT_location[DW_OP_reg11]
    2440              $C$DW$369       .dwtag  DW_TAG_TI_assign_register, DW_AT_name("T0")
    2441                      .dwattr $C$DW$369, DW_AT_location[DW_OP_reg12]
    2442              $C$DW$370       .dwtag  DW_TAG_TI_assign_register, DW_AT_name("T1")
    2443                      .dwattr $C$DW$370, DW_AT_location[DW_OP_reg13]
    2444              $C$DW$371       .dwtag  DW_TAG_TI_assign_register, DW_AT_name("T2")
    2445                      .dwattr $C$DW$371, DW_AT_location[DW_OP_reg14]
    2446              $C$DW$372       .dwtag  DW_TAG_TI_assign_register, DW_AT_name("T3")
    2447                      .dwattr $C$DW$372, DW_AT_location[DW_OP_reg15]
TMS320C55x Assembler PC v4.4.1 Wed Sep 13 16:34:08 2017

Tools Copyright (c) 1996-2012 Texas Instruments Incorporated
C:\Users\a0221074\AppData\Local\Temp\1594410                         PAGE   47

    2448              $C$DW$373       .dwtag  DW_TAG_TI_assign_register, DW_AT_name("AR0")
    2449                      .dwattr $C$DW$373, DW_AT_location[DW_OP_reg16]
    2450              $C$DW$374       .dwtag  DW_TAG_TI_assign_register, DW_AT_name("XAR0")
    2451                      .dwattr $C$DW$374, DW_AT_location[DW_OP_reg17]
    2452              $C$DW$375       .dwtag  DW_TAG_TI_assign_register, DW_AT_name("AR1")
    2453                      .dwattr $C$DW$375, DW_AT_location[DW_OP_reg18]
    2454              $C$DW$376       .dwtag  DW_TAG_TI_assign_register, DW_AT_name("XAR1")
    2455                      .dwattr $C$DW$376, DW_AT_location[DW_OP_reg19]
    2456              $C$DW$377       .dwtag  DW_TAG_TI_assign_register, DW_AT_name("AR2")
    2457                      .dwattr $C$DW$377, DW_AT_location[DW_OP_reg20]
    2458              $C$DW$378       .dwtag  DW_TAG_TI_assign_register, DW_AT_name("XAR2")
    2459                      .dwattr $C$DW$378, DW_AT_location[DW_OP_reg21]
    2460              $C$DW$379       .dwtag  DW_TAG_TI_assign_register, DW_AT_name("AR3")
    2461                      .dwattr $C$DW$379, DW_AT_location[DW_OP_reg22]
    2462              $C$DW$380       .dwtag  DW_TAG_TI_assign_register, DW_AT_name("XAR3")
    2463                      .dwattr $C$DW$380, DW_AT_location[DW_OP_reg23]
    2464              $C$DW$381       .dwtag  DW_TAG_TI_assign_register, DW_AT_name("AR4")
    2465                      .dwattr $C$DW$381, DW_AT_location[DW_OP_reg24]
    2466              $C$DW$382       .dwtag  DW_TAG_TI_assign_register, DW_AT_name("XAR4")
    2467                      .dwattr $C$DW$382, DW_AT_location[DW_OP_reg25]
    2468              $C$DW$383       .dwtag  DW_TAG_TI_assign_register, DW_AT_name("AR5")
    2469                      .dwattr $C$DW$383, DW_AT_location[DW_OP_reg26]
    2470              $C$DW$384       .dwtag  DW_TAG_TI_assign_register, DW_AT_name("XAR5")
    2471                      .dwattr $C$DW$384, DW_AT_location[DW_OP_reg27]
    2472              $C$DW$385       .dwtag  DW_TAG_TI_assign_register, DW_AT_name("AR6")
    2473                      .dwattr $C$DW$385, DW_AT_location[DW_OP_reg28]
    2474              $C$DW$386       .dwtag  DW_TAG_TI_assign_register, DW_AT_name("XAR6")
    2475                      .dwattr $C$DW$386, DW_AT_location[DW_OP_reg29]
    2476              $C$DW$387       .dwtag  DW_TAG_TI_assign_register, DW_AT_name("AR7")
    2477                      .dwattr $C$DW$387, DW_AT_location[DW_OP_reg30]
    2478              $C$DW$388       .dwtag  DW_TAG_TI_assign_register, DW_AT_name("XAR7")
    2479                      .dwattr $C$DW$388, DW_AT_location[DW_OP_reg31]
    2480              $C$DW$389       .dwtag  DW_TAG_TI_assign_register, DW_AT_name("FP")
    2481                      .dwattr $C$DW$389, DW_AT_location[DW_OP_regx 0x20]
    2482              $C$DW$390       .dwtag  DW_TAG_TI_assign_register, DW_AT_name("XFP")
    2483                      .dwattr $C$DW$390, DW_AT_location[DW_OP_regx 0x21]
    2484              $C$DW$391       .dwtag  DW_TAG_TI_assign_register, DW_AT_name("PC")
    2485                      .dwattr $C$DW$391, DW_AT_location[DW_OP_regx 0x22]
    2486              $C$DW$392       .dwtag  DW_TAG_TI_assign_register, DW_AT_name("SP")
    2487                      .dwattr $C$DW$392, DW_AT_location[DW_OP_regx 0x23]
    2488              $C$DW$393       .dwtag  DW_TAG_TI_assign_register, DW_AT_name("XSP")
    2489                      .dwattr $C$DW$393, DW_AT_location[DW_OP_regx 0x24]
    2490              $C$DW$394       .dwtag  DW_TAG_TI_assign_register, DW_AT_name("BKC")
    2491                      .dwattr $C$DW$394, DW_AT_location[DW_OP_regx 0x25]
    2492              $C$DW$395       .dwtag  DW_TAG_TI_assign_register, DW_AT_name("BK03")
    2493                      .dwattr $C$DW$395, DW_AT_location[DW_OP_regx 0x26]
    2494              $C$DW$396       .dwtag  DW_TAG_TI_assign_register, DW_AT_name("BK47")
    2495                      .dwattr $C$DW$396, DW_AT_location[DW_OP_regx 0x27]
    2496              $C$DW$397       .dwtag  DW_TAG_TI_assign_register, DW_AT_name("ST0")
    2497                      .dwattr $C$DW$397, DW_AT_location[DW_OP_regx 0x28]
    2498              $C$DW$398       .dwtag  DW_TAG_TI_assign_register, DW_AT_name("ST1")
    2499                      .dwattr $C$DW$398, DW_AT_location[DW_OP_regx 0x29]
    2500              $C$DW$399       .dwtag  DW_TAG_TI_assign_register, DW_AT_name("ST2")
    2501                      .dwattr $C$DW$399, DW_AT_location[DW_OP_regx 0x2a]
    2502              $C$DW$400       .dwtag  DW_TAG_TI_assign_register, DW_AT_name("ST3")
TMS320C55x Assembler PC v4.4.1 Wed Sep 13 16:34:08 2017

Tools Copyright (c) 1996-2012 Texas Instruments Incorporated
C:\Users\a0221074\AppData\Local\Temp\1594410                         PAGE   48

    2503                      .dwattr $C$DW$400, DW_AT_location[DW_OP_regx 0x2b]
    2504              $C$DW$401       .dwtag  DW_TAG_TI_assign_register, DW_AT_name("MDP")
    2505                      .dwattr $C$DW$401, DW_AT_location[DW_OP_regx 0x2c]
    2506              $C$DW$402       .dwtag  DW_TAG_TI_assign_register, DW_AT_name("MDP05")
    2507                      .dwattr $C$DW$402, DW_AT_location[DW_OP_regx 0x2d]
    2508              $C$DW$403       .dwtag  DW_TAG_TI_assign_register, DW_AT_name("MDP67")
    2509                      .dwattr $C$DW$403, DW_AT_location[DW_OP_regx 0x2e]
    2510              $C$DW$404       .dwtag  DW_TAG_TI_assign_register, DW_AT_name("BRC0")
    2511                      .dwattr $C$DW$404, DW_AT_location[DW_OP_regx 0x2f]
    2512              $C$DW$405       .dwtag  DW_TAG_TI_assign_register, DW_AT_name("RSA0")
    2513                      .dwattr $C$DW$405, DW_AT_location[DW_OP_regx 0x30]
    2514              $C$DW$406       .dwtag  DW_TAG_TI_assign_register, DW_AT_name("RSA0_H")
    2515                      .dwattr $C$DW$406, DW_AT_location[DW_OP_regx 0x31]
    2516              $C$DW$407       .dwtag  DW_TAG_TI_assign_register, DW_AT_name("REA0")
    2517                      .dwattr $C$DW$407, DW_AT_location[DW_OP_regx 0x32]
    2518              $C$DW$408       .dwtag  DW_TAG_TI_assign_register, DW_AT_name("REA0_H")
    2519                      .dwattr $C$DW$408, DW_AT_location[DW_OP_regx 0x33]
    2520              $C$DW$409       .dwtag  DW_TAG_TI_assign_register, DW_AT_name("BRS1")
    2521                      .dwattr $C$DW$409, DW_AT_location[DW_OP_regx 0x34]
    2522              $C$DW$410       .dwtag  DW_TAG_TI_assign_register, DW_AT_name("BRC1")
    2523                      .dwattr $C$DW$410, DW_AT_location[DW_OP_regx 0x35]
    2524              $C$DW$411       .dwtag  DW_TAG_TI_assign_register, DW_AT_name("RSA1")
    2525                      .dwattr $C$DW$411, DW_AT_location[DW_OP_regx 0x36]
    2526              $C$DW$412       .dwtag  DW_TAG_TI_assign_register, DW_AT_name("RSA1_H")
    2527                      .dwattr $C$DW$412, DW_AT_location[DW_OP_regx 0x37]
    2528              $C$DW$413       .dwtag  DW_TAG_TI_assign_register, DW_AT_name("REA1")
    2529                      .dwattr $C$DW$413, DW_AT_location[DW_OP_regx 0x38]
    2530              $C$DW$414       .dwtag  DW_TAG_TI_assign_register, DW_AT_name("REA1_H")
    2531                      .dwattr $C$DW$414, DW_AT_location[DW_OP_regx 0x39]
    2532              $C$DW$415       .dwtag  DW_TAG_TI_assign_register, DW_AT_name("CSR")
    2533                      .dwattr $C$DW$415, DW_AT_location[DW_OP_regx 0x3a]
    2534              $C$DW$416       .dwtag  DW_TAG_TI_assign_register, DW_AT_name("RPTC")
    2535                      .dwattr $C$DW$416, DW_AT_location[DW_OP_regx 0x3b]
    2536              $C$DW$417       .dwtag  DW_TAG_TI_assign_register, DW_AT_name("CDP")
    2537                      .dwattr $C$DW$417, DW_AT_location[DW_OP_regx 0x3c]
    2538              $C$DW$418       .dwtag  DW_TAG_TI_assign_register, DW_AT_name("XCDP")
    2539                      .dwattr $C$DW$418, DW_AT_location[DW_OP_regx 0x3d]
    2540              $C$DW$419       .dwtag  DW_TAG_TI_assign_register, DW_AT_name("TRN0")
    2541                      .dwattr $C$DW$419, DW_AT_location[DW_OP_regx 0x3e]
    2542              $C$DW$420       .dwtag  DW_TAG_TI_assign_register, DW_AT_name("TRN1")
    2543                      .dwattr $C$DW$420, DW_AT_location[DW_OP_regx 0x3f]
    2544              $C$DW$421       .dwtag  DW_TAG_TI_assign_register, DW_AT_name("BSA01")
    2545                      .dwattr $C$DW$421, DW_AT_location[DW_OP_regx 0x40]
    2546              $C$DW$422       .dwtag  DW_TAG_TI_assign_register, DW_AT_name("BSA23")
    2547                      .dwattr $C$DW$422, DW_AT_location[DW_OP_regx 0x41]
    2548              $C$DW$423       .dwtag  DW_TAG_TI_assign_register, DW_AT_name("BSA45")
    2549                      .dwattr $C$DW$423, DW_AT_location[DW_OP_regx 0x42]
    2550              $C$DW$424       .dwtag  DW_TAG_TI_assign_register, DW_AT_name("BSA67")
    2551                      .dwattr $C$DW$424, DW_AT_location[DW_OP_regx 0x43]
    2552              $C$DW$425       .dwtag  DW_TAG_TI_assign_register, DW_AT_name("BSAC")
    2553                      .dwattr $C$DW$425, DW_AT_location[DW_OP_regx 0x44]
    2554              $C$DW$426       .dwtag  DW_TAG_TI_assign_register, DW_AT_name("CARRY")
    2555                      .dwattr $C$DW$426, DW_AT_location[DW_OP_regx 0x45]
    2556              $C$DW$427       .dwtag  DW_TAG_TI_assign_register, DW_AT_name("TC1")
    2557                      .dwattr $C$DW$427, DW_AT_location[DW_OP_regx 0x46]
TMS320C55x Assembler PC v4.4.1 Wed Sep 13 16:34:08 2017

Tools Copyright (c) 1996-2012 Texas Instruments Incorporated
C:\Users\a0221074\AppData\Local\Temp\1594410                         PAGE   49

    2558              $C$DW$428       .dwtag  DW_TAG_TI_assign_register, DW_AT_name("TC2")
    2559                      .dwattr $C$DW$428, DW_AT_location[DW_OP_regx 0x47]
    2560              $C$DW$429       .dwtag  DW_TAG_TI_assign_register, DW_AT_name("M40")
    2561                      .dwattr $C$DW$429, DW_AT_location[DW_OP_regx 0x48]
    2562              $C$DW$430       .dwtag  DW_TAG_TI_assign_register, DW_AT_name("SXMD")
    2563                      .dwattr $C$DW$430, DW_AT_location[DW_OP_regx 0x49]
    2564              $C$DW$431       .dwtag  DW_TAG_TI_assign_register, DW_AT_name("ARMS")
    2565                      .dwattr $C$DW$431, DW_AT_location[DW_OP_regx 0x4a]
    2566              $C$DW$432       .dwtag  DW_TAG_TI_assign_register, DW_AT_name("C54CM")
    2567                      .dwattr $C$DW$432, DW_AT_location[DW_OP_regx 0x4b]
    2568              $C$DW$433       .dwtag  DW_TAG_TI_assign_register, DW_AT_name("SATA")
    2569                      .dwattr $C$DW$433, DW_AT_location[DW_OP_regx 0x4c]
    2570              $C$DW$434       .dwtag  DW_TAG_TI_assign_register, DW_AT_name("SATD")
    2571                      .dwattr $C$DW$434, DW_AT_location[DW_OP_regx 0x4d]
    2572              $C$DW$435       .dwtag  DW_TAG_TI_assign_register, DW_AT_name("RDM")
    2573                      .dwattr $C$DW$435, DW_AT_location[DW_OP_regx 0x4e]
    2574              $C$DW$436       .dwtag  DW_TAG_TI_assign_register, DW_AT_name("FRCT")
    2575                      .dwattr $C$DW$436, DW_AT_location[DW_OP_regx 0x4f]
    2576              $C$DW$437       .dwtag  DW_TAG_TI_assign_register, DW_AT_name("SMUL")
    2577                      .dwattr $C$DW$437, DW_AT_location[DW_OP_regx 0x50]
    2578              $C$DW$438       .dwtag  DW_TAG_TI_assign_register, DW_AT_name("INTM")
    2579                      .dwattr $C$DW$438, DW_AT_location[DW_OP_regx 0x51]
    2580              $C$DW$439       .dwtag  DW_TAG_TI_assign_register, DW_AT_name("AR0LC")
    2581                      .dwattr $C$DW$439, DW_AT_location[DW_OP_regx 0x52]
    2582              $C$DW$440       .dwtag  DW_TAG_TI_assign_register, DW_AT_name("AR1LC")
    2583                      .dwattr $C$DW$440, DW_AT_location[DW_OP_regx 0x53]
    2584              $C$DW$441       .dwtag  DW_TAG_TI_assign_register, DW_AT_name("AR2LC")
    2585                      .dwattr $C$DW$441, DW_AT_location[DW_OP_regx 0x54]
    2586              $C$DW$442       .dwtag  DW_TAG_TI_assign_register, DW_AT_name("AR3LC")
    2587                      .dwattr $C$DW$442, DW_AT_location[DW_OP_regx 0x55]
    2588              $C$DW$443       .dwtag  DW_TAG_TI_assign_register, DW_AT_name("AR4LC")
    2589                      .dwattr $C$DW$443, DW_AT_location[DW_OP_regx 0x56]
    2590              $C$DW$444       .dwtag  DW_TAG_TI_assign_register, DW_AT_name("AR5LC")
    2591                      .dwattr $C$DW$444, DW_AT_location[DW_OP_regx 0x57]
    2592              $C$DW$445       .dwtag  DW_TAG_TI_assign_register, DW_AT_name("AR6LC")
    2593                      .dwattr $C$DW$445, DW_AT_location[DW_OP_regx 0x58]
    2594              $C$DW$446       .dwtag  DW_TAG_TI_assign_register, DW_AT_name("AR7LC")
    2595                      .dwattr $C$DW$446, DW_AT_location[DW_OP_regx 0x59]
    2596              $C$DW$447       .dwtag  DW_TAG_TI_assign_register, DW_AT_name("CDPLC")
    2597                      .dwattr $C$DW$447, DW_AT_location[DW_OP_regx 0x5a]
    2598              $C$DW$448       .dwtag  DW_TAG_TI_assign_register, DW_AT_name("CIE_RETA")
    2599                      .dwattr $C$DW$448, DW_AT_location[DW_OP_regx 0x5b]
    2600                      .dwendtag $C$DW$CU
    2601              
    2601              
    2601              

No Assembly Errors, No Assembly Warnings
