******************************************************************************
              TMS320C55x Linker PC v4.4.1                      
******************************************************************************
>> Linked Wed Sep 13 16:55:11 2017

OUTPUT FILE NAME:   <c55AudioDemo.out>
ENTRY POINT SYMBOL: "_c_int00"  address: 0004bbc7


MEMORY CONFIGURATION

         name            origin    length      used     unused   attr    fill
                        (bytes)   (bytes)    (bytes)   (bytes)
----------------------  --------  ---------  --------  --------  ----  --------
  DARAM                 000000c0   0000fe40  0000e8fa  00001546  RWIX
  VECT                  0000ff00   00000100  00000100  00000000  RWIX
  SARAM                 00010000   0003e000  0003c5be  00001a42  RWIX
  SARAM31               0004e000   00002000  00000000  00002000  RWIX
  SRAM                  00050000   007b0000  00000000  007b0000  RWIX
  NOR                   00800000   00400000  00000000  00400000  RWIX
  NAND                  00e00000   00100000  00000000  00100000  RWIX
  Char_ROM              00fe0000   00000600  00000600  00000000  RWIX


SECTION ALLOCATION MAP
(Addresses surrounded by []'s are displayed for convenience only!)

output                                                          attributes/
section   page  orgn(bytes) orgn(words) len(bytes) len(words)   input sections
--------  ----  ----------- ----------- ---------- ----------   --------------
.pinit       0   [ 00010000 ]  00008000          *   00000000   UNINITIALIZED

.vers        0   [ 00000000 ]  00000000          *   00000044   COPY SECTION
                 [ 00000000 ]  00000000          *   00000044   c55AudioDemocfg.obj (.vers)

.bss         0   [ 000000c0 ]  00000060          *   00002fb0   UNINITIALIZED
                 [ 000000c0 ]  00000060          *   00001604   audio_data_collection.obj (.bss)
                 [ 00002cc8 ]  00001664          *   00000d24   C55XXCSL_LP.lib : csl_mmcsd_ataIf.obj (.bss)
                 [ 00004710 ]  00002388          *   0000027c   audio_data_read.obj (.bss)
                 [ 00004c08 ]  00002604          *   0000018a   audio_utils.obj (.bss)
                 [ 00004f1c ]  0000278e          *   00000119   rts55h.lib : defs.obj (.bss)
                 [ 0000514e ]  000028a7          *   00000001              : errno.obj (.bss)
                 [ 00005150 ]  000028a8          *   00000118   ble_fw_upgrade.obj (.bss)
                 [ 00005380 ]  000029c0          *   00000102   sbl.obj (.bss)
                 [ 00005584 ]  00002ac2          *   000000d0   rts55h.lib : trgdrv.obj (.bss)
                 [ 00005724 ]  00002b92          *   000000a8   recognizer.obj (.bss)
                 [ 00005874 ]  00002c3a          *   0000008a   bios_NONINST.a55H : knl.o55H (.bss)
                 [ 00005988 ]  00002cc4          *   00000084   C55XXCSL_LP.lib : csl_intc.obj (.bss)
                 [ 00005a90 ]  00002d48          *   00000078   sys_state.obj (.bss)
                 [ 00005b80 ]  00002dc0          *   00000071   rts55h.lib : lowlev.obj (.bss)
                 [ 00005c62 ]  00002e31          *   00000001              : fopen.obj (.bss)
                 [ 00005c64 ]  00002e32          *   00000036   codec_config.obj (.bss)
                 [ 00005cd0 ]  00002e68          *   00000034   bios_NONINST.a55H : tsk.o55H (.bss)
                 [ 00005d38 ]  00002e9c          *   0000002a   C55XXCSL_LP.lib : csl_i2s.obj (.bss)
                 [ 00005d8c ]  00002ec6          *   00000028   bios_NONINST.a55H : tsk_stup.o55H (.bss)
                 [ 00005ddc ]  00002eee          *   00000024   C55XXCSL_LP.lib : csl_mmcsd.obj (.bss)
                 [ 00005e24 ]  00002f12          *   00000023   bios_NONINST.a55H : obj_init.o55H (.bss)
                 [ 00005e6a ]  00002f35          *   00000001   --HOLE--
                 [ 00005e6c ]  00002f36          *   0000001c   sbl_image_int.obj (.bss)
                 [ 00005ea4 ]  00002f52          *   0000001a   TIesrEngineC55.lib : load.obj (.bss)
                 [ 00005ed8 ]  00002f6c          *   00000014   bios_NONINST.a55H : sys.o55H (.bss)
                 [ 00005f00 ]  00002f80          *   00000012   C55XXCSL_LP.lib : csl_i2c.obj (.bss)
                 [ 00005f24 ]  00002f92          *   00000012   user_interface.obj (.bss)
                 [ 00005f48 ]  00002fa4          *   0000000f   c55AudioDemocfg.obj (.bss)
                 [ 00005f66 ]  00002fb3          *   00000001   --HOLE--
                 [ 00005f68 ]  00002fb4          *   0000000e   pll_control.obj (.bss)
                 [ 00005f84 ]  00002fc2          *   0000000c   bios5505.a55H : clk5505_data.o55H (.bss)
                 [ 00005f9c ]  00002fce          *   0000000b   sbl_tl.obj (.bss)
                 [ 00005fb2 ]  00002fd9          *   00000001   --HOLE--
                 [ 00005fb4 ]  00002fda          *   00000008   bios_NONINST.a55H : knl_tick.o55H (.bss)
                 [ 00005fc4 ]  00002fe2          *   00000006                     : utl_putc.o55H (.bss)
                 [ 00005fd0 ]  00002fe8          *   00000006   sys_init.obj (.bss)
                 [ 00005fdc ]  00002fee          *   00000004   atafs_bios_drv_lib.lib : ata_.obj (.bss)
                 [ 00005fe4 ]  00002ff2          *   00000004   bios_NONINST.a55H : clk_data.o55H (.bss)
                 [ 00005fec ]  00002ff6          *   00000004   gpio_control.obj (.bss)
                 [ 00005ff4 ]  00002ffa          *   00000004   rts55h.lib : _lock.obj (.bss)
                 [ 00005ffc ]  00002ffe          *   00000004              : exit.obj (.bss)
                 [ 00006004 ]  00003002          *   00000003   C55XXCSL_LP.lib : csl_spi.obj (.bss)
                 [ 0000600a ]  00003005          *   00000003                   : csl_sysctrl.obj (.bss)
                 [ 00006010 ]  00003008          *   00000002   atafs_bios_drv_lib.lib : ata_readword.obj (.bss)
                 [ 00006014 ]  0000300a          *   00000002                          : atacreate.obj (.bss)
                 [ 00006018 ]  0000300c          *   00000002   bios_NONINST.a55H : clk_data2.o55H (.bss)
                 [ 0000601c ]  0000300e          *   00000002                     : mem_asm.o55H (.bss)

.data        0   [ 000000c0 ]  00000060          *   00000000   UNINITIALIZED

.clk         0   [ 000000c0 ]  00000060          *   00000000   UNINITIALIZED

.prd         0   [ 000000c0 ]  00000060          *   00000000   UNINITIALIZED

.hst         0   [ 000000c0 ]  00000060          *   00000000   UNINITIALIZED

.pip         0   [ 000000c0 ]  00000060          *   00000000   UNINITIALIZED

.const       0   [ 00006020 ]  00003010          *   000014b5   
                 [ 00006020 ]  00003010          *   00000388   src_ti_huge.l55 : srccoef.obj (.const)
                 [ 00006730 ]  00003398          *   000001fd   audio_data_read.obj (.const:.string)
                 [ 00006b2a ]  00003595          *   00000001   TIesrEngineC55.lib : jac_one.obj (.const)
                 [ 00006b2c ]  00003596          *   000001d9   sys_state.obj (.const:.string)
                 [ 00006ede ]  0000376f          *   000001a0   TIesrEngineC55.lib : mfcc_f.obj (.const:_cosxfm26)
                 [ 0000721e ]  0000390f          *   00000180                      : mfcc_f.obj (.const:_mel_filter20)
                 [ 0000751e ]  00003a8f          *   00000180                      : mfcc_f.obj (.const:_mel_filter26)
                 [ 0000781e ]  00003c0f          *   00000101   rts55h.lib : ctype.obj (.const:__ctypes_)
                 [ 00007a20 ]  00003d10          *   00000100   TIesrEngineC55.lib : mfcc_f.obj (.const:_hw)
                 [ 00007c20 ]  00003e10          *   000000c8                      : mfcc_f.obj (.const:_cosxfm20)
                 [ 00007db0 ]  00003ed8          *   000000b5   sys_init.obj (.const:.string)
                 [ 00007f1a ]  00003f8d          *   00000080   TIesrEngineC55.lib : mfcc_f.obj (.const:_w_imag)
                 [ 0000801a ]  0000400d          *   00000080                      : mfcc_f.obj (.const:_w_real)
                 [ 0000811a ]  0000408d          *   00000001   --HOLE-- [fill = 0]
                 [ 0000811c ]  0000408e          *   0000006f   eq_ti_huge.l55 : eqcoeff.obj (.const)
                 [ 000081fa ]  000040fd          *   00000001   --HOLE-- [fill = 0]
                 [ 000081fc ]  000040fe          *   0000005a   src_ti_huge.l55 : src_ti_apply.obj (.const:_SRC_TI_Interpolators)
                 [ 000082b0 ]  00004158          *   00000051                   : src_ti_rate.obj (.const:_SRC_TI_ConversionIndex)
                 [ 00008352 ]  000041a9          *   00000001   --HOLE-- [fill = 0]
                 [ 00008354 ]  000041aa          *   0000004f   bios_NONINST.a55H : tsk_stup.o55H (.const)
                 [ 000083f2 ]  000041f9          *   00000001   --HOLE-- [fill = 0]
                 [ 000083f4 ]  000041fa          *   00000037   TIesrEngineC55.lib : load.obj (.const:.string)
                 [ 00008462 ]  00004231          *   00000001   --HOLE-- [fill = 0]
                 [ 00008464 ]  00004232          *   00000034                      : jac-estm.obj (.const:_pPriorChannelInvvar)
                 [ 000084cc ]  00004266          *   00000028   src_ti_huge.l55 : src_ti_vtable.obj (.const:_SRC_TI_ISRC)
                 [ 0000851c ]  0000428e          *   00000025   audio_utils.obj (.const:.string)
                 [ 00008566 ]  000042b3          *   00000001   --HOLE-- [fill = 0]
                 [ 00008568 ]  000042b4          *   00000024   rts55h.lib : _printfi.obj (.const:.string)
                 [ 000085b0 ]  000042d8          *   00000024   src_ti_huge.l55 : src_ti_apply.obj (.const:_SRC_TI_LowPassFilters)
                 [ 000085f8 ]  000042fc          *   00000023   bios_NONINST.a55H : utl_doab.o55H (.const)
                 [ 0000863e ]  0000431f          *   00000001   --HOLE-- [fill = 0]
                 [ 00008640 ]  00004320          *   00000022                     : utl_doer.o55H (.const)
                 [ 00008684 ]  00004342          *   00000020   eq_ti_huge.l55 : eq_ti_vtable.obj (.const:_EQ_TI_IEQ)
                 [ 000086c4 ]  00004362          *   00000019   TIesrEngineC55.lib : jac-estm.obj (.const:.string)
                 [ 000086f6 ]  0000437b          *   00000016                      : search.obj (.const:_$P$T0$1)
                 [ 00008722 ]  00004391          *   00000001   --HOLE-- [fill = 0]
                 [ 00008724 ]  00004392          *   00000014   audio_utils.obj (.const:_EQ_TI_48KHzCoeffs)
                 [ 0000874c ]  000043a6          *   00000014   audio_utils.obj (.const:_EQ_TI_48KHzDeltaCoeffs)
                 [ 00008774 ]  000043ba          *   00000014   audio_utils.obj (.const:_EQ_TI_8KHzCoeffs)
                 [ 0000879c ]  000043ce          *   00000014   audio_utils.obj (.const:_EQ_TI_8KHzDeltaCoeffs)
                 [ 000087c4 ]  000043e2          *   00000012   src_ti_huge.l55 : smplrate.obj (.const:_SRC_TI_rates)
                 [ 000087e8 ]  000043f4          *   00000010   TIesrEngineC55.lib : siinit.obj (.const:_K_mean)
                 [ 00008808 ]  00004404          *   0000000f                      : rapidsearch.obj (.const)
                 [ 00008826 ]  00004413          *   00000001   --HOLE-- [fill = 0]
                 [ 00008828 ]  00004414          *   0000000c   rts55h.lib : _printfi.obj (.const)
                 [ 00008840 ]  00004420          *   0000000a   TIesrEngineC55.lib : mfcc_f.obj (.const:_coef_1downto1over10_in_Q15)
                 [ 00008854 ]  0000442a          *   0000000a   sbl_image_int.obj (.const)
                 [ 00008868 ]  00004434          *   00000009   TIesrEngineC55.lib : dist.obj (.const:_coef_logpoly)
                 [ 0000887a ]  0000443d          *   00000008                      : jac-estm.obj (.const)
                 [ 0000888a ]  00004445          *   00000008                      : pmc_f.obj (.const:_coef_log)
                 [ 0000889a ]  0000444d          *   00000008   user_interface.obj (.const:_gSarData2PbnState)
                 [ 000088aa ]  00004455          *   00000008   rts55h.lib : divd.obj (.const:_initial_approx$1)
                 [ 000088ba ]  0000445d          *   00000007   TIesrEngineC55.lib : dist.obj (.const:_coef_powpoly)
                 [ 000088c8 ]  00004464          *   00000006   recognizer.obj (.const:.string)
                 [ 000088d4 ]  0000446a          *   00000006   TIesrEngineC55.lib : mfcc_f.obj (.const:_mu_scale_p2_dyn)
                 [ 000088e0 ]  00004470          *   00000006                      : mfcc_f.obj (.const:_mu_scale_p2_sta)
                 [ 000088ec ]  00004476          *   00000006   user_interface.obj (.const)
                 [ 000088f8 ]  0000447c          *   00000005   TIesrEngineC55.lib : uttdet.obj (.const)
                 [ 00008902 ]  00004481          *   00000005                      : dist.obj (.const:_$P$T0$1)
                 [ 0000890c ]  00004486          *   00000005                      : dist.obj (.const:_$P$T1$2)
                 [ 00008916 ]  0000448b          *   00000004   pll_control.obj (.const:_pllCfg_100MHz)
                 [ 0000891e ]  0000448f          *   00000004   pll_control.obj (.const:_pllCfg_120MHz)
                 [ 00008926 ]  00004493          *   00000004   pll_control.obj (.const:_pllCfg_40MHz)
                 [ 0000892e ]  00004497          *   00000004   pll_control.obj (.const:_pllCfg_50MHz)
                 [ 00008936 ]  0000449b          *   00000004   pll_control.obj (.const:_pllCfg_60MHz)
                 [ 0000893e ]  0000449f          *   00000004   pll_control.obj (.const:_pllCfg_75MHz)
                 [ 00008946 ]  000044a3          *   00000001   --HOLE-- [fill = 0]
                 [ 00008948 ]  000044a4          *   00000004   bios_NONINST.a55H : mem_allo.o55H (.const)
                 [ 00008950 ]  000044a8          *   00000004                     : mem_free.o55H (.const)
                 [ 00008958 ]  000044ac          *   00000003   TIesrEngineC55.lib : rapidsearch.obj (.const:_CM_LOGIST_PARA)
                 [ 0000895e ]  000044af          *   00000003                      : rapidsearch.obj (.const:_CM_UV_ACC)
                 [ 00008964 ]  000044b2          *   00000003                      : rapidsearch.obj (.const:_CM_UV_REJ)
                 [ 0000896a ]  000044b5          *   00000003                      : pmc_f.obj (.const:_coef_twomx)
                 [ 00008970 ]  000044b8          *   00000002   rts55h.lib : fputs.obj (.const:.string)
                 [ 00008974 ]  000044ba          *   00000002   sbl_image_int.obj (.const:.string)
                 [ 00008978 ]  000044bc          *   00000002   user_interface.obj (.const:_gAllowedPbnStates)
                 [ 0000897c ]  000044be          *   00000002   rts55h.lib : fltlid.obj (.const)
                 [ 00008980 ]  000044c0          *   00000002              : fltuld.obj (.const)
                 [ 00008984 ]  000044c2          *   00000002   sys_init.obj (.const)
                 [ 00008988 ]  000044c4          *   00000001   bios_NONINST.a55H : tsk.o55H (.const)

.mem         0   [ 0000898a ]  000044c5          *   00000001   UNINITIALIZED
                 [ 0000898a ]  000044c5          *   00000001   c55AudioDemocfg.obj (.mem)

.sysstack 
*            0   [ 0000898c ]  000044c6          *   00000400   UNINITIALIZED
                 [ 0000898c ]  000044c6          *   00000400   --HOLE--

.stack       0   [ 0000918c ]  000048c6          *   00001000   UNINITIALIZED
                 [ 0000918c ]  000048c6          *   00001000   --HOLE--

.gd_mu       0   [ 0000b18c ]  000058c6          *   00000d85   
                 [ 0000b18c ]  000058c6          *   00000d85   gd_mu.obj (.gd_mu)

.TSK_idle$stk 
*            0   [ 0000cc98 ]  0000664c          *   00000500   UNINITIALIZED
                 [ 0000cc98 ]  0000664c          *   00000500   c55AudioDemocfg.obj (.TSK_idle$stk)

MP3_DARAM_HEAP 
*            0   [ 0000d698 ]  00006b4c          *   00000220   UNINITIALIZED
                 [ 0000d698 ]  00006b4c          *   00000220   audio_utils.obj (MP3_DARAM_HEAP)

.sts         0   [ 0000dad8 ]  00006d6c          *   00000070   UNINITIALIZED
                 [ 0000dad8 ]  00006d6c          *   00000070   c55AudioDemocfg.obj (.sts)

.sem         0   [ 0000dbb8 ]  00006ddc          *   00000016   UNINITIALIZED
                 [ 0000dbb8 ]  00006ddc          *   00000016   c55AudioDemocfg.obj (.sem)

.log         0   [ 0000dbe4 ]  00006df2          *   0000000a   UNINITIALIZED
                 [ 0000dbe4 ]  00006df2          *   0000000a   c55AudioDemocfg.obj (.log)

.args        0   [ 0000dbf8 ]  00006dfc          *   00000004   
                 [ 0000dbf8 ]  00006dfc          *   00000004   --HOLE-- [fill = 0]

.LOG_system$buf 
*            0   [ 0000dc00 ]  00006e00          *   00000200   UNINITIALIZED
                 [ 0000dc00 ]  00006e00          *   00000200   c55AudioDemocfg.obj (.LOG_system$buf)

.trace       0   [ 0000e000 ]  00007000          *   00000200   
                 [ 0000e000 ]  00007000          *   00000200   --HOLE-- [fill = 00]

.swi         0   [ 0000e400 ]  00007200          *   00000118   UNINITIALIZED
                 [ 0000e400 ]  00007200          *   00000118   c55AudioDemocfg.obj (.swi)

.hwi_disp_sec 
*            0   [ 0000e630 ]  00007318          *   000000c0   UNINITIALIZED
                 [ 0000e630 ]  00007318          *   000000c0   bios_NONINST.a55H : hwi_disp_asm.o55H (.hwi_disp_sec)

.sysdata     0   [ 0000e7b0 ]  000073d8          *   000000b0   UNINITIALIZED
                 [ 0000e7b0 ]  000073d8          *   000000b0   bios_NONINST.a55H : biosdata.o55H (.sysdata)

.tsk         0   [ 0000e910 ]  00007488          *   0000002e   UNINITIALIZED
                 [ 0000e910 ]  00007488          *   0000002e   c55AudioDemocfg.obj (.tsk)

.gblinit     0   [ 0000e96c ]  000074b6          *   00000015   
                 [ 0000e96c ]  000074b6          *   00000015   c55AudioDemocfg.obj (.gblinit)

.sys         0   [ 0000e998 ]  000074cc          *   00000008   UNINITIALIZED
                 [ 0000e998 ]  000074cc          *   00000008   c55AudioDemocfg.obj (.sys)

.idl         0   [ 0000e9a8 ]  000074d4          *   00000004   UNINITIALIZED
                 [ 0000e9a8 ]  000074d4          *   00000004   c55AudioDemocfg.obj (.idl)

.idlcal      0   [ 0000e9b0 ]  000074d8          *   00000004   UNINITIALIZED
                 [ 0000e9b0 ]  000074d8          *   00000004   c55AudioDemocfg.obj (.idlcal)

.trcdata     0   [ 0000e9b8 ]  000074dc          *   00000003   
                 [ 0000e9b8 ]  000074dc          *   00000003   bios_NONINST.a55H : trc.o55H (.trcdata)

.hwi_vec     0     0000ff00  [ 00007f80 ] 00000100          *   
                   0000ff00  [ 00007f80 ] 00000100          *   c55AudioDemocfg.obj (.hwi_vec)

.text        0     00010000  [ 00008000 ] 0001f0de          *   
                   00010000  [ 00008000 ] 00003494          *   C55XXCSL_LP.lib : csl_mmcsd.obj (.text)
                   00013494  [ 00009a4a ] 00001533          *   rts55h.lib : _printfi.obj (.text)
                   000149c7  [ 0000a4e3+] 0000148c          *   C55XXCSL_LP.lib : csl_dma.obj (.text)
                   00015e53  [ 0000af29+] 00000a6a          *                   : csl_mmcsd_ataIf.obj (.text)
                   000168bd  [ 0000b45e+] 00000967          *                   : csl_i2c.obj (.text)
                   00017224  [ 0000b912 ] 0000084d          *   TIesrEngineC55.lib : jac-estm.obj (.text:_JAC_update)
                   00017a71  [ 0000bd38+] 00000819          *   C55XXCSL_LP.lib : csl_sar.obj (.text)
                   0001828a  [ 0000c145 ] 00000773          *                   : csl_i2s.obj (.text)
                   000189fd  [ 0000c4fe+] 000006e8          *   codec_config.obj (.text:_codecConfigPlayback)
                   000190e5  [ 0000c872+] 000006e1          *   C55XXCSL_LP.lib : csl_rtc.obj (.text)
                   000197c6  [ 0000cbe3 ] 000005ac          *   TIesrEngineC55.lib : search.obj (.text:_update_obs_prob)
                   00019d72  [ 0000ceb9 ] 0000056e          *                      : search.obj (.text:_EM_beta)
                   0001a2e0  [ 0000d170 ] 00000558          *                      : search.obj (.text:_back_trace_beam)
                   0001a838  [ 0000d41c ] 0000054e          *                      : liveproc.obj (.text:_MP_CallEachPass)
                   0001ad86  [ 0000d6c3 ] 00000538          *   rts55h.lib : trgdrv.obj (.text)
                   0001b2be  [ 0000d95f ] 00000518          *              : lowlev.obj (.text)
                   0001b7d6  [ 0000dbeb ] 000004ee          *   C55XXCSL_LP.lib : csl_gpio.obj (.text)
                   0001bcc4  [ 0000de62 ] 000004ec          *   TIesrEngineC55.lib : search.obj (.text:_path_propagation)
                   0001c1b0  [ 0000e0d8 ] 000004d2          *   atafs_bios_drv_lib.lib : atacreate.obj (.text)
                   0001c682  [ 0000e341 ] 000004c0          *   ble_fw_upgrade.obj (.text:_parse_hex_file)
                   0001cb42  [ 0000e5a1 ] 00000471          *   C55XXCSL_LP.lib : csl_spi.obj (.text)
                   0001cfb3  [ 0000e7d9+] 00000466          *   TIesrEngineC55.lib : search.obj (.text:_search_a_frame)
                   0001d419  [ 0000ea0c+] 0000040e          *   atafs_bios_drv_lib.lib : ata_bytes_seek.obj (.text)
                   0001d827  [ 0000ec13+] 000003c7          *   rts55h.lib : divd.obj (.text)
                   0001dbee  [ 0000edf7 ] 000003b3          *   TIesrEngineC55.lib : search.obj (.text:_init_search)
                   0001dfa1  [ 0000efd0+] 000003a7          *   C55XXCSL_LP.lib : csl_intc.obj (.text)
                   0001e348  [ 0000f1a4 ] 0000038a          *   codec_config.obj (.text:_codecConfigLoopback)
                   0001e6d2  [ 0000f369 ] 00000344          *   audio_data_read.obj (.text:_init_media)
                   0001ea16  [ 0000f50b ] 00000331          *   TIesrEngineC55.lib : engine_sireco_init.obj (.text:_TIesrEngineOpen)
                   0001ed47  [ 0000f6a3+] 00000320          *   atafs_bios_drv_lib.lib : atawrite_fatphy.obj (.text)
                   0001f067  [ 0000f833+] 000002f7          *   audio_data_collection.obj (.text:_I2sDmaInit)
                   0001f35e  [ 0000f9af ] 000002f2          *   audio_data_collection.obj (.text:_process_audio_data_sd)
                   0001f650  [ 0000fb28 ] 000002e1          *   eq_ti_huge.l55 : eq_ti_apply.obj (.text)
                   0001f931  [ 0000fc98+] 000002c2          *   TIesrEngineC55.lib : siinit.obj (.text:_AllocateTIesrMemory)
                   0001fbf3  [ 0000fdf9+] 000002ae          *                      : jac-estm.obj (.text:_ijac_update_t)
                   0001fea1  [ 0000ff50+] 0000029a          *                      : load.obj (.text:_load_models)
                   0002013b  [ 0001009d+] 00000290          *   recognizer.obj (.text:_swi_RecognizerFxn)
                   000203cb  [ 000101e5+] 00000288          *   sys_state.obj (.text:_swi_UpdateDisplayFxn)
                   00020653  [ 00010329+] 0000026c          *   rts55h.lib : fopen.obj (.text)
                   000208bf  [ 0001045f+] 00000265          *   C55XXCSL_LP.lib : csl_pll.obj (.text)
                   00020b24  [ 00010592 ] 0000025c          *   rts55h.lib : llmpy.obj (.text)
                   00020d80  [ 000106c0 ] 00000257          *              : addd.obj (.text)
                   00020fd7  [ 000107eb+] 00000246          *   TIesrEngineC55.lib : jac_one.obj (.text:_per_frame_jac_compensate)
                   0002121d  [ 0001090e+] 00000241          *                      : uttdet.obj (.text:_compute_uttdet)
                   0002145e  [ 00010a2f ] 0000023f          *                      : search.obj (.text:_find_best_sym)
                   0002169d  [ 00010b4e+] 00000023          *                      : siinit.obj (.text:_SetDefault)
                   000216c0  [ 00010b60 ] 0000023e          *   src_ti_huge.l55 : src_ti_interp.obj (.text)
                   000218fe  [ 00010c7f ] 00000231          *   atafs_bios_drv_lib.lib : ata.obj (.text)
                   00021b2f  [ 00010d97+] 00000228          *   TIesrEngineC55.lib : jac-estm.obj (.text:_JAC_make_net)
                   00021d57  [ 00010eab+] 00000226          *   rts55h.lib : fwrite.obj (.text)
                   00021f7d  [ 00010fbe+] 00000225          *   TIesrEngineC55.lib : search.obj (.text:_gauss_obs_score_f)
                   000221a2  [ 000110d1 ] 00000225          *                      : dist.obj (.text:_hlr_gauss_obs_score_f)
                   000223c7  [ 000111e3+] 00000224          *                      : search.obj (.text:_find_good_syms)
                   000225eb  [ 000112f5+] 00000216          *                      : pmc_f.obj (.text:_pmc_log_add)
                   00022801  [ 00011400+] 00000213          *                      : search.obj (.text:_compact_beam_cells)
                   00022a14  [ 0001150a ] 0000020c          *   C55XXCSL_LP.lib : csl_gpt.obj (.text)
                   00022c20  [ 00011610 ] 000001f6          *   TIesrEngineC55.lib : noise_sub.obj (.text:_noise_subs)
                   00022e16  [ 0001170b ] 000001ee          *   C55XXCSL_LP.lib : csl_sysctrl.obj (.text)
                   00023004  [ 00011802 ] 000001ea          *   rts55h.lib : cmpd.obj (.text)
                   000231ee  [ 000118f7 ] 000001e6          *   lcd_osd.obj (.text:_oled_init)
                   000233d4  [ 000119ea ] 000001cd          *   TIesrEngineC55.lib : rapidsearch.obj (.text:_cm_calc_confidence)
                   000235a1  [ 00011ad0+] 000001ca          *                      : search.obj (.text:_allocate_eval_cell)
                   0002376b  [ 00011bb5+] 000001c4          *                      : mfcc_f.obj (.text:_mel_scale_fft_spectrum)
                   0002392f  [ 00011c97+] 000001be          *                      : search.obj (.text:_EM_alpha_gnl)
                   00023aed  [ 00011d76+] 000001b7          *                      : mfcc_f.obj (.text:_compute_regression)
                   00023ca4  [ 00011e52 ] 000001b5          *   codec_config.obj (.text:_codecInputSelect)
                   00023e59  [ 00011f2c+] 000001b3          *   TIesrEngineC55.lib : search.obj (.text:_cross_model_path)
                   0002400c  [ 00012006 ] 000001ab          *   sys_init.obj (.text:_swi_SysInitFxn)
                   000241b7  [ 000120db+] 000001a5          *   TIesrEngineC55.lib : rapidsearch.obj (.text:_cm_open)
                   0002435c  [ 000121ae ] 0000019e          *                      : mfcc_f.obj (.text:_fft)
                   000244fa  [ 0001227d ] 0000019d          *   atafs_bios_drv_lib.lib : atawrite_fat.obj (.text)
                   00024697  [ 0001234b+] 0000018f          *   TIesrEngineC55.lib : search.obj (.text:_within_model_path)
                   00024826  [ 00012413 ] 00000187          *   atafs_bios_drv_lib.lib : ataread_fatphy.obj (.text)
                   000249ad  [ 000124d6+] 00000185          *   TIesrEngineC55.lib : mfcc_f.obj (.text:_fft_spectrum_to_mfcc)
                   00024b32  [ 00012599 ] 00000180          *                      : mfcc_f.obj (.text:_bit_rev)
                   00024cb2  [ 00012659 ] 0000017b          *   rts55h.lib : fputs.obj (.text)
                   00024e2d  [ 00012716+] 00000176          *   wave_parser.obj (.text:_extractWaveInfo)
                   00024fa3  [ 000127d1+] 00000175          *   audio_data_collection.obj (.text:_process_audio_data_linein)
                   00025118  [ 0001288c ] 00000174          *   TIesrEngineC55.lib : pmc_f.obj (.text:_log_spectral_compensation)
                   0002528c  [ 00012946 ] 00000174          *                      : pmc_f.obj (.text:_pmc)
                   00025400  [ 00012a00 ] 00000168          *   sys_state.obj (.text:_swi_updateBleFWFxn)
                   00025568  [ 00012ab4 ] 00000167          *   sys_state.obj (.text:_updateDisplay)
                   000256cf  [ 00012b67+] 00000166          *   audio_data_collection.obj (.text:_DMA_Isr)
                   00025835  [ 00012c1a+] 00000160          *   TIesrEngineC55.lib : search.obj (.text:_mark_cells_state)
                   00025995  [ 00012cca+] 0000015f          *                      : search.obj (.text:_EM_alpha_e)
                   00025af4  [ 00012d7a ] 0000015a          *   pll_control.obj (.text:_pll_sample)
                   00025c4e  [ 00012e27 ] 00000156          *   TIesrEngineC55.lib : uttdet.obj (.text:_uttdet_state_machine)
                   00025da4  [ 00012ed2 ] 00000152          *   user_interface.obj (.text:_userInterfaceInit)
                   00025ef6  [ 00012f7b ] 0000014f          *   src_ti_huge.l55 : src_ti_rate.obj (.text:_SRC_TI_setOutputRate)
                   00026045  [ 00013022+] 0000014f          *                   : src_ti_ialg.obj (.text:algInit:_SRC_TI_algInit)
                   00026194  [ 000130ca ] 0000014d          *                   : src_ti_rate.obj (.text:_SRC_TI_setInputRate)
                   000262e1  [ 00013170+] 0000014d          *   sys_init.obj (.text:_main)
                   0002642e  [ 00013217 ] 0000014b          *   rts55h.lib : mpyd.obj (.text)
                   00026579  [ 000132bc+] 00000148          *              : fread.obj (.text)
                   000266c1  [ 00013360+] 00000145          *   audio_utils.obj (.text:_EQ_create)
                   00026806  [ 00013403 ] 00000145          *   TIesrEngineC55.lib : mfcc_f.obj (.text:_dim_p2_init)
                   0002694b  [ 000134a5+] 00000140          *                      : dist.obj (.text:_hlr_expn)
                   00026a8b  [ 00013545+] 0000013d          *                      : mfcc_f.obj (.text:_cos_transform)
                   00026bc8  [ 000135e4 ] 00000137          *                      : rapidsearch.obj (.text:_cm_acc_seg_ratio_to_antimodel)
                   00026cff  [ 0001367f+] 00000137          *                      : load.obj (.text:_free_models)
                   00026e36  [ 0001371b ] 00000135          *   atafs_bios_drv_lib.lib : atadir__getdir.obj (.text)
                   00026f6b  [ 000137b5+] 0000012e          *   TIesrEngineC55.lib : jac-estm.obj (.text:_update_statistics)
                   00027099  [ 0001384c+] 0000012a          *                      : mfcc_f.obj (.text:_preemphasis)
                   000271c3  [ 000138e1+] 00000129          *   sbl_tl.obj (.text:_SPI_sendCommand)
                   000272ec  [ 00013976 ] 00000129          *   atafs_bios_drv_lib.lib : ataseek.obj (.text)
                   00027415  [ 00013a0a+] 00000126          *   lcd_osd.obj (.text:_print_char)
                   0002753b  [ 00013a9d+] 0000011c          *   audio_data_collection.obj (.text:_handle_txintr_sd)
                   00027657  [ 00013b2b+] 00000118          *   TIesrEngineC55.lib : rapidsearch.obj (.text:_cm_logistic)
                   0002776f  [ 00013bb7+] 00000115          *                      : mfcc_f.obj (.text:_fft_to_power_spectrum)
                   00027884  [ 00013c42 ] 00000108          *   atafs_bios_drv_lib.lib : atadirentry.obj (.text)
                   0002798c  [ 00013cc6 ] 00000106          *   TIesrEngineC55.lib : search.obj (.text:_grow_beam_cell)
                   00027a92  [ 00013d49 ] 000000fe          *   audio_data_collection.obj (.text:_startDma)
                   00027b90  [ 00013dc8 ] 000000fc          *   TIesrEngineC55.lib : load.obj (.text:_load_word_list)
                   00027c8c  [ 00013e46 ] 000000f8          *   codec_config.obj (.text:_aic_SetADCBiQuad)
                   00027d84  [ 00013ec2 ] 000000f7          *   audio_utils.obj (.text:_SRC_create)
                   00027e7b  [ 00013f3d+] 000000f4          *   TIesrEngineC55.lib : siproc.obj (.text:_CloseSearchEngine)
                   00027f6f  [ 00013fb7+] 000000f4          *                      : dist.obj (.text:_div32_32)
                   00028063  [ 00014031+] 000000f3          *   rts55h.lib : setvbuf.obj (.text)
                   00028156  [ 000140ab ] 000000f2          *   ble_fw_upgrade.obj (.text:_ascii2HexBytes)
                   00028248  [ 00014124 ] 000000f1          *   audio_utils.obj (.text:_eq_config)
                   00028339  [ 0001419c+] 000000f1          *   ble_fw_upgrade.obj (.text:_get_record_details)
                   0002842a  [ 00014215 ] 000000ee          *   sys_state.obj (.text:_processCommand)
                   00028518  [ 0001428c ] 000000ea          *   TIesrEngineC55.lib : search.obj (.text:_set_search_space)
                   00028602  [ 00014301 ] 000000e9          *                      : mfcc_f.obj (.text:_hamming_window)
                   000286eb  [ 00014375+] 000000e9          *   audio_data_read.obj (.text:_open_first_file)
                   000287d4  [ 000143ea ] 000000e8          *   sys_state.obj (.text:_GPIO_Isr)
                   000288bc  [ 0001445e ] 000000e8          *   atafs_bios_drv_lib.lib : atacreate_findcluster.obj (.text)
                   000289a4  [ 000144d2 ] 000000e7          *   TIesrEngineC55.lib : jac-estm.obj (.text:_jac_force_alignment)
                   00028a8b  [ 00014545+] 000000e4          *   atafs_bios_drv_lib.lib : ata_readword.obj (.text)
                   00028b6f  [ 000145b7+] 000000e2          *   TIesrEngineC55.lib : uttdet.obj (.text:_frequency_shaping)
                   00028c51  [ 00014628+] 000000e2          *   audio_data_collection.obj (.text:_swi_AudioDataCollectionFxn)
                   00028d33  [ 00014699+] 000000e2          *   user_interface.obj (.text:_swi_UserInputFxn)
                   00028e15  [ 0001470a+] 000000df          *   TIesrEngineC55.lib : search.obj (.text:_coloring_beam)
                   00028ef4  [ 0001477a ] 000000de          *                      : search.obj (.text:_next_beam_cell)
                   00028fd2  [ 000147e9 ] 000000de          *                      : pack.obj (.text:_vector_packing)
                   000290b0  [ 00014858 ] 000000dc          *                      : jac-estm.obj (.text:_JAC_save)
                   0002918c  [ 000148c6 ] 000000da          *                      : search.obj (.text:_EM_alpha_t)
                   00029266  [ 00014933 ] 000000da          *                      : search.obj (.text:_nb_sort)
                   00029340  [ 000149a0 ] 000000da          *   rts55h.lib : _io_perm.obj (.text)
                   0002941a  [ 00014a0d ] 000000d9          *   atafs_bios_drv_lib.lib : atadir_.obj (.text)
                   000294f3  [ 00014a79+] 000000d4          *   TIesrEngineC55.lib : dist.obj (.text:_log_polyfit)
                   000295c7  [ 00014ae3+] 000000d4          *                      : dist.obj (.text:_pow_polyfit)
                   0002969b  [ 00014b4d+] 000000d3          *   src_ti_huge.l55 : src_ti_apply.obj (.text:_SRC_TI_apply)
                   0002976e  [ 00014bb7 ] 000000d3          *   TIesrEngineC55.lib : mfcc_f.obj (.text:_ss_update_meanEn)
                   00029841  [ 00014c20+] 000000d2          *                      : search.obj (.text:_nb_uniq)
                   00029913  [ 00014c89+] 000000cd          *   audio_data_collection.obj (.text:_selectAudioSource)
                   000299e0  [ 00014cf0 ] 000000cb          *   gpio_control.obj (.text:_GpioInit)
                   00029aab  [ 00014d55+] 000000cb          *   TIesrEngineC55.lib : mfcc_f.obj (.text:_mfcc_a_window)
                   00029b76  [ 00014dbb ] 000000c9          *                      : siinit.obj (.text:_Init_Search)
                   00029c3f  [ 00014e1f+] 000000c8          *   ble_fw_upgrade.obj (.text:_get_high_addr)
                   00029d07  [ 00014e83+] 000000c7          *   TIesrEngineC55.lib : obsprob.obj (.text:_observation_likelihood)
                   00029dce  [ 00014ee7 ] 000000c4          *                      : rapidsearch.obj (.text:_cm_save)
                   00029e92  [ 00014f49 ] 000000bf          *   lcd_osd.obj (.text:_print_string)
                   00029f51  [ 00014fa8+] 000000bf          *   audio_data_read.obj (.text:_swi_ReadAudioDataFxn)
                   0002a010  [ 00015008 ] 000000be          *   rts55h.lib : trgmsg.obj (.text:CIO_breakpoint)
                   0002a0ce  [ 00015067 ] 000000be          *   audio_data_collection.obj (.text:_swi_AudioMicDataCollectionFxn)
                   0002a18c  [ 000150c6 ] 000000bd          *   TIesrEngineC55.lib : search.obj (.text:_EM_alpha_0)
                   0002a249  [ 00015124+] 000000bd          *                      : rapidsearch.obj (.text:_cm_hypo_ratio)
                   0002a306  [ 00015183 ] 000000bd          *                      : dist.obj (.text:_hlr_expn_q)
                   0002a3c3  [ 000151e1+] 000000bd          *                      : uttdet.obj (.text:_normalize)
                   0002a480  [ 00015240 ] 000000bc          *   audio_data_collection.obj (.text:_handle_txintr_linein)
                   0002a53c  [ 0001529e ] 000000bc          *   sys_state.obj (.text:_swi_ReadSPIDataFxn)
                   0002a5f8  [ 000152fc ] 000000bb          *   audio_data_read.obj (.text:_find_ble_firmware)
                   0002a6b3  [ 00015359+] 000000ba          *   TIesrEngineC55.lib : search.obj (.text:_eval_cell_overflow)
                   0002a76d  [ 000153b6+] 000000ba          *   audio_data_read.obj (.text:_find_ble_stack_firmware)
                   0002a827  [ 00015413+] 000000ba          *   rts55h.lib : fflush.obj (.text)
                   0002a8e1  [ 00015470+] 000000b1          *   TIesrEngineC55.lib : gmhmm_type_common.obj (.text:_GetAnswerWord)
                   0002a992  [ 000154c9 ] 000000b0          *   pll_control.obj (.text:_appGetSysClk)
                   0002aa42  [ 00015521 ] 000000af          *   atafs_bios_drv_lib.lib : ataread_.obj (.text)
                   0002aaf1  [ 00015578+] 000000ae          *   TIesrEngineC55.lib : search.obj (.text:_get_frame_time)
                   0002ab9f  [ 000155cf+] 000000ab          *   eq_ti_huge.l55 : eq_ti_ialg.obj (.text:algInit:_EQ_TI_algInit)
                   0002ac4a  [ 00015625 ] 000000ab          *   atafs_bios_drv_lib.lib : ataread__nextbroken.obj (.text)
                   0002acf5  [ 0001567a+] 000000aa          *   TIesrEngineC55.lib : search.obj (.text:_find_beam_index)
                   0002ad9f  [ 000156cf+] 000000aa          *                      : mfcc_f.obj (.text:_inverse_cos_transform)
                   0002ae49  [ 00015724+] 000000aa          *                      : my_fileio.obj (.text:_my_fwrite)
                   0002aef3  [ 00015779+] 000000a6          *   rts55h.lib : _bufread.obj (.text)
                   0002af99  [ 000157cc+] 000000a2          *              : fputc.obj (.text)
                   0002b03b  [ 0001581d+] 000000a0          *              : divul.obj (.text)
                   0002b0db  [ 0001586d+] 0000009f          *   sys_state.obj (.text:_processPushButton)
                   0002b17a  [ 000158bd ] 0000009d          *   TIesrEngineC55.lib : load.obj (.text:_load_var)
                   0002b217  [ 0001590b+] 00000098          *   audio_data_read.obj (.text:_read_file)
                   0002b2af  [ 00015957+] 00000098          *   TIesrEngineC55.lib : search.obj (.text:_update_time_table)
                   0002b347  [ 000159a3+] 00000098          *   atafs_bios_drv_lib.lib : ata_chdir.obj (.text)
                   0002b3df  [ 000159ef+] 00000096          *   TIesrEngineC55.lib : rapidsearch.obj (.text:_cm_load)
                   0002b475  [ 00015a3a+] 00000095          *                      : search.obj (.text:_init_cur_pos)
                   0002b50a  [ 00015a85 ] 00000095          *                      : load.obj (.text:_load_mu)
                   0002b59f  [ 00015acf+] 00000095          *                      : search.obj (.text:_next_time_cell)
                   0002b634  [ 00015b1a ] 00000094          *   sbl.obj (.text:_SBL_eraseFlash)
                   0002b6c8  [ 00015b64 ] 00000094          *   TIesrEngineC55.lib : search.obj (.text:_find_state_cell)
                   0002b75c  [ 00015bae ] 00000094          *   atafs_bios_drv_lib.lib : ataread.obj (.text)
                   0002b7f0  [ 00015bf8 ] 00000093          *   TIesrEngineC55.lib : mfcc_f.obj (.text:_ss_est_frmEn)
                   0002b883  [ 00015c41+] 00000092          *                      : rapidsearch.obj (.text:_cm_backup_adp)
                   0002b915  [ 00015c8a+] 00000092          *                      : rapidsearch.obj (.text:_cm_restore_adp)
                   0002b9a7  [ 00015cd3+] 00000090          *   audio_data_read.obj (.text:_open_next_file)
                   0002ba37  [ 00015d1b+] 0000008d          *   audio_utils.obj (.text:_src_config)
                   0002bac4  [ 00015d62 ] 0000008c          *   sys_init.obj (.text:_init_spi)
                   0002bb50  [ 00015da8 ] 0000008c          *   TIesrEngineC55.lib : jac-estm.obj (.text:_process_a_file_1)
                   0002bbdc  [ 00015dee ] 0000008c          *                      : pack.obj (.text:_vector_unpacking)
                   0002bc68  [ 00015e34 ] 0000008b          *                      : rapidsearch.obj (.text:_cm_init)
                   0002bcf3  [ 00015e79+] 0000008a          *                      : jac-estm.obj (.text:_JAC_clear)
                   0002bd7d  [ 00015ebe+] 0000008a          *   sbl_tl.obj (.text:_SBL_TL_sendCmd16)
                   0002be07  [ 00015f03+] 0000008a          *   sbl_tl.obj (.text:_SBL_TL_sendCmd)
                   0002be91  [ 00015f48+] 00000085          *   codec_config.obj (.text:_aic_writeCoef)
                   0002bf16  [ 00015f8b ] 00000085          *   TIesrEngineC55.lib : rapidsearch.obj (.text:_rj_dist)
                   0002bf9b  [ 00015fcd+] 00000083          *                      : dist.obj (.text:_hlr_logsum)
                   0002c01e  [ 0001600f ] 00000083          *                      : dist.obj (.text:_q15_x)
                   0002c0a1  [ 00016050+] 00000083          *                      : search.obj (.text:_search_if_comes_to_the_end_of_net)
                   0002c124  [ 00016092 ] 00000082          *                      : siinit.obj (.text:_OpenASR)
                   0002c1a6  [ 000160d3 ] 00000081          *                      : jac_one.obj (.text:_jac_one_mean)
                   0002c227  [ 00016113+] 00000080          *   ble_fw_upgrade.obj (.text:_download_data)
                   0002c2a7  [ 00016153+] 0000007c          *   lcd_osd.obj (.text:_clear_lcd_page)
                   0002c323  [ 00016191+] 0000007b          *   pll_control.obj (.text:_PLL_getConfig)
                   0002c39e  [ 000161cf ] 0000007b          *   codec_config.obj (.text:_aic_writeCoef_2)
                   0002c419  [ 0001620c+] 0000007a          *   sys_init.obj (.text:_ClockGatingAll)
                   0002c493  [ 00016249+] 00000079          *   ble_fw_upgrade.obj (.text:_bleFWUpgrade)
                   0002c50c  [ 00016286 ] 00000079          *   sys_init.obj (.text:_init_rtc)
                   0002c585  [ 000162c2+] 00000079          *   rts55h.lib : ltoa.obj (.text)
                   0002c5fe  [ 000162ff ] 00000077          *   atafs_bios_drv_lib.lib : ata_flush.obj (.text)
                   0002c675  [ 0001633a+] 00000077          *                          : ataread_calc.obj (.text)
                   0002c6ec  [ 00016376 ] 00000076          *   codec_config.obj (.text:_codec_write_reg_two)
                   0002c762  [ 000163b1 ] 00000076          *   rts55h.lib : fclose.obj (.text)
                   0002c7d8  [ 000163ec ] 00000076          *              : fixdul.obj (.text)
                   0002c84e  [ 00016427 ] 00000076          *              : frcmpyd.obj (.text)
                   0002c8c4  [ 00016462 ] 00000075          *   TIesrEngineC55.lib : dist.obj (.text:_hlr_log_one)
                   0002c939  [ 0001649c+] 00000075          *   rts55h.lib : ftell.obj (.text)
                   0002c9ae  [ 000164d7 ] 00000073          *   audio_data_collection.obj (.text:_stopPlay)
                   0002ca21  [ 00016510+] 00000073          *   rts55h.lib : frcmpyd_div.obj (.text)
                   0002ca94  [ 0001654a ] 00000071          *   audio_data_read.obj (.text:_swapBytes)
                   0002cb05  [ 00016582+] 00000070          *   rts55h.lib : remul.obj (.text)
                   0002cb75  [ 000165ba+] 0000006f          *   TIesrEngineC55.lib : rapidsearch.obj (.text:_cm_update_hypo)
                   0002cbe4  [ 000165f2 ] 0000006f          *   audio_data_read.obj (.text:_readBleFirmware)
                   0002cc53  [ 00016629+] 0000006f          *   TIesrEngineC55.lib : mfcc_f.obj (.text:_signal_to_power_spectrum)
                   0002ccc2  [ 00016661 ] 0000006e          *                      : jac-estm.obj (.text:_JAC_recover_backuped_net)
                   0002cd30  [ 00016698 ] 0000006e          *   rts55h.lib : fixdli.obj (.text)
                   0002cd9e  [ 000166cf ] 0000006c          *   sbl_tl.obj (.text:_SBL_TL_getRsp)
                   0002ce0a  [ 00016705 ] 0000006b          *   TIesrEngineC55.lib : jac-estm.obj (.text:_JAC_backup_net)
                   0002ce75  [ 0001673a+] 0000006b          *                      : jac-estm.obj (.text:_JAC_set_default_params)
                   0002cee0  [ 00016770 ] 0000006b          *   rts55h.lib : trgmsg.obj (.text)
                   0002cf4b  [ 000167a5+] 0000006a          *   TIesrEngineC55.lib : search.obj (.text:_nb_uniq_each)
                   0002cfb5  [ 000167da+] 00000069          *                      : gmhmm_type_common.obj (.text:_GetTIesrJAC)
                   0002d01e  [ 0001680f ] 00000069          *   src_ti_huge.l55 : src_ti_status.obj (.text:_SRC_TI_getStatus)
                   0002d087  [ 00016843+] 00000068          *   rts55h.lib : fseek.obj (.text)
                   0002d0ef  [ 00016877+] 00000067          *              : fltlid.obj (.text)
                   0002d156  [ 000168ab ] 00000064          *   user_interface.obj (.text:_getCurrentPBNState)
                   0002d1ba  [ 000168dd ] 00000061          *   TIesrEngineC55.lib : gmhmm_type_common.obj (.text:_OpenSearchEngine)
                   0002d21b  [ 0001690d+] 0000005e          *   user_interface.obj (.text:_chkAllowedPBNState)
                   0002d279  [ 0001693c+] 0000005e          *   TIesrEngineC55.lib : pack.obj (.text:_nbr_coding)
                   0002d2d7  [ 0001696b+] 0000005d          *                      : rapidsearch.obj (.text:_cm_calc_proddiff)
                   0002d334  [ 0001699a ] 0000005c          *   bios_NONINST.a55H : tsk_stup.o55H (.text)
                   0002d390  [ 000169c8 ] 0000005b          *   eq_ti_huge.l55 : eq_ti_status.obj (.text:_EQ_TI_setStatus)
                   0002d3eb  [ 000169f5+] 0000005b          *   wave_parser.obj (.text:_checkWaveHeader)
                   0002d446  [ 00016a23 ] 0000005b          *   TIesrEngineC55.lib : dist.obj (.text:_fx_sqrt)
                   0002d4a1  [ 00016a50+] 0000005b          *   atafs_bios_drv_lib.lib : ata_sector.obj (.text)
                   0002d4fc  [ 00016a7e ] 0000005b          *   rts55h.lib : fltuld.obj (.text)
                   0002d557  [ 00016aab+] 0000005a          *   user_interface.obj (.text:_gpt1Isr)
                   0002d5b1  [ 00016ad8+] 0000005a          *   atafs_bios_drv_lib.lib : ata_.obj (.text)
                   0002d60b  [ 00016b05+] 00000059          *   rts55h.lib : atoi.obj (.text)
                   0002d664  [ 00016b32 ] 00000056          *   user_interface.obj (.text:_updateMcStates)
                   0002d6ba  [ 00016b5d ] 00000056          *   rts55h.lib : memcpy.obj (.text)
                   0002d710  [ 00016b88 ] 00000055          *   TIesrEngineC55.lib : uttdet.obj (.text:_init_uttdet)
                   0002d765  [ 00016bb2+] 00000054          *                      : gmhmm_type_common.obj (.text:_SetTIesrJAC)
                   0002d7b9  [ 00016bdc+] 00000054          *                      : rapidsearch.obj (.text:_cm_update_status)
                   0002d80d  [ 00016c06+] 00000053          *   src_ti_huge.l55 : src_ti_status.obj (.text:_SRC_TI_setStatus)
                   0002d860  [ 00016c30 ] 00000051          *   TIesrEngineC55.lib : gmhmm_type_common.obj (.text:_GetTIesrSAD)
                   0002d8b1  [ 00016c58+] 0000004f          *   sys_init.obj (.text:_I2cInit)
                   0002d900  [ 00016c80 ] 0000004e          *   rts55h.lib : printf.obj (.text)
                   0002d94e  [ 00016ca7 ] 0000004d          *   TIesrEngineC55.lib : search.obj (.text:_init_high_pos)
                   0002d99b  [ 00016ccd+] 0000004d          *   audio_data_collection.obj (.text:_startPlay)
                   0002d9e8  [ 00016cf4 ] 0000004b          *   rts55h.lib : remli.obj (.text)
                   0002da33  [ 00016d19+] 0000004a          *   codec_config.obj (.text:_aic_SetBiQuadSection)
                   0002da7d  [ 00016d3e+] 0000004a          *   codec_config.obj (.text:_aic_SetOrd1IIRSection)
                   0002dac7  [ 00016d63+] 0000004a          *   TIesrEngineC55.lib : load.obj (.text:_load_model_file)
                   0002db11  [ 00016d88+] 0000004a          *   sys_state.obj (.text:_swi_SendSPIDataFxn)
                   0002db5b  [ 00016dad+] 0000004a          *   atafs_bios_drv_lib.lib : atadir.obj (.text)
                   0002dba5  [ 00016dd2+] 00000048          *   sys_init.obj (.text:_DeviceInit)
                   0002dbed  [ 00016df6+] 00000048          *   rts55h.lib : divli.obj (.text)
                   0002dc35  [ 00016e1a+] 00000047          *   lcd_osd.obj (.text:_OSD9616_send)
                   0002dc7c  [ 00016e3e ] 00000047          *   sbl_cmd.obj (.text:_SBL_CMD_getStatus)
                   0002dcc3  [ 00016e61+] 00000047          *   audio_data_read.obj (.text:_byteshift)
                   0002dd0a  [ 00016e85 ] 00000045          *   TIesrEngineC55.lib : uttdet.obj (.text:_set_default_uttdet)
                   0002dd4f  [ 00016ea7+] 00000044          *                      : gmhmm_type_common.obj (.text:_GetAnswerIndex)
                   0002dd93  [ 00016ec9+] 00000044          *   src_ti_huge.l55 : smplrate.obj (.text:_SRC_TI_getIndex)
                   0002ddd7  [ 00016eeb+] 00000043          *   TIesrEngineC55.lib : rapidsearch.obj (.text:_cm_score_nbest)
                   0002de1a  [ 00016f0d ] 00000042          *                      : gmhmm_type_common.obj (.text:_GetAnswerCount)
                   0002de5c  [ 00016f2e ] 00000042          *                      : search.obj (.text:_clear_obs_scr)
                   0002de9e  [ 00016f4f ] 00000042          *   ble_fw_upgrade.obj (.text:_spi_send_ping)
                   0002dee0  [ 00016f70 ] 00000041          *   sbl_cmd.obj (.text:_SBL_CMD_uint32MSB)
                   0002df21  [ 00016f90+] 00000041          *   sbl_cmd.obj (.text:_SBL_CMD_uint32to16)
                   0002df62  [ 00016fb1 ] 00000041          *   codec_config.obj (.text:_codec_write_reg)
                   0002dfa3  [ 00016fd1+] 00000040          *   sbl_tl.obj (.text:_SBL_TL_CKS)
                   0002dfe3  [ 00016ff1+] 00000040          *   TIesrEngineC55.lib : gmhmm_type_common.obj (.text:_SetTIesrSAD)
                   0002e023  [ 00017011+] 00000040          *   audio_data_collection.obj (.text:_resetRxCircBuf)
                   0002e063  [ 00017031+] 0000003f          *   TIesrEngineC55.lib : volume.obj (.text:_set_volume_flag)
                   0002e0a2  [ 00017051 ] 0000003e          *   rts55h.lib : exit.obj (.text)
                   0002e0e0  [ 00017070 ] 0000003d          *   TIesrEngineC55.lib : siproc.obj (.text:_GetSearchMemorySize)
                   0002e11d  [ 0001708e+] 0000003d          *   audio_data_collection.obj (.text:_pausePlay)
                   0002e15a  [ 000170ad ] 0000003d          *   TIesrEngineC55.lib : uttdet.obj (.text:_update_level)
                   0002e197  [ 000170cb+] 0000003d          *   user_interface.obj (.text:_userInterfaceStart)
                   0002e1d4  [ 000170ea ] 0000003c          *   sys_init.obj (.text:_reset_ble)
                   0002e210  [ 00017108 ] 0000003c          *   atafs_bios_drv_lib.lib : ata_fileinit.obj (.text)
                   0002e24c  [ 00017126 ] 0000003b          *   sys_state.obj (.text:_RTC_isr)
                   0002e287  [ 00017143+] 0000003a          *   ble_fw_upgrade.obj (.text:_reset_state)
                   0002e2c1  [ 00017160+] 00000039          *   sbl_cmd.obj (.text:_SBL_CMD_download)
                   0002e2fa  [ 0001717d ] 00000039          *   TIesrEngineC55.lib : load.obj (.text:_free_scales)
                   0002e333  [ 00017199+] 00000039          *                      : search.obj (.text:_init_last_time_table)
                   0002e36c  [ 000171b6 ] 00000038          *   sys_init.obj (.text:_DmaInit)
                   0002e3a4  [ 000171d2 ] 00000038          *   audio_data_collection.obj (.text:_stopDma)
                   0002e3dc  [ 000171ee ] 00000037          *   eq_ti_huge.l55 : eq_ti_gains.obj (.text:_EQ_TI_setGains)
                   0002e413  [ 00017209+] 00000037          *                  : eq_ti_ialg.obj (.text:algAlloc:_EQ_TI_algAlloc)
                   0002e44a  [ 00017225 ] 00000037          *   atafs_bios_drv_lib.lib : ataread_fat.obj (.text)
                   0002e481  [ 00017240+] 00000036          *   user_interface.obj (.text:_updateUcStates)
                   0002e4b7  [ 0001725b+] 00000035          *   sys_init.obj (.text:_C55x_delay_msec)
                   0002e4ec  [ 00017276 ] 00000034          *   audio_utils.obj (.text:_SRC_delete)
                   0002e520  [ 00017290 ] 00000034          *   sys_state.obj (.text:_fileAccessErrDisp)
                   0002e554  [ 000172aa ] 00000034          *   sys_state.obj (.text:_fileFormatErrDisp)
                   0002e588  [ 000172c4 ] 00000034          *   audio_data_collection.obj (.text:_resetCircBuf)
                   0002e5bc  [ 000172de ] 00000034          *   sys_state.obj (.text:_sdAccessErrDisp)
                   0002e5f0  [ 000172f8 ] 00000033          *   eq_ti_huge.l55 : eq_ti_status.obj (.text:_EQ_TI_getStatus)
                   0002e623  [ 00017311+] 00000032          *   sys_init.obj (.text:_DspLdoSwitch)
                   0002e655  [ 0001732a+] 00000032          *   sys_init.obj (.text:_UsbLdoSwitch)
                   0002e687  [ 00017343+] 00000030          *   audio_data_read.obj (.text:_read_wave_header)
                   0002e6b7  [ 0001735b+] 0000002f          *   TIesrEngineC55.lib : gmhmm_type_common.obj (.text:_GetTIesrCM)
                   0002e6e6  [ 00017373 ] 0000002e          *                      : rapidsearch.obj (.text:_cm_antiscr)
                   0002e714  [ 0001738a ] 0000002d          *   src_ti_huge.l55 : src_ti_apply.obj (.text:_SRC_TI_setOutput)
                   0002e741  [ 000173a0+] 0000002a          *   TIesrEngineC55.lib : liveproc.obj (.text:_CallSearchEngine)
                   0002e76b  [ 000173b5+] 0000002a          *                      : volume.obj (.text:_GetTIesrVolRange)
                   0002e795  [ 000173ca+] 0000002a          *                      : jac-estm.obj (.text:_MP_JAC_load)
                   0002e7bf  [ 000173df+] 0000002a          *                      : mfcc_f.obj (.text:_circ_idx)
                   0002e7e9  [ 000173f4+] 0000002a          *   src_ti_huge.l55 : src_ti_ialg.obj (.text:algAlloc:_SRC_TI_algAlloc)
                   0002e813  [ 00017409+] 0000002a          *   rts55h.lib : fixdi.obj (.text)
                   0002e83d  [ 0001741e+] 0000002a          *              : udiv.obj (.text)
                   0002e867  [ 00017433+] 00000029          *   TIesrEngineC55.lib : jac-estm.obj (.text:_JAC_load)
                   0002e890  [ 00017448 ] 00000028          *   src_ti_huge.l55 : src_ti_apply.obj (.text:_SRC_TI_setInput)
                   0002e8b8  [ 0001745c ] 00000027          *   TIesrEngineC55.lib : rapidsearch.obj (.text:_cm_set_param)
                   0002e8df  [ 0001746f+] 00000027          *   audio_data_collection.obj (.text:_swi_AudioDataProcessFxn)
                   0002e906  [ 00017483 ] 00000025          *   audio_data_collection.obj (.text:_resumePlay)
                   0002e92b  [ 00017495+] 00000024          *   sbl_cmd.obj (.text:_SBL_CMD_sendData)
                   0002e94f  [ 000174a7+] 00000024          *   lcd_osd.obj (.text:_clear_lcd)
                   0002e973  [ 000174b9+] 00000023          *   TIesrEngineC55.lib : load.obj (.text:_load_model_config)
                   0002e996  [ 000174cb ] 00000023          *   audio_utils.obj (.text:_src_set_samplerate)
                   0002e9b9  [ 000174dc+] 00000023          *   rts55h.lib : strncmp.obj (.text)
                   0002e9dc  [ 000174ee ] 00000022          *   eq_ti_huge.l55 : eq_ti_gains.obj (.text:_EQ_TI_getGains)
                   0002e9fe  [ 000174ff ] 00000022          *   eq.obj (.text:_EQ_apply)
                   0002ea20  [ 00017510 ] 00000022          *   TIesrEngineC55.lib : gmhmm_type_common.obj (.text:_GetConfidenceScore)
                   0002ea42  [ 00017521 ] 00000022          *                      : volume.obj (.text:_SetTIesrVolRange)
                   0002ea64  [ 00017532 ] 00000022          *   sys_state.obj (.text:_fileReadStatusDisp)
                   0002ea86  [ 00017543 ] 00000022          *   rts55h.lib : memccpy.obj (.text)
                   0002eaa8  [ 00017554 ] 00000021          *   eq_ti_huge.l55 : eq_ti_gain.obj (.text:_EQ_TI_setGain)
                   0002eac9  [ 00017564+] 00000020          *   sbl_cmd.obj (.text:_SBL_CMD_sectorErase)
                   0002eae9  [ 00017574+] 00000020          *   sbl_tl.obj (.text:_SBL_TL_sendACK)
                   0002eb09  [ 00017584+] 00000020          *   TIesrEngineC55.lib : uttdet.obj (.text:_SpeechEnded)
                   0002eb29  [ 00017594+] 0000001f          *   user_interface.obj (.text:_initUcStates)
                   0002eb48  [ 000175a4 ] 0000001f          *   rts55h.lib : memset.obj (.text)
                   0002eb67  [ 000175b3+] 0000001d          *   audio_data_collection.obj (.text:_resetRxPingPongBuf)
                   0002eb84  [ 000175c2 ] 0000001d          *   src_ti_huge.l55 : src_ti_ialg.obj (.text:algFree:_SRC_TI_algFree)
                   0002eba1  [ 000175d0+] 0000001c          *   eq.obj (.text:_EQ_setGains)
                   0002ebbd  [ 000175de+] 0000001c          *   eq.obj (.text:_EQ_setStatus)
                   0002ebd9  [ 000175ec+] 0000001c          *   TIesrEngineC55.lib : jac-estm.obj (.text:_cap_in_check)
                   0002ebf5  [ 000175fa+] 0000001b          *                      : jac_one.obj (.text:_GetTIesrJacRate)
                   0002ec10  [ 00017608 ] 0000001b          *                      : gmhmm_type_common.obj (.text:_GetTIesrPrune)
                   0002ec2b  [ 00017615+] 0000001b          *                      : gmhmm_type_common.obj (.text:_GetTIesrTransiWeight)
                   0002ec46  [ 00017623 ] 0000001b          *   rts55h.lib : fixdu.obj (.text)
                   0002ec61  [ 00017630+] 0000001a          *   TIesrEngineC55.lib : siinit.obj (.text:_CloseASR)
                   0002ec7b  [ 0001763d+] 0000001a          *   audio_utils.obj (.text:_src_delete)
                   0002ec95  [ 0001764a+] 0000001a          *   rts55h.lib : isinf.obj (.text)
                   0002ecaf  [ 00017657+] 00000019          *   TIesrEngineC55.lib : search.obj (.text:_init_beam_list)
                   0002ecc8  [ 00017664 ] 00000019          *   sys_state.obj (.text:_swi_sysStateFxn)
                   0002ece1  [ 00017670+] 00000018          *   TIesrEngineC55.lib : gmhmm_type_common.obj (.text:_GetRealTGuard)
                   0002ecf9  [ 0001767c+] 00000018          *                      : gmhmm_type_common.obj (.text:_GetRealTimeGuardTh)
                   0002ed11  [ 00017688+] 00000018          *                      : gmhmm_type_common.obj (.text:_GetTIesrNBest)
                   0002ed29  [ 00017694+] 00000018          *                      : gmhmm_type_common.obj (.text:_GetTIesrSBC)
                   0002ed41  [ 000176a0+] 00000018          *   ble_fw_upgrade.obj (.text:_ble_backdoor_ctrl)
                   0002ed59  [ 000176ac+] 00000017          *   TIesrEngineC55.lib : jac_one.obj (.text:_SetTIesrJacRate)
                   0002ed70  [ 000176b8 ] 00000017          *   audio_data_read.obj (.text:_mmcsdTransferDoneCallBack)
                   0002ed87  [ 000176c3+] 00000016          *   eq_ti_huge.l55 : eq_ti_gain.obj (.text:_EQ_TI_getGain)
                   0002ed9d  [ 000176ce+] 00000016          *   sbl_cmd.obj (.text:_SBL_CMD_ping)
                   0002edb3  [ 000176d9+] 00000016          *   TIesrEngineC55.lib : gmhmm_type_common.obj (.text:_SetTIesrCM)
                   0002edc9  [ 000176e4+] 00000016          *                      : gmhmm_type_common.obj (.text:_SetTIesrPrune)
                   0002eddf  [ 000176ef+] 00000016          *                      : gmhmm_type_common.obj (.text:_SetTIesrTransiWeight)
                   0002edf5  [ 000176fa+] 00000016          *   audio_data_read.obj (.text:_seek_file)
                   0002ee0b  [ 00017705+] 00000016          *   eq_ti_huge.l55 : eq_ti_ialg.obj (.text:algFree:_EQ_TI_algFree)
                   0002ee21  [ 00017710+] 00000015          *   TIesrEngineC55.lib : gmhmm_type_common.obj (.text:_GetTIesrORM)
                   0002ee36  [ 0001771b ] 00000015          *                      : rapidsearch.obj (.text:_cm_freeze)
                   0002ee4b  [ 00017725+] 00000015          *   rts55h.lib : strlen.obj (.text)
                   0002ee60  [ 00017730 ] 00000014          *   TIesrEngineC55.lib : gmhmm_type_common.obj (.text:_SetRealTGuard)
                   0002ee74  [ 0001773a ] 00000014          *                      : gmhmm_type_common.obj (.text:_SetRealTimeGuardTh)
                   0002ee88  [ 00017744 ] 00000014          *                      : gmhmm_type_common.obj (.text:_SetTIesrNBest)
                   0002ee9c  [ 0001774e ] 00000014          *                      : gmhmm_type_common.obj (.text:_SetTIesrORM)
                   0002eeb0  [ 00017758 ] 00000014          *                      : gmhmm_type_common.obj (.text:_SetTIesrSBC)
                   0002eec4  [ 00017762 ] 00000014          *   rts55h.lib : strcpy.obj (.text)
                   0002eed8  [ 0001776c ] 00000014          *              : subd.obj (.text)
                   0002eeec  [ 00017776 ] 00000013          *   TIesrEngineC55.lib : siinit.obj (.text:_GetMaxFrames)
                   0002eeff  [ 0001777f+] 00000013          *   src_ti_huge.l55 : src_ti_apply.obj (.text:_SRC_TI_isInputBufferEmpty)
                   0002ef12  [ 00017789 ] 00000013          *                   : src_ti_apply.obj (.text:_SRC_TI_isOutputBufferFull)
                   0002ef25  [ 00017792+] 00000013          *   TIesrEngineC55.lib : my_fileio.obj (.text:_my_fopen)
                   0002ef38  [ 0001779c ] 00000013          *   rts55h.lib : lmpy.obj (.text)
                   0002ef4b  [ 000177a5+] 00000012          *   src_ti_huge.l55 : src_ti_rate.obj (.text:_SRC_TI_getInputRate)
                   0002ef5d  [ 000177ae+] 00000012          *                   : src_ti_rate.obj (.text:_SRC_TI_getOutputRate)
                   0002ef6f  [ 000177b7+] 00000012          *   TIesrEngineC55.lib : load.obj (.text:_load_n_mfcc)
                   0002ef81  [ 000177c0+] 00000012          *   rts55h.lib : _lock.obj (.text)
                   0002ef93  [ 000177c9+] 00000011          *   TIesrEngineC55.lib : gmhmm_type_common.obj (.text:_GetTotalScore)
                   0002efa4  [ 000177d2 ] 00000011          *                      : search.obj (.text:_init_search_last_syms)
                   0002efb5  [ 000177da+] 00000010          *                      : gmhmm_type_common.obj (.text:_GetFrameCount)
                   0002efc5  [ 000177e2+] 00000010          *                      : gmhmm_type_common.obj (.text:_GetNumNbests)
                   0002efd5  [ 000177ea+] 00000010          *                      : gmhmm_type_common.obj (.text:_GetVolumeStatus)
                   0002efe5  [ 000177f2+] 00000010          *   audio_data_read.obj (.text:_MMCSD_Isr)
                   0002eff5  [ 000177fa+] 00000010          *   TIesrEngineC55.lib : uttdet.obj (.text:_SADState)
                   0002f005  [ 00017802+] 00000010          *                      : noise_sub.obj (.text:_init_spect_sub)
                   0002f015  [ 0001780a+] 00000010          *   rts55h.lib : negd.obj (.text)
                   0002f025  [ 00017812+] 00000010          *              : strcmp.obj (.text)
                   0002f035  [ 0001781a+] 0000000f          *   TIesrEngineC55.lib : gmhmm_type_common.obj (.text:_GetTIesrGaussSel)
                   0002f044  [ 00017822 ] 0000000f          *                      : gmhmm_type_common.obj (.text:_GetTIesrSS)
                   0002f053  [ 00017829+] 0000000f          *                      : my_fileio.obj (.text:_my_fclose)
                   0002f062  [ 00017831 ] 0000000e          *                      : gmhmm_type_common.obj (.text:_GetCycleCount)
                   0002f070  [ 00017838 ] 0000000e          *                      : uttdet.obj (.text:_SpeechDetected)
                   0002f07e  [ 0001783f ] 0000000e          *                      : mfcc_f.obj (.text:_ss_frameEn)
                   0002f08c  [ 00017846 ] 0000000d          *                      : gmhmm_type_common.obj (.text:_SetTIesrGaussSel)
                   0002f099  [ 0001784c+] 0000000d          *                      : gmhmm_type_common.obj (.text:_SetTIesrSS)
                   0002f0a6  [ 00017853 ] 0000000a          *   rts55h.lib : remove.obj (.text)
                   0002f0b0  [ 00017858 ] 00000009          *   TIesrEngineC55.lib : rapidsearch.obj (.text:_cm_close)
                   0002f0b9  [ 0001785c+] 00000008          *   rts55h.lib : clearerr.obj (.text)
                   0002f0c1  [ 00017860+] 00000007          *              : exit.obj (.text:CIO_breakpoint)
                   0002f0c8  [ 00017864 ] 00000006          *   sys_init.obj (.text:_userIdle)
                   0002f0ce  [ 00017867 ] 00000004          *   eq_ti_huge.l55 : eq_ti_ialg.obj (.text:algNumAlloc:_EQ_TI_algNumAlloc)
                   0002f0d2  [ 00017869 ] 00000004          *   src_ti_huge.l55 : src_ti_ialg.obj (.text:algNumAlloc:_SRC_TI_algNumAlloc)
                   0002f0d6  [ 0001786b ] 00000002          *   sys_state.obj (.text:_processVoiceCmd)
                   0002f0d8  [ 0001786c ] 00000002          *   user_interface.obj (.text:_swi_LcdDisplayFxn)
                   0002f0da  [ 0001786d ] 00000002          *   eq.obj (.text:init:_EQ_init)
                   0002f0dc  [ 0001786e ] 00000002          *   --HOLE-- [fill = 20]

.SARAM$heap 
*            0   [ 0002f0de ]  0001786f          *   0000a000   UNINITIALIZED
                 [ 0002f0de ]  0001786f          *   0000a000   --HOLE--

.waveData 
*            0   [ 000430de ]  0002186f          *   00002000   UNINITIALIZED
                 [ 000430de ]  0002186f          *   00002000   audio_data_read.obj (.waveData)

.gd_var      0   [ 000470de ]  0002386f          *   00000cbd   
                 [ 000470de ]  0002386f          *   00000cbd   gd_var.obj (.gd_var)

.bios        0     00048a58  [ 0002452c ] 0000169c          *   
                   00048a58  [ 0002452c ] 000003ac          *   bios_NONINST.a55H : swi.o55H (.bios)
                   00048e04  [ 00024702 ] 00000262          *                     : hwi_disp_asm.o55H (.bios)
                   00049066  [ 00024833 ] 00000002          *   --HOLE-- [fill = 20]
                   00049068  [ 00024834 ] 00000195          *                     : malloc.o55H (.bios)
                   000491fd  [ 000248fe ] 00000003          *   --HOLE-- [fill = 20]
                   00049200  [ 00024900 ] 00000177          *                     : mem_allo.o55H (.bios:.near)
                   00049377  [ 000249bb ] 00000001          *   --HOLE-- [fill = 20]
                   00049378  [ 000249bc ] 00000154          *                     : knl_run.o55H (.bios)
                   000494cc  [ 00024a66 ] 00000143          *                     : mem_free.o55H (.bios:.near)
                   0004960f  [ 00024b07 ] 00000001          *   --HOLE-- [fill = 20]
                   00049610  [ 00024b08 ] 00000141          *                     : sem_pend.o55H (.bios)
                   00049751  [ 00024ba8+] 0000010a          *                     : knl_swit.o55H (.bios)
                   0004985b  [ 00024c2d ] 00000001          *   --HOLE-- [fill = 20]
                   0004985c  [ 00024c2e ] 000000f4          *                     : knl_tick.o55H (.bios)
                   00049950  [ 00024ca8 ] 000000cf          *                     : tsk_exit.o55H (.bios)
                   00049a1f  [ 00024d0f ] 00000001          *   --HOLE-- [fill = 20]
                   00049a20  [ 00024d10 ] 000000c0          *                     : tsk_stup.o55H (.bios)
                   00049ae0  [ 00024d70 ] 000000b2          *                     : sem_dopo.o55H (.bios)
                   00049b92  [ 00024dc9 ] 00000002          *   --HOLE-- [fill = 20]
                   00049b94  [ 00024dca ] 000000b2          *                     : tsk_setu.o55H (.bios)
                   00049c46  [ 00024e23 ] 00000065          *                     : knl_chec.o55H (.bios)
                   00049cab  [ 00024e55 ] 00000001          *   --HOLE-- [fill = 20]
                   00049cac  [ 00024e56 ] 00000059          *                     : knl_ipos.o55H (.bios)
                   00049d05  [ 00024e82 ] 00000003          *   --HOLE-- [fill = 20]
                   00049d08  [ 00024e84 ] 00000058          *                     : lck.o55H (.bios)
                   00049d60  [ 00024eb0 ] 0000004a          *                     : log.o55H (.bios)
                   00049daa  [ 00024ed5 ] 00000048          *                     : sem_pend_counting.o55H (.bios)
                   00049df2  [ 00024ef9 ] 00000048          *                     : sem_post_asm.o55H (.bios)
                   00049e3a  [ 00024f1d ] 00000048          *                     : sts.o55H (.bios)
                   00049e82  [ 00024f41 ] 00000002          *   --HOLE-- [fill = 20]
                   00049e84  [ 00024f42 ] 00000048          *                     : sys_exit.o55H (.bios)
                   00049ecc  [ 00024f66 ] 00000037          *                     : knl_exit.o55H (.bios)
                   00049f03  [ 00024f81 ] 00000001          *   --HOLE-- [fill = 20]
                   00049f04  [ 00024f82 ] 00000036          *                     : mem_vall.o55H (.bios:.near)
                   00049f3a  [ 00024f9d ] 00000002          *   --HOLE-- [fill = 20]
                   00049f3c  [ 00024f9e ] 00000035          *                     : utl_putc.o55H (.bios)
                   00049f71  [ 00024fb8+] 00000034          *   bios5505.a55H : clk_itime.o55H (.bios)
                   00049fa5  [ 00024fd2 ] 00000003          *   --HOLE-- [fill = 20]
                   00049fa8  [ 00024fd4 ] 00000034          *   bios_NONINST.a55H : knl_post.o55H (.bios)
                   00049fdc  [ 00024fee ] 00000025          *                     : fxn.o55H (.bios)
                   0004a001  [ 00025000 ] 00000003          *   --HOLE-- [fill = 20]
                   0004a004  [ 00025002 ] 00000023          *                     : utl_doab.o55H (.bios)
                   0004a027  [ 00025013 ] 00000001          *   --HOLE-- [fill = 20]
                   0004a028  [ 00025014 ] 00000020          *                     : utl_doer.o55H (.bios)
                   0004a048  [ 00025024 ] 0000001e          *                     : sem_post.o55H (.bios)
                   0004a066  [ 00025033 ] 00000002          *   --HOLE-- [fill = 20]
                   0004a068  [ 00025034 ] 0000001a          *                     : hwi_xable.o55H (.bios)
                   0004a082  [ 00025041 ] 00000002          *   --HOLE-- [fill = 20]
                   0004a084  [ 00025042 ] 00000017          *                     : sys_abor.o55H (.bios)
                   0004a09b  [ 0002504d ] 00000001          *   --HOLE-- [fill = 20]
                   0004a09c  [ 0002504e ] 00000016          *                     : sys_erro.o55H (.bios:.near)
                   0004a0b2  [ 00025059 ] 0000000c          *                     : idl.o55H (.bios)
                   0004a0be  [ 0002505f ] 0000000c          *                     : swi_inc.o55H (.bios)
                   0004a0ca  [ 00025065 ] 00000009          *                     : swi_disable.o55H (.bios)
                   0004a0d3  [ 00025069 ] 00000001          *   --HOLE-- [fill = 20]
                   0004a0d4  [ 0002506a ] 00000008          *                     : utl_halt.o55H (.bios)
                   0004a0dc  [ 0002506e ] 00000007          *                     : swi_getmbox.o55H (.bios)
                   0004a0e3  [ 00025071+] 00000006          *                     : gbl_vers.o55H (.bios)
                   0004a0e9  [ 00025074 ] 00000003          *   --HOLE-- [fill = 20]
                   0004a0ec  [ 00025076 ] 00000002          *   bios5505.a55H : clk5505_wdog.o55H (.bios)
                   0004a0ee  [ 00025077 ] 00000002          *   --HOLE-- [fill = 20]
                   0004a0f0  [ 00025078 ] 00000002          *   bios_NONINST.a55H : fxn_c.o55H (.bios)
                   0004a0f2  [ 00025079 ] 00000002          *   --HOLE-- [fill = 20]

.cinit       0   [ 0004a0f4 ]  0002507a          *   00000867   
                 [ 0004a0f4 ]  0002507a          *   0000033e   c55AudioDemocfg.obj (.cinit)
                 [ 0004a770 ]  000253b8          *   000000af   bios_NONINST.a55H : biosdata.o55H (.cinit)
                 [ 0004a8ce ]  00025467          *   000000ad   sys_state.obj (.cinit)
                 [ 0004aa28 ]  00025514          *   000000a0   bios_NONINST.a55H : knl.o55H (.cinit)
                 [ 0004ab68 ]  000255b4          *   00000086   audio_data_collection.obj (.cinit)
                 [ 0004ac74 ]  0002563a          *   00000051   codec_config.obj (.cinit)
                 [ 0004ad16 ]  0002568b          *   00000045   audio_utils.obj (.cinit)
                 [ 0004ada0 ]  000256d0          *   00000042   recognizer.obj (.cinit)
                 [ 0004ae24 ]  00025712          *   00000034   audio_data_read.obj (.cinit)
                 [ 0004ae8c ]  00025746          *   00000033   bios_NONINST.a55H : tsk.o55H (.cinit)
                 [ 0004aef2 ]  00025779          *   0000002e                     : tsk_stup.o55H (.cinit)
                 [ 0004af4e ]  000257a7          *   0000002d   rts55h.lib : lowlev.obj (.cinit)
                 [ 0004afa8 ]  000257d4          *   0000002c   ble_fw_upgrade.obj (.cinit)
                 [ 0004b000 ]  00025800          *   0000002a   rts55h.lib : defs.obj (.cinit)
                 [ 0004b054 ]  0002582a          *   00000023   C55XXCSL_LP.lib : csl_mmcsd_ataIf.obj (.cinit)
                 [ 0004b09a ]  0002584d          *   0000001d   TIesrEngineC55.lib : load.obj (.cinit)
                 [ 0004b0d4 ]  0002586a          *   00000010   sbl_image_int.obj (.cinit)
                 [ 0004b0f4 ]  0002587a          *   0000000f   bios_NONINST.a55H : utl_putc.o55H (.cinit)
                 [ 0004b112 ]  00025889          *   0000000b                     : knl_tick.o55H (.cinit)
                 [ 0004b128 ]  00025894          *   0000000a                     : obj_init.o55H (.cinit)
                 [ 0004b13c ]  0002589e          *   0000000a                     : sys.o55H (.cinit)
                 [ 0004b150 ]  000258a8          *   0000000a   rts55h.lib : _lock.obj (.cinit)
                 [ 0004b164 ]  000258b2          *   0000000a              : exit.obj (.cinit)
                 [ 0004b178 ]  000258bc          *   0000000a   sbl.obj (.cinit)
                 [ 0004b18c ]  000258c6          *   00000008   C55XXCSL_LP.lib : csl_i2s.obj (.cinit)
                 [ 0004b19c ]  000258ce          *   00000005   bios_NONINST.a55H : knl_swit.o55H (.cinit)
                 [ 0004b1a6 ]  000258d3          *   00000005   user_interface.obj (.cinit)
                 [ 0004b1b0 ]  000258d8          *   00000004   rts55h.lib : errno.obj (.cinit)
                 [ 0004b1b8 ]  000258dc          *   00000004              : fopen.obj (.cinit)
                 [ 0004b1c0 ]  000258e0          *   00000001   --HOLE-- [fill = 0]

.gd_mixture 
*            0   [ 0004b1c2 ]  000258e1          *   00000263   
                 [ 0004b1c2 ]  000258e1          *   00000263   gd_mixture.obj (.gd_mixture)

.printf      0   [ 0004b688 ]  00025b44          *   00000174   
                 [ 0004b688 ]  00025b44          *   00000174   c55AudioDemocfg.obj (.printf)

.sysinit     0     0004b970  [ 00025cb8 ] 000002cc          *   
                   0004b970  [ 00025cb8 ] 000000b6          *   c55AudioDemocfg.obj (.sysinit)
                   0004ba26  [ 00025d13 ] 00000002          *   --HOLE-- [fill = 20]
                   0004ba28  [ 00025d14 ] 000000a4          *   bios_NONINST.a55H : mem_init.o55H (.sysinit)
                   0004bacc  [ 00025d66 ] 0000008a          *                     : tsk_init.o55H (.sysinit)
                   0004bb56  [ 00025dab ] 00000071          *                     : autoinit.o55H (.sysinit)
                   0004bbc7  [ 00025de3+] 0000006f          *                     : boot.o55H (.sysinit)
                   0004bc36  [ 00025e1b ] 00000002          *   --HOLE-- [fill = 20]
                   0004bc38  [ 00025e1c ] 00000002          *                     : obj_init.o55H (.sysinit)
                   0004bc3a  [ 00025e1d ] 00000002          *   --HOLE-- [fill = 20]

.gd_tran     0   [ 0004bc3c ]  00025e1e          *   0000012b   
                 [ 0004bc3c ]  00025e1e          *   0000012b   gd_tran.obj (.gd_tran)

.gd_config 
*            0   [ 0004be92 ]  00025f49          *   00000003   
                 [ 0004be92 ]  00025f49          *   00000003   gd_config.obj (.gd_config)

.cio         0   [ 0004be98 ]  00025f4c          *   00000120   UNINITIALIZED
                 [ 0004be98 ]  00025f4c          *   00000120   rts55h.lib : trgmsg.obj (.cio)

.gd_gconst 
*            0   [ 0004c0d8 ]  0002606c          *   000000a4   
                 [ 0004c0d8 ]  0002606c          *   000000a4   gd_gconst.obj (.gd_gconst)

.gd_hmm      0   [ 0004c220 ]  00026110          *   00000091   
                 [ 0004c220 ]  00026110          *   00000091   gd_hmm.obj (.gd_hmm)

.gd_dim      0   [ 0004c342 ]  000261a1          *   00000001   
                 [ 0004c342 ]  000261a1          *   00000001   gd_dim.obj (.gd_dim)

.switch      0   [ 0004c344 ]  000261a2          *   00000072   
                 [ 0004c344 ]  000261a2          *   00000020   C55XXCSL_LP.lib : csl_dma.obj (.switch:_DMA_config)
                 [ 0004c384 ]  000261c2          *   00000020                   : csl_dma.obj (.switch:_DMA_getConfig)
                 [ 0004c3c4 ]  000261e2          *   00000020                   : csl_dma.obj (.switch:_DMA_reset)
                 [ 0004c404 ]  00026202          *   00000012                   : csl_sysctrl.obj (.switch:_SYS_setEBSR)

.gd_pdf      0   [ 0004c428 ]  00026214          *   0000005c   
                 [ 0004c428 ]  00026214          *   0000005c   gd_pdf.obj (.gd_pdf)

.gd_net      0   [ 0004c4e0 ]  00026270          *   00000054   
                 [ 0004c4e0 ]  00026270          *   00000054   gd_net.obj (.gd_net)

.gd_word     0   [ 0004c588 ]  000262c4          *   0000001b   
                 [ 0004c588 ]  000262c4          *   0000001b   gd_word.obj (.gd_word)

.charrom     0   [ 00fe0000 ]  007f0000          *   00000300   UNINITIALIZED
                 [ 00fe0000 ]  007f0000          *   00000300   lcd_osd.obj (.charrom)


GLOBAL SYMBOLS: SORTED ALPHABETICALLY BY Name 

abs. value/
byte addr   word addr   name
---------   ---------   ----
00000002                $TI_capability$C5500$CallingConvention
00000008                $TI_capability$C5500$MemoryModel
00000001                $TI_capability_requires_rev3
            00000060    .bss
            00000060    .data
00010000                .text
00000014                BIOSDATA_O_CLK_D_COUNTSPMS
0000000e                BIOSDATA_O_CLK_D_DIRTY
00000016                BIOSDATA_O_CLK_D_IDLETIME
00000018                BIOSDATA_O_CLK_D_ISRHOOK
00000010                BIOSDATA_O_CLK_D_PRD
0000001a                BIOSDATA_O_CLK_D_TABBEG
00000012                BIOSDATA_O_CLK_D_TDDR
0000001c                BIOSDATA_O_CLK_D_TIMEFXN
00000006                BIOSDATA_O_CLK_HTIMEDIV
00000008                BIOSDATA_O_CLK_HTIMEMULT
0000000a                BIOSDATA_O_CLK_LTIMEDIV
0000000c                BIOSDATA_O_CLK_LTIMEMULT
0000001e                BIOSDATA_O_CLK_R_TIMH
0000001f                BIOSDATA_O_CLK_R_TIML
00000020                BIOSDATA_O_HST_D_CHANMASK
000000a0                BIOSDATA_O_HST_D_TABBEGADDR
000000a2                BIOSDATA_O_HST_D_TABENDADDR
00000088                BIOSDATA_O_HWI_D_SPSAVE
0000008a                BIOSDATA_O_HWI_D_SSPSAVE
0000008c                BIOSDATA_O_HWI_D_STKBOTADDR
00000090                BIOSDATA_O_HWI_D_STKTOPADDR
0000008e                BIOSDATA_O_HWI_D_SYSTKBOTADDR
00000092                BIOSDATA_O_HWI_D_SYSTKTOPADDR
00000022                BIOSDATA_O_IDL_D_CALBEG
00000024                BIOSDATA_O_IDL_D_CALIBRATE
00000026                BIOSDATA_O_IDL_D_TABBEG
00000028                BIOSDATA_O_LOG_D_SYSTEM
00000098                BIOSDATA_O_MEM_D_FREELIST
0000009a                BIOSDATA_O_MEM_D_LOCKADDR
00000096                BIOSDATA_O_MEM_D_MEMTAB
00000095                BIOSDATA_O_MEM_D_NUMSEGMENTS
0000009c                BIOSDATA_O_MEM_D_UNLOCKADDR
0000002a                BIOSDATA_O_PIP_D_TABBEG
0000002c                BIOSDATA_O_PIP_D_TABLEN
0000002e                BIOSDATA_O_PRD_D_CUR
00000030                BIOSDATA_O_PRD_D_ELAPSED
00000031                BIOSDATA_O_PRD_D_PREVTIM
00000032                BIOSDATA_O_PRD_D_SCALAR
00000034                BIOSDATA_O_PRD_D_SWIHANDLE
00000036                BIOSDATA_O_PRD_D_TABBEG
00000038                BIOSDATA_O_PRD_D_TABLEN
0000003a                BIOSDATA_O_PRD_D_THOOK
0000003c                BIOSDATA_O_PRD_D_TICKH
0000003d                BIOSDATA_O_PRD_D_TICKL
000000a8                BIOSDATA_O_RTDX_D_BUFREAD
000000aa                BIOSDATA_O_RTDX_D_BUFWRITE
00000046                BIOSDATA_O_SWI_D_CURFXN
00000042                BIOSDATA_O_SWI_D_CURMASK
00000045                BIOSDATA_O_SWI_D_CURMBOX
00000043                BIOSDATA_O_SWI_D_CURSET
00000040                BIOSDATA_O_SWI_D_EXECADDR
00000044                BIOSDATA_O_SWI_D_LOCK
00000048                BIOSDATA_O_SWI_D_RDYBEG
0000004a                BIOSDATA_O_SWI_D_RDYTAB
0000003e                BIOSDATA_O_SWI_D_RUNADDR
0000009e                BIOSDATA_O_SYS
000000a4                BIOSDATA_O_TSK_D_IDLSTKADDR
000000a6                BIOSDATA_O_TSK_D_IDLSYSTKADDR
0004b970                BIOS_init
0004b9fa                BIOS_start
00000000                BUF$
00000001                BUF_ENABLED
0002f0c2                C$$EXIT
0002a0c9                C$$IO$$
            000073d8    C55_BIOSDATAOBJ
00000001                CLK$
00000060                CLK_A_TABBEG
000000c0                CLK_A_TABBEGb
00000001                CLK_CALDIV
00000004                CLK_CALMULT
0000c350                CLK_COUNTSPMS
00000000                CLK_COUNTSPMSHIGH
            000073ee    CLK_D_idletime
            000073f0    CLK_D_isrhook
            000073f2    CLK_D_tabbeg
            000073f4    CLK_D_timefxn
00049ffb                CLK_F_gethtime
00049f71                CLK_F_itime
00049fdc                CLK_HOOKFXN
00000001                CLK_HTIMEDIV
00000002                CLK_HTIMEMULT
0000c350                CLK_HTIMEPERLTIME
00000010                CLK_IMR0TINTMASK
00000000                CLK_IMR1TINTMASK
00000000                CLK_INTBIT
00000004                CLK_INTID
00000001                CLK_LTIMEDIV
000186a0                CLK_LTIMEMULT
000003e8                CLK_MICROSECS
0000c34f                CLK_PRD
00000000                CLK_PRDHIGH
00001810                CLK_REGS
            000073f6    CLK_R_timh
            000073f7    CLK_R_timl
00000020                CLK_TCR
00000000                CLK_TDDR
00000000                CLK_TDDRHIGH
00049ffb                CLK_TIMEFXN
00000001                CLK_TIMER0ARG
00049fdc                CLK_TIMER0FUNC
00000000                CLK_TIMER1ARG
0002d557                CLK_TIMER1FUNC
00000000                CLK_TIMER2ARG
00049fdc                CLK_TIMER2FUNC
00000046                CLK_TIMERIFR
00000045                CLK_TIMERIMR
00000010                CLK_TIMERIMRMASK
00000000                CLK_TIMERNUM
00000000                CLK_USETIMER
ffffffff                Char_ROM
ffffffff                DARAM
00000000                DEV$
00000000                DGN$
00000000                DHL$
00000000                DHL_gChannelsAvailable
00000000                DIO$
00000000                DIO_NUMSWIBASE
00000000                DIO_NUMTSKBASE
00000000                DIO_STATIC
00000000                DPI$
0001f697                EQ_TI_FilterBank
0001f898                EQ_TI_FilterStage
0001f73b                EQ_TI_FilterStage1
0001f7ca                EQ_TI_StageUpdate
            000040a2    EQ_TI_xS1BDelta
            000040a4    EQ_TI_xS1BGDelta
            00004090    EQ_TI_xS1BGamma
            0000408e    EQ_TI_xS1Beta
            000040a6    EQ_TI_xS2BDelta
            000040a8    EQ_TI_xS2BGDelta
            00004094    EQ_TI_xS2BGamma
            00004092    EQ_TI_xS2Beta
            000040aa    EQ_TI_xS3BDelta
            000040ac    EQ_TI_xS3BGDelta
            00004098    EQ_TI_xS3BGamma
            00004096    EQ_TI_xS3Beta
            000040ae    EQ_TI_xS4BDelta
            000040b0    EQ_TI_xS4BGDelta
            0000409c    EQ_TI_xS4BGamma
            0000409a    EQ_TI_xS4Beta
            000040b2    EQ_TI_xS5BDelta
            000040b4    EQ_TI_xS5BGDelta
            000040a0    EQ_TI_xS5BGamma
            0000409e    EQ_TI_xS5Beta
00049fdc                FXN_F_nop
00049fde                FXN_F_run
00049fff                FXN_F_selfLoop
00049ffb                FXN_F_zero
00000001                GBL$
00005205                GBL_A_VERSION
0004a0f0                GBL_BIOS_BOOTFXN
00f80000                GBL_CACHEICRTAG1
00f81000                GBL_CACHEICRTAG2
00000002                GBL_CACHETYPE
00000000                GBL_CALLCSLCFGINIT
00004e20                GBL_CLKIN
00000001                GBL_CLKMD
00001581                GBL_CLKTYPE
00000001                GBL_DCRPOSTEDWRITE
00001581                GBL_DSPSUBTYPE
00000037                GBL_DSPTYPE
00000000                GBL_ENABLEICACHE
00000000                GBL_ENABLEINST
00000042                GBL_FOOTPRINT
000186a0                GBL_FREQ
00000002                GBL_LARGEMODEL
00000000                GBL_MODIFYCLKMD
00000000                GBL_NULL
00008000                GBL_PLLDIV0
00008003                GBL_PLLDIV1
0000000f                GBL_PLLM
00000000                GBL_PROCID
00000000                GBL_ROM
00000000                GBL_SUPPORTCSL
00004000                GBL_TRCMASKVALUE
00000000                GBL_USERINIT
0004a0f0                GBL_USERINITFXN
00000001                GBL_boot
            000074de    GBL_initdone
            000048c6    GBL_stackbeg
            000058c5    GBL_stackend
            000044c6    GBL_sysstackbeg
            000048c5    GBL_sysstackend
00000000                GIO$
0004a0f0                GIO_CREATEFXN
0004a0f0                GIO_DELETEFXN
0004a0f0                GIO_PENDFXN
0004a0f0                GIO_POSTFXN
00000000                HOOK$
00000000                HOOK_KNLID
00000000                HST$
00000060                HST_A_TABBEG
000000c0                HST_A_TABBEGb
00000060                HST_A_TABEND
000000c0                HST_A_TABENDb
00000000                HST_BIOSLINK
00000000                HST_DSM
ffffffff                HST_DSMBUFSEG
00000400                HST_DSMMEMSIZE
            000073f8    HST_D_chanmask
            00007478    HST_D_tabbegaddr
            0000747a    HST_D_tabendaddr
000000ff                HST_MAXFRAMEALLOWED
00000000                HST_MAXFRAMESET
00000001                HST_NONE
00000000                HST_RTDX
00000001                HWI$
0000ff00                HWI_A_VECS
00000018                HWI_BERR
00000019                HWI_DLOG
            0000746c    HWI_D_inhwi
            00007460    HWI_D_spsave
            00007462    HWI_D_sspsave
            00007464    HWI_D_stkbotaddr
            00007468    HWI_D_stktopaddr
            00007466    HWI_D_systkbotaddr
            0000746a    HWI_D_systktopaddr
00048e04                HWI_F_dispatch
0000000a                HWI_INT10
0000000b                HWI_INT11
0000000c                HWI_INT12
0000000d                HWI_INT13
0000000e                HWI_INT14
0000000f                HWI_INT15
00000010                HWI_INT16
00000011                HWI_INT17
00000012                HWI_INT18
00000013                HWI_INT19
00000002                HWI_INT2
00000014                HWI_INT20
00000015                HWI_INT21
00000016                HWI_INT22
00000017                HWI_INT23
00000003                HWI_INT3
00000004                HWI_INT4
00000005                HWI_INT5
00000006                HWI_INT6
00000007                HWI_INT7
00000008                HWI_INT8
00000009                HWI_INT9
00000001                HWI_NMI
00000000                HWI_RESET
0000001a                HWI_RTOS
0000001b                HWI_SINT27
0000001c                HWI_SINT28
0000001d                HWI_SINT29
0000001e                HWI_SINT30
0000001f                HWI_SINT31
00000004                HWI_TINT
00000000                HWI_ZEROTAB
0002ef38                I$$LMPY
0002e83d                I$$UDIV
0002e852                I$$UMOD
00000001                IDL$
000074d8                IDL_A_CALBEG
0000e9b0                IDL_A_CALBEGb
000074d4                IDL_A_TABBEG
0000e9a8                IDL_A_TABBEGb
00000000                IDL_CALIBRERROR
00000000                IDL_CALIBRFXN
            000073fa    IDL_D_calbeg
            000073fc    IDL_D_calibrate
            000073fe    IDL_D_tabbeg
            000074d6    IDL_END
            000074da    IDL_END$
0004a0b2                IDL_F_loop
00000000                IDL_USECLKIDLTIME
            000074d4    IDL_userIdle
            000074d8    IDL_userIdle$
00000001                ISRC$
0004979f                KNL_glue
            00007200    KNL_swi
00000001                KNL_swi$dorta
00000000                KNL_swi$ord
00000000                KNL_swi$pri
            00006d6e    KNL_swi$sts
            00025b5c    KNL_swi$sts$avgfmt
00000002                KNL_swi$sts$filter
00000001                KNL_swi$sts$filtmaxmult
00000001                KNL_swi$sts$filtsummult
            00025b4c    KNL_swi$sts$maxfmt
            00006d6c    KNL_swi$sts$stsobj
            00025b54    KNL_swi$sts$sumfmt
00000000                KNL_swi$sts$unittype
00000000                KNL_swi$swi
000497de                KNL_tick_stub
00000001                LCK$
00000001                LOG$
00006df2                LOG_A_TABBEG
0000dbe4                LOG_A_TABBEGb
00006dfc                LOG_A_TABEND
0000dbf8                LOG_A_TABENDb
00000001                LOG_A_TABLEN
            00007400    LOG_D_system
00000001                LOG_ENABLED
00049d60                LOG_F_event
            00006df2    LOG_system
            00006e00    LOG_system$buf
00000000                LOG_system$datatype
00000000                LOG_system$log
00000200                LOG_system$size
00000000                MBX$
00000001                MEM$
            00002faa    MEM_MALLOCSEG
00000000                MEM_NULL
            00002faa    MEM_SEGZERO
00000001                MEM_gNumHeap
00000000                MSGQ$
00000000                MSGQ_USEMSGQ
ffffffff                NAND
ffffffff                NOR
00000000                OBJ$
00000000                PIP$
00000060                PIP_A_TABBEG
000000c0                PIP_A_TABBEGb
00000060                PIP_A_TABEND
000000c0                PIP_A_TABENDb
00000000                PIP_A_TABLEN
            00007402    PIP_D_tabbeg
            00007404    PIP_D_tablen
00000064                PIP_OBJSIZE
00000000                PIP_gNextId
00000000                PIP_gNumEmbed
00000000                POOL$
00000000                POOL_USEPOOL
00000001                PRD$
00000060                PRD_A_TABBEG
000000c0                PRD_A_TABBEGb
00000060                PRD_A_TABEND
000000c0                PRD_A_TABENDb
00000000                PRD_A_TABLEN
            00007406    PRD_D_cur
            00007408    PRD_D_elapsed
            00007409    PRD_D_prevtim
            0000740a    PRD_D_scalar
            0000740c    PRD_D_swihandle
            0000740e    PRD_D_tabbeg
            00007410    PRD_D_tablen
            00007412    PRD_D_thook
            00007414    PRD_D_tickh
            00007415    PRD_D_tickl
00004000                PRD_SCALAR
00000000                PRD_SWIHANDLE
000497de                PRD_THOOKFXN
00000001                PWRM$
00000000                PWRM_PWRM_ADAPTCLK
0004a0f0                PWRM_PWRM_BOOTHOOKFXN
00000023                PWRM_PWRM_CAPSMASK
0000003f                PWRM_PWRM_DS_IDLEMASK
00000000                PWRM_PWRM_ENABLE
00000005                PWRM_PWRM_IDLEMASK
00000000                PWRM_PWRM_IER0
00000000                PWRM_PWRM_IER1
00000640                PWRM_PWRM_INITMILVOLTS
0000000f                PWRM_PWRM_INITSP
00000000                PWRM_PWRM_SCALING
00000001                QUE$
            00002fab    RTA_fromHost$buf
00000000                RTDX$
00000102                RTDX_BUFMEMSIZE
ffffffff                RTDX_DATAMEMSEG
            00007480    RTDX_D_BufRead
            00007482    RTDX_D_BufWrite
00000000                RTDX_MODE
00000000                RTDX_USERTDX
00000000                RTDX_USERTEXECUTION
            00002faa    SARAM
0001786f                SARAM$B
0002f0de                SARAM$Bb
00014000                SARAM$L
ffffffff                SARAM31
00000001                SEM$
            00006de2    SEM_mmcDone
00000000                SIO$
ffffffff                SRAM
00000000                STS$
00006d6c                STS_A_TABBEG
0000dad8                STS_A_TABBEGb
00006ddc                STS_A_TABEND
0000dbb8                STS_A_TABENDb
00049e5c                STS_F_add
00049e3a                STS_F_delta
00049e74                STS_F_reset
00000001                SWI$
00007200                SWI_A_TABBEG
0000e400                SWI_A_TABBEGb
00007318                SWI_A_TABEND
0000e630                SWI_A_TABENDb
0000000e                SWI_A_TABLEN
            00007214    SWI_AudioDataCollection
00000001                SWI_AudioDataCollection$dorta
00000000                SWI_AudioDataCollection$ord
00000003                SWI_AudioDataCollection$pri
            00006d76    SWI_AudioDataCollection$sts
            00025b76    SWI_AudioDataCollection$sts$avgfmt
00000002                SWI_AudioDataCollection$sts$filter
00000001                SWI_AudioDataCollection$sts$filtmaxmult
00000001                SWI_AudioDataCollection$sts$filtsummult
            00025b66    SWI_AudioDataCollection$sts$maxfmt
            00006d74    SWI_AudioDataCollection$sts$stsobj
            00025b6e    SWI_AudioDataCollection$sts$sumfmt
00000000                SWI_AudioDataCollection$sts$unittype
00000000                SWI_AudioDataCollection$swi
            00007228    SWI_AudioDataProcess
00000001                SWI_AudioDataProcess$dorta
00000000                SWI_AudioDataProcess$ord
00000005                SWI_AudioDataProcess$pri
            00006d7e    SWI_AudioDataProcess$sts
            00025b90    SWI_AudioDataProcess$sts$avgfmt
00000002                SWI_AudioDataProcess$sts$filter
00000001                SWI_AudioDataProcess$sts$filtmaxmult
00000001                SWI_AudioDataProcess$sts$filtsummult
            00025b80    SWI_AudioDataProcess$sts$maxfmt
            00006d7c    SWI_AudioDataProcess$sts$stsobj
            00025b88    SWI_AudioDataProcess$sts$sumfmt
00000000                SWI_AudioDataProcess$sts$unittype
00000000                SWI_AudioDataProcess$swi
            0000723c    SWI_AudioMicDataCollection
00000001                SWI_AudioMicDataCollection$dorta
00000000                SWI_AudioMicDataCollection$ord
00000003                SWI_AudioMicDataCollection$pri
            00006d86    SWI_AudioMicDataCollection$sts
            00025baa    SWI_AudioMicDataCollection$sts$avgfmt
00000002                SWI_AudioMicDataCollection$sts$filter
00000001                SWI_AudioMicDataCollection$sts$filtmaxmult
00000001                SWI_AudioMicDataCollection$sts$filtsummult
            00025b9a    SWI_AudioMicDataCollection$sts$maxfmt
            00006d84    SWI_AudioMicDataCollection$sts$stsobj
            00025ba2    SWI_AudioMicDataCollection$sts$sumfmt
00000000                SWI_AudioMicDataCollection$sts$unittype
00000000                SWI_AudioMicDataCollection$swi
            0000741e    SWI_D_curfxn
            0000741a    SWI_D_curmask
            0000741d    SWI_D_curmbox
            0000741b    SWI_D_curset
            00007418    SWI_D_execaddr
            0000745e    SWI_D_inswi
            0000741c    SWI_D_lock
            00007420    SWI_D_rdybeg
            00007422    SWI_D_rdytab
            00007416    SWI_D_runaddr
00000000                SWI_EHOOKFXN
00048b87                SWI_EXECFXN
00048a58                SWI_F_enable
00048b87                SWI_F_exec
00048b04                SWI_F_exec_sync
00048a85                SWI_F_post
00048c68                SWI_F_run
00000000                SWI_IHOOKFXN
            00007250    SWI_LcdDisplay
00000001                SWI_LcdDisplay$dorta
00000000                SWI_LcdDisplay$ord
00000004                SWI_LcdDisplay$pri
            00006d8e    SWI_LcdDisplay$sts
            00025bc4    SWI_LcdDisplay$sts$avgfmt
00000002                SWI_LcdDisplay$sts$filter
00000001                SWI_LcdDisplay$sts$filtmaxmult
00000001                SWI_LcdDisplay$sts$filtsummult
            00025bb4    SWI_LcdDisplay$sts$maxfmt
            00006d8c    SWI_LcdDisplay$sts$stsobj
            00025bbc    SWI_LcdDisplay$sts$sumfmt
00000000                SWI_LcdDisplay$sts$unittype
00000000                SWI_LcdDisplay$swi
00048c68                SWI_RUNFXN
            00007264    SWI_Recognizer
00000001                SWI_Recognizer$dorta
00000000                SWI_Recognizer$ord
00000003                SWI_Recognizer$pri
            00006d96    SWI_Recognizer$sts
            00025bde    SWI_Recognizer$sts$avgfmt
00000002                SWI_Recognizer$sts$filter
00000001                SWI_Recognizer$sts$filtmaxmult
00000001                SWI_Recognizer$sts$filtsummult
            00025bce    SWI_Recognizer$sts$maxfmt
            00006d94    SWI_Recognizer$sts$stsobj
            00025bd6    SWI_Recognizer$sts$sumfmt
00000000                SWI_Recognizer$sts$unittype
00000000                SWI_Recognizer$swi
            00007278    SWI_SysInit
00000001                SWI_SysInit$dorta
00000000                SWI_SysInit$ord
00000004                SWI_SysInit$pri
            00006d9e    SWI_SysInit$sts
            00025bf8    SWI_SysInit$sts$avgfmt
00000002                SWI_SysInit$sts$filter
00000001                SWI_SysInit$sts$filtmaxmult
00000001                SWI_SysInit$sts$filtsummult
            00025be8    SWI_SysInit$sts$maxfmt
            00006d9c    SWI_SysInit$sts$stsobj
            00025bf0    SWI_SysInit$sts$sumfmt
00000000                SWI_SysInit$sts$unittype
00000000                SWI_SysInit$swi
            0000728c    SWI_SysState
00000001                SWI_SysState$dorta
00000000                SWI_SysState$ord
00000004                SWI_SysState$pri
            00006da6    SWI_SysState$sts
            00025c12    SWI_SysState$sts$avgfmt
00000002                SWI_SysState$sts$filter
00000001                SWI_SysState$sts$filtmaxmult
00000001                SWI_SysState$sts$filtsummult
            00025c02    SWI_SysState$sts$maxfmt
            00006da4    SWI_SysState$sts$stsobj
            00025c0a    SWI_SysState$sts$sumfmt
00000000                SWI_SysState$sts$unittype
00000000                SWI_SysState$swi
            000072a0    SWI_UserInput
00000001                SWI_UserInput$dorta
00000000                SWI_UserInput$ord
00000002                SWI_UserInput$pri
            00006dae    SWI_UserInput$sts
            00025c2c    SWI_UserInput$sts$avgfmt
00000002                SWI_UserInput$sts$filter
00000001                SWI_UserInput$sts$filtmaxmult
00000001                SWI_UserInput$sts$filtsummult
            00025c1c    SWI_UserInput$sts$maxfmt
            00006dac    SWI_UserInput$sts$stsobj
            00025c24    SWI_UserInput$sts$sumfmt
00000000                SWI_UserInput$sts$unittype
00000000                SWI_UserInput$swi
            000072b4    SWI_readAudioData
00000001                SWI_readAudioData$dorta
00000000                SWI_readAudioData$ord
00000004                SWI_readAudioData$pri
            00006db6    SWI_readAudioData$sts
            00025c46    SWI_readAudioData$sts$avgfmt
00000002                SWI_readAudioData$sts$filter
00000001                SWI_readAudioData$sts$filtmaxmult
00000001                SWI_readAudioData$sts$filtsummult
            00025c36    SWI_readAudioData$sts$maxfmt
            00006db4    SWI_readAudioData$sts$stsobj
            00025c3e    SWI_readAudioData$sts$sumfmt
00000000                SWI_readAudioData$sts$unittype
00000000                SWI_readAudioData$swi
            000072c8    SWI_readSPIData
00000001                SWI_readSPIData$dorta
00000000                SWI_readSPIData$ord
00000003                SWI_readSPIData$pri
            00006dbe    SWI_readSPIData$sts
            00025c60    SWI_readSPIData$sts$avgfmt
00000002                SWI_readSPIData$sts$filter
00000001                SWI_readSPIData$sts$filtmaxmult
00000001                SWI_readSPIData$sts$filtsummult
            00025c50    SWI_readSPIData$sts$maxfmt
            00006dbc    SWI_readSPIData$sts$stsobj
            00025c58    SWI_readSPIData$sts$sumfmt
00000000                SWI_readSPIData$sts$unittype
00000000                SWI_readSPIData$swi
            000072dc    SWI_sendSPIData
00000001                SWI_sendSPIData$dorta
00000000                SWI_sendSPIData$ord
00000003                SWI_sendSPIData$pri
            00006dc6    SWI_sendSPIData$sts
            00025c7a    SWI_sendSPIData$sts$avgfmt
00000002                SWI_sendSPIData$sts$filter
00000001                SWI_sendSPIData$sts$filtmaxmult
00000001                SWI_sendSPIData$sts$filtsummult
            00025c6a    SWI_sendSPIData$sts$maxfmt
            00006dc4    SWI_sendSPIData$sts$stsobj
            00025c72    SWI_sendSPIData$sts$sumfmt
00000000                SWI_sendSPIData$sts$unittype
00000000                SWI_sendSPIData$swi
            000072f0    SWI_updateBleFW
00000001                SWI_updateBleFW$dorta
00000000                SWI_updateBleFW$ord
00000002                SWI_updateBleFW$pri
            00006dce    SWI_updateBleFW$sts
            00025c94    SWI_updateBleFW$sts$avgfmt
00000002                SWI_updateBleFW$sts$filter
00000001                SWI_updateBleFW$sts$filtmaxmult
00000001                SWI_updateBleFW$sts$filtsummult
            00025c84    SWI_updateBleFW$sts$maxfmt
            00006dcc    SWI_updateBleFW$sts$stsobj
            00025c8c    SWI_updateBleFW$sts$sumfmt
00000000                SWI_updateBleFW$sts$unittype
00000000                SWI_updateBleFW$swi
            00007304    SWI_updateDisplay
00000001                SWI_updateDisplay$dorta
00000000                SWI_updateDisplay$ord
00000002                SWI_updateDisplay$pri
            00006dd6    SWI_updateDisplay$sts
            00025cae    SWI_updateDisplay$sts$avgfmt
00000002                SWI_updateDisplay$sts$filter
00000001                SWI_updateDisplay$sts$filtmaxmult
00000001                SWI_updateDisplay$sts$filtsummult
            00025c9e    SWI_updateDisplay$sts$maxfmt
            00006dd4    SWI_updateDisplay$sts$stsobj
            00025ca6    SWI_updateDisplay$sts$sumfmt
00000000                SWI_updateDisplay$sts$unittype
00000000                SWI_updateDisplay$swi
00000001                SYS$
            000074cc    SYS$config
0004a004                SYS_ABORTFXN
0004a028                SYS_ERRORFXN
0004a0d4                SYS_EXITFXN
00049f3c                SYS_PUTCFXN
00004000                TRC_GBLTARG
            000074dd    TRC_R_mask
            000074dc    TRC_cinit
00000001                TSK$
            0000747c    TSK_D_idlstkaddr
            0000747e    TSK_D_idlsystkaddr
00000000                TSK_NUM_HOOKS
00000001                TSK_PRIORITY
00000000                TSK_READYFXN
00000000                TSK_STACKSEG
00000400                TSK_STACKSIZE
00000000                TSK_SWITCHFXN
00000100                TSK_SYSTACKSIZE
0004a0f0                TSK_VCREATEFXN
0004a0f0                TSK_VDELETEFXN
0004a0f0                TSK_VEXITFXN
            0000748e    TSK_idle
00000000                TSK_idle$ord
00000000                TSK_idle$pri
            0000664c    TSK_idle$stack
            00006a2e    TSK_idle$stkptr
            00006a4c    TSK_idle$sysstack
            00006b2e    TSK_idle$sysstkptr
00000000                TSK_idle$tsk
            000074a6    TSK_idle$tskobj
00000000                UDEV$
ffffffff                VECT
            00002387    _ATA_No_Swap
0002b3a6                _ATA_cd
0002b347                _ATA_cdRoot
00021b28                _ATA_enableMFW
0002e210                _ATA_fileInit
0002db88                _ATA_findFirst
0002db65                _ATA_findNext
00021b13                _ATA_getSerialID
0002db5b                _ATA_isDir
0002b7b0                _ATA_read
0002b770                _ATA_readLittleEndian
000272ec                _ATA_seek
0001d6ef                _ATA_seek_b
0002b75c                _ATA_sleep
000218fe                _ATA_systemInit
            000023fc    _AtaWrBuf
0004b970                _BIOS_init
0004b9fa                _BIOS_start
0002e4b7                _C55x_delay_msec
0000c350                _CLK_COUNTSPMS
            00002ff2    _CLK_DFLTMICROSECS
            000073ec    _CLK_D_countspms
            000073e6    _CLK_D_dirty
            00002ff4    _CLK_D_microseconds
            000073e8    _CLK_D_prd
            000073ea    _CLK_D_tddr
0000c34f                _CLK_PRD
00001810                _CLK_REGS
00000020                _CLK_TCR
00000000                _CLK_TDDR
00000000                _CLK_TIMERNUM
00000000                _CLK_USETIMER
            000073de    _CLK_htimeDiv
            000073e0    _CLK_htimeMult
            0000300c    _CLK_htimePerLtime
            000073f0    _CLK_isrhook
00049f71                _CLK_itime
            000073e2    _CLK_ltimeDiv
            000073e4    _CLK_ltimeMult
            000073f6    _CLK_time
            00002fc8    _CLK_timer0arg
            00002fc2    _CLK_timer0func
            00002fca    _CLK_timer1arg
            00002fc4    _CLK_timer1func
            00002fcc    _CLK_timer2arg
            00002fc6    _CLK_timer2func
00001810                _CLK_timer5505
00001c14                _CLK_timerIAFR
00000000                _CLK_timerNum
0004a0ec                _CLK_wdogdisable
            000044ac    _CM_LOGIST_PARA
            00004412    _CM_NBEST_LOW_CONF
            000044af    _CM_UV_ACC
            000044b2    _CM_UV_REJ
0002e741                _CallSearchEngine
            007f0000    _CharGen_6x8
ffffffff                _Char_ROM
0002c419                _ClockGatingAll
0002ec61                _CloseASR
00027e7b                _CloseSearchEngine
ffffffff                _DARAM
000256cf                _DMA_Isr
00015e3f                _DMA_close
00015414                _DMA_config
00014f8a                _DMA_getConfig
00014f14                _DMA_getLastTransferType
00014ee9                _DMA_init
00014e5d                _DMA_open
00014bb9                _DMA_reset
00014ad6                _DMA_start
000149f3                _DMA_stop
000149c7                _DMA_swapWords
0002dba5                _DeviceInit
0002e36c                _DmaInit
0002e623                _DspLdoSwitch
0002918c                _EM_alpha_t
00019d72                _EM_beta
            00004392    _EQ_TI_48KHzCoeffs
            000043a6    _EQ_TI_48KHzDeltaCoeffs
            000043ba    _EQ_TI_8KHzCoeffs
            000043ce    _EQ_TI_8KHzDeltaCoeffs
            0000408e    _EQ_TI_DefCoeffs
            000040a2    _EQ_TI_DefDeltaCoeffs
            00004342    _EQ_TI_IALG
            00004342    _EQ_TI_IEQ
0002e413                _EQ_TI_algAlloc
0002ee0b                _EQ_TI_algFree
0002ab9f                _EQ_TI_algInit
0002f0ce                _EQ_TI_algNumAlloc
0001f650                _EQ_TI_apply
0002ed87                _EQ_TI_getGain
0002e9dc                _EQ_TI_getGains
0002e5f0                _EQ_TI_getStatus
0002eaa8                _EQ_TI_setGain
0002e3dc                _EQ_TI_setGains
0002d390                _EQ_TI_setStatus
            000040b6    _EQ_TI_xLinearGains
0002e9fe                _EQ_apply
000266c1                _EQ_create
0002f0da                _EQ_init
0002eba1                _EQ_setGains
0002ebbd                _EQ_setStatus
            0000260a    _EQstatus
            000029c0    _FWAddr
0004a0f0                _FXN_F_nop
            0000440e    _GBG_END_SPEECH_CNT_TH
            0000440d    _GBG_END_SPEECH_START
            0000440f    _GBG_END_SPEECH_TH_PERC
            00004407    _GBG_HNOISE
            0000440c    _GBG_NUM_AFTER_PEAK_TO_TRIGGER_END_SPEECH
            0000440a    _GBG_NUM_SIL
            00004408    _GBG_VAD_VERIFY_TH_HNOISE
            00004409    _GBG_VAD_VERIFY_TH_LNOISE
            00004406    _GBG_num_ids
            00004410    _GBG_post_threshold
            000073da    _GBL_clkIn
            000073dc    _GBL_freq
0004a0e3                _GBL_getVersion
            000073d8    _GBL_procId
000287d4                _GPIO_Isr
0001bc5f                _GPIO_clearInt
0001bc43                _GPIO_close
0001bbd1                _GPIO_config
0001bb0a                _GPIO_configBit
0001baaa                _GPIO_disableInt
0001ba47                _GPIO_enableInt
0001b9d5                _GPIO_getConfig
0001b9ac                _GPIO_open
0001b93d                _GPIO_read
0001b8bc                _GPIO_reset
0001b857                _GPIO_statusBit
0001b7d6                _GPIO_write
00022bda                _GPT_close
00022b62                _GPT_config
00022b38                _GPT_getCnt
00022ab0                _GPT_open
00022a4e                _GPT_reset
00022a31                _GPT_start
00022a14                _GPT_stop
            00004411    _GS_LOW_SCORE
0002de1a                _GetAnswerCount
0002dd4f                _GetAnswerIndex
0002a8e1                _GetAnswerWord
0002ea20                _GetConfidenceScore
0002f062                _GetCycleCount
0002efb5                _GetFrameCount
0002eeec                _GetMaxFrames
0002efc5                _GetNumNbests
0002ece1                _GetRealTGuard
0002ecf9                _GetRealTimeGuardTh
0002e0e0                _GetSearchMemorySize
0002e6b7                _GetTIesrCM
0002f035                _GetTIesrGaussSel
0002cfb5                _GetTIesrJAC
0002ebf5                _GetTIesrJacRate
0002ed11                _GetTIesrNBest
0002ee21                _GetTIesrORM
0002ec10                _GetTIesrPrune
0002d860                _GetTIesrSAD
0002ed29                _GetTIesrSBC
0002f044                _GetTIesrSS
0002ec2b                _GetTIesrTransiWeight
0002e76b                _GetTIesrVolRange
0002ef93                _GetTotalScore
0002efd5                _GetVolumeStatus
000299e0                _GpioInit
0001b260                _HOSTclock
0001b1f5                _HOSTclose
0001b140                _HOSTlseek
0001b09f                _HOSTopen
0001b014                _HOSTread
0001af5b                _HOSTrename
0001aefd                _HOSTtime
0001ae91                _HOSTunlink
0001ae06                _HOSTwrite
00000060                _HST_A_TABBEG
00000060                _HST_A_TABEND
            00025b44    _HST_HOST_CHANNEL_DRIVER
00000018                _HWI_BERR
00000019                _HWI_DLOG
            0000746c    _HWI_D_inhwi
            00007460    _HWI_D_spsave
            00007462    _HWI_D_sspsave
00048e04                _HWI_F_dispatch
0000000a                _HWI_INT10
0000000b                _HWI_INT11
0000000c                _HWI_INT12
0000000d                _HWI_INT13
0000000e                _HWI_INT14
0000000f                _HWI_INT15
00000010                _HWI_INT16
00000011                _HWI_INT17
00000012                _HWI_INT18
00000013                _HWI_INT19
00000002                _HWI_INT2
00000014                _HWI_INT20
00000015                _HWI_INT21
00000016                _HWI_INT22
00000017                _HWI_INT23
00000003                _HWI_INT3
00000004                _HWI_INT4
00000005                _HWI_INT5
00000006                _HWI_INT6
00000007                _HWI_INT7
00000008                _HWI_INT8
00000009                _HWI_INT9
00000001                _HWI_NMI
00000000                _HWI_RESET
0000001a                _HWI_RTOS
0000001b                _HWI_SINT27
0000001c                _HWI_SINT28
0000001d                _HWI_SINT29
0000001e                _HWI_SINT30
0000001f                _HWI_SINT31
            000058c6    _HWI_STKBOTTOM
            000048c6    _HWI_STKTOP
            000048c6    _HWI_SYSSTKBOTTOM
            000044c6    _HWI_SYSSTKTOP
00000004                _HWI_TINT
            00007460    _HWI_data
0004a068                _HWI_disable
            00007318    _HWI_dispatchTab
0004a078                _HWI_enable
0004a07c                _HWI_restore
0001712f                _I2C_config
00017072                _I2C_eventDisable
00016fb5                _I2C_eventEnable
00016f06                _I2C_getConfig
00016ef2                _I2C_getEventId
00016e94                _I2C_init
00016bec                _I2C_read
00016b92                _I2C_setCallback
00016a16                _I2C_setup
000168bd                _I2C_write
0001898d                _I2S_close
000188d0                _I2S_open
000186c8                _I2S_read
0001862b                _I2S_reset
000183bd                _I2S_setup
00018386                _I2S_transEnable
0001828a                _I2S_write
0002d8b1                _I2cInit
0001f067                _I2sDmaInit
0004a0b2                _IDL_loop
            000074d4    _IDL_userIdle
0001e309                _IRQ_clear
0001e2f9                _IRQ_clearAll
0001e2ad                _IRQ_config
0001e245                _IRQ_disable
0001e237                _IRQ_disableAll
0001e1cb                _IRQ_enable
0001e18e                _IRQ_getArg
0001e140                _IRQ_getConfig
0001dfa1                _IRQ_globalDisable
0001e132                _IRQ_globalEnable
0001dfaf                _IRQ_globalRestore
0001e0e5                _IRQ_init
0001e0bb                _IRQ_map
0001e05f                _IRQ_restore
0001e038                _IRQ_setArg
0001e01a                _IRQ_setVecs
0001dfbb                _IRQ_test
0002bcf3                _JAC_clear
0002e867                _JAC_load
000290b0                _JAC_save
0002ce75                _JAC_set_default_params
00017224                _JAC_update
            00002c8e    _KNL_alarm
00049c46                _KNL_check
            00002cb6    _KNL_curqueue
            00002cae    _KNL_curtask
            00002cb2    _KNL_curtime
            00002c96    _KNL_dummy
00049ecc                _KNL_enter
00049ee4                _KNL_exit
00049c7f                _KNL_idle
            00002cc2    _KNL_idlefxn
            00002c92    _KNL_inactive
00049cac                _KNL_ipost
00049c96                _KNL_max
            00002cb8    _KNL_maxqueue
00049fa8                _KNL_post
            00002cb0    _KNL_prevtask
            00002c94    _KNL_priority
            00002c3c    _KNL_queues
00049378                _KNL_run
000497fe                _KNL_saveIsrFrame
            00002c3b    _KNL_set
            00002c90    _KNL_setpri
            00007200    _KNL_swi
            00002cb4    _KNL_swiptr
00049751                _KNL_switch
            00002cbc    _KNL_tcreatefxn
            00002cbe    _KNL_tdeletefxn
00049940                _KNL_tick
            00002cc0    _KNL_treadyfxn
            00002cba    _KNL_tswitchfxn
            00002c3a    _KNL_wFlag
            00002c8c    _KNL_wList
            000043f4    _K_mean
00049d28                _LCK_pend
00049d08                _LCK_post
00006df2                _LOG_A_TABBEG
00006dfc                _LOG_A_TABEND
00000001                _LOG_A_TABLEN
            00007400    _LOG_D_system
00049d60                _LOG_event
            00006df2    _LOG_system
            0000300e    _MEM
            0000746d    _MEM_D_NUMSEGMENTS
            00007470    _MEM_D_freelist
            00007472    _MEM_D_lockaddr
            0000746e    _MEM_D_memtab
            00007474    _MEM_D_unlockaddr
00049200                _MEM_alloc
0004920c                _MEM_allocPage
000494cc                _MEM_free
0004ba28                _MEM_init
            00002fa4    _MEM_memtab
00049f04                _MEM_valloc
0002efe5                _MMCSD_Isr
000133a6                _MMC_bootModeRead
00013366                _MMC_bootPartitionDisable
00013303                _MMC_bootPartitionEnable
000168b9                _MMC_busyStatusCheck
00011bd1                _MMC_checkReadDmaDone
00013263                _MMC_clearResponse
00013222                _MMC_close
000168b5                _MMC_commandReadyStatusCheck
0001319d                _MMC_config
00013136                _MMC_configFifo
000168b1                _MMC_dataReadyStatusCheck
000130e2                _MMC_deselectCard
000130a2                _MMC_disableBootPartitionAccess
00013073                _MMC_drrdy
00013046                _MMC_dxrdy
00013026                _MMC_enableBootMode
00012fcd                _MMC_enableBootPartitionAccess
00012e1a                _MMC_eventDisable
00012c67                _MMC_eventEnable
000168ad                _MMC_file_system_format
000168a9                _MMC_flushFat
00012c45                _MMC_getBootPartitionSize
00012937                _MMC_getCardCsd
00012701                _MMC_getCardExtCsd
0001265b                _MMC_getCardStatus
000125d6                _MMC_getConfig
000125ab                _MMC_getNumberOfCards
000168a5                _MMC_getSerialID
0001257a                _MMC_getStatus
000168a1                _MMC_get_date
0001689d                _MMC_get_mod_date
00016899                _MMC_get_mod_time
00016895                _MMC_get_time
0001090f                _MMC_ierDisable
00010961                _MMC_ierEnable
00012557                _MMC_init
000124f1                _MMC_initCtrl
0001679a                _MMC_initState
00010940                _MMC_intEnable
00016403                _MMC_issueReadCommand
0001237b                _MMC_open
00011c50                _MMC_read
0001633b                _MMC_readNSectors
00016745                _MMC_readNextNWords
000166ed                _MMC_readNextWord
00016686                _MMC_readNextWord1
0001609f                _MMC_readWriteControl
00016055                _MMC_read_CID
0001600b                _MMC_read_CSD
00016007                _MMC_reset
00011b9a                _MMC_saveStatus
0001185d                _MMC_selectCard
00011723                _MMC_sendAllCID
00010101                _MMC_sendCmd
000116d9                _MMC_sendGoIdle
0001167b                _MMC_sendOpCond
00011653                _MMC_sendSwitchCmd
0001160c                _MMC_setBlockLength
000115cb                _MMC_setBootBusWidth
0001159f                _MMC_setCallBack
00011582                _MMC_setCardPtr
00011555                _MMC_setCardType
0001151c                _MMC_setDataTransferCallback
00011461                _MMC_setDmaChanConfig
0001141d                _MMC_setDmaHandle
000113c7                _MMC_setEMMCBusWidth
00011362                _MMC_setEndianMode
00011304                _MMC_setRca
00011275                _MMC_setWriteBlkEraseCnt
000111ee                _MMC_setupNative
000111b8                _MMC_stop
00010992                _MMC_write
00015f22                _MMC_writeNSectors
00015e57                _MMC_writeSector
00015e53                _MMC_writeSectorFlush
ffffffff                _NAND
ffffffff                _NOR
0004bc38                _OBJ_init
            00002f2e    _OBJ_segtab
            00002f12    _OBJ_table
0002dc35                _OSD9616_send
0002c124                _OpenASR
0002d1ba                _OpenSearchEngine
            00003007    _PG1_flag
            00003006    _PG3_flag
            00003005    _PG4_flag
00000060                _PIP_A_TABBEG
00000060                _PIP_A_TABEND
00020aed                _PLL_bypass
000209eb                _PLL_config
000209b1                _PLL_enable
00020992                _PLL_init
0002093a                _PLL_reset
            00007415    _PRD_D_tick
0001941e                _RTC_bcdToDec
000196fe                _RTC_config
00019101                _RTC_decToBcd
00019662                _RTC_eventDisable
000195c6                _RTC_eventEnable
00019547                _RTC_getConfig
0001950d                _RTC_getDate
000194b9                _RTC_getEventId
00019474                _RTC_getTime
0002e24c                _RTC_isr
00019416                _RTC_reset
0001935a                _RTC_setAlarm
000192e4                _RTC_setCallback
000192b7                _RTC_setCompensation
00019257                _RTC_setDate
000191db                _RTC_setPeriodicInterval
0001916f                _RTC_setTime
000190ed                _RTC_start
000190e5                _RTC_stop
00000000                _RTDX_Buffer_Read
00000000                _RTDX_Buffer_Write
00000000                _RTDX_Poll
            00001668    _ReadNBufs
0002eff5                _SADState
            00002faa    _SARAM
ffffffff                _SARAM31
0001786f                _SARAM_base
0002f0de                _SARAM_baseb
00014000                _SARAM_length
00017f5d                _SAR_A2DMeasParamSet
00017e9c                _SAR_GPODirSet
00017e4f                _SAR_chanClose
00017de8                _SAR_chanConfig
00017da7                _SAR_chanCycSet
00017d98                _SAR_chanInit
00017d4f                _SAR_chanOpen
00017bf7                _SAR_chanSetup
00017be7                _SAR_deInit
00017b87                _SAR_getConfig
00017b57                _SAR_getStatus
00017afa                _SAR_init
00017ac3                _SAR_readData
00017a9d                _SAR_startConversion
00017a71                _SAR_stopConversion
0002e2c1                _SBL_CMD_download
0002dc7c                _SBL_CMD_getStatus
0002ed9d                _SBL_CMD_ping
0002eac9                _SBL_CMD_sectorErase
0002e92b                _SBL_CMD_sendData
0002df21                _SBL_CMD_uint32to16
0002cd9e                _SBL_TL_getRsp
0002be07                _SBL_TL_sendCmd
0002bd7d                _SBL_TL_sendCmd16
0002b634                _SBL_eraseFlash
0001087c                _SD_configurePullup
00010462                _SD_getCardCsd
00010313                _SD_sendAllCID
00010264                _SD_sendRca
000101a4                _SD_setBusWidth
            00002faa    _SEG0
            00006de2    _SEM_mmcDone
00049daa                _SEM_pend
00049610                _SEM_pendEnterKnl
00049df2                _SEM_post
00049df2                _SEM_postBinary
0004a048                _SEM_postEnterKnl
            00004430    _SNP_Code_finish
            00004432    _SNP_Code_length
            0000442a    _SNP_Code_sections
            0000442e    _SNP_Code_start
            0000442c    _SNP_Code_termination
0001cf94                _SPI_close
0001cd5c                _SPI_config
0001cd0f                _SPI_dataTransaction
0001ccf3                _SPI_deInit
0001ccd5                _SPI_init
0001cca8                _SPI_open
0001cbfb                _SPI_read
000271c3                _SPI_sendCommand
0001cb42                _SPI_write
ffffffff                _SRAM
            00004158    _SRC_TI_ConversionIndex
            00003046    _SRC_TI_DCTableP0
            00003057    _SRC_TI_DCTableP1
            000030f0    _SRC_TI_DCTableP10
            00003101    _SRC_TI_DCTableP11
            00003112    _SRC_TI_DCTableP12
            00003123    _SRC_TI_DCTableP13
            00003134    _SRC_TI_DCTableP14
            00003145    _SRC_TI_DCTableP15
            00003156    _SRC_TI_DCTableP16
            00003167    _SRC_TI_DCTableP17
            00003178    _SRC_TI_DCTableP18
            00003189    _SRC_TI_DCTableP19
            00003068    _SRC_TI_DCTableP2
            0000319a    _SRC_TI_DCTableP20
            000031ab    _SRC_TI_DCTableP21
            000031bc    _SRC_TI_DCTableP22
            000031cd    _SRC_TI_DCTableP23
            000031de    _SRC_TI_DCTableP24
            000031ef    _SRC_TI_DCTableP25
            00003200    _SRC_TI_DCTableP26
            00003211    _SRC_TI_DCTableP27
            00003222    _SRC_TI_DCTableP28
            00003233    _SRC_TI_DCTableP29
            00003079    _SRC_TI_DCTableP3
            00003244    _SRC_TI_DCTableP30
            00003255    _SRC_TI_DCTableP31
            00003266    _SRC_TI_DCTableP32
            00003277    _SRC_TI_DCTableP33
            00003288    _SRC_TI_DCTableP34
            00003299    _SRC_TI_DCTableP35
            000032aa    _SRC_TI_DCTableP36
            000032bb    _SRC_TI_DCTableP37
            000032cc    _SRC_TI_DCTableP38
            000032dd    _SRC_TI_DCTableP39
            0000308a    _SRC_TI_DCTableP4
            000032ee    _SRC_TI_DCTableP40
            000032ff    _SRC_TI_DCTableP41
            00003310    _SRC_TI_DCTableP42
            00003321    _SRC_TI_DCTableP43
            00003332    _SRC_TI_DCTableP44
            0000309b    _SRC_TI_DCTableP5
            000030ac    _SRC_TI_DCTableP6
            000030bd    _SRC_TI_DCTableP7
            000030ce    _SRC_TI_DCTableP8
            000030df    _SRC_TI_DCTableP9
            00004266    _SRC_TI_IALG
            00004266    _SRC_TI_ISRC
            000040fe    _SRC_TI_Interpolators
            000042d8    _SRC_TI_LowPassFilters
            00003010    _SRC_TI_RateRatios
0002e7e9                _SRC_TI_algAlloc
0002eb84                _SRC_TI_algFree
00026045                _SRC_TI_algInit
0002f0d2                _SRC_TI_algNumAlloc
0002969b                _SRC_TI_apply
            00003022    _SRC_TI_dRateRatios
            00003034    _SRC_TI_dSkipNums
0002dd93                _SRC_TI_getIndex
0002ef4b                _SRC_TI_getInputRate
0002ef5d                _SRC_TI_getOutputRate
0002d01e                _SRC_TI_getStatus
000216c0                _SRC_TI_interp
0002eeff                _SRC_TI_isInputBufferEmpty
0002ef12                _SRC_TI_isOutputBufferFull
            00003348    _SRC_TI_lpfcoft11
            00003370    _SRC_TI_lpfcoft11at16
            0000338e    _SRC_TI_lpfcoft11at32
            0000337a    _SRC_TI_lpfcoft11at48
            0000334d    _SRC_TI_lpfcoft12
            00003389    _SRC_TI_lpfcoft12at16
            00003393    _SRC_TI_lpfcoft12at32
            00003352    _SRC_TI_lpfcoft16
            00003375    _SRC_TI_lpfcoft16at48
            00003357    _SRC_TI_lpfcoft22
            0000337f    _SRC_TI_lpfcoft22at48
            0000335c    _SRC_TI_lpfcoft24
            00003361    _SRC_TI_lpfcoft32
            00003384    _SRC_TI_lpfcoft32at48
            00003366    _SRC_TI_lpfcoft48
            00003343    _SRC_TI_lpfcoft8
            0000336b    _SRC_TI_lpfcoft8at48
            000043e2    _SRC_TI_rates
0002e890                _SRC_TI_setInput
00026194                _SRC_TI_setInputRate
0002e714                _SRC_TI_setOutput
00025ef6                _SRC_TI_setOutputRate
0002d80d                _SRC_TI_setStatus
00027d84                _SRC_create
0002e4ec                _SRC_delete
            00003595    _START_DIMENSION
00006d6c                _STS_A_TABBEG
00006ddc                _STS_A_TABEND
00049e5c                _STS_add
00049e3a                _STS_delta
00049e74                _STS_reset
            00007214    _SWI_AudioDataCollection
            00007228    _SWI_AudioDataProcess
            0000723c    _SWI_AudioMicDataCollection
            0000741e    _SWI_D_curfxn
            0000741a    _SWI_D_curmask
            0000745e    _SWI_D_inswi
            0000741c    _SWI_D_lock
            00007420    _SWI_D_rdybeg
            00007250    _SWI_LcdDisplay
            00007264    _SWI_Recognizer
            00007278    _SWI_SysInit
            0000728c    _SWI_SysState
            000072a0    _SWI_UserInput
            00007416    _SWI_data
0004a0ca                _SWI_disable
00048a58                _SWI_enable
0004a0dc                _SWI_getmbox
0004a0be                _SWI_inc
00048a85                _SWI_post
            000072b4    _SWI_readAudioData
            000072c8    _SWI_readSPIData
            000072dc    _SWI_sendSPIData
            000072f0    _SWI_updateBleFW
            00007304    _SWI_updateDisplay
            00007476    _SYS
            00007000    _SYS_PUTCBEG
            000071ff    _SYS_PUTCEND
0004a084                _SYS_abort
0004a09c                _SYS_error
00049e84                _SYS_exit
            00002f6c    _SYS_exitStack
            00002f7c    _SYS_exitStackPtr
            00002f7e    _SYS_exitStackTop
00022f9b                _SYS_peripheralReset
00022e2a                _SYS_setEBSR
00022e16                _SYS_set_DSP_LDO_voltage
0002ee60                _SetRealTGuard
0002ee74                _SetRealTimeGuardTh
0002edb3                _SetTIesrCM
0002f08c                _SetTIesrGaussSel
0002d765                _SetTIesrJAC
0002ed59                _SetTIesrJacRate
0002ee88                _SetTIesrNBest
0002ee9c                _SetTIesrORM
0002edc9                _SetTIesrPrune
0002dfe3                _SetTIesrSAD
0002eeb0                _SetTIesrSBC
0002f099                _SetTIesrSS
0002eddf                _SetTIesrTransiWeight
0002ea42                _SetTIesrVolRange
0002f070                _SpeechDetected
0002eb09                _SpeechEnded
0001ea16                _TIesrEngineOpen
            000074dd    _TRC_R_mask
            00002e8a    _TSK
            00002e6a    _TSK_ATTRS
            00002e7a    _TSK_config
00049950                _TSK_exit
            0000748e    _TSK_idle
0004bacc                _TSK_init
            00002e68    _TSK_nTasks
            00002e69    _TSK_pid
00049b94                _TSK_setup
00049a7c                _TSK_startup
            00002e8c    _TSK_timerSem
0004a004                _UTL_doAbort
0004a028                _UTL_doError
00049f3c                _UTL_doPutc
0004a0d4                _UTL_halt
0002e655                _UsbLdoSwitch
ffffffff                _VECT
0002c6bb                __AtaCalculatePhySectorAndOffsetFromCluster
00027884                __AtaCalculatePhySectorAndOffsetFromDirEntry
0002c675                __AtaCalculatePhySectorAndOffsetOfFatEntry
0001c1b0                __AtaCreate
0002941a                __AtaFindNext
000288bc                __AtaFindNextAvailableCluster
0002ac4a                __AtaFindNextBrokenCluster
0002c5fe                __AtaFlush
00026e36                __AtaGetDirEntry
0002aa42                __AtaRead
0002d5f9                __AtaReadByte
0002d5b1                __AtaReadDoubleWord
0002e44a                __AtaReadFatEntry
00024826                __AtaReadFatEntryAtPhySector
0002d4a1                __AtaReadSector
00028a8b                __AtaReadWord
0001d419                __AtaRead_b
000244fa                __AtaWriteFatEntry
0001ed47                __AtaWriteFatEntryAtPhySector
            00025f4c    __CIOBUF_
            00007486    __HOOK_NUMHOOKS
            00007484    __HOOK_knlId
            00002eda    __MEM_mutex
00049ae0                __SEM_dopost
            000058c6    __STACK_END
00002000                __STACK_SIZE
00000800                __SYSSTACK_SIZE
            00002ec6    __TSK_mutex
ffffffff                ___binit__
            00000060    ___bss__
ffffffff                ___c_args__
            0002507a    ___cinit__
            00000060    ___data__
            00000060    ___edata__
            00003010    ___end__
0002f0de                ___etext__
0002ec95                ___isinf
ffffffff                ___pinit__
00010000                ___text__
00020d80                __addd
0002aef3                __buff_read
00020768                __cleanup
            00002ffe    __cleanup_ptr
00023196                __cmpd
            00003c0f    __ctypes_
0001d827                __divd
0002dbed                __divli
00020d4c                __divlli
0002e83d                __divu
0002b03b                __divul
00020c58                __divull
0002a827                __doflush
            00003000    __dtors_ptr
00023162                __eqld
0002e813                __fixdi
0002cd30                __fixdli
0002ec46                __fixdu
0002c7d8                __fixdul
0002d0ef                __fltlid
0002d4fc                __fltuld
0002c84e                __frcmpyd
0002ca21                __frcmpyd_div
            000028a6    __ft_end
            0000278e    __ftable
00023118                __geqd
000230cd                __gtrd
00023080                __leqd
            00002ffa    __lock
00023038                __lssd
0002642e                __mpyd
0002ef38                __mpyli
00020ba1                __mpylli
0002f015                __negd
00023004                __neqd
0002ef91                __nop
000147a9                __printfi
000293bd                __rd_ok
0002ef89                __register_lock
0002ef81                __register_unlock
0002d9e8                __remli
00020b72                __remlli
0002e852                __remu
0002cb05                __remul
00020b24                __remull
            000048c6    __stack
0002eed8                __subd
            000044c6    __sysstack
            00002806    __tmpnams
            00002ffc    __unlock
00029340                __wrt_ok
0002f0c1                _abort
0001b6ee                _add_device
            00002e54    _aicADCBiQuadPageNumsLeft
            00002e59    _aicADCBiQuadPageNumsRight
            00002e5e    _aicADCBiQuadStartRegLeft
            00002e63    _aicADCBiQuadStartRegRight
00027c8c                _aic_SetADCBiQuad
0002da33                _aic_SetBiQuadSection
0002da7d                _aic_SetOrd1IIRSection
0002be91                _aic_writeCoef
0002c39e                _aic_writeCoef_2
0002a992                _appGetSysClk
00028156                _ascii2HexBytes
0002d60b                _atoi
            00001662    _audioDataProcessCnt
0004bb56                _auto_init
0001a2e0                _back_trace_beam
0002c493                _bleFWUpgrade
0002ed41                _ble_backdoor_ctrl
            00002f50    _bootloder_enable_register
            0000165e    _bufSel
            00002534    _bytesRead
            000029aa    _bytesWritten
0002dcc3                _byteshift
0004bbc7                _c_int00
            00001f7e    _cached_phySector0
            00002380    _cached_phySector1
            00002382    _cached_phySector2
            00002384    _cached_phySector3
00049130                _calloc
0002d3eb                _checkWaveHeader
0002d21b                _chkAllowedPBNState
0002e7bf                _circ_idx
0002e94f                _clear_lcd
0002c2a7                _clear_lcd_page
0002f0b9                _clearerr
0001b67e                _close
00026bc8                _cm_acc_seg_ratio_to_antimodel
0002e6e6                _cm_antiscr
0002b883                _cm_backup_adp
0002f0b0                _cm_close
0002ee36                _cm_freeze
0002bc68                _cm_init
0002b3df                _cm_load
000241b7                _cm_open
0002b915                _cm_restore_adp
00029dce                _cm_save
0002e8b8                _cm_set_param
0002d7b9                _cm_update_status
            000029ac    _cmdErrCnt
0001e348                _codecConfigLoopback
000189fd                _codecConfigPlayback
00023ca4                _codecInputSelect
            00004434    _coef_logpoly
00023aed                _compute_regression
0002121d                _compute_uttdet
00026a8b                _cos_transform
            00001666    _count
            00002609    _counter
            00002f4b    _data
            000028a8    _dataBuf
            000029b8    _dataBufAddr
            000029b6    _dataBufIndex
            000029b4    _dataBuffering
            000029ae    _dataErrCnt
00026806                _dim_p2_init
            00002dbb    _displayScreen
00027f6f                _div32_32
            00001658    _dmaIsrCnt
            0000165c    _dmaIsrCntRx
            0000165a    _dmaIsrCntTx
            00000074    _dmaObjRx
            0000007d    _dmaObjRxR
            00000062    _dmaObjTxL
            0000006b    _dmaObjTxR
            000025d5    _dmaRdChanObj
            000025ca    _dmaRdHandle
            0000036c    _dmaRxLConfig
            0000037a    _dmaRxRConfig
            00000350    _dmaTxLConfig
            0000035e    _dmaTxRConfig
            000025cc    _dmaWrChanObj
            000025c8    _dmaWrHandle
0002c227                _download_data
            0000262a    _eqLeftParams
            00002634    _eqRightParams
00028248                _eq_config
            00006b4c    _eq_heap_section_1
            00006b56    _eq_heap_section_2
            00006bba    _eq_heap_section_3
            00006bc0    _eq_heap_section_4
            00006bca    _eq_heap_section_5
            00006c2e    _eq_heap_section_6
            00002626    _eqleft
            00002612    _eqlp
            00002628    _eqright
            0000261c    _eqrp
            000028a7    _errno
0002e0a2                _exit
00024e2d                _extractWaveInfo
0002c762                _fclose
0002a889                _fflush
0002435c                _fft
000249ad                _fft_spectrum_to_mfcc
0002e520                _fileAccessErrDisp
0002e554                _fileFormatErrDisp
0002ea64                _fileReadStatusDisp
            00002f37    _filename
0002a76d                _find_ble_stack_firmware
0001b675                _find_registered_device
00020886                _fopen
0002af99                _fputc
00024cb2                _fputs
00026579                _fread
00049178                _free
00026cff                _free_models
0002e2fa                _free_scales
000207c0                _freopen
            00002ec4    _fsError
0002d087                _fseek
0002c939                _ftell
00021d57                _fwrite
0002d446                _fx_sqrt
            00002e32    _gADCDigGain
            000044bc    _gAllowedPbnStates
            00003009    _gAtaWord
            0000008f    _gAudioBuffering
            00002d4b    _gAudioSrc
            000025ea    _gBleFWAppSize
            000025de    _gBleFWFound
            000025ec    _gBleFWStackSize
            00025f49    _gConfig
            00001664    _gCountRead
            000261a1    _gDim
            00001667    _gDoneWrite
            00002bfa    _gEndRecog
            000025df    _gFileName
            00002532    _gFreeDataBlocks
            0002606c    _gGconst
            00002ff8    _gGpioObj
            000029ba    _gHexRec
            00026110    _gHmm
            00002f80    _gI2cObj
            000025e9    _gInFileRead
            00002f9e    _gMcStates
            000258e1    _gMixture
            000058c6    _gMu
            00026270    _gNet
            00001f7c    _gNextPhySector
            00026214    _gPdf
            0000008e    _gPlayActive
            00002d50    _gPushButon
            00001e7a    _gReadBuf
            000004cc    _gRxCircBuf
            000004c9    _gRxCircBufInFrame
            000004ca    _gRxCircBufOutFrame
            0000114c    _gRxCircBufOvrCnt
            0000114e    _gRxCircBufUndCnt
            00000090    _gRxPingPongBuf
            000004c8    _gRxPingPongBufSel
            00000b0c    _gRxRCircBuf
            000001d0    _gRxRPingPongBuf
            00002d51    _gSPINotify
            0000444d    _gSarData2PbnState
            00000310    _gSilenceBuf
            00002d4e    _gSkipDispUpdate
            00002d69    _gStateLookup
            00002d49    _gSysGoalState
            00002d68    _gSysInitDone
            00002d4a    _gSysPrevState
            00002d48    _gSysState
            00025e1e    _gTran
            00000388    _gTxBuf
            00001150    _gTxCircBuf
            000004cb    _gTxCircBufInFrame
            00001650    _gTxCircBufOutFrame
            00001652    _gTxCircBufOvrCnt
            00001654    _gTxCircBufUndCnt
            000013d0    _gTxRCircBuf
            00002fa0    _gUcStates
            00002d4d    _gUpdateDisp
            0002386f    _gVar
            00002d4f    _gVoiceCmd
            00002bfb    _gVoiceCmdMapping
            0000252e    _gWaveDataRdBlkOffset
            00001656    _gWaveDataRdOffset
            00002530    _gWaveDataWrBlkOffset
            0002186f    _gWaveFileData
            00002533    _gWaveFileFound
            000025ee    _gWaveHdr
            00002510    _gWaveHdrData
            000262c4    _gWord
            00001f7b    _gWordCount
            00001f80    _gWriteBuf
            00001e78    _gWriteSector
            00002604    _gain
00021f7d                _gauss_obs_score_f
            00002ff0    _gdword
0002d156                _getCurrentPBNState
000208bf                _getSysClk
00029c3f                _get_high_addr
00028339                _get_record_details
0001ad86                _getenv
            00002d52    _gpioHandle
            00002dbc    _gpio_isr_cnt
            000023cc    _gpstrAtaDrive
            000023fa    _gpstrAtaMMCState
0002d557                _gpt1Isr
            00002fa2    _gptIsrCnt
            00002388    _gstrAtaDrive
            000024fc    _gstrAtaMMCState
            00002d4c    _gsysBoot
            00002fee    _gtByte
            00003008    _gtempword
            00000086    _hDmaRx
            00000088    _hDmaRxR
            0000008a    _hDmaTxL
            0000008c    _hDmaTxR
            00002ff6    _hGpio
            00000060    _hI2s
            00002fbe    _hPll
            00002fec    _hSpi
            000029a8    _highAddr
0002694b                _hlr_expn
0002a306                _hlr_expn_q
000221a2                _hlr_gauss_obs_score_f
0002c8c4                _hlr_log_one
0002bf9b                _hlr_logsum
            00002e4e    _hpCoefs120HzOrd1_16kHz
            00002e3e    _hpCoefs120HzOrd1_8kHz
            00002e44    _hpCoefs120Hz_16kHz
            00002e34    _hpCoefs120Hz_8kHz
            00003d10    _hw
            00002fcf    _hwConfig
            00002f90    _i2cHandle
            000029c2    _imgBuf
0002eb29                _initUcStates
0001e6d2                _init_media
0002c50c                _init_rtc
0002f005                _init_spect_sub
0002bac4                _init_spi
0002d710                _init_uttdet
0002ad9f                _inverse_cos_transform
0002c1a6                _jac_one_mean
            00002dbd    _ledState
0002e973                _load_model_config
0002dac7                _load_model_file
0001fea1                _load_models
0002b50a                _load_mu
0002ef6f                _load_n_mfcc
00027b90                _load_word_list
000294f3                _log_polyfit
00025118                _log_spectral_compensation
            00002662    _lp
0001b611                _lseek
0002c585                _ltoa
000262e1                _main
00049068                _malloc
0002376b                _mel_scale_fft_spectrum
000490a4                _memalign
0002ea86                _memccpy
0002d6ba                _memcpy
0002eb48                _memset
00029aab                _mfcc_a_window
            00002578    _mmcCardObj
            00002eee    _mmcsdCardExtCSD
            00002576    _mmcsdHandle
0002ed70                _mmcsdTransferDoneCallBack
            0000263e    _mp3MemTab
0002f053                _my_fclose
0002ef25                _my_fopen
0002ae49                _my_fwrite
0002d279                _nbr_coding
            00002386    _nbuf_cached
00022c20                _noise_subs
00029d07                _observation_likelihood
000231ee                _oled_init
            00002fce    _opMode
0001b554                _open
000286eb                _open_first_file
            00002ec5    _ouError
            000023f8    _pAtaFile
            00002fc0    _pConfigInfo
            00002536    _pMmcsdContObj
0001c682                _parse_hex_file
0002e11d                _pausePlay
00020fd7                _per_frame_jac_compensate
            00002fba    _pllCfg1
            0000448b    _pllCfg_100MHz
            0000448f    _pllCfg_120MHz
            00004493    _pllCfg_40MHz
            00004497    _pllCfg_50MHz
            0000449b    _pllCfg_60MHz
            0000449f    _pllCfg_75MHz
            00002fb4    _pllObj
00025af4                _pll_sample
0002528c                _pmc
000295c7                _pow_polyfit
00027415                _print_char
00029e92                _print_string
0002d900                _printf
0002842a                _processCommand
0002b0db                _processPushButton
0002f0d6                _processVoiceCmd
0002af99                _putc
0002b02c                _putchar
00024e01                _puts
0002c01e                _q15_x
0001b4aa                _read
0002cbe4                _readBleFirmware
            00002d58    _readBuffer
0002b217                _read_file
0002cee0                _readmsg
0004919c                _realloc
0002f0a6                _remove
0001b476                _remove_device
0001b41f                _rename
0002e588                _resetCircBuf
0002e023                _resetRxCircBuf
0002eb67                _resetRxPingPongBuf
0002e1d4                _reset_ble
0002e906                _resumePlay
            0000266c    _rp
            00002dbe    _rtcIntCnt
            00001660    _rxBufSel
0002e5bc                _sdAccessErrDisp
            000025a6    _sdCardCsdObj
            00002596    _sdCardIdObj
0001cfb3                _search_a_frame
            00001f7a    _sectBuffered
            00001e68    _sector
0002edf5                _seek_file
00029913                _selectAudioSource
00010000                _sendCmd
0002dd0a                _set_default_uttdet
00028518                _set_search_space
0002e063                _set_volume_flag
00028063                _setvbuf
0002cc53                _signal_to_power_spectrum
            00002db9    _spiIntCnt
            00002dba    _spiWritePending
0002de9e                _spi_send_ping
            0000270e    _srcInL
            0000274e    _srcInR
            00002676    _srcLeft
            0000267a    _srcLeftParams
            0000268e    _srcOutL
            000026ce    _srcOutR
            00002678    _srcRight
            00002684    _srcRightParams
0002ba37                _src_config
0002ec7b                _src_delete
            00006c34    _src_heap_section_1
            00006cd0    _src_heap_section_2
0002e996                _src_set_samplerate
0002b7f0                _ss_est_frmEn
0002976e                _ss_update_meanEn
00027a92                _startDma
0002d99b                _startPlay
            0000300a    _start_FAT_cluster
            000029b0    _statusErrCnt
0002e3a4                _stopDma
0002c9ae                _stopPlay
            000023ce    _strAtaFile
0002f025                _strcmp
0002eec4                _strcpy
0002ee4b                _strlen
0002e9b9                _strncmp
0002ca94                _swapBytes
00028c51                _swi_AudioDataCollectionFxn
0002e8df                _swi_AudioDataProcessFxn
0002a0ce                _swi_AudioMicDataCollectionFxn
0002f0d8                _swi_LcdDisplayFxn
00029f51                _swi_ReadAudioDataFxn
0002a53c                _swi_ReadSPIDataFxn
0002013b                _swi_RecognizerFxn
0002db11                _swi_SendSPIDataFxn
0002400c                _swi_SysInitFxn
000203cb                _swi_UpdateDisplayFxn
00028d33                _swi_UserInputFxn
0002ecc8                _swi_sysStateFxn
00025400                _swi_updateBleFWFxn
            00002d60    _sysStateInfo
            00002b92    _tiesr
            00002bf8    _tiesrInstance
            000029b2    _totalCnt
            0000440b    _u_low_is_speech
            00004404    _u_rj_perc_core
            00004405    _u_rj_perc_inte
0001b3eb                _unlink
00025568                _updateDisplay
0002d664                _updateMcStates
0002e481                _updateUcStates
0002e15a                _update_level
0002f0c8                _userIdle
00025da4                _userInterfaceInit
0002e197                _userInterfaceStart
00028fd2                _vector_packing
0002bbdc                _vector_unpacking
            00003f8d    _w_imag
            0000400d    _w_real
0001b2be                _write
            00002d54    _writeBuffer
0002a010                _writemsg
ffffffff                binit
            0002507a    cinit
            00000060    edata
            00003010    end
0002f0de                etext
            000074b6    gblinit
0000ff00                hwi0
0000ff08                hwi1
0000ff50                hwi10
0000ff58                hwi11
0000ff60                hwi12
0000ff68                hwi13
0000ff70                hwi14
0000ff78                hwi15
0000ff80                hwi16
0000ff88                hwi17
0000ff90                hwi18
0000ff98                hwi19
0000ff10                hwi2
0000ffa0                hwi20
0000ffa8                hwi21
0000ffb0                hwi22
0000ffb8                hwi23
0000ffc0                hwi24
0000ffc8                hwi25
0000ffd0                hwi26
0000ffd8                hwi27
0000ffe0                hwi28
0000ffe8                hwi29
0000ff18                hwi3
0000fff0                hwi30
0000fff8                hwi31
0000ff20                hwi4
0000ff28                hwi5
0000ff30                hwi6
0000ff38                hwi7
0000ff40                hwi8
0000ff48                hwi9
00048d68                logPost
ffffffff                pinit
00048dba                stsPost


GLOBAL SYMBOLS: SORTED BY Symbol Address 

abs. value/
byte addr   word addr   name
---------   ---------   ----
00000000                BUF$
00000000                CLK_COUNTSPMSHIGH
00000000                CLK_IMR1TINTMASK
00000000                CLK_INTBIT
00000000                CLK_PRDHIGH
00000000                CLK_TDDR
00000000                CLK_TDDRHIGH
00000000                CLK_TIMER1ARG
00000000                CLK_TIMER2ARG
00000000                CLK_TIMERNUM
00000000                CLK_USETIMER
00000000                DEV$
00000000                DGN$
00000000                DHL$
00000000                DHL_gChannelsAvailable
00000000                DIO$
00000000                DIO_NUMSWIBASE
00000000                DIO_NUMTSKBASE
00000000                DIO_STATIC
00000000                DPI$
00000000                GBL_CALLCSLCFGINIT
00000000                GBL_ENABLEICACHE
00000000                GBL_ENABLEINST
00000000                GBL_MODIFYCLKMD
00000000                GBL_NULL
00000000                GBL_PROCID
00000000                GBL_ROM
00000000                GBL_SUPPORTCSL
00000000                GBL_USERINIT
00000000                GIO$
00000000                HOOK$
00000000                HOOK_KNLID
00000000                HST$
00000000                HST_BIOSLINK
00000000                HST_DSM
00000000                HST_MAXFRAMESET
00000000                HST_RTDX
00000000                HWI_RESET
00000000                HWI_ZEROTAB
00000000                IDL_CALIBRERROR
00000000                IDL_CALIBRFXN
00000000                IDL_USECLKIDLTIME
00000000                KNL_swi$ord
00000000                KNL_swi$pri
00000000                KNL_swi$sts$unittype
00000000                KNL_swi$swi
00000000                LOG_system$datatype
00000000                LOG_system$log
00000000                MBX$
00000000                MEM_NULL
00000000                MSGQ$
00000000                MSGQ_USEMSGQ
00000000                OBJ$
00000000                PIP$
00000000                PIP_A_TABLEN
00000000                PIP_gNextId
00000000                PIP_gNumEmbed
00000000                POOL$
00000000                POOL_USEPOOL
00000000                PRD_A_TABLEN
00000000                PRD_SWIHANDLE
00000000                PWRM_PWRM_ADAPTCLK
00000000                PWRM_PWRM_ENABLE
00000000                PWRM_PWRM_IER0
00000000                PWRM_PWRM_IER1
00000000                PWRM_PWRM_SCALING
00000000                RTDX$
00000000                RTDX_MODE
00000000                RTDX_USERTDX
00000000                RTDX_USERTEXECUTION
00000000                SIO$
00000000                STS$
00000000                SWI_AudioDataCollection$ord
00000000                SWI_AudioDataCollection$sts$unittype
00000000                SWI_AudioDataCollection$swi
00000000                SWI_AudioDataProcess$ord
00000000                SWI_AudioDataProcess$sts$unittype
00000000                SWI_AudioDataProcess$swi
00000000                SWI_AudioMicDataCollection$ord
00000000                SWI_AudioMicDataCollection$sts$unittype
00000000                SWI_AudioMicDataCollection$swi
00000000                SWI_EHOOKFXN
00000000                SWI_IHOOKFXN
00000000                SWI_LcdDisplay$ord
00000000                SWI_LcdDisplay$sts$unittype
00000000                SWI_LcdDisplay$swi
00000000                SWI_Recognizer$ord
00000000                SWI_Recognizer$sts$unittype
00000000                SWI_Recognizer$swi
00000000                SWI_SysInit$ord
00000000                SWI_SysInit$sts$unittype
00000000                SWI_SysInit$swi
00000000                SWI_SysState$ord
00000000                SWI_SysState$sts$unittype
00000000                SWI_SysState$swi
00000000                SWI_UserInput$ord
00000000                SWI_UserInput$sts$unittype
00000000                SWI_UserInput$swi
00000000                SWI_readAudioData$ord
00000000                SWI_readAudioData$sts$unittype
00000000                SWI_readAudioData$swi
00000000                SWI_readSPIData$ord
00000000                SWI_readSPIData$sts$unittype
00000000                SWI_readSPIData$swi
00000000                SWI_sendSPIData$ord
00000000                SWI_sendSPIData$sts$unittype
00000000                SWI_sendSPIData$swi
00000000                SWI_updateBleFW$ord
00000000                SWI_updateBleFW$sts$unittype
00000000                SWI_updateBleFW$swi
00000000                SWI_updateDisplay$ord
00000000                SWI_updateDisplay$sts$unittype
00000000                SWI_updateDisplay$swi
00000000                TSK_NUM_HOOKS
00000000                TSK_READYFXN
00000000                TSK_STACKSEG
00000000                TSK_SWITCHFXN
00000000                TSK_idle$ord
00000000                TSK_idle$pri
00000000                TSK_idle$tsk
00000000                UDEV$
00000000                _CLK_TDDR
00000000                _CLK_TIMERNUM
00000000                _CLK_USETIMER
00000000                _CLK_timerNum
00000000                _HWI_RESET
00000000                _RTDX_Buffer_Read
00000000                _RTDX_Buffer_Write
00000000                _RTDX_Poll
00000001                $TI_capability_requires_rev3
00000001                BUF_ENABLED
00000001                CLK$
00000001                CLK_CALDIV
00000001                CLK_HTIMEDIV
00000001                CLK_LTIMEDIV
00000001                CLK_TIMER0ARG
00000001                GBL$
00000001                GBL_CLKMD
00000001                GBL_DCRPOSTEDWRITE
00000001                GBL_boot
00000001                HST_NONE
00000001                HWI$
00000001                HWI_NMI
00000001                IDL$
00000001                ISRC$
00000001                KNL_swi$dorta
00000001                KNL_swi$sts$filtmaxmult
00000001                KNL_swi$sts$filtsummult
00000001                LCK$
00000001                LOG$
00000001                LOG_A_TABLEN
00000001                LOG_ENABLED
00000001                MEM$
00000001                MEM_gNumHeap
00000001                PRD$
00000001                PWRM$
00000001                QUE$
00000001                SEM$
00000001                SWI$
00000001                SWI_AudioDataCollection$dorta
00000001                SWI_AudioDataCollection$sts$filtmaxmult
00000001                SWI_AudioDataCollection$sts$filtsummult
00000001                SWI_AudioDataProcess$dorta
00000001                SWI_AudioDataProcess$sts$filtmaxmult
00000001                SWI_AudioDataProcess$sts$filtsummult
00000001                SWI_AudioMicDataCollection$dorta
00000001                SWI_AudioMicDataCollection$sts$filtmaxmult
00000001                SWI_AudioMicDataCollection$sts$filtsummult
00000001                SWI_LcdDisplay$dorta
00000001                SWI_LcdDisplay$sts$filtmaxmult
00000001                SWI_LcdDisplay$sts$filtsummult
00000001                SWI_Recognizer$dorta
00000001                SWI_Recognizer$sts$filtmaxmult
00000001                SWI_Recognizer$sts$filtsummult
00000001                SWI_SysInit$dorta
00000001                SWI_SysInit$sts$filtmaxmult
00000001                SWI_SysInit$sts$filtsummult
00000001                SWI_SysState$dorta
00000001                SWI_SysState$sts$filtmaxmult
00000001                SWI_SysState$sts$filtsummult
00000001                SWI_UserInput$dorta
00000001                SWI_UserInput$sts$filtmaxmult
00000001                SWI_UserInput$sts$filtsummult
00000001                SWI_readAudioData$dorta
00000001                SWI_readAudioData$sts$filtmaxmult
00000001                SWI_readAudioData$sts$filtsummult
00000001                SWI_readSPIData$dorta
00000001                SWI_readSPIData$sts$filtmaxmult
00000001                SWI_readSPIData$sts$filtsummult
00000001                SWI_sendSPIData$dorta
00000001                SWI_sendSPIData$sts$filtmaxmult
00000001                SWI_sendSPIData$sts$filtsummult
00000001                SWI_updateBleFW$dorta
00000001                SWI_updateBleFW$sts$filtmaxmult
00000001                SWI_updateBleFW$sts$filtsummult
00000001                SWI_updateDisplay$dorta
00000001                SWI_updateDisplay$sts$filtmaxmult
00000001                SWI_updateDisplay$sts$filtsummult
00000001                SYS$
00000001                TSK$
00000001                TSK_PRIORITY
00000001                _HWI_NMI
00000001                _LOG_A_TABLEN
00000002                $TI_capability$C5500$CallingConvention
00000002                CLK_HTIMEMULT
00000002                GBL_CACHETYPE
00000002                GBL_LARGEMODEL
00000002                HWI_INT2
00000002                KNL_swi$sts$filter
00000002                SWI_AudioDataCollection$sts$filter
00000002                SWI_AudioDataProcess$sts$filter
00000002                SWI_AudioMicDataCollection$sts$filter
00000002                SWI_LcdDisplay$sts$filter
00000002                SWI_Recognizer$sts$filter
00000002                SWI_SysInit$sts$filter
00000002                SWI_SysState$sts$filter
00000002                SWI_UserInput$pri
00000002                SWI_UserInput$sts$filter
00000002                SWI_readAudioData$sts$filter
00000002                SWI_readSPIData$sts$filter
00000002                SWI_sendSPIData$sts$filter
00000002                SWI_updateBleFW$pri
00000002                SWI_updateBleFW$sts$filter
00000002                SWI_updateDisplay$pri
00000002                SWI_updateDisplay$sts$filter
00000002                _HWI_INT2
00000003                HWI_INT3
00000003                SWI_AudioDataCollection$pri
00000003                SWI_AudioMicDataCollection$pri
00000003                SWI_Recognizer$pri
00000003                SWI_readSPIData$pri
00000003                SWI_sendSPIData$pri
00000003                _HWI_INT3
00000004                CLK_CALMULT
00000004                CLK_INTID
00000004                HWI_INT4
00000004                HWI_TINT
00000004                SWI_LcdDisplay$pri
00000004                SWI_SysInit$pri
00000004                SWI_SysState$pri
00000004                SWI_readAudioData$pri
00000004                _HWI_INT4
00000004                _HWI_TINT
00000005                HWI_INT5
00000005                PWRM_PWRM_IDLEMASK
00000005                SWI_AudioDataProcess$pri
00000005                _HWI_INT5
00000006                BIOSDATA_O_CLK_HTIMEDIV
00000006                HWI_INT6
00000006                _HWI_INT6
00000007                HWI_INT7
00000007                _HWI_INT7
00000008                $TI_capability$C5500$MemoryModel
00000008                BIOSDATA_O_CLK_HTIMEMULT
00000008                HWI_INT8
00000008                _HWI_INT8
00000009                HWI_INT9
00000009                _HWI_INT9
0000000a                BIOSDATA_O_CLK_LTIMEDIV
0000000a                HWI_INT10
0000000a                _HWI_INT10
0000000b                HWI_INT11
0000000b                _HWI_INT11
0000000c                BIOSDATA_O_CLK_LTIMEMULT
0000000c                HWI_INT12
0000000c                _HWI_INT12
0000000d                HWI_INT13
0000000d                _HWI_INT13
0000000e                BIOSDATA_O_CLK_D_DIRTY
0000000e                HWI_INT14
0000000e                SWI_A_TABLEN
0000000e                _HWI_INT14
0000000f                GBL_PLLM
0000000f                HWI_INT15
0000000f                PWRM_PWRM_INITSP
0000000f                _HWI_INT15
00000010                BIOSDATA_O_CLK_D_PRD
00000010                CLK_IMR0TINTMASK
00000010                CLK_TIMERIMRMASK
00000010                HWI_INT16
00000010                _HWI_INT16
00000011                HWI_INT17
00000011                _HWI_INT17
00000012                BIOSDATA_O_CLK_D_TDDR
00000012                HWI_INT18
00000012                _HWI_INT18
00000013                HWI_INT19
00000013                _HWI_INT19
00000014                BIOSDATA_O_CLK_D_COUNTSPMS
00000014                HWI_INT20
00000014                _HWI_INT20
00000015                HWI_INT21
00000015                _HWI_INT21
00000016                BIOSDATA_O_CLK_D_IDLETIME
00000016                HWI_INT22
00000016                _HWI_INT22
00000017                HWI_INT23
00000017                _HWI_INT23
00000018                BIOSDATA_O_CLK_D_ISRHOOK
00000018                HWI_BERR
00000018                _HWI_BERR
00000019                HWI_DLOG
00000019                _HWI_DLOG
0000001a                BIOSDATA_O_CLK_D_TABBEG
0000001a                HWI_RTOS
0000001a                _HWI_RTOS
0000001b                HWI_SINT27
0000001b                _HWI_SINT27
0000001c                BIOSDATA_O_CLK_D_TIMEFXN
0000001c                HWI_SINT28
0000001c                _HWI_SINT28
0000001d                HWI_SINT29
0000001d                _HWI_SINT29
0000001e                BIOSDATA_O_CLK_R_TIMH
0000001e                HWI_SINT30
0000001e                _HWI_SINT30
0000001f                BIOSDATA_O_CLK_R_TIML
0000001f                HWI_SINT31
0000001f                _HWI_SINT31
00000020                BIOSDATA_O_HST_D_CHANMASK
00000020                CLK_TCR
00000020                _CLK_TCR
00000022                BIOSDATA_O_IDL_D_CALBEG
00000023                PWRM_PWRM_CAPSMASK
00000024                BIOSDATA_O_IDL_D_CALIBRATE
00000026                BIOSDATA_O_IDL_D_TABBEG
00000028                BIOSDATA_O_LOG_D_SYSTEM
0000002a                BIOSDATA_O_PIP_D_TABBEG
0000002c                BIOSDATA_O_PIP_D_TABLEN
0000002e                BIOSDATA_O_PRD_D_CUR
00000030                BIOSDATA_O_PRD_D_ELAPSED
00000031                BIOSDATA_O_PRD_D_PREVTIM
00000032                BIOSDATA_O_PRD_D_SCALAR
00000034                BIOSDATA_O_PRD_D_SWIHANDLE
00000036                BIOSDATA_O_PRD_D_TABBEG
00000037                GBL_DSPTYPE
00000038                BIOSDATA_O_PRD_D_TABLEN
0000003a                BIOSDATA_O_PRD_D_THOOK
0000003c                BIOSDATA_O_PRD_D_TICKH
0000003d                BIOSDATA_O_PRD_D_TICKL
0000003e                BIOSDATA_O_SWI_D_RUNADDR
0000003f                PWRM_PWRM_DS_IDLEMASK
00000040                BIOSDATA_O_SWI_D_EXECADDR
00000042                BIOSDATA_O_SWI_D_CURMASK
00000042                GBL_FOOTPRINT
00000043                BIOSDATA_O_SWI_D_CURSET
00000044                BIOSDATA_O_SWI_D_LOCK
00000045                BIOSDATA_O_SWI_D_CURMBOX
00000045                CLK_TIMERIMR
00000046                BIOSDATA_O_SWI_D_CURFXN
00000046                CLK_TIMERIFR
00000048                BIOSDATA_O_SWI_D_RDYBEG
0000004a                BIOSDATA_O_SWI_D_RDYTAB
00000060                CLK_A_TABBEG
00000060                HST_A_TABBEG
00000060                HST_A_TABEND
00000060                PIP_A_TABBEG
00000060                PIP_A_TABEND
00000060                PRD_A_TABBEG
00000060                PRD_A_TABEND
00000060                _HST_A_TABBEG
00000060                _HST_A_TABEND
00000060                _PIP_A_TABBEG
00000060                _PIP_A_TABEND
00000064                PIP_OBJSIZE
00000088                BIOSDATA_O_HWI_D_SPSAVE
0000008a                BIOSDATA_O_HWI_D_SSPSAVE
0000008c                BIOSDATA_O_HWI_D_STKBOTADDR
0000008e                BIOSDATA_O_HWI_D_SYSTKBOTADDR
00000090                BIOSDATA_O_HWI_D_STKTOPADDR
00000092                BIOSDATA_O_HWI_D_SYSTKTOPADDR
00000095                BIOSDATA_O_MEM_D_NUMSEGMENTS
00000096                BIOSDATA_O_MEM_D_MEMTAB
00000098                BIOSDATA_O_MEM_D_FREELIST
0000009a                BIOSDATA_O_MEM_D_LOCKADDR
0000009c                BIOSDATA_O_MEM_D_UNLOCKADDR
0000009e                BIOSDATA_O_SYS
000000a0                BIOSDATA_O_HST_D_TABBEGADDR
000000a2                BIOSDATA_O_HST_D_TABENDADDR
000000a4                BIOSDATA_O_TSK_D_IDLSTKADDR
000000a6                BIOSDATA_O_TSK_D_IDLSYSTKADDR
000000a8                BIOSDATA_O_RTDX_D_BUFREAD
000000aa                BIOSDATA_O_RTDX_D_BUFWRITE
            00000060    .bss
            00000060    .data
000000c0                CLK_A_TABBEGb
000000c0                HST_A_TABBEGb
000000c0                HST_A_TABENDb
000000c0                PIP_A_TABBEGb
000000c0                PIP_A_TABENDb
000000c0                PRD_A_TABBEGb
000000c0                PRD_A_TABENDb
            00000060    ___bss__
            00000060    ___data__
            00000060    ___edata__
            00000060    _hI2s
            00000060    edata
            00000062    _dmaObjTxL
            0000006b    _dmaObjTxR
            00000074    _dmaObjRx
            0000007d    _dmaObjRxR
000000ff                HST_MAXFRAMEALLOWED
00000100                TSK_SYSTACKSIZE
00000102                RTDX_BUFMEMSIZE
            00000086    _hDmaRx
            00000088    _hDmaRxR
            0000008a    _hDmaTxL
            0000008c    _hDmaTxR
            0000008e    _gPlayActive
            0000008f    _gAudioBuffering
            00000090    _gRxPingPongBuf
00000200                LOG_system$size
            000001d0    _gRxRPingPongBuf
000003e8                CLK_MICROSECS
00000400                HST_DSMMEMSIZE
00000400                TSK_STACKSIZE
            00000310    _gSilenceBuf
00000640                PWRM_PWRM_INITMILVOLTS
            00000350    _dmaTxLConfig
            0000035e    _dmaTxRConfig
            0000036c    _dmaRxLConfig
            0000037a    _dmaRxRConfig
            00000388    _gTxBuf
00000800                __SYSSTACK_SIZE
            000004c8    _gRxPingPongBufSel
            000004c9    _gRxCircBufInFrame
            000004ca    _gRxCircBufOutFrame
            000004cb    _gTxCircBufInFrame
            000004cc    _gRxCircBuf
00001581                GBL_CLKTYPE
00001581                GBL_DSPSUBTYPE
            00000b0c    _gRxRCircBuf
00001810                CLK_REGS
00001810                _CLK_REGS
00001810                _CLK_timer5505
00001c14                _CLK_timerIAFR
00002000                __STACK_SIZE
            0000114c    _gRxCircBufOvrCnt
            0000114e    _gRxCircBufUndCnt
            00001150    _gTxCircBuf
            000013d0    _gTxRCircBuf
            00001650    _gTxCircBufOutFrame
            00001652    _gTxCircBufOvrCnt
            00001654    _gTxCircBufUndCnt
            00001656    _gWaveDataRdOffset
            00001658    _dmaIsrCnt
            0000165a    _dmaIsrCntTx
            0000165c    _dmaIsrCntRx
            0000165e    _bufSel
            00001660    _rxBufSel
            00001662    _audioDataProcessCnt
            00001664    _gCountRead
            00001666    _count
            00001667    _gDoneWrite
            00001668    _ReadNBufs
            00001e68    _sector
            00001e78    _gWriteSector
            00001e7a    _gReadBuf
            00001f7a    _sectBuffered
            00001f7b    _gWordCount
            00001f7c    _gNextPhySector
            00001f7e    _cached_phySector0
            00001f80    _gWriteBuf
00004000                GBL_TRCMASKVALUE
00004000                PRD_SCALAR
00004000                TRC_GBLTARG
            00002380    _cached_phySector1
            00002382    _cached_phySector2
            00002384    _cached_phySector3
            00002386    _nbuf_cached
            00002387    _ATA_No_Swap
            00002388    _gstrAtaDrive
            000023cc    _gpstrAtaDrive
            000023ce    _strAtaFile
            000023f8    _pAtaFile
            000023fa    _gpstrAtaMMCState
            000023fc    _AtaWrBuf
            000024fc    _gstrAtaMMCState
            00002510    _gWaveHdrData
            0000252e    _gWaveDataRdBlkOffset
            00002530    _gWaveDataWrBlkOffset
            00002532    _gFreeDataBlocks
            00002533    _gWaveFileFound
            00002534    _bytesRead
            00002536    _pMmcsdContObj
            00002576    _mmcsdHandle
            00002578    _mmcCardObj
            00002596    _sdCardIdObj
            000025a6    _sdCardCsdObj
            000025c8    _dmaWrHandle
            000025ca    _dmaRdHandle
            000025cc    _dmaWrChanObj
            000025d5    _dmaRdChanObj
            000025de    _gBleFWFound
            000025df    _gFileName
            000025e9    _gInFileRead
            000025ea    _gBleFWAppSize
            000025ec    _gBleFWStackSize
            000025ee    _gWaveHdr
            00002604    _gain
            00002609    _counter
            0000260a    _EQstatus
            00002612    _eqlp
            0000261c    _eqrp
            00002626    _eqleft
            00002628    _eqright
            0000262a    _eqLeftParams
            00002634    _eqRightParams
            0000263e    _mp3MemTab
            00002662    _lp
            0000266c    _rp
            00002676    _srcLeft
            00002678    _srcRight
            0000267a    _srcLeftParams
            00002684    _srcRightParams
            0000268e    _srcOutL
            000026ce    _srcOutR
            0000270e    _srcInL
00004e20                GBL_CLKIN
            0000274e    _srcInR
            0000278e    __ftable
            00002806    __tmpnams
            000028a6    __ft_end
            000028a7    _errno
            000028a8    _dataBuf
00005205                GBL_A_VERSION
            000029a8    _highAddr
            000029aa    _bytesWritten
            000029ac    _cmdErrCnt
            000029ae    _dataErrCnt
            000029b0    _statusErrCnt
            000029b2    _totalCnt
            000029b4    _dataBuffering
            000029b6    _dataBufIndex
            000029b8    _dataBufAddr
            000029ba    _gHexRec
            000029c0    _FWAddr
            000029c2    _imgBuf
            00002b92    _tiesr
            00002bf8    _tiesrInstance
            00002bfa    _gEndRecog
            00002bfb    _gVoiceCmdMapping
            00002c3a    _KNL_wFlag
            00002c3b    _KNL_set
            00002c3c    _KNL_queues
            00002c8c    _KNL_wList
            00002c8e    _KNL_alarm
            00002c90    _KNL_setpri
            00002c92    _KNL_inactive
            00002c94    _KNL_priority
            00002c96    _KNL_dummy
            00002cae    _KNL_curtask
            00002cb0    _KNL_prevtask
            00002cb2    _KNL_curtime
            00002cb4    _KNL_swiptr
            00002cb6    _KNL_curqueue
            00002cb8    _KNL_maxqueue
            00002cba    _KNL_tswitchfxn
            00002cbc    _KNL_tcreatefxn
            00002cbe    _KNL_tdeletefxn
            00002cc0    _KNL_treadyfxn
            00002cc2    _KNL_idlefxn
            00002d48    _gSysState
            00002d49    _gSysGoalState
            00002d4a    _gSysPrevState
            00002d4b    _gAudioSrc
            00002d4c    _gsysBoot
            00002d4d    _gUpdateDisp
            00002d4e    _gSkipDispUpdate
            00002d4f    _gVoiceCmd
            00002d50    _gPushButon
            00002d51    _gSPINotify
            00002d52    _gpioHandle
            00002d54    _writeBuffer
            00002d58    _readBuffer
            00002d60    _sysStateInfo
            00002d68    _gSysInitDone
            00002d69    _gStateLookup
            00002db9    _spiIntCnt
            00002dba    _spiWritePending
            00002dbb    _displayScreen
            00002dbc    _gpio_isr_cnt
            00002dbd    _ledState
            00002dbe    _rtcIntCnt
            00002e32    _gADCDigGain
            00002e34    _hpCoefs120Hz_8kHz
            00002e3e    _hpCoefs120HzOrd1_8kHz
            00002e44    _hpCoefs120Hz_16kHz
            00002e4e    _hpCoefs120HzOrd1_16kHz
            00002e54    _aicADCBiQuadPageNumsLeft
            00002e59    _aicADCBiQuadPageNumsRight
            00002e5e    _aicADCBiQuadStartRegLeft
            00002e63    _aicADCBiQuadStartRegRight
            00002e68    _TSK_nTasks
            00002e69    _TSK_pid
            00002e6a    _TSK_ATTRS
            00002e7a    _TSK_config
            00002e8a    _TSK
            00002e8c    _TSK_timerSem
            00002ec4    _fsError
            00002ec5    _ouError
            00002ec6    __TSK_mutex
            00002eda    __MEM_mutex
            00002eee    _mmcsdCardExtCSD
            00002f12    _OBJ_table
            00002f2e    _OBJ_segtab
            00002f37    _filename
            00002f4b    _data
            00002f50    _bootloder_enable_register
            00002f6c    _SYS_exitStack
            00002f7c    _SYS_exitStackPtr
            00002f7e    _SYS_exitStackTop
            00002f80    _gI2cObj
            00002f90    _i2cHandle
            00002f9e    _gMcStates
            00002fa0    _gUcStates
            00002fa2    _gptIsrCnt
            00002fa4    _MEM_memtab
            00002faa    MEM_MALLOCSEG
            00002faa    MEM_SEGZERO
            00002faa    SARAM
            00002faa    _SARAM
            00002faa    _SEG0
            00002fab    RTA_fromHost$buf
            00002fb4    _pllObj
            00002fba    _pllCfg1
            00002fbe    _hPll
            00002fc0    _pConfigInfo
            00002fc2    _CLK_timer0func
            00002fc4    _CLK_timer1func
            00002fc6    _CLK_timer2func
            00002fc8    _CLK_timer0arg
            00002fca    _CLK_timer1arg
            00002fcc    _CLK_timer2arg
            00002fce    _opMode
            00002fcf    _hwConfig
            00002fec    _hSpi
            00002fee    _gtByte
            00002ff0    _gdword
            00002ff2    _CLK_DFLTMICROSECS
            00002ff4    _CLK_D_microseconds
            00002ff6    _hGpio
            00002ff8    _gGpioObj
            00002ffa    __lock
            00002ffc    __unlock
            00002ffe    __cleanup_ptr
            00003000    __dtors_ptr
            00003005    _PG4_flag
            00003006    _PG3_flag
            00003007    _PG1_flag
            00003008    _gtempword
            00003009    _gAtaWord
            0000300a    _start_FAT_cluster
            0000300c    _CLK_htimePerLtime
            0000300e    _MEM
            00003010    _SRC_TI_RateRatios
            00003010    ___end__
            00003010    end
            00003022    _SRC_TI_dRateRatios
            00003034    _SRC_TI_dSkipNums
            00003046    _SRC_TI_DCTableP0
            00003057    _SRC_TI_DCTableP1
            00003068    _SRC_TI_DCTableP2
            00003079    _SRC_TI_DCTableP3
            0000308a    _SRC_TI_DCTableP4
            0000309b    _SRC_TI_DCTableP5
            000030ac    _SRC_TI_DCTableP6
            000030bd    _SRC_TI_DCTableP7
            000030ce    _SRC_TI_DCTableP8
            000030df    _SRC_TI_DCTableP9
            000030f0    _SRC_TI_DCTableP10
            00003101    _SRC_TI_DCTableP11
            00003112    _SRC_TI_DCTableP12
            00003123    _SRC_TI_DCTableP13
            00003134    _SRC_TI_DCTableP14
            00003145    _SRC_TI_DCTableP15
            00003156    _SRC_TI_DCTableP16
            00003167    _SRC_TI_DCTableP17
            00003178    _SRC_TI_DCTableP18
            00003189    _SRC_TI_DCTableP19
            0000319a    _SRC_TI_DCTableP20
            000031ab    _SRC_TI_DCTableP21
            000031bc    _SRC_TI_DCTableP22
            000031cd    _SRC_TI_DCTableP23
            000031de    _SRC_TI_DCTableP24
            000031ef    _SRC_TI_DCTableP25
            00003200    _SRC_TI_DCTableP26
            00003211    _SRC_TI_DCTableP27
            00003222    _SRC_TI_DCTableP28
            00003233    _SRC_TI_DCTableP29
            00003244    _SRC_TI_DCTableP30
            00003255    _SRC_TI_DCTableP31
            00003266    _SRC_TI_DCTableP32
            00003277    _SRC_TI_DCTableP33
            00003288    _SRC_TI_DCTableP34
            00003299    _SRC_TI_DCTableP35
            000032aa    _SRC_TI_DCTableP36
            000032bb    _SRC_TI_DCTableP37
            000032cc    _SRC_TI_DCTableP38
            000032dd    _SRC_TI_DCTableP39
            000032ee    _SRC_TI_DCTableP40
            000032ff    _SRC_TI_DCTableP41
            00003310    _SRC_TI_DCTableP42
            00003321    _SRC_TI_DCTableP43
            00003332    _SRC_TI_DCTableP44
            00003343    _SRC_TI_lpfcoft8
            00003348    _SRC_TI_lpfcoft11
            0000334d    _SRC_TI_lpfcoft12
            00003352    _SRC_TI_lpfcoft16
            00003357    _SRC_TI_lpfcoft22
            0000335c    _SRC_TI_lpfcoft24
            00003361    _SRC_TI_lpfcoft32
            00003366    _SRC_TI_lpfcoft48
            0000336b    _SRC_TI_lpfcoft8at48
            00003370    _SRC_TI_lpfcoft11at16
            00003375    _SRC_TI_lpfcoft16at48
            0000337a    _SRC_TI_lpfcoft11at48
            0000337f    _SRC_TI_lpfcoft22at48
            00003384    _SRC_TI_lpfcoft32at48
            00003389    _SRC_TI_lpfcoft12at16
            0000338e    _SRC_TI_lpfcoft11at32
            00003393    _SRC_TI_lpfcoft12at32
            00003595    _START_DIMENSION
00006d6c                STS_A_TABBEG
00006d6c                _STS_A_TABBEG
00006ddc                STS_A_TABEND
00006ddc                _STS_A_TABEND
00006df2                LOG_A_TABBEG
00006df2                _LOG_A_TABBEG
00006dfc                LOG_A_TABEND
00006dfc                _LOG_A_TABEND
00007200                SWI_A_TABBEG
00007318                SWI_A_TABEND
000074d4                IDL_A_TABBEG
000074d8                IDL_A_CALBEG
            00003c0f    __ctypes_
            00003d10    _hw
            00003f8d    _w_imag
00008000                GBL_PLLDIV0
00008003                GBL_PLLDIV1
            0000400d    _w_real
            0000408e    EQ_TI_xS1Beta
            0000408e    _EQ_TI_DefCoeffs
            00004090    EQ_TI_xS1BGamma
            00004092    EQ_TI_xS2Beta
            00004094    EQ_TI_xS2BGamma
            00004096    EQ_TI_xS3Beta
            00004098    EQ_TI_xS3BGamma
            0000409a    EQ_TI_xS4Beta
            0000409c    EQ_TI_xS4BGamma
            0000409e    EQ_TI_xS5Beta
            000040a0    EQ_TI_xS5BGamma
            000040a2    EQ_TI_xS1BDelta
            000040a2    _EQ_TI_DefDeltaCoeffs
            000040a4    EQ_TI_xS1BGDelta
            000040a6    EQ_TI_xS2BDelta
            000040a8    EQ_TI_xS2BGDelta
            000040aa    EQ_TI_xS3BDelta
            000040ac    EQ_TI_xS3BGDelta
            000040ae    EQ_TI_xS4BDelta
            000040b0    EQ_TI_xS4BGDelta
            000040b2    EQ_TI_xS5BDelta
            000040b4    EQ_TI_xS5BGDelta
            000040b6    _EQ_TI_xLinearGains
            000040fe    _SRC_TI_Interpolators
            00004158    _SRC_TI_ConversionIndex
            00004266    _SRC_TI_IALG
            00004266    _SRC_TI_ISRC
            000042d8    _SRC_TI_LowPassFilters
            00004342    _EQ_TI_IALG
            00004342    _EQ_TI_IEQ
            00004392    _EQ_TI_48KHzCoeffs
            000043a6    _EQ_TI_48KHzDeltaCoeffs
            000043ba    _EQ_TI_8KHzCoeffs
            000043ce    _EQ_TI_8KHzDeltaCoeffs
            000043e2    _SRC_TI_rates
            000043f4    _K_mean
            00004404    _u_rj_perc_core
            00004405    _u_rj_perc_inte
            00004406    _GBG_num_ids
            00004407    _GBG_HNOISE
            00004408    _GBG_VAD_VERIFY_TH_HNOISE
            00004409    _GBG_VAD_VERIFY_TH_LNOISE
            0000440a    _GBG_NUM_SIL
            0000440b    _u_low_is_speech
            0000440c    _GBG_NUM_AFTER_PEAK_TO_TRIGGER_END_SPEECH
            0000440d    _GBG_END_SPEECH_START
            0000440e    _GBG_END_SPEECH_CNT_TH
            0000440f    _GBG_END_SPEECH_TH_PERC
            00004410    _GBG_post_threshold
            00004411    _GS_LOW_SCORE
            00004412    _CM_NBEST_LOW_CONF
            0000442a    _SNP_Code_sections
            0000442c    _SNP_Code_termination
            0000442e    _SNP_Code_start
            00004430    _SNP_Code_finish
            00004432    _SNP_Code_length
            00004434    _coef_logpoly
            0000444d    _gSarData2PbnState
            0000448b    _pllCfg_100MHz
            0000448f    _pllCfg_120MHz
            00004493    _pllCfg_40MHz
            00004497    _pllCfg_50MHz
            0000449b    _pllCfg_60MHz
            0000449f    _pllCfg_75MHz
            000044ac    _CM_LOGIST_PARA
            000044af    _CM_UV_ACC
            000044b2    _CM_UV_REJ
            000044bc    _gAllowedPbnStates
            000044c6    GBL_sysstackbeg
            000044c6    _HWI_SYSSTKTOP
            000044c6    __sysstack
            000048c5    GBL_sysstackend
            000048c6    GBL_stackbeg
            000048c6    _HWI_STKTOP
            000048c6    _HWI_SYSSTKBOTTOM
            000048c6    __stack
            000058c5    GBL_stackend
            000058c6    _HWI_STKBOTTOM
            000058c6    __STACK_END
            000058c6    _gMu
0000c34f                CLK_PRD
0000c34f                _CLK_PRD
0000c350                CLK_COUNTSPMS
0000c350                CLK_HTIMEPERLTIME
0000c350                _CLK_COUNTSPMS
            0000664c    TSK_idle$stack
            00006a2e    TSK_idle$stkptr
            00006a4c    TSK_idle$sysstack
            00006b2e    TSK_idle$sysstkptr
            00006b4c    _eq_heap_section_1
            00006b56    _eq_heap_section_2
            00006bba    _eq_heap_section_3
            00006bc0    _eq_heap_section_4
            00006bca    _eq_heap_section_5
            00006c2e    _eq_heap_section_6
            00006c34    _src_heap_section_1
            00006cd0    _src_heap_section_2
            00006d6c    KNL_swi$sts$stsobj
0000dad8                STS_A_TABBEGb
            00006d6e    KNL_swi$sts
            00006d74    SWI_AudioDataCollection$sts$stsobj
            00006d76    SWI_AudioDataCollection$sts
            00006d7c    SWI_AudioDataProcess$sts$stsobj
            00006d7e    SWI_AudioDataProcess$sts
            00006d84    SWI_AudioMicDataCollection$sts$stsobj
            00006d86    SWI_AudioMicDataCollection$sts
            00006d8c    SWI_LcdDisplay$sts$stsobj
            00006d8e    SWI_LcdDisplay$sts
            00006d94    SWI_Recognizer$sts$stsobj
            00006d96    SWI_Recognizer$sts
            00006d9c    SWI_SysInit$sts$stsobj
            00006d9e    SWI_SysInit$sts
            00006da4    SWI_SysState$sts$stsobj
            00006da6    SWI_SysState$sts
            00006dac    SWI_UserInput$sts$stsobj
            00006dae    SWI_UserInput$sts
            00006db4    SWI_readAudioData$sts$stsobj
            00006db6    SWI_readAudioData$sts
            00006dbc    SWI_readSPIData$sts$stsobj
            00006dbe    SWI_readSPIData$sts
            00006dc4    SWI_sendSPIData$sts$stsobj
            00006dc6    SWI_sendSPIData$sts
            00006dcc    SWI_updateBleFW$sts$stsobj
            00006dce    SWI_updateBleFW$sts
            00006dd4    SWI_updateDisplay$sts$stsobj
            00006dd6    SWI_updateDisplay$sts
0000dbb8                STS_A_TABENDb
            00006de2    SEM_mmcDone
            00006de2    _SEM_mmcDone
0000dbe4                LOG_A_TABBEGb
            00006df2    LOG_system
            00006df2    _LOG_system
0000dbf8                LOG_A_TABENDb
            00006e00    LOG_system$buf
            00007000    _SYS_PUTCBEG
            000071ff    _SYS_PUTCEND
            00007200    KNL_swi
0000e400                SWI_A_TABBEGb
            00007200    _KNL_swi
            00007214    SWI_AudioDataCollection
            00007214    _SWI_AudioDataCollection
            00007228    SWI_AudioDataProcess
            00007228    _SWI_AudioDataProcess
            0000723c    SWI_AudioMicDataCollection
            0000723c    _SWI_AudioMicDataCollection
            00007250    SWI_LcdDisplay
            00007250    _SWI_LcdDisplay
            00007264    SWI_Recognizer
            00007264    _SWI_Recognizer
            00007278    SWI_SysInit
            00007278    _SWI_SysInit
            0000728c    SWI_SysState
            0000728c    _SWI_SysState
            000072a0    SWI_UserInput
            000072a0    _SWI_UserInput
            000072b4    SWI_readAudioData
            000072b4    _SWI_readAudioData
            000072c8    SWI_readSPIData
            000072c8    _SWI_readSPIData
            000072dc    SWI_sendSPIData
            000072dc    _SWI_sendSPIData
            000072f0    SWI_updateBleFW
            000072f0    _SWI_updateBleFW
            00007304    SWI_updateDisplay
            00007304    _SWI_updateDisplay
0000e630                SWI_A_TABENDb
            00007318    _HWI_dispatchTab
            000073d8    C55_BIOSDATAOBJ
            000073d8    _GBL_procId
            000073da    _GBL_clkIn
            000073dc    _GBL_freq
            000073de    _CLK_htimeDiv
            000073e0    _CLK_htimeMult
            000073e2    _CLK_ltimeDiv
            000073e4    _CLK_ltimeMult
            000073e6    _CLK_D_dirty
            000073e8    _CLK_D_prd
            000073ea    _CLK_D_tddr
            000073ec    _CLK_D_countspms
            000073ee    CLK_D_idletime
            000073f0    CLK_D_isrhook
            000073f0    _CLK_isrhook
            000073f2    CLK_D_tabbeg
            000073f4    CLK_D_timefxn
            000073f6    CLK_R_timh
            000073f6    _CLK_time
            000073f7    CLK_R_timl
            000073f8    HST_D_chanmask
            000073fa    IDL_D_calbeg
            000073fc    IDL_D_calibrate
            000073fe    IDL_D_tabbeg
            00007400    LOG_D_system
            00007400    _LOG_D_system
            00007402    PIP_D_tabbeg
            00007404    PIP_D_tablen
            00007406    PRD_D_cur
            00007408    PRD_D_elapsed
            00007409    PRD_D_prevtim
            0000740a    PRD_D_scalar
            0000740c    PRD_D_swihandle
            0000740e    PRD_D_tabbeg
            00007410    PRD_D_tablen
            00007412    PRD_D_thook
            00007414    PRD_D_tickh
            00007415    PRD_D_tickl
            00007415    _PRD_D_tick
            00007416    SWI_D_runaddr
            00007416    _SWI_data
            00007418    SWI_D_execaddr
            0000741a    SWI_D_curmask
            0000741a    _SWI_D_curmask
            0000741b    SWI_D_curset
            0000741c    SWI_D_lock
            0000741c    _SWI_D_lock
            0000741d    SWI_D_curmbox
            0000741e    SWI_D_curfxn
            0000741e    _SWI_D_curfxn
            00007420    SWI_D_rdybeg
            00007420    _SWI_D_rdybeg
            00007422    SWI_D_rdytab
            0000745e    SWI_D_inswi
            0000745e    _SWI_D_inswi
            00007460    HWI_D_spsave
            00007460    _HWI_D_spsave
            00007460    _HWI_data
            00007462    HWI_D_sspsave
            00007462    _HWI_D_sspsave
            00007464    HWI_D_stkbotaddr
            00007466    HWI_D_systkbotaddr
            00007468    HWI_D_stktopaddr
            0000746a    HWI_D_systktopaddr
            0000746c    HWI_D_inhwi
            0000746c    _HWI_D_inhwi
            0000746d    _MEM_D_NUMSEGMENTS
            0000746e    _MEM_D_memtab
            00007470    _MEM_D_freelist
            00007472    _MEM_D_lockaddr
            00007474    _MEM_D_unlockaddr
            00007476    _SYS
            00007478    HST_D_tabbegaddr
            0000747a    HST_D_tabendaddr
            0000747c    TSK_D_idlstkaddr
            0000747e    TSK_D_idlsystkaddr
            00007480    RTDX_D_BufRead
            00007482    RTDX_D_BufWrite
            00007484    __HOOK_knlId
            00007486    __HOOK_NUMHOOKS
            0000748e    TSK_idle
            0000748e    _TSK_idle
            000074a6    TSK_idle$tskobj
            000074b6    gblinit
            000074cc    SYS$config
0000e9a8                IDL_A_TABBEGb
            000074d4    IDL_userIdle
            000074d4    _IDL_userIdle
            000074d6    IDL_END
0000e9b0                IDL_A_CALBEGb
            000074d8    IDL_userIdle$
            000074da    IDL_END$
            000074dc    TRC_cinit
            000074dd    TRC_R_mask
            000074dd    _TRC_R_mask
            000074de    GBL_initdone
0000ff00                HWI_A_VECS
0000ff00                hwi0
0000ff08                hwi1
0000ff10                hwi2
0000ff18                hwi3
0000ff20                hwi4
0000ff28                hwi5
0000ff30                hwi6
0000ff38                hwi7
0000ff40                hwi8
0000ff48                hwi9
0000ff50                hwi10
0000ff58                hwi11
0000ff60                hwi12
0000ff68                hwi13
0000ff70                hwi14
0000ff78                hwi15
0000ff80                hwi16
0000ff88                hwi17
0000ff90                hwi18
0000ff98                hwi19
0000ffa0                hwi20
0000ffa8                hwi21
0000ffb0                hwi22
0000ffb8                hwi23
0000ffc0                hwi24
0000ffc8                hwi25
0000ffd0                hwi26
0000ffd8                hwi27
0000ffe0                hwi28
0000ffe8                hwi29
0000fff0                hwi30
0000fff8                hwi31
00010000                .text
00010000                ___text__
00010000                _sendCmd
00010101                _MMC_sendCmd
000101a4                _SD_setBusWidth
00010264                _SD_sendRca
00010313                _SD_sendAllCID
00010462                _SD_getCardCsd
0001087c                _SD_configurePullup
0001090f                _MMC_ierDisable
00010940                _MMC_intEnable
00010961                _MMC_ierEnable
00010992                _MMC_write
000111b8                _MMC_stop
000111ee                _MMC_setupNative
00011275                _MMC_setWriteBlkEraseCnt
00011304                _MMC_setRca
00011362                _MMC_setEndianMode
000113c7                _MMC_setEMMCBusWidth
0001141d                _MMC_setDmaHandle
00011461                _MMC_setDmaChanConfig
0001151c                _MMC_setDataTransferCallback
00011555                _MMC_setCardType
00011582                _MMC_setCardPtr
0001159f                _MMC_setCallBack
000115cb                _MMC_setBootBusWidth
0001160c                _MMC_setBlockLength
00011653                _MMC_sendSwitchCmd
0001167b                _MMC_sendOpCond
000116d9                _MMC_sendGoIdle
00011723                _MMC_sendAllCID
0001185d                _MMC_selectCard
00011b9a                _MMC_saveStatus
00011bd1                _MMC_checkReadDmaDone
00011c50                _MMC_read
0001237b                _MMC_open
000124f1                _MMC_initCtrl
00012557                _MMC_init
0001257a                _MMC_getStatus
000125ab                _MMC_getNumberOfCards
000125d6                _MMC_getConfig
0001265b                _MMC_getCardStatus
00012701                _MMC_getCardExtCsd
00012937                _MMC_getCardCsd
00012c45                _MMC_getBootPartitionSize
00012c67                _MMC_eventEnable
00012e1a                _MMC_eventDisable
00012fcd                _MMC_enableBootPartitionAccess
00013026                _MMC_enableBootMode
00013046                _MMC_dxrdy
00013073                _MMC_drrdy
000130a2                _MMC_disableBootPartitionAccess
000130e2                _MMC_deselectCard
00013136                _MMC_configFifo
0001319d                _MMC_config
00013222                _MMC_close
00013263                _MMC_clearResponse
00013303                _MMC_bootPartitionEnable
00013366                _MMC_bootPartitionDisable
000133a6                _MMC_bootModeRead
00014000                SARAM$L
00014000                _SARAM_length
000147a9                __printfi
000149c7                _DMA_swapWords
000149f3                _DMA_stop
00014ad6                _DMA_start
00014bb9                _DMA_reset
00014e5d                _DMA_open
00014ee9                _DMA_init
00014f14                _DMA_getLastTransferType
00014f8a                _DMA_getConfig
00015414                _DMA_config
00015e3f                _DMA_close
00015e53                _MMC_writeSectorFlush
00015e57                _MMC_writeSector
00015f22                _MMC_writeNSectors
00016007                _MMC_reset
0001600b                _MMC_read_CSD
00016055                _MMC_read_CID
0001609f                _MMC_readWriteControl
0001633b                _MMC_readNSectors
00016403                _MMC_issueReadCommand
00016686                _MMC_readNextWord1
000166ed                _MMC_readNextWord
00016745                _MMC_readNextNWords
0001679a                _MMC_initState
00016895                _MMC_get_time
00016899                _MMC_get_mod_time
0001689d                _MMC_get_mod_date
000168a1                _MMC_get_date
000168a5                _MMC_getSerialID
000168a9                _MMC_flushFat
000168ad                _MMC_file_system_format
000168b1                _MMC_dataReadyStatusCheck
000168b5                _MMC_commandReadyStatusCheck
000168b9                _MMC_busyStatusCheck
000168bd                _I2C_write
00016a16                _I2C_setup
00016b92                _I2C_setCallback
00016bec                _I2C_read
00016e94                _I2C_init
00016ef2                _I2C_getEventId
00016f06                _I2C_getConfig
00016fb5                _I2C_eventEnable
00017072                _I2C_eventDisable
0001712f                _I2C_config
00017224                _JAC_update
0001786f                SARAM$B
0001786f                _SARAM_base
00017a71                _SAR_stopConversion
00017a9d                _SAR_startConversion
00017ac3                _SAR_readData
00017afa                _SAR_init
00017b57                _SAR_getStatus
00017b87                _SAR_getConfig
00017be7                _SAR_deInit
00017bf7                _SAR_chanSetup
00017d4f                _SAR_chanOpen
00017d98                _SAR_chanInit
00017da7                _SAR_chanCycSet
00017de8                _SAR_chanConfig
00017e4f                _SAR_chanClose
00017e9c                _SAR_GPODirSet
00017f5d                _SAR_A2DMeasParamSet
0001828a                _I2S_write
00018386                _I2S_transEnable
000183bd                _I2S_setup
0001862b                _I2S_reset
000186a0                CLK_LTIMEMULT
000186a0                GBL_FREQ
000186c8                _I2S_read
000188d0                _I2S_open
0001898d                _I2S_close
000189fd                _codecConfigPlayback
000190e5                _RTC_stop
000190ed                _RTC_start
00019101                _RTC_decToBcd
0001916f                _RTC_setTime
000191db                _RTC_setPeriodicInterval
00019257                _RTC_setDate
000192b7                _RTC_setCompensation
000192e4                _RTC_setCallback
0001935a                _RTC_setAlarm
00019416                _RTC_reset
0001941e                _RTC_bcdToDec
00019474                _RTC_getTime
000194b9                _RTC_getEventId
0001950d                _RTC_getDate
00019547                _RTC_getConfig
000195c6                _RTC_eventEnable
00019662                _RTC_eventDisable
000196fe                _RTC_config
00019d72                _EM_beta
0001a2e0                _back_trace_beam
0001ad86                _getenv
0001ae06                _HOSTwrite
0001ae91                _HOSTunlink
0001aefd                _HOSTtime
0001af5b                _HOSTrename
0001b014                _HOSTread
0001b09f                _HOSTopen
0001b140                _HOSTlseek
0001b1f5                _HOSTclose
0001b260                _HOSTclock
0001b2be                _write
0001b3eb                _unlink
0001b41f                _rename
0001b476                _remove_device
0001b4aa                _read
0001b554                _open
0001b611                _lseek
0001b675                _find_registered_device
0001b67e                _close
0001b6ee                _add_device
0001b7d6                _GPIO_write
0001b857                _GPIO_statusBit
0001b8bc                _GPIO_reset
0001b93d                _GPIO_read
0001b9ac                _GPIO_open
0001b9d5                _GPIO_getConfig
0001ba47                _GPIO_enableInt
0001baaa                _GPIO_disableInt
0001bb0a                _GPIO_configBit
0001bbd1                _GPIO_config
0001bc43                _GPIO_close
0001bc5f                _GPIO_clearInt
0001c1b0                __AtaCreate
0001c682                _parse_hex_file
0001cb42                _SPI_write
0001cbfb                _SPI_read
0001cca8                _SPI_open
0001ccd5                _SPI_init
0001ccf3                _SPI_deInit
0001cd0f                _SPI_dataTransaction
0001cd5c                _SPI_config
0001cf94                _SPI_close
0001cfb3                _search_a_frame
0001d419                __AtaRead_b
0001d6ef                _ATA_seek_b
0001d827                __divd
0001dfa1                _IRQ_globalDisable
0001dfaf                _IRQ_globalRestore
0001dfbb                _IRQ_test
0001e01a                _IRQ_setVecs
0001e038                _IRQ_setArg
0001e05f                _IRQ_restore
0001e0bb                _IRQ_map
0001e0e5                _IRQ_init
0001e132                _IRQ_globalEnable
0001e140                _IRQ_getConfig
0001e18e                _IRQ_getArg
0001e1cb                _IRQ_enable
0001e237                _IRQ_disableAll
0001e245                _IRQ_disable
0001e2ad                _IRQ_config
0001e2f9                _IRQ_clearAll
0001e309                _IRQ_clear
0001e348                _codecConfigLoopback
0001e6d2                _init_media
0001ea16                _TIesrEngineOpen
0001ed47                __AtaWriteFatEntryAtPhySector
0001f067                _I2sDmaInit
0001f650                _EQ_TI_apply
0001f697                EQ_TI_FilterBank
0001f73b                EQ_TI_FilterStage1
0001f7ca                EQ_TI_StageUpdate
0001f898                EQ_TI_FilterStage
0001fea1                _load_models
0002013b                _swi_RecognizerFxn
000203cb                _swi_UpdateDisplayFxn
00020768                __cleanup
000207c0                _freopen
00020886                _fopen
000208bf                _getSysClk
0002093a                _PLL_reset
00020992                _PLL_init
000209b1                _PLL_enable
000209eb                _PLL_config
00020aed                _PLL_bypass
00020b24                __remull
00020b72                __remlli
00020ba1                __mpylli
00020c58                __divull
00020d4c                __divlli
00020d80                __addd
00020fd7                _per_frame_jac_compensate
0002121d                _compute_uttdet
000216c0                _SRC_TI_interp
000218fe                _ATA_systemInit
00021b13                _ATA_getSerialID
00021b28                _ATA_enableMFW
00021d57                _fwrite
00021f7d                _gauss_obs_score_f
000221a2                _hlr_gauss_obs_score_f
00022a14                _GPT_stop
00022a31                _GPT_start
00022a4e                _GPT_reset
00022ab0                _GPT_open
00022b38                _GPT_getCnt
00022b62                _GPT_config
00022bda                _GPT_close
00022c20                _noise_subs
00022e16                _SYS_set_DSP_LDO_voltage
00022e2a                _SYS_setEBSR
00022f9b                _SYS_peripheralReset
00023004                __neqd
00023038                __lssd
00023080                __leqd
000230cd                __gtrd
00023118                __geqd
00023162                __eqld
00023196                __cmpd
000231ee                _oled_init
0002376b                _mel_scale_fft_spectrum
00023aed                _compute_regression
00023ca4                _codecInputSelect
0002400c                _swi_SysInitFxn
000241b7                _cm_open
0002435c                _fft
000244fa                __AtaWriteFatEntry
00024826                __AtaReadFatEntryAtPhySector
000249ad                _fft_spectrum_to_mfcc
00024cb2                _fputs
00024e01                _puts
00024e2d                _extractWaveInfo
00025118                _log_spectral_compensation
0002528c                _pmc
00025400                _swi_updateBleFWFxn
00025568                _updateDisplay
000256cf                _DMA_Isr
00025af4                _pll_sample
00025da4                _userInterfaceInit
00025ef6                _SRC_TI_setOutputRate
00026045                _SRC_TI_algInit
00026194                _SRC_TI_setInputRate
000262e1                _main
0002642e                __mpyd
00026579                _fread
000266c1                _EQ_create
00026806                _dim_p2_init
0002694b                _hlr_expn
00026a8b                _cos_transform
00026bc8                _cm_acc_seg_ratio_to_antimodel
00026cff                _free_models
00026e36                __AtaGetDirEntry
000271c3                _SPI_sendCommand
000272ec                _ATA_seek
00027415                _print_char
00027884                __AtaCalculatePhySectorAndOffsetFromDirEntry
00027a92                _startDma
00027b90                _load_word_list
00027c8c                _aic_SetADCBiQuad
00027d84                _SRC_create
00027e7b                _CloseSearchEngine
00027f6f                _div32_32
00028063                _setvbuf
00028156                _ascii2HexBytes
00028248                _eq_config
00028339                _get_record_details
0002842a                _processCommand
00028518                _set_search_space
000286eb                _open_first_file
000287d4                _GPIO_Isr
000288bc                __AtaFindNextAvailableCluster
00028a8b                __AtaReadWord
00028c51                _swi_AudioDataCollectionFxn
00028d33                _swi_UserInputFxn
00028fd2                _vector_packing
000290b0                _JAC_save
0002918c                _EM_alpha_t
00029340                __wrt_ok
000293bd                __rd_ok
0002941a                __AtaFindNext
000294f3                _log_polyfit
000295c7                _pow_polyfit
0002969b                _SRC_TI_apply
0002976e                _ss_update_meanEn
00029913                _selectAudioSource
000299e0                _GpioInit
00029aab                _mfcc_a_window
00029c3f                _get_high_addr
00029d07                _observation_likelihood
00029dce                _cm_save
00029e92                _print_string
00029f51                _swi_ReadAudioDataFxn
0002a010                _writemsg
0002a0c9                C$$IO$$
0002a0ce                _swi_AudioMicDataCollectionFxn
0002a306                _hlr_expn_q
0002a53c                _swi_ReadSPIDataFxn
0002a76d                _find_ble_stack_firmware
0002a827                __doflush
0002a889                _fflush
0002a8e1                _GetAnswerWord
0002a992                _appGetSysClk
0002aa42                __AtaRead
0002ab9f                _EQ_TI_algInit
0002ac4a                __AtaFindNextBrokenCluster
0002ad9f                _inverse_cos_transform
0002ae49                _my_fwrite
0002aef3                __buff_read
0002af99                _fputc
0002af99                _putc
0002b02c                _putchar
0002b03b                __divul
0002b0db                _processPushButton
0002b217                _read_file
0002b347                _ATA_cdRoot
0002b3a6                _ATA_cd
0002b3df                _cm_load
0002b50a                _load_mu
0002b634                _SBL_eraseFlash
0002b75c                _ATA_sleep
0002b770                _ATA_readLittleEndian
0002b7b0                _ATA_read
0002b7f0                _ss_est_frmEn
0002b883                _cm_backup_adp
0002b915                _cm_restore_adp
0002ba37                _src_config
0002bac4                _init_spi
0002bbdc                _vector_unpacking
0002bc68                _cm_init
0002bcf3                _JAC_clear
0002bd7d                _SBL_TL_sendCmd16
0002be07                _SBL_TL_sendCmd
0002be91                _aic_writeCoef
0002bf9b                _hlr_logsum
0002c01e                _q15_x
0002c124                _OpenASR
0002c1a6                _jac_one_mean
0002c227                _download_data
0002c2a7                _clear_lcd_page
0002c39e                _aic_writeCoef_2
0002c419                _ClockGatingAll
0002c493                _bleFWUpgrade
0002c50c                _init_rtc
0002c585                _ltoa
0002c5fe                __AtaFlush
0002c675                __AtaCalculatePhySectorAndOffsetOfFatEntry
0002c6bb                __AtaCalculatePhySectorAndOffsetFromCluster
0002c762                _fclose
0002c7d8                __fixdul
0002c84e                __frcmpyd
0002c8c4                _hlr_log_one
0002c939                _ftell
0002c9ae                _stopPlay
0002ca21                __frcmpyd_div
0002ca94                _swapBytes
0002cb05                __remul
0002cbe4                _readBleFirmware
0002cc53                _signal_to_power_spectrum
0002cd30                __fixdli
0002cd9e                _SBL_TL_getRsp
0002ce75                _JAC_set_default_params
0002cee0                _readmsg
0002cfb5                _GetTIesrJAC
0002d01e                _SRC_TI_getStatus
0002d087                _fseek
0002d0ef                __fltlid
0002d156                _getCurrentPBNState
0002d1ba                _OpenSearchEngine
0002d21b                _chkAllowedPBNState
0002d279                _nbr_coding
0002d390                _EQ_TI_setStatus
0002d3eb                _checkWaveHeader
0002d446                _fx_sqrt
0002d4a1                __AtaReadSector
0002d4fc                __fltuld
0002d557                CLK_TIMER1FUNC
0002d557                _gpt1Isr
0002d5b1                __AtaReadDoubleWord
0002d5f9                __AtaReadByte
0002d60b                _atoi
0002d664                _updateMcStates
0002d6ba                _memcpy
0002d710                _init_uttdet
0002d765                _SetTIesrJAC
0002d7b9                _cm_update_status
0002d80d                _SRC_TI_setStatus
0002d860                _GetTIesrSAD
0002d8b1                _I2cInit
0002d900                _printf
0002d99b                _startPlay
0002d9e8                __remli
0002da33                _aic_SetBiQuadSection
0002da7d                _aic_SetOrd1IIRSection
0002dac7                _load_model_file
0002db11                _swi_SendSPIDataFxn
0002db5b                _ATA_isDir
0002db65                _ATA_findNext
0002db88                _ATA_findFirst
0002dba5                _DeviceInit
0002dbed                __divli
0002dc35                _OSD9616_send
0002dc7c                _SBL_CMD_getStatus
0002dcc3                _byteshift
0002dd0a                _set_default_uttdet
0002dd4f                _GetAnswerIndex
0002dd93                _SRC_TI_getIndex
0002de1a                _GetAnswerCount
0002de9e                _spi_send_ping
0002df21                _SBL_CMD_uint32to16
0002dfe3                _SetTIesrSAD
0002e023                _resetRxCircBuf
0002e063                _set_volume_flag
0002e0a2                _exit
0002e0e0                _GetSearchMemorySize
0002e11d                _pausePlay
0002e15a                _update_level
0002e197                _userInterfaceStart
0002e1d4                _reset_ble
0002e210                _ATA_fileInit
0002e24c                _RTC_isr
0002e2c1                _SBL_CMD_download
0002e2fa                _free_scales
0002e36c                _DmaInit
0002e3a4                _stopDma
0002e3dc                _EQ_TI_setGains
0002e413                _EQ_TI_algAlloc
0002e44a                __AtaReadFatEntry
0002e481                _updateUcStates
0002e4b7                _C55x_delay_msec
0002e4ec                _SRC_delete
0002e520                _fileAccessErrDisp
0002e554                _fileFormatErrDisp
0002e588                _resetCircBuf
0002e5bc                _sdAccessErrDisp
0002e5f0                _EQ_TI_getStatus
0002e623                _DspLdoSwitch
0002e655                _UsbLdoSwitch
0002e6b7                _GetTIesrCM
0002e6e6                _cm_antiscr
0002e714                _SRC_TI_setOutput
0002e741                _CallSearchEngine
0002e76b                _GetTIesrVolRange
0002e7bf                _circ_idx
0002e7e9                _SRC_TI_algAlloc
0002e813                __fixdi
0002e83d                I$$UDIV
0002e83d                __divu
0002e852                I$$UMOD
0002e852                __remu
0002e867                _JAC_load
0002e890                _SRC_TI_setInput
0002e8b8                _cm_set_param
0002e8df                _swi_AudioDataProcessFxn
0002e906                _resumePlay
0002e92b                _SBL_CMD_sendData
0002e94f                _clear_lcd
0002e973                _load_model_config
0002e996                _src_set_samplerate
0002e9b9                _strncmp
0002e9dc                _EQ_TI_getGains
0002e9fe                _EQ_apply
0002ea20                _GetConfidenceScore
0002ea42                _SetTIesrVolRange
0002ea64                _fileReadStatusDisp
0002ea86                _memccpy
0002eaa8                _EQ_TI_setGain
0002eac9                _SBL_CMD_sectorErase
0002eb09                _SpeechEnded
0002eb29                _initUcStates
0002eb48                _memset
0002eb67                _resetRxPingPongBuf
0002eb84                _SRC_TI_algFree
0002eba1                _EQ_setGains
0002ebbd                _EQ_setStatus
0002ebf5                _GetTIesrJacRate
0002ec10                _GetTIesrPrune
0002ec2b                _GetTIesrTransiWeight
0002ec46                __fixdu
0002ec61                _CloseASR
0002ec7b                _src_delete
0002ec95                ___isinf
0002ecc8                _swi_sysStateFxn
0002ece1                _GetRealTGuard
0002ecf9                _GetRealTimeGuardTh
0002ed11                _GetTIesrNBest
0002ed29                _GetTIesrSBC
0002ed41                _ble_backdoor_ctrl
0002ed59                _SetTIesrJacRate
0002ed70                _mmcsdTransferDoneCallBack
0002ed87                _EQ_TI_getGain
0002ed9d                _SBL_CMD_ping
0002edb3                _SetTIesrCM
0002edc9                _SetTIesrPrune
0002eddf                _SetTIesrTransiWeight
0002edf5                _seek_file
0002ee0b                _EQ_TI_algFree
0002ee21                _GetTIesrORM
0002ee36                _cm_freeze
0002ee4b                _strlen
0002ee60                _SetRealTGuard
0002ee74                _SetRealTimeGuardTh
0002ee88                _SetTIesrNBest
0002ee9c                _SetTIesrORM
0002eeb0                _SetTIesrSBC
0002eec4                _strcpy
0002eed8                __subd
0002eeec                _GetMaxFrames
0002eeff                _SRC_TI_isInputBufferEmpty
0002ef12                _SRC_TI_isOutputBufferFull
0002ef25                _my_fopen
0002ef38                I$$LMPY
0002ef38                __mpyli
0002ef4b                _SRC_TI_getInputRate
0002ef5d                _SRC_TI_getOutputRate
0002ef6f                _load_n_mfcc
0002ef81                __register_unlock
0002ef89                __register_lock
0002ef91                __nop
0002ef93                _GetTotalScore
0002efb5                _GetFrameCount
0002efc5                _GetNumNbests
0002efd5                _GetVolumeStatus
0002efe5                _MMCSD_Isr
0002eff5                _SADState
0002f005                _init_spect_sub
0002f015                __negd
0002f025                _strcmp
0002f035                _GetTIesrGaussSel
0002f044                _GetTIesrSS
0002f053                _my_fclose
0002f062                _GetCycleCount
0002f070                _SpeechDetected
0002f08c                _SetTIesrGaussSel
0002f099                _SetTIesrSS
0002f0a6                _remove
0002f0b0                _cm_close
0002f0b9                _clearerr
0002f0c1                _abort
0002f0c2                C$$EXIT
0002f0c8                _userIdle
0002f0ce                _EQ_TI_algNumAlloc
0002f0d2                _SRC_TI_algNumAlloc
0002f0d6                _processVoiceCmd
0002f0d8                _swi_LcdDisplayFxn
0002f0da                _EQ_init
0002f0de                SARAM$Bb
0002f0de                _SARAM_baseb
0002f0de                ___etext__
0002f0de                etext
            0002186f    _gWaveFileData
            0002386f    _gVar
00048a58                SWI_F_enable
00048a58                _SWI_enable
00048a85                SWI_F_post
00048a85                _SWI_post
00048b04                SWI_F_exec_sync
00048b87                SWI_EXECFXN
00048b87                SWI_F_exec
00048c68                SWI_F_run
00048c68                SWI_RUNFXN
00048d68                logPost
00048dba                stsPost
00048e04                HWI_F_dispatch
00048e04                _HWI_F_dispatch
00049068                _malloc
000490a4                _memalign
00049130                _calloc
00049178                _free
0004919c                _realloc
00049200                _MEM_alloc
0004920c                _MEM_allocPage
00049378                _KNL_run
000494cc                _MEM_free
00049610                _SEM_pendEnterKnl
00049751                _KNL_switch
0004979f                KNL_glue
000497de                KNL_tick_stub
000497de                PRD_THOOKFXN
000497fe                _KNL_saveIsrFrame
00049940                _KNL_tick
00049950                _TSK_exit
00049a7c                _TSK_startup
00049ae0                __SEM_dopost
00049b94                _TSK_setup
00049c46                _KNL_check
00049c7f                _KNL_idle
00049c96                _KNL_max
00049cac                _KNL_ipost
00049d08                _LCK_post
00049d28                _LCK_pend
00049d60                LOG_F_event
00049d60                _LOG_event
00049daa                _SEM_pend
00049df2                _SEM_post
00049df2                _SEM_postBinary
00049e3a                STS_F_delta
00049e3a                _STS_delta
00049e5c                STS_F_add
00049e5c                _STS_add
00049e74                STS_F_reset
00049e74                _STS_reset
00049e84                _SYS_exit
00049ecc                _KNL_enter
00049ee4                _KNL_exit
00049f04                _MEM_valloc
00049f3c                SYS_PUTCFXN
00049f3c                _UTL_doPutc
00049f71                CLK_F_itime
00049f71                _CLK_itime
00049fa8                _KNL_post
00049fdc                CLK_HOOKFXN
00049fdc                CLK_TIMER0FUNC
00049fdc                CLK_TIMER2FUNC
00049fdc                FXN_F_nop
00049fde                FXN_F_run
00049ffb                CLK_F_gethtime
00049ffb                CLK_TIMEFXN
00049ffb                FXN_F_zero
00049fff                FXN_F_selfLoop
0004a004                SYS_ABORTFXN
0004a004                _UTL_doAbort
0004a028                SYS_ERRORFXN
0004a028                _UTL_doError
0004a048                _SEM_postEnterKnl
0004a068                _HWI_disable
0004a078                _HWI_enable
0004a07c                _HWI_restore
0004a084                _SYS_abort
0004a09c                _SYS_error
0004a0b2                IDL_F_loop
0004a0b2                _IDL_loop
0004a0be                _SWI_inc
0004a0ca                _SWI_disable
0004a0d4                SYS_EXITFXN
0004a0d4                _UTL_halt
0004a0dc                _SWI_getmbox
0004a0e3                _GBL_getVersion
0004a0ec                _CLK_wdogdisable
0004a0f0                GBL_BIOS_BOOTFXN
0004a0f0                GBL_USERINITFXN
0004a0f0                GIO_CREATEFXN
0004a0f0                GIO_DELETEFXN
0004a0f0                GIO_PENDFXN
0004a0f0                GIO_POSTFXN
0004a0f0                PWRM_PWRM_BOOTHOOKFXN
0004a0f0                TSK_VCREATEFXN
0004a0f0                TSK_VDELETEFXN
0004a0f0                TSK_VEXITFXN
0004a0f0                _FXN_F_nop
            0002507a    ___cinit__
            0002507a    cinit
            000258e1    _gMixture
            00025b44    _HST_HOST_CHANNEL_DRIVER
            00025b4c    KNL_swi$sts$maxfmt
            00025b54    KNL_swi$sts$sumfmt
            00025b5c    KNL_swi$sts$avgfmt
            00025b66    SWI_AudioDataCollection$sts$maxfmt
            00025b6e    SWI_AudioDataCollection$sts$sumfmt
            00025b76    SWI_AudioDataCollection$sts$avgfmt
            00025b80    SWI_AudioDataProcess$sts$maxfmt
            00025b88    SWI_AudioDataProcess$sts$sumfmt
            00025b90    SWI_AudioDataProcess$sts$avgfmt
            00025b9a    SWI_AudioMicDataCollection$sts$maxfmt
            00025ba2    SWI_AudioMicDataCollection$sts$sumfmt
            00025baa    SWI_AudioMicDataCollection$sts$avgfmt
            00025bb4    SWI_LcdDisplay$sts$maxfmt
            00025bbc    SWI_LcdDisplay$sts$sumfmt
            00025bc4    SWI_LcdDisplay$sts$avgfmt
            00025bce    SWI_Recognizer$sts$maxfmt
            00025bd6    SWI_Recognizer$sts$sumfmt
            00025bde    SWI_Recognizer$sts$avgfmt
            00025be8    SWI_SysInit$sts$maxfmt
            00025bf0    SWI_SysInit$sts$sumfmt
            00025bf8    SWI_SysInit$sts$avgfmt
            00025c02    SWI_SysState$sts$maxfmt
            00025c0a    SWI_SysState$sts$sumfmt
            00025c12    SWI_SysState$sts$avgfmt
            00025c1c    SWI_UserInput$sts$maxfmt
            00025c24    SWI_UserInput$sts$sumfmt
            00025c2c    SWI_UserInput$sts$avgfmt
            00025c36    SWI_readAudioData$sts$maxfmt
            00025c3e    SWI_readAudioData$sts$sumfmt
            00025c46    SWI_readAudioData$sts$avgfmt
            00025c50    SWI_readSPIData$sts$maxfmt
            00025c58    SWI_readSPIData$sts$sumfmt
            00025c60    SWI_readSPIData$sts$avgfmt
            00025c6a    SWI_sendSPIData$sts$maxfmt
            00025c72    SWI_sendSPIData$sts$sumfmt
            00025c7a    SWI_sendSPIData$sts$avgfmt
            00025c84    SWI_updateBleFW$sts$maxfmt
            00025c8c    SWI_updateBleFW$sts$sumfmt
            00025c94    SWI_updateBleFW$sts$avgfmt
            00025c9e    SWI_updateDisplay$sts$maxfmt
            00025ca6    SWI_updateDisplay$sts$sumfmt
            00025cae    SWI_updateDisplay$sts$avgfmt
0004b970                BIOS_init
0004b970                _BIOS_init
0004b9fa                BIOS_start
0004b9fa                _BIOS_start
0004ba28                _MEM_init
0004bacc                _TSK_init
0004bb56                _auto_init
0004bbc7                _c_int00
0004bc38                _OBJ_init
            00025e1e    _gTran
            00025f49    _gConfig
            00025f4c    __CIOBUF_
            0002606c    _gGconst
            00026110    _gHmm
            000261a1    _gDim
            00026214    _gPdf
            00026270    _gNet
            000262c4    _gWord
00f80000                GBL_CACHEICRTAG1
00f81000                GBL_CACHEICRTAG2
            007f0000    _CharGen_6x8
ffffffff                Char_ROM
ffffffff                DARAM
ffffffff                HST_DSMBUFSEG
ffffffff                NAND
ffffffff                NOR
ffffffff                RTDX_DATAMEMSEG
ffffffff                SARAM31
ffffffff                SRAM
ffffffff                VECT
ffffffff                _Char_ROM
ffffffff                _DARAM
ffffffff                _NAND
ffffffff                _NOR
ffffffff                _SARAM31
ffffffff                _SRAM
ffffffff                _VECT
ffffffff                ___binit__
ffffffff                ___c_args__
ffffffff                ___pinit__
ffffffff                binit
ffffffff                pinit

[1827 symbols]
